; ModuleID = 'test10.cc'
source_filename = "test10.cc"
target datalayout = "e-m:e-i64:64-f80:128-n8:16:32:64-S128"
target triple = "x86_64-pc-linux-gnu"

%class.test10 = type <{ %class.Element.base, i8, i8, i16, i8, i8, i16, i16, [2 x i8], i32, i16, i8, i8, i16, i8, i8, i32, i16, [6 x i8] }>
%class.Element.base = type <{ i32 (...)**, [2 x %"class.Element::Port"*], [4 x %"class.Element::Port"], [2 x i32], %class.Router*, i32 }>
%"class.Element::Port" = type <{ %class.Element*, i32, [4 x i8] }>
%class.Element = type <{ i32 (...)**, [2 x %"class.Element::Port"*], [4 x %"class.Element::Port"], [2 x i32], %class.Router*, i32, [4 x i8] }>
%class.Router = type opaque
%class.Vector = type { %class.vector_memory }
%class.vector_memory = type { %class.String*, i32, i32 }
%class.String = type { %"struct.String::rep_t" }
%"struct.String::rep_t" = type { i8*, i32, %"struct.String::memo_t"* }
%"struct.String::memo_t" = type { i32, i32, i32, [8 x i8] }
%class.ErrorHandler = type opaque
%class.Args = type { %class.ArgContext.base, i8, i8, i8, %class.Vector*, %class.Vector.0, %"struct.Args::Slot"*, [48 x i8] }
%class.ArgContext.base = type <{ %class.Element*, %class.ErrorHandler*, i8*, i8 }>
%class.Vector.0 = type { %class.vector_memory.1 }
%class.vector_memory.1 = type { %struct.char_array*, i32, i32 }
%struct.char_array = type opaque
%"struct.Args::Slot" = type { i32 (...)**, %"struct.Args::Slot"* }
%class.Packet = type { %class.atomic_uint32_t, %class.Packet*, i8*, i8*, i8*, i8*, %"struct.Packet::AllAnno", void (i8*, i64, i8*)*, i8* }
%class.atomic_uint32_t = type { i32 }
%"struct.Packet::AllAnno" = type { %"union.Packet::Anno", i8*, i8*, i8*, i32, [8 x i8], %class.Packet*, %class.Packet* }
%"union.Packet::Anno" = type { [6 x i64] }
%class.WritablePacket = type { %class.Packet }
%struct.click_ip = type { i8, i8, i16, i16, i16, i8, i8, i16, %struct.in_addr, %struct.in_addr }
%struct.in_addr = type { i32 }
%struct.click_tcp = type { i16, i16, i32, i32, i8, i8, i16, i16, i16 }
%struct.click_udp = type { i16, i16, i16, i16 }
%class.Task = type opaque
%class.Timer = type opaque
%struct.DefaultArg = type { i8 }
%class.ArgContext = type <{ %class.Element*, %class.ErrorHandler*, i8*, i8, [7 x i8] }>

$_ZN4Args4readIbEERS_PKcRT_ = comdat any

$_ZNK6Packet18has_network_headerEv = comdat any

$_ZN6Packet9uniqueifyEv = comdat any

$_ZNK14WritablePacket9ip_headerEv = comdat any

$_ZNK14WritablePacket10tcp_headerEv = comdat any

$_ZNK14WritablePacket10udp_headerEv = comdat any

$_ZN6test1025customized_click_in_cksumEPKhi = comdat any

$_ZNK6Packet16transport_lengthEv = comdat any

$_ZN6test1035customized_click_in_cksum_pseudohdrEjPK8click_ipi = comdat any

$_ZNK6test1010class_nameEv = comdat any

$_ZNK6test1010port_countEv = comdat any

$_ZNK6test1010processingEv = comdat any

$_ZNK6Packet6sharedEv = comdat any

$_ZNK15atomic_uint32_tcvjEv = comdat any

$_ZNK15atomic_uint32_t5valueEv = comdat any

$_ZNK6Packet9ip_headerEv = comdat any

$_ZNK6Packet14network_headerEv = comdat any

$_ZNK6Packet10tcp_headerEv = comdat any

$_ZNK6Packet16transport_headerEv = comdat any

$_ZNK6Packet10udp_headerEv = comdat any

$_ZNK6Packet8end_dataEv = comdat any

$_ZN4Args4readIbEERS_PKciRT_ = comdat any

$_Z14args_base_readIbEvP4ArgsPKciRT_ = comdat any

$_ZN4Args9base_readIbEEvPKciRT_ = comdat any

$_ZNK6StringcvMS_KFivEEv = comdat any

$_ZN17Args_parse_helperI10DefaultArgIbELb0EE4slotIb4ArgsEEPT_RS5_RT0_ = comdat any

$_ZN17Args_parse_helperI10DefaultArgIbELb0EE5parseIb4ArgsEEbS1_RK6StringRT_RT0_ = comdat any

$_ZN6StringD2Ev = comdat any

$_ZNK6String6lengthEv = comdat any

$_ZN4Args4slotIbEEPT_RS1_ = comdat any

$_ZNK6String5derefEv = comdat any

$__clang_call_terminate = comdat any

$_ZN15atomic_uint32_t12dec_and_testERVj = comdat any

@_ZTV6test10 = unnamed_addr constant { [29 x i8*] } { [29 x i8*] [i8* null, i8* bitcast ({ i8*, i8*, i8* }* @_ZTI6test10 to i8*), i8* bitcast (void (%class.test10*)* @_ZN6test10D1Ev to i8*), i8* bitcast (void (%class.test10*)* @_ZN6test10D0Ev to i8*), i8* bitcast (void (%class.Element*, i32, %class.Packet*)* @_ZN7Element4pushEiP6Packet to i8*), i8* bitcast (%class.Packet* (%class.Element*, i32)* @_ZN7Element4pullEi to i8*), i8* bitcast (%class.Packet* (%class.test10*, %class.Packet*)* @_ZN6test1013simple_actionEP6Packet to i8*), i8* bitcast (i1 (%class.Element*, %class.Task*)* @_ZN7Element8run_taskEP4Task to i8*), i8* bitcast (void (%class.Element*, %class.Timer*)* @_ZN7Element9run_timerEP5Timer to i8*), i8* bitcast (void (%class.Element*, i32, i32)* @_ZN7Element8selectedEii to i8*), i8* bitcast (void (%class.Element*, i32)* @_ZN7Element8selectedEi to i8*), i8* bitcast (i8* (%class.test10*)* @_ZNK6test1010class_nameEv to i8*), i8* bitcast (i8* (%class.test10*)* @_ZNK6test1010port_countEv to i8*), i8* bitcast (i8* (%class.test10*)* @_ZNK6test1010processingEv to i8*), i8* bitcast (i8* (%class.Element*)* @_ZNK7Element9flow_codeEv to i8*), i8* bitcast (i8* (%class.Element*)* @_ZNK7Element5flagsEv to i8*), i8* bitcast (i8* (%class.Element*, i8*)* @_ZN7Element4castEPKc to i8*), i8* bitcast (i8* (%class.Element*, i1, i32, i8*)* @_ZN7Element9port_castEbiPKc to i8*), i8* bitcast (i32 (%class.Element*)* @_ZNK7Element15configure_phaseEv to i8*), i8* bitcast (i32 (%class.test10*, %class.Vector*, %class.ErrorHandler*)* @_ZN6test109configureER6VectorI6StringEP12ErrorHandler to i8*), i8* bitcast (void (%class.test10*)* @_ZN6test1012add_handlersEv to i8*), i8* bitcast (i32 (%class.Element*, %class.ErrorHandler*)* @_ZN7Element10initializeEP12ErrorHandler to i8*), i8* bitcast (void (%class.Element*, %class.Element*, %class.ErrorHandler*)* @_ZN7Element10take_stateEPS_P12ErrorHandler to i8*), i8* bitcast (%class.Element* (%class.Element*)* @_ZNK7Element15hotswap_elementEv to i8*), i8* bitcast (void (%class.Element*, i32)* @_ZN7Element7cleanupENS_12CleanupStageE to i8*), i8* bitcast (void (%class.String*, %class.Element*)* @_ZNK7Element11declarationEv to i8*), i8* bitcast (i1 (%class.Element*)* @_ZNK7Element20can_live_reconfigureEv to i8*), i8* bitcast (i32 (%class.Element*, %class.Vector*, %class.ErrorHandler*)* @_ZN7Element16live_reconfigureER6VectorI6StringEP12ErrorHandler to i8*), i8* bitcast (i32 (%class.Element*, i32, i8*)* @_ZN7Element5llrpcEjPv to i8*)] }, align 8
@.str = private unnamed_addr constant [7 x i8] c"ACTIVE\00", align 1
@.str.1 = private unnamed_addr constant [24 x i8] c"p->has_network_header()\00", align 1
@.str.2 = private unnamed_addr constant [10 x i8] c"test10.cc\00", align 1
@__PRETTY_FUNCTION__._ZN6test1013simple_actionEP6Packet = private unnamed_addr constant [48 x i8] c"virtual Packet *test10::simple_action(Packet *)\00", align 1
@.str.3 = private unnamed_addr constant [7 x i8] c"active\00", align 1
@_ZTVN10__cxxabiv120__si_class_type_infoE = external global i8*
@_ZTS6test10 = constant [8 x i8] c"6test10\00"
@_ZTI7Element = external constant i8*
@_ZTI6test10 = constant { i8*, i8*, i8* } { i8* bitcast (i8** getelementptr inbounds (i8*, i8** @_ZTVN10__cxxabiv120__si_class_type_infoE, i64 2) to i8*), i8* getelementptr inbounds ([8 x i8], [8 x i8]* @_ZTS6test10, i32 0, i32 0), i8* bitcast (i8** @_ZTI7Element to i8*) }
@.str.4 = private unnamed_addr constant [7 x i8] c"test10\00", align 1
@_ZN7Element11PORTS_1_1X2E = external constant [0 x i8], align 1
@_ZN7Element15PROCESSING_A_AHE = external constant [0 x i8], align 1
@.str.5 = private unnamed_addr constant [18 x i8] c"_r.memo->refcount\00", align 1
@.str.6 = private unnamed_addr constant [35 x i8] c"/usr/local/include/click/string.hh\00", align 1
@__PRETTY_FUNCTION__._ZNK6String5derefEv = private unnamed_addr constant [27 x i8] c"void String::deref() const\00", align 1

@_ZN6test10C1Ev = alias void (%class.test10*), void (%class.test10*)* @_ZN6test10C2Ev
@_ZN6test10D1Ev = alias void (%class.test10*), void (%class.test10*)* @_ZN6test10D2Ev

; Function Attrs: noinline uwtable
define void @_ZN6test10C2Ev(%class.test10*) unnamed_addr #0 align 2 !dbg !2402 {
  %2 = alloca %class.test10*, align 8
  store %class.test10* %0, %class.test10** %2, align 8
  call void @llvm.dbg.declare(metadata %class.test10** %2, metadata !2640, metadata !DIExpression()), !dbg !2642
  %3 = load %class.test10*, %class.test10** %2, align 8
  %4 = bitcast %class.test10* %3 to %class.Element*, !dbg !2643
  call void @_ZN7ElementC2Ev(%class.Element* %4), !dbg !2644
  %5 = bitcast %class.test10* %3 to i32 (...)***, !dbg !2643
  store i32 (...)** bitcast (i8** getelementptr inbounds ({ [29 x i8*] }, { [29 x i8*] }* @_ZTV6test10, i32 0, inrange i32 0, i32 2) to i32 (...)**), i32 (...)*** %5, align 8, !dbg !2643
  %6 = getelementptr inbounds %class.test10, %class.test10* %3, i32 0, i32 1, !dbg !2645
  store i8 1, i8* %6, align 4, !dbg !2645
  %7 = getelementptr inbounds %class.test10, %class.test10* %3, i32 0, i32 3, !dbg !2646
  store i16 19375, i16* %7, align 2, !dbg !2646
  %8 = getelementptr inbounds %class.test10, %class.test10* %3, i32 0, i32 4, !dbg !2648
  store i8 -98, i8* %8, align 8, !dbg !2648
  %9 = getelementptr inbounds %class.test10, %class.test10* %3, i32 0, i32 6, !dbg !2649
  store i16 -1730, i16* %9, align 2, !dbg !2649
  %10 = getelementptr inbounds %class.test10, %class.test10* %3, i32 0, i32 7, !dbg !2650
  store i16 16998, i16* %10, align 4, !dbg !2650
  %11 = getelementptr inbounds %class.test10, %class.test10* %3, i32 0, i32 9, !dbg !2651
  store i32 387091800, i32* %11, align 8, !dbg !2651
  %12 = getelementptr inbounds %class.test10, %class.test10* %3, i32 0, i32 10, !dbg !2652
  store i16 -14973, i16* %12, align 4, !dbg !2652
  %13 = getelementptr inbounds %class.test10, %class.test10* %3, i32 0, i32 11, !dbg !2653
  store i8 36, i8* %13, align 2, !dbg !2653
  %14 = getelementptr inbounds %class.test10, %class.test10* %3, i32 0, i32 13, !dbg !2654
  store i16 -8864, i16* %14, align 8, !dbg !2654
  %15 = getelementptr inbounds %class.test10, %class.test10* %3, i32 0, i32 14, !dbg !2655
  store i8 -5, i8* %15, align 2, !dbg !2655
  %16 = getelementptr inbounds %class.test10, %class.test10* %3, i32 0, i32 15, !dbg !2656
  store i8 86, i8* %16, align 1, !dbg !2656
  %17 = getelementptr inbounds %class.test10, %class.test10* %3, i32 0, i32 16, !dbg !2657
  store i32 1852183083, i32* %17, align 4, !dbg !2657
  %18 = getelementptr inbounds %class.test10, %class.test10* %3, i32 0, i32 17, !dbg !2658
  store i16 3241, i16* %18, align 8, !dbg !2658
  ret void, !dbg !2659
}

; Function Attrs: nounwind readnone speculatable
declare void @llvm.dbg.declare(metadata, metadata, metadata) #1

declare void @_ZN7ElementC2Ev(%class.Element*) unnamed_addr #2

; Function Attrs: noinline nounwind uwtable
define void @_ZN6test10D2Ev(%class.test10*) unnamed_addr #3 align 2 !dbg !2661 {
  %2 = alloca %class.test10*, align 8
  store %class.test10* %0, %class.test10** %2, align 8
  call void @llvm.dbg.declare(metadata %class.test10** %2, metadata !2662, metadata !DIExpression()), !dbg !2663
  %3 = load %class.test10*, %class.test10** %2, align 8
  %4 = bitcast %class.test10* %3 to %class.Element*, !dbg !2664
  call void @_ZN7ElementD2Ev(%class.Element* %4) #9, !dbg !2664
  ret void, !dbg !2666
}

; Function Attrs: nounwind
declare void @_ZN7ElementD2Ev(%class.Element*) unnamed_addr #4

; Function Attrs: noinline nounwind uwtable
define void @_ZN6test10D0Ev(%class.test10*) unnamed_addr #3 align 2 !dbg !2667 {
  %2 = alloca %class.test10*, align 8
  store %class.test10* %0, %class.test10** %2, align 8
  call void @llvm.dbg.declare(metadata %class.test10** %2, metadata !2668, metadata !DIExpression()), !dbg !2669
  %3 = load %class.test10*, %class.test10** %2, align 8
  call void @_ZN6test10D1Ev(%class.test10* %3) #9, !dbg !2670
  %4 = bitcast %class.test10* %3 to i8*, !dbg !2670
  call void @_ZdlPv(i8* %4) #10, !dbg !2670
  ret void, !dbg !2671
}

; Function Attrs: nobuiltin nounwind
declare void @_ZdlPv(i8*) #5

; Function Attrs: noinline uwtable
define i32 @_ZN6test109configureER6VectorI6StringEP12ErrorHandler(%class.test10*, %class.Vector* dereferenceable(16), %class.ErrorHandler*) unnamed_addr #0 align 2 personality i8* bitcast (i32 (...)* @__gxx_personality_v0 to i8*) !dbg !2672 {
  %4 = alloca %class.test10*, align 8
  %5 = alloca %class.Vector*, align 8
  %6 = alloca %class.ErrorHandler*, align 8
  %7 = alloca %class.Args, align 8
  %8 = alloca i8*
  %9 = alloca i32
  store %class.test10* %0, %class.test10** %4, align 8
  call void @llvm.dbg.declare(metadata %class.test10** %4, metadata !2673, metadata !DIExpression()), !dbg !2674
  store %class.Vector* %1, %class.Vector** %5, align 8
  call void @llvm.dbg.declare(metadata %class.Vector** %5, metadata !2675, metadata !DIExpression()), !dbg !2676
  store %class.ErrorHandler* %2, %class.ErrorHandler** %6, align 8
  call void @llvm.dbg.declare(metadata %class.ErrorHandler** %6, metadata !2677, metadata !DIExpression()), !dbg !2678
  %10 = load %class.test10*, %class.test10** %4, align 8
  %11 = load %class.Vector*, %class.Vector** %5, align 8, !dbg !2679
  %12 = bitcast %class.test10* %10 to %class.Element*, !dbg !2680
  %13 = load %class.ErrorHandler*, %class.ErrorHandler** %6, align 8, !dbg !2681
  call void @_ZN4ArgsC1ERK6VectorI6StringEPK7ElementP12ErrorHandler(%class.Args* %7, %class.Vector* dereferenceable(16) %11, %class.Element* %12, %class.ErrorHandler* %13), !dbg !2682
  %14 = getelementptr inbounds %class.test10, %class.test10* %10, i32 0, i32 1, !dbg !2683
  %15 = invoke dereferenceable(112) %class.Args* @_ZN4Args4readIbEERS_PKcRT_(%class.Args* %7, i8* getelementptr inbounds ([7 x i8], [7 x i8]* @.str, i32 0, i32 0), i8* dereferenceable(1) %14)
          to label %16 unwind label %19, !dbg !2684

; <label>:16:                                     ; preds = %3
  %17 = invoke i32 @_ZN4Args8completeEv(%class.Args* %15)
          to label %18 unwind label %19, !dbg !2685

; <label>:18:                                     ; preds = %16
  call void @_ZN4ArgsD1Ev(%class.Args* %7) #9, !dbg !2686
  ret i32 %17, !dbg !2686

; <label>:19:                                     ; preds = %16, %3
  %20 = landingpad { i8*, i32 }
          cleanup, !dbg !2687
  %21 = extractvalue { i8*, i32 } %20, 0, !dbg !2687
  store i8* %21, i8** %8, align 8, !dbg !2687
  %22 = extractvalue { i8*, i32 } %20, 1, !dbg !2687
  store i32 %22, i32* %9, align 4, !dbg !2687
  call void @_ZN4ArgsD1Ev(%class.Args* %7) #9, !dbg !2686
  br label %23, !dbg !2686

; <label>:23:                                     ; preds = %19
  %24 = load i8*, i8** %8, align 8, !dbg !2686
  %25 = load i32, i32* %9, align 4, !dbg !2686
  %26 = insertvalue { i8*, i32 } undef, i8* %24, 0, !dbg !2686
  %27 = insertvalue { i8*, i32 } %26, i32 %25, 1, !dbg !2686
  resume { i8*, i32 } %27, !dbg !2686
}

declare void @_ZN4ArgsC1ERK6VectorI6StringEPK7ElementP12ErrorHandler(%class.Args*, %class.Vector* dereferenceable(16), %class.Element*, %class.ErrorHandler*) unnamed_addr #2

; Function Attrs: noinline uwtable
define linkonce_odr dereferenceable(112) %class.Args* @_ZN4Args4readIbEERS_PKcRT_(%class.Args*, i8*, i8* dereferenceable(1)) #0 comdat align 2 !dbg !2688 {
  %4 = alloca %class.Args*, align 8
  %5 = alloca i8*, align 8
  %6 = alloca i8*, align 8
  store %class.Args* %0, %class.Args** %4, align 8
  call void @llvm.dbg.declare(metadata %class.Args** %4, metadata !3021, metadata !DIExpression()), !dbg !3023
  store i8* %1, i8** %5, align 8
  call void @llvm.dbg.declare(metadata i8** %5, metadata !3024, metadata !DIExpression()), !dbg !3025
  store i8* %2, i8** %6, align 8
  call void @llvm.dbg.declare(metadata i8** %6, metadata !3026, metadata !DIExpression()), !dbg !3027
  %7 = load %class.Args*, %class.Args** %4, align 8
  %8 = load i8*, i8** %5, align 8, !dbg !3028
  %9 = load i8*, i8** %6, align 8, !dbg !3029
  %10 = call dereferenceable(112) %class.Args* @_ZN4Args4readIbEERS_PKciRT_(%class.Args* %7, i8* %8, i32 0, i8* dereferenceable(1) %9), !dbg !3030
  ret %class.Args* %10, !dbg !3031
}

declare i32 @__gxx_personality_v0(...)

declare i32 @_ZN4Args8completeEv(%class.Args*) #2

; Function Attrs: nounwind
declare void @_ZN4ArgsD1Ev(%class.Args*) unnamed_addr #4

; Function Attrs: noinline uwtable
define %class.Packet* @_ZN6test1013simple_actionEP6Packet(%class.test10*, %class.Packet*) unnamed_addr #0 align 2 !dbg !3032 {
  %3 = alloca %class.Packet*, align 8
  %4 = alloca %class.test10*, align 8
  %5 = alloca %class.Packet*, align 8
  %6 = alloca %class.WritablePacket*, align 8
  %7 = alloca i32, align 4
  %8 = alloca i32, align 4
  %9 = alloca i32, align 4
  %10 = alloca i32, align 4
  %11 = alloca %struct.click_ip*, align 8
  %12 = alloca %struct.click_tcp*, align 8
  %13 = alloca %struct.click_udp*, align 8
  %14 = alloca i32, align 4
  %15 = alloca i32, align 4
  %16 = alloca i32, align 4
  %17 = alloca i32, align 4
  store %class.test10* %0, %class.test10** %4, align 8
  call void @llvm.dbg.declare(metadata %class.test10** %4, metadata !3033, metadata !DIExpression()), !dbg !3034
  store %class.Packet* %1, %class.Packet** %5, align 8
  call void @llvm.dbg.declare(metadata %class.Packet** %5, metadata !3035, metadata !DIExpression()), !dbg !3036
  %18 = load %class.test10*, %class.test10** %4, align 8
  %19 = load %class.Packet*, %class.Packet** %5, align 8, !dbg !3037
  %20 = call zeroext i1 @_ZNK6Packet18has_network_headerEv(%class.Packet* %19), !dbg !3037
  br i1 %20, label %21, label %22, !dbg !3037

; <label>:21:                                     ; preds = %2
  br label %24, !dbg !3037

; <label>:22:                                     ; preds = %2
  call void @__assert_fail(i8* getelementptr inbounds ([24 x i8], [24 x i8]* @.str.1, i32 0, i32 0), i8* getelementptr inbounds ([10 x i8], [10 x i8]* @.str.2, i32 0, i32 0), i32 38, i8* getelementptr inbounds ([48 x i8], [48 x i8]* @__PRETTY_FUNCTION__._ZN6test1013simple_actionEP6Packet, i32 0, i32 0)) #7, !dbg !3037
  unreachable, !dbg !3037
                                                  ; No predecessors!
  br label %24, !dbg !3037

; <label>:24:                                     ; preds = %23, %21
  %25 = getelementptr inbounds %class.test10, %class.test10* %18, i32 0, i32 1, !dbg !3038
  %26 = load i8, i8* %25, align 4, !dbg !3038
  %27 = trunc i8 %26 to i1, !dbg !3038
  br i1 %27, label %30, label %28, !dbg !3040

; <label>:28:                                     ; preds = %24
  %29 = load %class.Packet*, %class.Packet** %5, align 8, !dbg !3041
  store %class.Packet* %29, %class.Packet** %3, align 8, !dbg !3043
  br label %380, !dbg !3043

; <label>:30:                                     ; preds = %24
  call void @llvm.dbg.declare(metadata %class.WritablePacket** %6, metadata !3044, metadata !DIExpression()), !dbg !3045
  %31 = load %class.Packet*, %class.Packet** %5, align 8, !dbg !3046
  %32 = call %class.WritablePacket* @_ZN6Packet9uniqueifyEv(%class.Packet* %31), !dbg !3047
  store %class.WritablePacket* %32, %class.WritablePacket** %6, align 8, !dbg !3045
  %33 = load %class.WritablePacket*, %class.WritablePacket** %6, align 8, !dbg !3048
  %34 = icmp ne %class.WritablePacket* %33, null, !dbg !3048
  br i1 %34, label %36, label %35, !dbg !3050

; <label>:35:                                     ; preds = %30
  store %class.Packet* null, %class.Packet** %3, align 8, !dbg !3051
  br label %380, !dbg !3051

; <label>:36:                                     ; preds = %30
  call void @llvm.dbg.declare(metadata i32* %7, metadata !3053, metadata !DIExpression()), !dbg !3055
  store i32 1436664606, i32* %7, align 4, !dbg !3055
  call void @llvm.dbg.declare(metadata i32* %8, metadata !3056, metadata !DIExpression()), !dbg !3058
  store i32 1643309159, i32* %8, align 4, !dbg !3058
  call void @llvm.dbg.declare(metadata i32* %9, metadata !3059, metadata !DIExpression()), !dbg !3061
  store i32 -138872977, i32* %9, align 4, !dbg !3061
  call void @llvm.dbg.declare(metadata i32* %10, metadata !3062, metadata !DIExpression()), !dbg !3064
  store i32 1575459, i32* %10, align 4, !dbg !3064
  call void @llvm.dbg.declare(metadata %struct.click_ip** %11, metadata !3065, metadata !DIExpression()), !dbg !3066
  %37 = load %class.WritablePacket*, %class.WritablePacket** %6, align 8, !dbg !3067
  %38 = call %struct.click_ip* @_ZNK14WritablePacket9ip_headerEv(%class.WritablePacket* %37), !dbg !3068
  store %struct.click_ip* %38, %struct.click_ip** %11, align 8, !dbg !3066
  call void @llvm.dbg.declare(metadata %struct.click_tcp** %12, metadata !3069, metadata !DIExpression()), !dbg !3070
  call void @llvm.dbg.declare(metadata %struct.click_udp** %13, metadata !3071, metadata !DIExpression()), !dbg !3072
  %39 = load %struct.click_ip*, %struct.click_ip** %11, align 8, !dbg !3073
  %40 = getelementptr inbounds %struct.click_ip, %struct.click_ip* %39, i32 0, i32 6, !dbg !3075
  %41 = load i8, i8* %40, align 1, !dbg !3075
  %42 = zext i8 %41 to i32, !dbg !3073
  %43 = icmp eq i32 %42, 6, !dbg !3076
  br i1 %43, label %44, label %47, !dbg !3077

; <label>:44:                                     ; preds = %36
  %45 = load %class.WritablePacket*, %class.WritablePacket** %6, align 8, !dbg !3078
  %46 = call %struct.click_tcp* @_ZNK14WritablePacket10tcp_headerEv(%class.WritablePacket* %45), !dbg !3080
  store %struct.click_tcp* %46, %struct.click_tcp** %12, align 8, !dbg !3081
  br label %50, !dbg !3082

; <label>:47:                                     ; preds = %36
  %48 = load %class.WritablePacket*, %class.WritablePacket** %6, align 8, !dbg !3083
  %49 = call %struct.click_udp* @_ZNK14WritablePacket10udp_headerEv(%class.WritablePacket* %48), !dbg !3085
  store %struct.click_udp* %49, %struct.click_udp** %13, align 8, !dbg !3086
  br label %50

; <label>:50:                                     ; preds = %47, %44
  %51 = load %struct.click_ip*, %struct.click_ip** %11, align 8, !dbg !3087
  %52 = getelementptr inbounds %struct.click_ip, %struct.click_ip* %51, i32 0, i32 9, !dbg !3088
  %53 = getelementptr inbounds %struct.in_addr, %struct.in_addr* %52, i32 0, i32 0, !dbg !3089
  store i32 -1603474916, i32* %53, align 4, !dbg !3090
  %54 = getelementptr inbounds %class.test10, %class.test10* %18, i32 0, i32 3, !dbg !3091
  %55 = load i16, i16* %54, align 2, !dbg !3091
  %56 = zext i16 %55 to i32, !dbg !3091
  %57 = icmp ne i32 %56, 129, !dbg !3093
  br i1 %57, label %58, label %82, !dbg !3094

; <label>:58:                                     ; preds = %50
  %59 = load i32, i32* %8, align 4, !dbg !3095
  %60 = trunc i32 %59 to i16, !dbg !3095
  %61 = load %struct.click_ip*, %struct.click_ip** %11, align 8, !dbg !3097
  %62 = getelementptr inbounds %struct.click_ip, %struct.click_ip* %61, i32 0, i32 3, !dbg !3098
  store i16 %60, i16* %62, align 4, !dbg !3099
  %63 = getelementptr inbounds %class.test10, %class.test10* %18, i32 0, i32 17, !dbg !3100
  %64 = load i16, i16* %63, align 8, !dbg !3100
  %65 = zext i16 %64 to i32, !dbg !3100
  %66 = icmp slt i32 %65, 110, !dbg !3102
  br i1 %66, label %67, label %70, !dbg !3103

; <label>:67:                                     ; preds = %58
  %68 = load %struct.click_ip*, %struct.click_ip** %11, align 8, !dbg !3104
  %69 = getelementptr inbounds %struct.click_ip, %struct.click_ip* %68, i32 0, i32 5, !dbg !3106
  store i8 111, i8* %69, align 4, !dbg !3107
  br label %70, !dbg !3108

; <label>:70:                                     ; preds = %67, %58
  %71 = getelementptr inbounds %class.test10, %class.test10* %18, i32 0, i32 10, !dbg !3109
  %72 = load i16, i16* %71, align 4, !dbg !3109
  %73 = zext i16 %72 to i32, !dbg !3109
  %74 = getelementptr inbounds %class.test10, %class.test10* %18, i32 0, i32 16, !dbg !3111
  %75 = load i32, i32* %74, align 4, !dbg !3111
  %76 = icmp ult i32 %73, %75, !dbg !3112
  br i1 %76, label %77, label %81, !dbg !3113

; <label>:77:                                     ; preds = %70
  %78 = getelementptr inbounds %class.test10, %class.test10* %18, i32 0, i32 17, !dbg !3114
  %79 = load i16, i16* %78, align 8, !dbg !3114
  %80 = getelementptr inbounds %class.test10, %class.test10* %18, i32 0, i32 13, !dbg !3116
  store i16 %79, i16* %80, align 8, !dbg !3117
  br label %81, !dbg !3118

; <label>:81:                                     ; preds = %77, %70
  br label %137, !dbg !3119

; <label>:82:                                     ; preds = %50
  %83 = getelementptr inbounds %class.test10, %class.test10* %18, i32 0, i32 16, !dbg !3120
  %84 = load i32, i32* %83, align 4, !dbg !3120
  %85 = getelementptr inbounds %class.test10, %class.test10* %18, i32 0, i32 13, !dbg !3123
  %86 = load i16, i16* %85, align 8, !dbg !3123
  %87 = zext i16 %86 to i32, !dbg !3123
  %88 = icmp ult i32 %84, %87, !dbg !3124
  br i1 %88, label %89, label %99, !dbg !3125

; <label>:89:                                     ; preds = %82
  %90 = load %struct.click_ip*, %struct.click_ip** %11, align 8, !dbg !3126
  %91 = getelementptr inbounds %struct.click_ip, %struct.click_ip* %90, i32 0, i32 9, !dbg !3128
  %92 = getelementptr inbounds %struct.in_addr, %struct.in_addr* %91, i32 0, i32 0, !dbg !3129
  store i32 -1099010220, i32* %92, align 4, !dbg !3130
  %93 = load i32, i32* %9, align 4, !dbg !3131
  %94 = trunc i32 %93 to i8, !dbg !3131
  %95 = load %struct.click_ip*, %struct.click_ip** %11, align 8, !dbg !3132
  %96 = getelementptr inbounds %struct.click_ip, %struct.click_ip* %95, i32 0, i32 5, !dbg !3133
  store i8 %94, i8* %96, align 4, !dbg !3134
  %97 = load %struct.click_ip*, %struct.click_ip** %11, align 8, !dbg !3135
  %98 = getelementptr inbounds %struct.click_ip, %struct.click_ip* %97, i32 0, i32 6, !dbg !3136
  store i8 38, i8* %98, align 1, !dbg !3137
  br label %99, !dbg !3138

; <label>:99:                                     ; preds = %89, %82
  call void @llvm.dbg.declare(metadata i32* %14, metadata !3139, metadata !DIExpression()), !dbg !3141
  store i32 1, i32* %14, align 4, !dbg !3141
  br label %100, !dbg !3142

; <label>:100:                                    ; preds = %133, %99
  %101 = load i32, i32* %14, align 4, !dbg !3143
  %102 = icmp ult i32 %101, 11, !dbg !3146
  br i1 %102, label %103, label %136, !dbg !3147

; <label>:103:                                    ; preds = %100
  %104 = load %struct.click_ip*, %struct.click_ip** %11, align 8, !dbg !3148
  %105 = getelementptr inbounds %struct.click_ip, %struct.click_ip* %104, i32 0, i32 4, !dbg !3150
  %106 = load i16, i16* %105, align 2, !dbg !3150
  %107 = zext i16 %106 to i32, !dbg !3148
  %108 = add nsw i32 %107, 156, !dbg !3151
  %109 = trunc i32 %108 to i8, !dbg !3152
  %110 = load %struct.click_ip*, %struct.click_ip** %11, align 8, !dbg !3153
  %111 = getelementptr inbounds %struct.click_ip, %struct.click_ip* %110, i32 0, i32 5, !dbg !3154
  store i8 %109, i8* %111, align 4, !dbg !3155
  %112 = getelementptr inbounds %class.test10, %class.test10* %18, i32 0, i32 11, !dbg !3156
  %113 = load i8, i8* %112, align 2, !dbg !3156
  %114 = zext i8 %113 to i32, !dbg !3156
  %115 = icmp sge i32 198, %114, !dbg !3158
  br i1 %115, label %116, label %119, !dbg !3159

; <label>:116:                                    ; preds = %103
  %117 = load %struct.click_udp*, %struct.click_udp** %13, align 8, !dbg !3160
  %118 = getelementptr inbounds %struct.click_udp, %struct.click_udp* %117, i32 0, i32 0, !dbg !3162
  store i16 -3709, i16* %118, align 2, !dbg !3163
  br label %128, !dbg !3164

; <label>:119:                                    ; preds = %103
  %120 = getelementptr inbounds %class.test10, %class.test10* %18, i32 0, i32 9, !dbg !3165
  %121 = load i32, i32* %120, align 8, !dbg !3165
  %122 = getelementptr inbounds %class.test10, %class.test10* %18, i32 0, i32 3, !dbg !3167
  %123 = load i16, i16* %122, align 2, !dbg !3167
  %124 = zext i16 %123 to i32, !dbg !3167
  %125 = add i32 %121, %124, !dbg !3168
  %126 = trunc i32 %125 to i16, !dbg !3169
  %127 = getelementptr inbounds %class.test10, %class.test10* %18, i32 0, i32 17, !dbg !3170
  store i16 %126, i16* %127, align 8, !dbg !3171
  br label %128

; <label>:128:                                    ; preds = %119, %116
  %129 = load i32, i32* %9, align 4, !dbg !3172
  %130 = load %struct.click_ip*, %struct.click_ip** %11, align 8, !dbg !3173
  %131 = getelementptr inbounds %struct.click_ip, %struct.click_ip* %130, i32 0, i32 9, !dbg !3174
  %132 = getelementptr inbounds %struct.in_addr, %struct.in_addr* %131, i32 0, i32 0, !dbg !3175
  store i32 %129, i32* %132, align 4, !dbg !3176
  br label %133, !dbg !3177

; <label>:133:                                    ; preds = %128
  %134 = load i32, i32* %14, align 4, !dbg !3178
  %135 = add i32 %134, 1, !dbg !3178
  store i32 %135, i32* %14, align 4, !dbg !3178
  br label %100, !dbg !3179, !llvm.loop !3180

; <label>:136:                                    ; preds = %100
  br label %137

; <label>:137:                                    ; preds = %136, %81
  %138 = getelementptr inbounds %class.test10, %class.test10* %18, i32 0, i32 15, !dbg !3182
  %139 = load i8, i8* %138, align 1, !dbg !3182
  %140 = zext i8 %139 to i16, !dbg !3182
  %141 = load %struct.click_ip*, %struct.click_ip** %11, align 8, !dbg !3183
  %142 = getelementptr inbounds %struct.click_ip, %struct.click_ip* %141, i32 0, i32 2, !dbg !3184
  store i16 %140, i16* %142, align 2, !dbg !3185
  %143 = getelementptr inbounds %class.test10, %class.test10* %18, i32 0, i32 15, !dbg !3186
  store i8 -62, i8* %143, align 1, !dbg !3187
  %144 = load %struct.click_udp*, %struct.click_udp** %13, align 8, !dbg !3188
  %145 = getelementptr inbounds %struct.click_udp, %struct.click_udp* %144, i32 0, i32 0, !dbg !3190
  %146 = load i16, i16* %145, align 2, !dbg !3190
  %147 = zext i16 %146 to i32, !dbg !3188
  %148 = icmp eq i32 %147, 114, !dbg !3191
  br i1 %148, label %149, label %152, !dbg !3192

; <label>:149:                                    ; preds = %137
  %150 = load %struct.click_tcp*, %struct.click_tcp** %12, align 8, !dbg !3193
  %151 = getelementptr inbounds %struct.click_tcp, %struct.click_tcp* %150, i32 0, i32 3, !dbg !3195
  store i32 2115703885, i32* %151, align 4, !dbg !3196
  br label %152, !dbg !3197

; <label>:152:                                    ; preds = %149, %137
  %153 = getelementptr inbounds %class.test10, %class.test10* %18, i32 0, i32 13, !dbg !3198
  %154 = load i16, i16* %153, align 8, !dbg !3198
  %155 = zext i16 %154 to i32, !dbg !3198
  %156 = icmp eq i32 %155, 242, !dbg !3200
  br i1 %156, label %157, label %234, !dbg !3201

; <label>:157:                                    ; preds = %152
  %158 = load %struct.click_tcp*, %struct.click_tcp** %12, align 8, !dbg !3202
  %159 = getelementptr inbounds %struct.click_tcp, %struct.click_tcp* %158, i32 0, i32 3, !dbg !3204
  store i32 1092450279, i32* %159, align 4, !dbg !3205
  %160 = load %struct.click_tcp*, %struct.click_tcp** %12, align 8, !dbg !3206
  %161 = getelementptr inbounds %struct.click_tcp, %struct.click_tcp* %160, i32 0, i32 3, !dbg !3208
  %162 = load i32, i32* %161, align 4, !dbg !3208
  %163 = icmp ule i32 236, %162, !dbg !3209
  br i1 %163, label %164, label %166, !dbg !3210

; <label>:164:                                    ; preds = %157
  %165 = getelementptr inbounds %class.test10, %class.test10* %18, i32 0, i32 9, !dbg !3211
  store i32 -1272070587, i32* %165, align 8, !dbg !3213
  br label %166, !dbg !3214

; <label>:166:                                    ; preds = %164, %157
  %167 = load %struct.click_tcp*, %struct.click_tcp** %12, align 8, !dbg !3215
  %168 = getelementptr inbounds %struct.click_tcp, %struct.click_tcp* %167, i32 0, i32 3, !dbg !3217
  %169 = load i32, i32* %168, align 4, !dbg !3217
  %170 = icmp eq i32 110, %169, !dbg !3218
  br i1 %170, label %171, label %194, !dbg !3219

; <label>:171:                                    ; preds = %166
  store i32 -1949510135, i32* %8, align 4, !dbg !3220
  %172 = getelementptr inbounds %class.test10, %class.test10* %18, i32 0, i32 10, !dbg !3222
  %173 = load i16, i16* %172, align 4, !dbg !3222
  %174 = trunc i16 %173 to i8, !dbg !3222
  %175 = load %struct.click_ip*, %struct.click_ip** %11, align 8, !dbg !3223
  %176 = getelementptr inbounds %struct.click_ip, %struct.click_ip* %175, i32 0, i32 6, !dbg !3224
  store i8 %174, i8* %176, align 1, !dbg !3225
  %177 = getelementptr inbounds %class.test10, %class.test10* %18, i32 0, i32 10, !dbg !3226
  store i16 -18086, i16* %177, align 4, !dbg !3227
  %178 = getelementptr inbounds %class.test10, %class.test10* %18, i32 0, i32 17, !dbg !3228
  %179 = load i16, i16* %178, align 8, !dbg !3228
  %180 = zext i16 %179 to i32, !dbg !3228
  %181 = getelementptr inbounds %class.test10, %class.test10* %18, i32 0, i32 7, !dbg !3229
  %182 = load i16, i16* %181, align 4, !dbg !3229
  %183 = zext i16 %182 to i32, !dbg !3229
  %184 = sub i32 %183, 16992, !dbg !3230
  %185 = shl i32 %180, %184, !dbg !3231
  %186 = trunc i32 %185 to i8, !dbg !3232
  %187 = getelementptr inbounds %class.test10, %class.test10* %18, i32 0, i32 15, !dbg !3233
  store i8 %186, i8* %187, align 1, !dbg !3234
  %188 = getelementptr inbounds %class.test10, %class.test10* %18, i32 0, i32 6, !dbg !3235
  store i16 -2256, i16* %188, align 2, !dbg !3236
  %189 = getelementptr inbounds %class.test10, %class.test10* %18, i32 0, i32 3, !dbg !3237
  store i16 15053, i16* %189, align 2, !dbg !3238
  %190 = getelementptr inbounds %class.test10, %class.test10* %18, i32 0, i32 17, !dbg !3239
  store i16 26807, i16* %190, align 8, !dbg !3240
  %191 = getelementptr inbounds %class.test10, %class.test10* %18, i32 0, i32 17, !dbg !3241
  %192 = load i16, i16* %191, align 8, !dbg !3241
  %193 = zext i16 %192 to i32, !dbg !3241
  store i32 %193, i32* %9, align 4, !dbg !3242
  br label %194, !dbg !3243

; <label>:194:                                    ; preds = %171, %166
  %195 = load %struct.click_udp*, %struct.click_udp** %13, align 8, !dbg !3244
  %196 = getelementptr inbounds %struct.click_udp, %struct.click_udp* %195, i32 0, i32 0, !dbg !3246
  %197 = load i16, i16* %196, align 2, !dbg !3246
  %198 = zext i16 %197 to i32, !dbg !3244
  %199 = icmp sge i32 %198, 49, !dbg !3247
  br i1 %199, label %200, label %203, !dbg !3248

; <label>:200:                                    ; preds = %194
  %201 = load %struct.click_ip*, %struct.click_ip** %11, align 8, !dbg !3249
  %202 = getelementptr inbounds %struct.click_ip, %struct.click_ip* %201, i32 0, i32 3, !dbg !3251
  store i16 5554, i16* %202, align 4, !dbg !3252
  br label %203, !dbg !3253

; <label>:203:                                    ; preds = %200, %194
  call void @llvm.dbg.declare(metadata i32* %15, metadata !3254, metadata !DIExpression()), !dbg !3256
  store i32 1, i32* %15, align 4, !dbg !3256
  br label %204, !dbg !3257

; <label>:204:                                    ; preds = %219, %203
  %205 = load i32, i32* %15, align 4, !dbg !3258
  %206 = icmp ult i32 %205, 22, !dbg !3261
  br i1 %206, label %207, label %226, !dbg !3262

; <label>:207:                                    ; preds = %204
  %208 = load %struct.click_ip*, %struct.click_ip** %11, align 8, !dbg !3263
  %209 = getelementptr inbounds %struct.click_ip, %struct.click_ip* %208, i32 0, i32 1, !dbg !3266
  %210 = load i8, i8* %209, align 1, !dbg !3266
  %211 = zext i8 %210 to i32, !dbg !3263
  %212 = icmp slt i32 %211, 22, !dbg !3267
  br i1 %212, label %213, label %216, !dbg !3268

; <label>:213:                                    ; preds = %207
  %214 = load %struct.click_udp*, %struct.click_udp** %13, align 8, !dbg !3269
  %215 = getelementptr inbounds %struct.click_udp, %struct.click_udp* %214, i32 0, i32 1, !dbg !3271
  store i16 -4134, i16* %215, align 2, !dbg !3272
  br label %218, !dbg !3273

; <label>:216:                                    ; preds = %207
  %217 = getelementptr inbounds %class.test10, %class.test10* %18, i32 0, i32 11, !dbg !3274
  store i8 -28, i8* %217, align 2, !dbg !3276
  br label %218

; <label>:218:                                    ; preds = %216, %213
  br label %219, !dbg !3277

; <label>:219:                                    ; preds = %218
  %220 = getelementptr inbounds %class.test10, %class.test10* %18, i32 0, i32 10, !dbg !3278
  %221 = load i16, i16* %220, align 4, !dbg !3278
  %222 = zext i16 %221 to i32, !dbg !3278
  %223 = sub i32 %222, 50559, !dbg !3279
  %224 = load i32, i32* %15, align 4, !dbg !3280
  %225 = add i32 %224, %223, !dbg !3280
  store i32 %225, i32* %15, align 4, !dbg !3280
  br label %204, !dbg !3281, !llvm.loop !3282

; <label>:226:                                    ; preds = %204
  %227 = getelementptr inbounds %class.test10, %class.test10* %18, i32 0, i32 10, !dbg !3284
  store i16 -19219, i16* %227, align 4, !dbg !3285
  %228 = load i32, i32* %10, align 4, !dbg !3286
  %229 = trunc i32 %228 to i16, !dbg !3286
  %230 = load %struct.click_ip*, %struct.click_ip** %11, align 8, !dbg !3287
  %231 = getelementptr inbounds %struct.click_ip, %struct.click_ip* %230, i32 0, i32 4, !dbg !3288
  store i16 %229, i16* %231, align 2, !dbg !3289
  %232 = load %struct.click_ip*, %struct.click_ip** %11, align 8, !dbg !3290
  %233 = getelementptr inbounds %struct.click_ip, %struct.click_ip* %232, i32 0, i32 2, !dbg !3291
  store i16 32033, i16* %233, align 2, !dbg !3292
  br label %234, !dbg !3293

; <label>:234:                                    ; preds = %226, %152
  %235 = getelementptr inbounds %class.test10, %class.test10* %18, i32 0, i32 15, !dbg !3294
  %236 = load i8, i8* %235, align 1, !dbg !3294
  %237 = zext i8 %236 to i32, !dbg !3294
  %238 = load i32, i32* %7, align 4, !dbg !3296
  %239 = icmp ule i32 %237, %238, !dbg !3297
  br i1 %239, label %240, label %312, !dbg !3298

; <label>:240:                                    ; preds = %234
  %241 = load %struct.click_udp*, %struct.click_udp** %13, align 8, !dbg !3299
  %242 = getelementptr inbounds %struct.click_udp, %struct.click_udp* %241, i32 0, i32 2, !dbg !3301
  store i16 -28455, i16* %242, align 2, !dbg !3302
  %243 = load i32, i32* %10, align 4, !dbg !3303
  %244 = trunc i32 %243 to i8, !dbg !3303
  %245 = load %struct.click_ip*, %struct.click_ip** %11, align 8, !dbg !3304
  %246 = getelementptr inbounds %struct.click_ip, %struct.click_ip* %245, i32 0, i32 5, !dbg !3305
  store i8 %244, i8* %246, align 4, !dbg !3306
  %247 = getelementptr inbounds %class.test10, %class.test10* %18, i32 0, i32 15, !dbg !3307
  %248 = load i8, i8* %247, align 1, !dbg !3307
  %249 = zext i8 %248 to i32, !dbg !3307
  %250 = srem i32 %249, 67, !dbg !3308
  %251 = trunc i32 %250 to i8, !dbg !3309
  %252 = getelementptr inbounds %class.test10, %class.test10* %18, i32 0, i32 11, !dbg !3310
  store i8 %251, i8* %252, align 2, !dbg !3311
  %253 = getelementptr inbounds %class.test10, %class.test10* %18, i32 0, i32 9, !dbg !3312
  %254 = load i32, i32* %253, align 8, !dbg !3312
  %255 = trunc i32 %254 to i16, !dbg !3312
  %256 = load %struct.click_ip*, %struct.click_ip** %11, align 8, !dbg !3313
  %257 = getelementptr inbounds %struct.click_ip, %struct.click_ip* %256, i32 0, i32 2, !dbg !3314
  store i16 %255, i16* %257, align 2, !dbg !3315
  %258 = getelementptr inbounds %class.test10, %class.test10* %18, i32 0, i32 11, !dbg !3316
  %259 = load i8, i8* %258, align 2, !dbg !3316
  %260 = zext i8 %259 to i32, !dbg !3316
  %261 = getelementptr inbounds %class.test10, %class.test10* %18, i32 0, i32 10, !dbg !3318
  %262 = load i16, i16* %261, align 4, !dbg !3318
  %263 = zext i16 %262 to i32, !dbg !3318
  %264 = icmp ne i32 %260, %263, !dbg !3319
  br i1 %264, label %265, label %276, !dbg !3320

; <label>:265:                                    ; preds = %240
  %266 = getelementptr inbounds %class.test10, %class.test10* %18, i32 0, i32 9, !dbg !3321
  %267 = load i32, i32* %266, align 8, !dbg !3321
  %268 = load %struct.click_udp*, %struct.click_udp** %13, align 8, !dbg !3323
  %269 = getelementptr inbounds %struct.click_udp, %struct.click_udp* %268, i32 0, i32 2, !dbg !3324
  %270 = load i16, i16* %269, align 2, !dbg !3324
  %271 = zext i16 %270 to i32, !dbg !3323
  %272 = and i32 %267, %271, !dbg !3325
  %273 = trunc i32 %272 to i16, !dbg !3326
  %274 = load %struct.click_udp*, %struct.click_udp** %13, align 8, !dbg !3327
  %275 = getelementptr inbounds %struct.click_udp, %struct.click_udp* %274, i32 0, i32 2, !dbg !3328
  store i16 %273, i16* %275, align 2, !dbg !3329
  br label %276, !dbg !3330

; <label>:276:                                    ; preds = %265, %240
  %277 = getelementptr inbounds %class.test10, %class.test10* %18, i32 0, i32 11, !dbg !3331
  %278 = load i8, i8* %277, align 2, !dbg !3331
  %279 = zext i8 %278 to i32, !dbg !3331
  %280 = getelementptr inbounds %class.test10, %class.test10* %18, i32 0, i32 10, !dbg !3333
  %281 = load i16, i16* %280, align 4, !dbg !3333
  %282 = zext i16 %281 to i32, !dbg !3333
  %283 = icmp slt i32 %279, %282, !dbg !3334
  br i1 %283, label %284, label %295, !dbg !3335

; <label>:284:                                    ; preds = %276
  %285 = getelementptr inbounds %class.test10, %class.test10* %18, i32 0, i32 14, !dbg !3336
  store i8 112, i8* %285, align 2, !dbg !3338
  %286 = getelementptr inbounds %class.test10, %class.test10* %18, i32 0, i32 11, !dbg !3339
  %287 = load i8, i8* %286, align 2, !dbg !3339
  %288 = zext i8 %287 to i16, !dbg !3339
  %289 = load %struct.click_ip*, %struct.click_ip** %11, align 8, !dbg !3340
  %290 = getelementptr inbounds %struct.click_ip, %struct.click_ip* %289, i32 0, i32 2, !dbg !3341
  store i16 %288, i16* %290, align 2, !dbg !3342
  %291 = getelementptr inbounds %class.test10, %class.test10* %18, i32 0, i32 6, !dbg !3343
  %292 = load i16, i16* %291, align 2, !dbg !3343
  %293 = trunc i16 %292 to i8, !dbg !3343
  %294 = getelementptr inbounds %class.test10, %class.test10* %18, i32 0, i32 4, !dbg !3344
  store i8 %293, i8* %294, align 8, !dbg !3345
  br label %300, !dbg !3346

; <label>:295:                                    ; preds = %276
  %296 = getelementptr inbounds %class.test10, %class.test10* %18, i32 0, i32 17, !dbg !3347
  %297 = load i16, i16* %296, align 8, !dbg !3347
  %298 = load %struct.click_ip*, %struct.click_ip** %11, align 8, !dbg !3349
  %299 = getelementptr inbounds %struct.click_ip, %struct.click_ip* %298, i32 0, i32 3, !dbg !3350
  store i16 %297, i16* %299, align 4, !dbg !3351
  br label %300

; <label>:300:                                    ; preds = %295, %284
  %301 = load %struct.click_ip*, %struct.click_ip** %11, align 8, !dbg !3352
  %302 = getelementptr inbounds %struct.click_ip, %struct.click_ip* %301, i32 0, i32 6, !dbg !3353
  store i8 -93, i8* %302, align 1, !dbg !3354
  %303 = getelementptr inbounds %class.test10, %class.test10* %18, i32 0, i32 9, !dbg !3355
  %304 = load i32, i32* %303, align 8, !dbg !3355
  %305 = icmp eq i32 89, %304, !dbg !3357
  br i1 %305, label %306, label %311, !dbg !3358

; <label>:306:                                    ; preds = %300
  %307 = getelementptr inbounds %class.test10, %class.test10* %18, i32 0, i32 4, !dbg !3359
  %308 = load i8, i8* %307, align 8, !dbg !3359
  %309 = zext i8 %308 to i32, !dbg !3359
  %310 = getelementptr inbounds %class.test10, %class.test10* %18, i32 0, i32 16, !dbg !3361
  store i32 %309, i32* %310, align 4, !dbg !3362
  br label %311, !dbg !3363

; <label>:311:                                    ; preds = %306, %300
  br label %312, !dbg !3364

; <label>:312:                                    ; preds = %311, %234
  %313 = getelementptr inbounds %class.test10, %class.test10* %18, i32 0, i32 9, !dbg !3365
  %314 = load i32, i32* %313, align 8, !dbg !3365
  %315 = trunc i32 %314 to i16, !dbg !3365
  %316 = load %struct.click_tcp*, %struct.click_tcp** %12, align 8, !dbg !3366
  %317 = getelementptr inbounds %struct.click_tcp, %struct.click_tcp* %316, i32 0, i32 1, !dbg !3367
  store i16 %315, i16* %317, align 2, !dbg !3368
  %318 = getelementptr inbounds %class.test10, %class.test10* %18, i32 0, i32 10, !dbg !3369
  %319 = load i16, i16* %318, align 4, !dbg !3369
  %320 = getelementptr inbounds %class.test10, %class.test10* %18, i32 0, i32 17, !dbg !3370
  store i16 %319, i16* %320, align 8, !dbg !3371
  %321 = load i32, i32* %7, align 4, !dbg !3372
  %322 = or i32 8888, %321, !dbg !3373
  %323 = load i32, i32* %8, align 4, !dbg !3374
  %324 = or i32 %322, %323, !dbg !3375
  %325 = load i32, i32* %9, align 4, !dbg !3376
  %326 = or i32 %324, %325, !dbg !3377
  %327 = load i32, i32* %10, align 4, !dbg !3378
  %328 = or i32 %326, %327, !dbg !3379
  %329 = or i32 %328, 6666, !dbg !3380
  %330 = load %struct.click_ip*, %struct.click_ip** %11, align 8, !dbg !3381
  %331 = getelementptr inbounds %struct.click_ip, %struct.click_ip* %330, i32 0, i32 8, !dbg !3382
  %332 = getelementptr inbounds %struct.in_addr, %struct.in_addr* %331, i32 0, i32 0, !dbg !3383
  store i32 %329, i32* %332, align 4, !dbg !3384
  %333 = load %struct.click_ip*, %struct.click_ip** %11, align 8, !dbg !3385
  %334 = getelementptr inbounds %struct.click_ip, %struct.click_ip* %333, i32 0, i32 7, !dbg !3386
  store i16 0, i16* %334, align 2, !dbg !3387
  %335 = load %struct.click_ip*, %struct.click_ip** %11, align 8, !dbg !3388
  %336 = bitcast %struct.click_ip* %335 to i8*, !dbg !3389
  %337 = load %struct.click_ip*, %struct.click_ip** %11, align 8, !dbg !3390
  %338 = bitcast %struct.click_ip* %337 to i8*, !dbg !3391
  %339 = load i8, i8* %338, align 4, !dbg !3391
  %340 = and i8 %339, 15, !dbg !3391
  %341 = zext i8 %340 to i32, !dbg !3391
  %342 = shl i32 %341, 2, !dbg !3392
  %343 = call zeroext i16 @_ZN6test1025customized_click_in_cksumEPKhi(%class.test10* %18, i8* %336, i32 %342), !dbg !3393
  %344 = load %struct.click_ip*, %struct.click_ip** %11, align 8, !dbg !3394
  %345 = getelementptr inbounds %struct.click_ip, %struct.click_ip* %344, i32 0, i32 7, !dbg !3395
  store i16 %343, i16* %345, align 2, !dbg !3396
  %346 = load %struct.click_tcp*, %struct.click_tcp** %12, align 8, !dbg !3397
  %347 = getelementptr inbounds %struct.click_tcp, %struct.click_tcp* %346, i32 0, i32 7, !dbg !3398
  store i16 0, i16* %347, align 4, !dbg !3399
  call void @llvm.dbg.declare(metadata i32* %16, metadata !3400, metadata !DIExpression()), !dbg !3402
  %348 = load %struct.click_tcp*, %struct.click_tcp** %12, align 8, !dbg !3403
  %349 = bitcast %struct.click_tcp* %348 to i8*, !dbg !3404
  %350 = load %class.WritablePacket*, %class.WritablePacket** %6, align 8, !dbg !3405
  %351 = bitcast %class.WritablePacket* %350 to %class.Packet*, !dbg !3406
  %352 = call i32 @_ZNK6Packet16transport_lengthEv(%class.Packet* %351), !dbg !3406
  %353 = call zeroext i16 @_ZN6test1025customized_click_in_cksumEPKhi(%class.test10* %18, i8* %349, i32 %352), !dbg !3407
  %354 = zext i16 %353 to i32, !dbg !3407
  store i32 %354, i32* %16, align 4, !dbg !3402
  %355 = load i32, i32* %16, align 4, !dbg !3408
  %356 = load %struct.click_ip*, %struct.click_ip** %11, align 8, !dbg !3409
  %357 = load %class.WritablePacket*, %class.WritablePacket** %6, align 8, !dbg !3410
  %358 = bitcast %class.WritablePacket* %357 to %class.Packet*, !dbg !3411
  %359 = call i32 @_ZNK6Packet16transport_lengthEv(%class.Packet* %358), !dbg !3411
  %360 = call zeroext i16 @_ZN6test1035customized_click_in_cksum_pseudohdrEjPK8click_ipi(%class.test10* %18, i32 %355, %struct.click_ip* %356, i32 %359), !dbg !3412
  %361 = load %struct.click_tcp*, %struct.click_tcp** %12, align 8, !dbg !3413
  %362 = getelementptr inbounds %struct.click_tcp, %struct.click_tcp* %361, i32 0, i32 7, !dbg !3414
  store i16 %360, i16* %362, align 4, !dbg !3415
  %363 = load %struct.click_udp*, %struct.click_udp** %13, align 8, !dbg !3416
  %364 = getelementptr inbounds %struct.click_udp, %struct.click_udp* %363, i32 0, i32 3, !dbg !3417
  store i16 0, i16* %364, align 2, !dbg !3418
  call void @llvm.dbg.declare(metadata i32* %17, metadata !3419, metadata !DIExpression()), !dbg !3421
  %365 = load %struct.click_udp*, %struct.click_udp** %13, align 8, !dbg !3422
  %366 = bitcast %struct.click_udp* %365 to i8*, !dbg !3423
  %367 = load %class.WritablePacket*, %class.WritablePacket** %6, align 8, !dbg !3424
  %368 = bitcast %class.WritablePacket* %367 to %class.Packet*, !dbg !3425
  %369 = call i32 @_ZNK6Packet16transport_lengthEv(%class.Packet* %368), !dbg !3425
  %370 = call zeroext i16 @_ZN6test1025customized_click_in_cksumEPKhi(%class.test10* %18, i8* %366, i32 %369), !dbg !3426
  %371 = zext i16 %370 to i32, !dbg !3426
  store i32 %371, i32* %17, align 4, !dbg !3421
  %372 = load i32, i32* %17, align 4, !dbg !3427
  %373 = load %struct.click_ip*, %struct.click_ip** %11, align 8, !dbg !3428
  %374 = load %class.WritablePacket*, %class.WritablePacket** %6, align 8, !dbg !3429
  %375 = bitcast %class.WritablePacket* %374 to %class.Packet*, !dbg !3430
  %376 = call i32 @_ZNK6Packet16transport_lengthEv(%class.Packet* %375), !dbg !3430
  %377 = call zeroext i16 @_ZN6test1035customized_click_in_cksum_pseudohdrEjPK8click_ipi(%class.test10* %18, i32 %372, %struct.click_ip* %373, i32 %376), !dbg !3431
  %378 = load %struct.click_udp*, %struct.click_udp** %13, align 8, !dbg !3432
  %379 = getelementptr inbounds %struct.click_udp, %struct.click_udp* %378, i32 0, i32 3, !dbg !3433
  store i16 %377, i16* %379, align 2, !dbg !3434
  call void @llvm.trap(), !dbg !3435
  unreachable, !dbg !3435

; <label>:380:                                    ; preds = %35, %28
  %381 = load %class.Packet*, %class.Packet** %3, align 8, !dbg !3436
  ret %class.Packet* %381, !dbg !3436
}

; Function Attrs: noinline nounwind uwtable
define linkonce_odr zeroext i1 @_ZNK6Packet18has_network_headerEv(%class.Packet*) #3 comdat align 2 !dbg !3437 {
  %2 = alloca %class.Packet*, align 8
  store %class.Packet* %0, %class.Packet** %2, align 8
  call void @llvm.dbg.declare(metadata %class.Packet** %2, metadata !3438, metadata !DIExpression()), !dbg !3439
  %3 = load %class.Packet*, %class.Packet** %2, align 8
  %4 = getelementptr inbounds %class.Packet, %class.Packet* %3, i32 0, i32 6, !dbg !3440
  %5 = getelementptr inbounds %"struct.Packet::AllAnno", %"struct.Packet::AllAnno"* %4, i32 0, i32 2, !dbg !3441
  %6 = load i8*, i8** %5, align 8, !dbg !3441
  %7 = icmp ne i8* %6, null, !dbg !3442
  ret i1 %7, !dbg !3443
}

; Function Attrs: noreturn nounwind
declare void @__assert_fail(i8*, i8*, i32, i8*) #6

; Function Attrs: noinline uwtable
define linkonce_odr %class.WritablePacket* @_ZN6Packet9uniqueifyEv(%class.Packet*) #0 comdat align 2 !dbg !3444 {
  %2 = alloca %class.WritablePacket*, align 8
  %3 = alloca %class.Packet*, align 8
  store %class.Packet* %0, %class.Packet** %3, align 8
  call void @llvm.dbg.declare(metadata %class.Packet** %3, metadata !3445, metadata !DIExpression()), !dbg !3446
  %4 = load %class.Packet*, %class.Packet** %3, align 8
  %5 = call zeroext i1 @_ZNK6Packet6sharedEv(%class.Packet* %4), !dbg !3447
  br i1 %5, label %8, label %6, !dbg !3449

; <label>:6:                                      ; preds = %1
  %7 = bitcast %class.Packet* %4 to %class.WritablePacket*, !dbg !3450
  store %class.WritablePacket* %7, %class.WritablePacket** %2, align 8, !dbg !3451
  br label %10, !dbg !3451

; <label>:8:                                      ; preds = %1
  %9 = call %class.WritablePacket* @_ZN6Packet19expensive_uniqueifyEiib(%class.Packet* %4, i32 0, i32 0, i1 zeroext true), !dbg !3452
  store %class.WritablePacket* %9, %class.WritablePacket** %2, align 8, !dbg !3453
  br label %10, !dbg !3453

; <label>:10:                                     ; preds = %8, %6
  %11 = load %class.WritablePacket*, %class.WritablePacket** %2, align 8, !dbg !3454
  ret %class.WritablePacket* %11, !dbg !3454
}

; Function Attrs: noinline uwtable
define linkonce_odr %struct.click_ip* @_ZNK14WritablePacket9ip_headerEv(%class.WritablePacket*) #0 comdat align 2 !dbg !3455 {
  %2 = alloca %class.WritablePacket*, align 8
  store %class.WritablePacket* %0, %class.WritablePacket** %2, align 8
  call void @llvm.dbg.declare(metadata %class.WritablePacket** %2, metadata !3456, metadata !DIExpression()), !dbg !3458
  %3 = load %class.WritablePacket*, %class.WritablePacket** %2, align 8
  %4 = bitcast %class.WritablePacket* %3 to %class.Packet*, !dbg !3459
  %5 = call %struct.click_ip* @_ZNK6Packet9ip_headerEv(%class.Packet* %4), !dbg !3459
  ret %struct.click_ip* %5, !dbg !3460
}

; Function Attrs: noinline uwtable
define linkonce_odr %struct.click_tcp* @_ZNK14WritablePacket10tcp_headerEv(%class.WritablePacket*) #0 comdat align 2 !dbg !3461 {
  %2 = alloca %class.WritablePacket*, align 8
  store %class.WritablePacket* %0, %class.WritablePacket** %2, align 8
  call void @llvm.dbg.declare(metadata %class.WritablePacket** %2, metadata !3462, metadata !DIExpression()), !dbg !3463
  %3 = load %class.WritablePacket*, %class.WritablePacket** %2, align 8
  %4 = bitcast %class.WritablePacket* %3 to %class.Packet*, !dbg !3464
  %5 = call %struct.click_tcp* @_ZNK6Packet10tcp_headerEv(%class.Packet* %4), !dbg !3464
  ret %struct.click_tcp* %5, !dbg !3465
}

; Function Attrs: noinline uwtable
define linkonce_odr %struct.click_udp* @_ZNK14WritablePacket10udp_headerEv(%class.WritablePacket*) #0 comdat align 2 !dbg !3466 {
  %2 = alloca %class.WritablePacket*, align 8
  store %class.WritablePacket* %0, %class.WritablePacket** %2, align 8
  call void @llvm.dbg.declare(metadata %class.WritablePacket** %2, metadata !3467, metadata !DIExpression()), !dbg !3468
  %3 = load %class.WritablePacket*, %class.WritablePacket** %2, align 8
  %4 = bitcast %class.WritablePacket* %3 to %class.Packet*, !dbg !3469
  %5 = call %struct.click_udp* @_ZNK6Packet10udp_headerEv(%class.Packet* %4), !dbg !3469
  ret %struct.click_udp* %5, !dbg !3470
}

; Function Attrs: noinline nounwind uwtable
define linkonce_odr zeroext i16 @_ZN6test1025customized_click_in_cksumEPKhi(%class.test10*, i8*, i32) #3 comdat align 2 !dbg !3471 {
  %4 = alloca %class.test10*, align 8
  %5 = alloca i8*, align 8
  %6 = alloca i32, align 4
  store %class.test10* %0, %class.test10** %4, align 8
  call void @llvm.dbg.declare(metadata %class.test10** %4, metadata !3472, metadata !DIExpression()), !dbg !3473
  store i8* %1, i8** %5, align 8
  call void @llvm.dbg.declare(metadata i8** %5, metadata !3474, metadata !DIExpression()), !dbg !3475
  store i32 %2, i32* %6, align 4
  call void @llvm.dbg.declare(metadata i32* %6, metadata !3476, metadata !DIExpression()), !dbg !3477
  %7 = load %class.test10*, %class.test10** %4, align 8
  ret i16 1, !dbg !3478
}

; Function Attrs: noinline uwtable
define linkonce_odr i32 @_ZNK6Packet16transport_lengthEv(%class.Packet*) #0 comdat align 2 !dbg !3479 {
  %2 = alloca %class.Packet*, align 8
  store %class.Packet* %0, %class.Packet** %2, align 8
  call void @llvm.dbg.declare(metadata %class.Packet** %2, metadata !3480, metadata !DIExpression()), !dbg !3481
  %3 = load %class.Packet*, %class.Packet** %2, align 8
  %4 = call i8* @_ZNK6Packet8end_dataEv(%class.Packet* %3), !dbg !3482
  %5 = call i8* @_ZNK6Packet16transport_headerEv(%class.Packet* %3), !dbg !3483
  %6 = ptrtoint i8* %4 to i64, !dbg !3484
  %7 = ptrtoint i8* %5 to i64, !dbg !3484
  %8 = sub i64 %6, %7, !dbg !3484
  %9 = trunc i64 %8 to i32, !dbg !3482
  ret i32 %9, !dbg !3485
}

; Function Attrs: noinline nounwind uwtable
define linkonce_odr zeroext i16 @_ZN6test1035customized_click_in_cksum_pseudohdrEjPK8click_ipi(%class.test10*, i32, %struct.click_ip*, i32) #3 comdat align 2 !dbg !3486 {
  %5 = alloca %class.test10*, align 8
  %6 = alloca i32, align 4
  %7 = alloca %struct.click_ip*, align 8
  %8 = alloca i32, align 4
  store %class.test10* %0, %class.test10** %5, align 8
  call void @llvm.dbg.declare(metadata %class.test10** %5, metadata !3487, metadata !DIExpression()), !dbg !3488
  store i32 %1, i32* %6, align 4
  call void @llvm.dbg.declare(metadata i32* %6, metadata !3489, metadata !DIExpression()), !dbg !3490
  store %struct.click_ip* %2, %struct.click_ip** %7, align 8
  call void @llvm.dbg.declare(metadata %struct.click_ip** %7, metadata !3491, metadata !DIExpression()), !dbg !3492
  store i32 %3, i32* %8, align 4
  call void @llvm.dbg.declare(metadata i32* %8, metadata !3493, metadata !DIExpression()), !dbg !3494
  %9 = load %class.test10*, %class.test10** %5, align 8
  ret i16 1, !dbg !3495
}

; Function Attrs: noreturn nounwind
declare void @llvm.trap() #7

; Function Attrs: noinline uwtable
define void @_ZN6test1012add_handlersEv(%class.test10*) unnamed_addr #0 align 2 !dbg !3496 {
  %2 = alloca %class.test10*, align 8
  store %class.test10* %0, %class.test10** %2, align 8
  call void @llvm.dbg.declare(metadata %class.test10** %2, metadata !3497, metadata !DIExpression()), !dbg !3498
  %3 = load %class.test10*, %class.test10** %2, align 8
  %4 = bitcast %class.test10* %3 to %class.Element*, !dbg !3499
  %5 = getelementptr inbounds %class.test10, %class.test10* %3, i32 0, i32 1, !dbg !3500
  call void @_ZN7Element17add_data_handlersEPKciPb(%class.Element* %4, i8* getelementptr inbounds ([7 x i8], [7 x i8]* @.str.3, i32 0, i32 0), i32 16387, i8* %5), !dbg !3499
  ret void, !dbg !3501
}

declare void @_ZN7Element17add_data_handlersEPKciPb(%class.Element*, i8*, i32, i8*) #2

declare void @_ZN7Element4pushEiP6Packet(%class.Element*, i32, %class.Packet*) unnamed_addr #2

declare %class.Packet* @_ZN7Element4pullEi(%class.Element*, i32) unnamed_addr #2

declare zeroext i1 @_ZN7Element8run_taskEP4Task(%class.Element*, %class.Task*) unnamed_addr #2

declare void @_ZN7Element9run_timerEP5Timer(%class.Element*, %class.Timer*) unnamed_addr #2

declare void @_ZN7Element8selectedEii(%class.Element*, i32, i32) unnamed_addr #2

declare void @_ZN7Element8selectedEi(%class.Element*, i32) unnamed_addr #2

; Function Attrs: noinline nounwind uwtable
define linkonce_odr i8* @_ZNK6test1010class_nameEv(%class.test10*) unnamed_addr #3 comdat align 2 !dbg !3502 {
  %2 = alloca %class.test10*, align 8
  store %class.test10* %0, %class.test10** %2, align 8
  call void @llvm.dbg.declare(metadata %class.test10** %2, metadata !3503, metadata !DIExpression()), !dbg !3505
  %3 = load %class.test10*, %class.test10** %2, align 8
  ret i8* getelementptr inbounds ([7 x i8], [7 x i8]* @.str.4, i32 0, i32 0), !dbg !3506
}

; Function Attrs: noinline nounwind uwtable
define linkonce_odr i8* @_ZNK6test1010port_countEv(%class.test10*) unnamed_addr #3 comdat align 2 !dbg !3507 {
  %2 = alloca %class.test10*, align 8
  store %class.test10* %0, %class.test10** %2, align 8
  call void @llvm.dbg.declare(metadata %class.test10** %2, metadata !3508, metadata !DIExpression()), !dbg !3509
  %3 = load %class.test10*, %class.test10** %2, align 8
  ret i8* getelementptr inbounds ([0 x i8], [0 x i8]* @_ZN7Element11PORTS_1_1X2E, i32 0, i32 0), !dbg !3510
}

; Function Attrs: noinline nounwind uwtable
define linkonce_odr i8* @_ZNK6test1010processingEv(%class.test10*) unnamed_addr #3 comdat align 2 !dbg !3511 {
  %2 = alloca %class.test10*, align 8
  store %class.test10* %0, %class.test10** %2, align 8
  call void @llvm.dbg.declare(metadata %class.test10** %2, metadata !3512, metadata !DIExpression()), !dbg !3513
  %3 = load %class.test10*, %class.test10** %2, align 8
  ret i8* getelementptr inbounds ([0 x i8], [0 x i8]* @_ZN7Element15PROCESSING_A_AHE, i32 0, i32 0), !dbg !3514
}

declare i8* @_ZNK7Element9flow_codeEv(%class.Element*) unnamed_addr #2

declare i8* @_ZNK7Element5flagsEv(%class.Element*) unnamed_addr #2

declare i8* @_ZN7Element4castEPKc(%class.Element*, i8*) unnamed_addr #2

declare i8* @_ZN7Element9port_castEbiPKc(%class.Element*, i1 zeroext, i32, i8*) unnamed_addr #2

declare i32 @_ZNK7Element15configure_phaseEv(%class.Element*) unnamed_addr #2

declare i32 @_ZN7Element10initializeEP12ErrorHandler(%class.Element*, %class.ErrorHandler*) unnamed_addr #2

declare void @_ZN7Element10take_stateEPS_P12ErrorHandler(%class.Element*, %class.Element*, %class.ErrorHandler*) unnamed_addr #2

declare %class.Element* @_ZNK7Element15hotswap_elementEv(%class.Element*) unnamed_addr #2

declare void @_ZN7Element7cleanupENS_12CleanupStageE(%class.Element*, i32) unnamed_addr #2

declare void @_ZNK7Element11declarationEv(%class.String* sret, %class.Element*) unnamed_addr #2

declare zeroext i1 @_ZNK7Element20can_live_reconfigureEv(%class.Element*) unnamed_addr #2

declare i32 @_ZN7Element16live_reconfigureER6VectorI6StringEP12ErrorHandler(%class.Element*, %class.Vector* dereferenceable(16), %class.ErrorHandler*) unnamed_addr #2

declare i32 @_ZN7Element5llrpcEjPv(%class.Element*, i32, i8*) unnamed_addr #2

; Function Attrs: noinline uwtable
define linkonce_odr zeroext i1 @_ZNK6Packet6sharedEv(%class.Packet*) #0 comdat align 2 !dbg !3515 {
  %2 = alloca %class.Packet*, align 8
  store %class.Packet* %0, %class.Packet** %2, align 8
  call void @llvm.dbg.declare(metadata %class.Packet** %2, metadata !3516, metadata !DIExpression()), !dbg !3517
  %3 = load %class.Packet*, %class.Packet** %2, align 8
  %4 = getelementptr inbounds %class.Packet, %class.Packet* %3, i32 0, i32 1, !dbg !3518
  %5 = load %class.Packet*, %class.Packet** %4, align 8, !dbg !3518
  %6 = icmp ne %class.Packet* %5, null, !dbg !3518
  br i1 %6, label %11, label %7, !dbg !3519

; <label>:7:                                      ; preds = %1
  %8 = getelementptr inbounds %class.Packet, %class.Packet* %3, i32 0, i32 0, !dbg !3520
  %9 = call i32 @_ZNK15atomic_uint32_tcvjEv(%class.atomic_uint32_t* %8), !dbg !3520
  %10 = icmp ugt i32 %9, 1, !dbg !3521
  br label %11, !dbg !3519

; <label>:11:                                     ; preds = %7, %1
  %12 = phi i1 [ true, %1 ], [ %10, %7 ]
  ret i1 %12, !dbg !3522
}

declare %class.WritablePacket* @_ZN6Packet19expensive_uniqueifyEiib(%class.Packet*, i32, i32, i1 zeroext) #2

; Function Attrs: noinline uwtable
define linkonce_odr i32 @_ZNK15atomic_uint32_tcvjEv(%class.atomic_uint32_t*) #0 comdat align 2 !dbg !3523 {
  %2 = alloca %class.atomic_uint32_t*, align 8
  store %class.atomic_uint32_t* %0, %class.atomic_uint32_t** %2, align 8
  call void @llvm.dbg.declare(metadata %class.atomic_uint32_t** %2, metadata !3524, metadata !DIExpression()), !dbg !3526
  %3 = load %class.atomic_uint32_t*, %class.atomic_uint32_t** %2, align 8
  %4 = call i32 @_ZNK15atomic_uint32_t5valueEv(%class.atomic_uint32_t* %3), !dbg !3527
  ret i32 %4, !dbg !3528
}

; Function Attrs: noinline nounwind uwtable
define linkonce_odr i32 @_ZNK15atomic_uint32_t5valueEv(%class.atomic_uint32_t*) #3 comdat align 2 !dbg !3529 {
  %2 = alloca %class.atomic_uint32_t*, align 8
  store %class.atomic_uint32_t* %0, %class.atomic_uint32_t** %2, align 8
  call void @llvm.dbg.declare(metadata %class.atomic_uint32_t** %2, metadata !3530, metadata !DIExpression()), !dbg !3531
  %3 = load %class.atomic_uint32_t*, %class.atomic_uint32_t** %2, align 8
  %4 = getelementptr inbounds %class.atomic_uint32_t, %class.atomic_uint32_t* %3, i32 0, i32 0, !dbg !3532
  %5 = load i32, i32* %4, align 4, !dbg !3532
  ret i32 %5, !dbg !3533
}

; Function Attrs: noinline uwtable
define linkonce_odr %struct.click_ip* @_ZNK6Packet9ip_headerEv(%class.Packet*) #0 comdat align 2 !dbg !3534 {
  %2 = alloca %class.Packet*, align 8
  store %class.Packet* %0, %class.Packet** %2, align 8
  call void @llvm.dbg.declare(metadata %class.Packet** %2, metadata !3535, metadata !DIExpression()), !dbg !3536
  %3 = load %class.Packet*, %class.Packet** %2, align 8
  %4 = call i8* @_ZNK6Packet14network_headerEv(%class.Packet* %3), !dbg !3537
  %5 = bitcast i8* %4 to %struct.click_ip*, !dbg !3538
  ret %struct.click_ip* %5, !dbg !3539
}

; Function Attrs: noinline nounwind uwtable
define linkonce_odr i8* @_ZNK6Packet14network_headerEv(%class.Packet*) #3 comdat align 2 !dbg !3540 {
  %2 = alloca %class.Packet*, align 8
  store %class.Packet* %0, %class.Packet** %2, align 8
  call void @llvm.dbg.declare(metadata %class.Packet** %2, metadata !3541, metadata !DIExpression()), !dbg !3542
  %3 = load %class.Packet*, %class.Packet** %2, align 8
  %4 = getelementptr inbounds %class.Packet, %class.Packet* %3, i32 0, i32 6, !dbg !3543
  %5 = getelementptr inbounds %"struct.Packet::AllAnno", %"struct.Packet::AllAnno"* %4, i32 0, i32 2, !dbg !3544
  %6 = load i8*, i8** %5, align 8, !dbg !3544
  ret i8* %6, !dbg !3545
}

; Function Attrs: noinline uwtable
define linkonce_odr %struct.click_tcp* @_ZNK6Packet10tcp_headerEv(%class.Packet*) #0 comdat align 2 !dbg !3546 {
  %2 = alloca %class.Packet*, align 8
  store %class.Packet* %0, %class.Packet** %2, align 8
  call void @llvm.dbg.declare(metadata %class.Packet** %2, metadata !3547, metadata !DIExpression()), !dbg !3548
  %3 = load %class.Packet*, %class.Packet** %2, align 8
  %4 = call i8* @_ZNK6Packet16transport_headerEv(%class.Packet* %3), !dbg !3549
  %5 = bitcast i8* %4 to %struct.click_tcp*, !dbg !3550
  ret %struct.click_tcp* %5, !dbg !3551
}

; Function Attrs: noinline nounwind uwtable
define linkonce_odr i8* @_ZNK6Packet16transport_headerEv(%class.Packet*) #3 comdat align 2 !dbg !3552 {
  %2 = alloca %class.Packet*, align 8
  store %class.Packet* %0, %class.Packet** %2, align 8
  call void @llvm.dbg.declare(metadata %class.Packet** %2, metadata !3553, metadata !DIExpression()), !dbg !3554
  %3 = load %class.Packet*, %class.Packet** %2, align 8
  %4 = getelementptr inbounds %class.Packet, %class.Packet* %3, i32 0, i32 6, !dbg !3555
  %5 = getelementptr inbounds %"struct.Packet::AllAnno", %"struct.Packet::AllAnno"* %4, i32 0, i32 3, !dbg !3556
  %6 = load i8*, i8** %5, align 8, !dbg !3556
  ret i8* %6, !dbg !3557
}

; Function Attrs: noinline nounwind uwtable
define linkonce_odr %struct.click_udp* @_ZNK6Packet10udp_headerEv(%class.Packet*) #3 comdat align 2 !dbg !3558 {
  %2 = alloca %class.Packet*, align 8
  store %class.Packet* %0, %class.Packet** %2, align 8
  call void @llvm.dbg.declare(metadata %class.Packet** %2, metadata !3559, metadata !DIExpression()), !dbg !3560
  %3 = load %class.Packet*, %class.Packet** %2, align 8
  %4 = call i8* @_ZNK6Packet16transport_headerEv(%class.Packet* %3), !dbg !3561
  %5 = bitcast i8* %4 to %struct.click_udp*, !dbg !3562
  ret %struct.click_udp* %5, !dbg !3563
}

; Function Attrs: noinline nounwind uwtable
define linkonce_odr i8* @_ZNK6Packet8end_dataEv(%class.Packet*) #3 comdat align 2 !dbg !3564 {
  %2 = alloca %class.Packet*, align 8
  store %class.Packet* %0, %class.Packet** %2, align 8
  call void @llvm.dbg.declare(metadata %class.Packet** %2, metadata !3565, metadata !DIExpression()), !dbg !3566
  %3 = load %class.Packet*, %class.Packet** %2, align 8
  %4 = getelementptr inbounds %class.Packet, %class.Packet* %3, i32 0, i32 4, !dbg !3567
  %5 = load i8*, i8** %4, align 8, !dbg !3567
  ret i8* %5, !dbg !3568
}

; Function Attrs: noinline uwtable
define linkonce_odr dereferenceable(112) %class.Args* @_ZN4Args4readIbEERS_PKciRT_(%class.Args*, i8*, i32, i8* dereferenceable(1)) #0 comdat align 2 !dbg !3569 {
  %5 = alloca %class.Args*, align 8
  %6 = alloca i8*, align 8
  %7 = alloca i32, align 4
  %8 = alloca i8*, align 8
  store %class.Args* %0, %class.Args** %5, align 8
  call void @llvm.dbg.declare(metadata %class.Args** %5, metadata !3573, metadata !DIExpression()), !dbg !3574
  store i8* %1, i8** %6, align 8
  call void @llvm.dbg.declare(metadata i8** %6, metadata !3575, metadata !DIExpression()), !dbg !3576
  store i32 %2, i32* %7, align 4
  call void @llvm.dbg.declare(metadata i32* %7, metadata !3577, metadata !DIExpression()), !dbg !3578
  store i8* %3, i8** %8, align 8
  call void @llvm.dbg.declare(metadata i8** %8, metadata !3579, metadata !DIExpression()), !dbg !3580
  %9 = load %class.Args*, %class.Args** %5, align 8
  %10 = load i8*, i8** %6, align 8, !dbg !3581
  %11 = load i32, i32* %7, align 4, !dbg !3582
  %12 = load i8*, i8** %8, align 8, !dbg !3583
  call void @_Z14args_base_readIbEvP4ArgsPKciRT_(%class.Args* %9, i8* %10, i32 %11, i8* dereferenceable(1) %12), !dbg !3584
  ret %class.Args* %9, !dbg !3585
}

; Function Attrs: noinline uwtable
define linkonce_odr void @_Z14args_base_readIbEvP4ArgsPKciRT_(%class.Args*, i8*, i32, i8* dereferenceable(1)) #0 comdat !dbg !3586 {
  %5 = alloca %class.Args*, align 8
  %6 = alloca i8*, align 8
  %7 = alloca i32, align 4
  %8 = alloca i8*, align 8
  store %class.Args* %0, %class.Args** %5, align 8
  call void @llvm.dbg.declare(metadata %class.Args** %5, metadata !3589, metadata !DIExpression()), !dbg !3590
  store i8* %1, i8** %6, align 8
  call void @llvm.dbg.declare(metadata i8** %6, metadata !3591, metadata !DIExpression()), !dbg !3592
  store i32 %2, i32* %7, align 4
  call void @llvm.dbg.declare(metadata i32* %7, metadata !3593, metadata !DIExpression()), !dbg !3594
  store i8* %3, i8** %8, align 8
  call void @llvm.dbg.declare(metadata i8** %8, metadata !3595, metadata !DIExpression()), !dbg !3596
  %9 = load %class.Args*, %class.Args** %5, align 8, !dbg !3597
  %10 = load i8*, i8** %6, align 8, !dbg !3598
  %11 = load i32, i32* %7, align 4, !dbg !3599
  %12 = load i8*, i8** %8, align 8, !dbg !3600
  call void @_ZN4Args9base_readIbEEvPKciRT_(%class.Args* %9, i8* %10, i32 %11, i8* dereferenceable(1) %12), !dbg !3601
  ret void, !dbg !3602
}

; Function Attrs: noinline uwtable
define linkonce_odr void @_ZN4Args9base_readIbEEvPKciRT_(%class.Args*, i8*, i32, i8* dereferenceable(1)) #0 comdat align 2 personality i8* bitcast (i32 (...)* @__gxx_personality_v0 to i8*) !dbg !3603 {
  %5 = alloca %class.Args*, align 8
  %6 = alloca i8*, align 8
  %7 = alloca i32, align 4
  %8 = alloca i8*, align 8
  %9 = alloca %"struct.Args::Slot"*, align 8
  %10 = alloca %class.String, align 8
  %11 = alloca i8*
  %12 = alloca i32
  %13 = alloca i8*, align 8
  %14 = alloca %struct.DefaultArg, align 1
  store %class.Args* %0, %class.Args** %5, align 8
  call void @llvm.dbg.declare(metadata %class.Args** %5, metadata !3607, metadata !DIExpression()), !dbg !3608
  store i8* %1, i8** %6, align 8
  call void @llvm.dbg.declare(metadata i8** %6, metadata !3609, metadata !DIExpression()), !dbg !3610
  store i32 %2, i32* %7, align 4
  call void @llvm.dbg.declare(metadata i32* %7, metadata !3611, metadata !DIExpression()), !dbg !3612
  store i8* %3, i8** %8, align 8
  call void @llvm.dbg.declare(metadata i8** %8, metadata !3613, metadata !DIExpression()), !dbg !3614
  %15 = load %class.Args*, %class.Args** %5, align 8
  call void @llvm.dbg.declare(metadata %"struct.Args::Slot"** %9, metadata !3615, metadata !DIExpression()), !dbg !3616
  call void @llvm.dbg.declare(metadata %class.String* %10, metadata !3617, metadata !DIExpression()), !dbg !3619
  %16 = load i8*, i8** %6, align 8, !dbg !3620
  %17 = load i32, i32* %7, align 4, !dbg !3621
  call void @_ZN4Args4findEPKciRPNS_4SlotE(%class.String* sret %10, %class.Args* %15, i8* %16, i32 %17, %"struct.Args::Slot"** dereferenceable(8) %9), !dbg !3622
  %18 = invoke { i64, i64 } @_ZNK6StringcvMS_KFivEEv(%class.String* %10)
          to label %19 unwind label %36, !dbg !3619

; <label>:19:                                     ; preds = %4
  %20 = extractvalue { i64, i64 } %18, 0, !dbg !3619
  %21 = icmp ne i64 %20, 0, !dbg !3619
  br i1 %21, label %22, label %40, !dbg !3623

; <label>:22:                                     ; preds = %19
  call void @llvm.dbg.declare(metadata i8** %13, metadata !3624, metadata !DIExpression()), !dbg !3626
  %23 = load i8*, i8** %8, align 8, !dbg !3627
  %24 = invoke i8* @_ZN17Args_parse_helperI10DefaultArgIbELb0EE4slotIb4ArgsEEPT_RS5_RT0_(i8* dereferenceable(1) %23, %class.Args* dereferenceable(112) %15)
          to label %25 unwind label %36, !dbg !3628

; <label>:25:                                     ; preds = %22
  store i8* %24, i8** %13, align 8, !dbg !3626
  %26 = load i8*, i8** %13, align 8, !dbg !3629
  %27 = icmp ne i8* %26, null, !dbg !3629
  br i1 %27, label %28, label %32, !dbg !3630

; <label>:28:                                     ; preds = %25
  %29 = load i8*, i8** %13, align 8, !dbg !3631
  %30 = invoke zeroext i1 @_ZN17Args_parse_helperI10DefaultArgIbELb0EE5parseIb4ArgsEEbS1_RK6StringRT_RT0_(%class.String* dereferenceable(24) %10, i8* dereferenceable(1) %29, %class.Args* dereferenceable(112) %15)
          to label %31 unwind label %36, !dbg !3632

; <label>:31:                                     ; preds = %28
  br label %32

; <label>:32:                                     ; preds = %31, %25
  %33 = phi i1 [ false, %25 ], [ %30, %31 ]
  %34 = load %"struct.Args::Slot"*, %"struct.Args::Slot"** %9, align 8, !dbg !3633
  invoke void @_ZN4Args9postparseEbPNS_4SlotE(%class.Args* %15, i1 zeroext %33, %"struct.Args::Slot"* %34)
          to label %35 unwind label %36, !dbg !3634

; <label>:35:                                     ; preds = %32
  br label %40, !dbg !3635

; <label>:36:                                     ; preds = %32, %28, %22, %4
  %37 = landingpad { i8*, i32 }
          cleanup, !dbg !3636
  %38 = extractvalue { i8*, i32 } %37, 0, !dbg !3636
  store i8* %38, i8** %11, align 8, !dbg !3636
  %39 = extractvalue { i8*, i32 } %37, 1, !dbg !3636
  store i32 %39, i32* %12, align 4, !dbg !3636
  call void @_ZN6StringD2Ev(%class.String* %10) #9, !dbg !3623
  br label %41, !dbg !3623

; <label>:40:                                     ; preds = %35, %19
  call void @_ZN6StringD2Ev(%class.String* %10) #9, !dbg !3623
  ret void, !dbg !3637

; <label>:41:                                     ; preds = %36
  %42 = load i8*, i8** %11, align 8, !dbg !3623
  %43 = load i32, i32* %12, align 4, !dbg !3623
  %44 = insertvalue { i8*, i32 } undef, i8* %42, 0, !dbg !3623
  %45 = insertvalue { i8*, i32 } %44, i32 %43, 1, !dbg !3623
  resume { i8*, i32 } %45, !dbg !3623
}

declare void @_ZN4Args4findEPKciRPNS_4SlotE(%class.String* sret, %class.Args*, i8*, i32, %"struct.Args::Slot"** dereferenceable(8)) #2

; Function Attrs: noinline nounwind uwtable
define linkonce_odr { i64, i64 } @_ZNK6StringcvMS_KFivEEv(%class.String*) #3 comdat align 2 !dbg !3638 {
  %2 = alloca %class.String*, align 8
  store %class.String* %0, %class.String** %2, align 8
  call void @llvm.dbg.declare(metadata %class.String** %2, metadata !3639, metadata !DIExpression()), !dbg !3640
  %3 = load %class.String*, %class.String** %2, align 8
  %4 = getelementptr inbounds %class.String, %class.String* %3, i32 0, i32 0, !dbg !3641
  %5 = getelementptr inbounds %"struct.String::rep_t", %"struct.String::rep_t"* %4, i32 0, i32 1, !dbg !3642
  %6 = load i32, i32* %5, align 8, !dbg !3642
  %7 = icmp ne i32 %6, 0, !dbg !3643
  %8 = zext i1 %7 to i64, !dbg !3641
  %9 = select i1 %7, { i64, i64 } { i64 ptrtoint (i32 (%class.String*)* @_ZNK6String6lengthEv to i64), i64 0 }, { i64, i64 } zeroinitializer, !dbg !3641
  ret { i64, i64 } %9, !dbg !3644
}

; Function Attrs: noinline uwtable
define linkonce_odr i8* @_ZN17Args_parse_helperI10DefaultArgIbELb0EE4slotIb4ArgsEEPT_RS5_RT0_(i8* dereferenceable(1), %class.Args* dereferenceable(112)) #0 comdat align 2 !dbg !3645 {
  %3 = alloca i8*, align 8
  %4 = alloca %class.Args*, align 8
  store i8* %0, i8** %3, align 8
  call void @llvm.dbg.declare(metadata i8** %3, metadata !3667, metadata !DIExpression()), !dbg !3668
  store %class.Args* %1, %class.Args** %4, align 8
  call void @llvm.dbg.declare(metadata %class.Args** %4, metadata !3669, metadata !DIExpression()), !dbg !3670
  %5 = load %class.Args*, %class.Args** %4, align 8, !dbg !3671
  %6 = load i8*, i8** %3, align 8, !dbg !3672
  %7 = call i8* @_ZN4Args4slotIbEEPT_RS1_(%class.Args* %5, i8* dereferenceable(1) %6), !dbg !3673
  ret i8* %7, !dbg !3674
}

declare void @_ZN4Args9postparseEbPNS_4SlotE(%class.Args*, i1 zeroext, %"struct.Args::Slot"*) #2

; Function Attrs: noinline uwtable
define linkonce_odr zeroext i1 @_ZN17Args_parse_helperI10DefaultArgIbELb0EE5parseIb4ArgsEEbS1_RK6StringRT_RT0_(%class.String* dereferenceable(24), i8* dereferenceable(1), %class.Args* dereferenceable(112)) #0 comdat align 2 !dbg !3675 {
  %4 = alloca %struct.DefaultArg, align 1
  %5 = alloca %class.String*, align 8
  %6 = alloca i8*, align 8
  %7 = alloca %class.Args*, align 8
  call void @llvm.dbg.declare(metadata %struct.DefaultArg* %4, metadata !3679, metadata !DIExpression()), !dbg !3680
  store %class.String* %0, %class.String** %5, align 8
  call void @llvm.dbg.declare(metadata %class.String** %5, metadata !3681, metadata !DIExpression()), !dbg !3682
  store i8* %1, i8** %6, align 8
  call void @llvm.dbg.declare(metadata i8** %6, metadata !3683, metadata !DIExpression()), !dbg !3684
  store %class.Args* %2, %class.Args** %7, align 8
  call void @llvm.dbg.declare(metadata %class.Args** %7, metadata !3685, metadata !DIExpression()), !dbg !3686
  %8 = load %class.String*, %class.String** %5, align 8, !dbg !3687
  %9 = load i8*, i8** %6, align 8, !dbg !3688
  %10 = load %class.Args*, %class.Args** %7, align 8, !dbg !3689
  %11 = bitcast %class.Args* %10 to %class.ArgContext*, !dbg !3689
  %12 = call zeroext i1 @_ZN7BoolArg5parseERK6StringRbRK10ArgContext(%class.String* dereferenceable(24) %8, i8* dereferenceable(1) %9, %class.ArgContext* dereferenceable(32) %11), !dbg !3690
  ret i1 %12, !dbg !3691
}

; Function Attrs: noinline nounwind uwtable
define linkonce_odr void @_ZN6StringD2Ev(%class.String*) unnamed_addr #3 comdat align 2 personality i8* bitcast (i32 (...)* @__gxx_personality_v0 to i8*) !dbg !3692 {
  %2 = alloca %class.String*, align 8
  store %class.String* %0, %class.String** %2, align 8
  call void @llvm.dbg.declare(metadata %class.String** %2, metadata !3693, metadata !DIExpression()), !dbg !3694
  %3 = load %class.String*, %class.String** %2, align 8
  invoke void @_ZNK6String5derefEv(%class.String* %3)
          to label %4 unwind label %5, !dbg !3695

; <label>:4:                                      ; preds = %1
  ret void, !dbg !3697

; <label>:5:                                      ; preds = %1
  %6 = landingpad { i8*, i32 }
          catch i8* null, !dbg !3695
  %7 = extractvalue { i8*, i32 } %6, 0, !dbg !3695
  call void @__clang_call_terminate(i8* %7) #7, !dbg !3695
  unreachable, !dbg !3695
}

; Function Attrs: noinline nounwind uwtable
define linkonce_odr i32 @_ZNK6String6lengthEv(%class.String*) #3 comdat align 2 !dbg !3698 {
  %2 = alloca %class.String*, align 8
  store %class.String* %0, %class.String** %2, align 8
  call void @llvm.dbg.declare(metadata %class.String** %2, metadata !3699, metadata !DIExpression()), !dbg !3700
  %3 = load %class.String*, %class.String** %2, align 8
  %4 = getelementptr inbounds %class.String, %class.String* %3, i32 0, i32 0, !dbg !3701
  %5 = getelementptr inbounds %"struct.String::rep_t", %"struct.String::rep_t"* %4, i32 0, i32 1, !dbg !3702
  %6 = load i32, i32* %5, align 8, !dbg !3702
  ret i32 %6, !dbg !3703
}

; Function Attrs: noinline uwtable
define linkonce_odr i8* @_ZN4Args4slotIbEEPT_RS1_(%class.Args*, i8* dereferenceable(1)) #0 comdat align 2 !dbg !3704 {
  %3 = alloca %class.Args*, align 8
  %4 = alloca i8*, align 8
  store %class.Args* %0, %class.Args** %3, align 8
  call void @llvm.dbg.declare(metadata %class.Args** %3, metadata !3708, metadata !DIExpression()), !dbg !3709
  store i8* %1, i8** %4, align 8
  call void @llvm.dbg.declare(metadata i8** %4, metadata !3710, metadata !DIExpression()), !dbg !3711
  %5 = load %class.Args*, %class.Args** %3, align 8
  %6 = load i8*, i8** %4, align 8, !dbg !3712
  %7 = call i8* @_ZN4Args11simple_slotEPvm(%class.Args* %5, i8* %6, i64 1), !dbg !3714
  ret i8* %7, !dbg !3715
}

declare i8* @_ZN4Args11simple_slotEPvm(%class.Args*, i8*, i64) #2

declare zeroext i1 @_ZN7BoolArg5parseERK6StringRbRK10ArgContext(%class.String* dereferenceable(24), i8* dereferenceable(1), %class.ArgContext* dereferenceable(32)) #2

; Function Attrs: noinline uwtable
define linkonce_odr void @_ZNK6String5derefEv(%class.String*) #0 comdat align 2 !dbg !3716 {
  %2 = alloca %class.String*, align 8
  store %class.String* %0, %class.String** %2, align 8
  call void @llvm.dbg.declare(metadata %class.String** %2, metadata !3717, metadata !DIExpression()), !dbg !3718
  %3 = load %class.String*, %class.String** %2, align 8
  %4 = getelementptr inbounds %class.String, %class.String* %3, i32 0, i32 0, !dbg !3719
  %5 = getelementptr inbounds %"struct.String::rep_t", %"struct.String::rep_t"* %4, i32 0, i32 2, !dbg !3721
  %6 = load %"struct.String::memo_t"*, %"struct.String::memo_t"** %5, align 8, !dbg !3721
  %7 = icmp ne %"struct.String::memo_t"* %6, null, !dbg !3719
  br i1 %7, label %8, label %31, !dbg !3722

; <label>:8:                                      ; preds = %1
  %9 = getelementptr inbounds %class.String, %class.String* %3, i32 0, i32 0, !dbg !3723
  %10 = getelementptr inbounds %"struct.String::rep_t", %"struct.String::rep_t"* %9, i32 0, i32 2, !dbg !3723
  %11 = load %"struct.String::memo_t"*, %"struct.String::memo_t"** %10, align 8, !dbg !3723
  %12 = getelementptr inbounds %"struct.String::memo_t", %"struct.String::memo_t"* %11, i32 0, i32 0, !dbg !3723
  %13 = load volatile i32, i32* %12, align 4, !dbg !3723
  %14 = icmp ne i32 %13, 0, !dbg !3723
  br i1 %14, label %15, label %16, !dbg !3723

; <label>:15:                                     ; preds = %8
  br label %18, !dbg !3723

; <label>:16:                                     ; preds = %8
  call void @__assert_fail(i8* getelementptr inbounds ([18 x i8], [18 x i8]* @.str.5, i32 0, i32 0), i8* getelementptr inbounds ([35 x i8], [35 x i8]* @.str.6, i32 0, i32 0), i32 272, i8* getelementptr inbounds ([27 x i8], [27 x i8]* @__PRETTY_FUNCTION__._ZNK6String5derefEv, i32 0, i32 0)) #7, !dbg !3723
  unreachable, !dbg !3723
                                                  ; No predecessors!
  br label %18, !dbg !3723

; <label>:18:                                     ; preds = %17, %15
  %19 = getelementptr inbounds %class.String, %class.String* %3, i32 0, i32 0, !dbg !3725
  %20 = getelementptr inbounds %"struct.String::rep_t", %"struct.String::rep_t"* %19, i32 0, i32 2, !dbg !3727
  %21 = load %"struct.String::memo_t"*, %"struct.String::memo_t"** %20, align 8, !dbg !3727
  %22 = getelementptr inbounds %"struct.String::memo_t", %"struct.String::memo_t"* %21, i32 0, i32 0, !dbg !3728
  %23 = call zeroext i1 @_ZN15atomic_uint32_t12dec_and_testERVj(i32* dereferenceable(4) %22), !dbg !3729
  br i1 %23, label %24, label %28, !dbg !3730

; <label>:24:                                     ; preds = %18
  %25 = getelementptr inbounds %class.String, %class.String* %3, i32 0, i32 0, !dbg !3731
  %26 = getelementptr inbounds %"struct.String::rep_t", %"struct.String::rep_t"* %25, i32 0, i32 2, !dbg !3732
  %27 = load %"struct.String::memo_t"*, %"struct.String::memo_t"** %26, align 8, !dbg !3732
  call void @_ZN6String11delete_memoEPNS_6memo_tE(%"struct.String::memo_t"* %27), !dbg !3733
  br label %28, !dbg !3733

; <label>:28:                                     ; preds = %24, %18
  %29 = getelementptr inbounds %class.String, %class.String* %3, i32 0, i32 0, !dbg !3734
  %30 = getelementptr inbounds %"struct.String::rep_t", %"struct.String::rep_t"* %29, i32 0, i32 2, !dbg !3735
  store %"struct.String::memo_t"* null, %"struct.String::memo_t"** %30, align 8, !dbg !3736
  br label %31, !dbg !3737

; <label>:31:                                     ; preds = %28, %1
  ret void, !dbg !3738
}

; Function Attrs: noinline noreturn nounwind
define linkonce_odr hidden void @__clang_call_terminate(i8*) #8 comdat {
  %2 = call i8* @__cxa_begin_catch(i8* %0) #9
  call void @_ZSt9terminatev() #7
  unreachable
}

declare i8* @__cxa_begin_catch(i8*)

declare void @_ZSt9terminatev()

; Function Attrs: noinline nounwind uwtable
define linkonce_odr zeroext i1 @_ZN15atomic_uint32_t12dec_and_testERVj(i32* dereferenceable(4)) #3 comdat align 2 !dbg !3739 {
  %2 = alloca i32*, align 8
  store i32* %0, i32** %2, align 8
  call void @llvm.dbg.declare(metadata i32** %2, metadata !3740, metadata !DIExpression()), !dbg !3741
  %3 = load i32*, i32** %2, align 8, !dbg !3742
  %4 = load volatile i32, i32* %3, align 4, !dbg !3743
  %5 = add i32 %4, -1, !dbg !3743
  store volatile i32 %5, i32* %3, align 4, !dbg !3743
  %6 = icmp eq i32 %5, 0, !dbg !3744
  ret i1 %6, !dbg !3745
}

declare void @_ZN6String11delete_memoEPNS_6memo_tE(%"struct.String::memo_t"*) #2

attributes #0 = { noinline uwtable "correctly-rounded-divide-sqrt-fp-math"="false" "disable-tail-calls"="false" "less-precise-fpmad"="false" "no-frame-pointer-elim"="true" "no-frame-pointer-elim-non-leaf" "no-infs-fp-math"="false" "no-jump-tables"="false" "no-nans-fp-math"="false" "no-signed-zeros-fp-math"="false" "no-trapping-math"="false" "stack-protector-buffer-size"="8" "target-cpu"="x86-64" "target-features"="+fxsr,+mmx,+sse,+sse2,+x87" "unsafe-fp-math"="false" "use-soft-float"="false" }
attributes #1 = { nounwind readnone speculatable }
attributes #2 = { "correctly-rounded-divide-sqrt-fp-math"="false" "disable-tail-calls"="false" "less-precise-fpmad"="false" "no-frame-pointer-elim"="true" "no-frame-pointer-elim-non-leaf" "no-infs-fp-math"="false" "no-nans-fp-math"="false" "no-signed-zeros-fp-math"="false" "no-trapping-math"="false" "stack-protector-buffer-size"="8" "target-cpu"="x86-64" "target-features"="+fxsr,+mmx,+sse,+sse2,+x87" "unsafe-fp-math"="false" "use-soft-float"="false" }
attributes #3 = { noinline nounwind uwtable "correctly-rounded-divide-sqrt-fp-math"="false" "disable-tail-calls"="false" "less-precise-fpmad"="false" "no-frame-pointer-elim"="true" "no-frame-pointer-elim-non-leaf" "no-infs-fp-math"="false" "no-jump-tables"="false" "no-nans-fp-math"="false" "no-signed-zeros-fp-math"="false" "no-trapping-math"="false" "stack-protector-buffer-size"="8" "target-cpu"="x86-64" "target-features"="+fxsr,+mmx,+sse,+sse2,+x87" "unsafe-fp-math"="false" "use-soft-float"="false" }
attributes #4 = { nounwind "correctly-rounded-divide-sqrt-fp-math"="false" "disable-tail-calls"="false" "less-precise-fpmad"="false" "no-frame-pointer-elim"="true" "no-frame-pointer-elim-non-leaf" "no-infs-fp-math"="false" "no-nans-fp-math"="false" "no-signed-zeros-fp-math"="false" "no-trapping-math"="false" "stack-protector-buffer-size"="8" "target-cpu"="x86-64" "target-features"="+fxsr,+mmx,+sse,+sse2,+x87" "unsafe-fp-math"="false" "use-soft-float"="false" }
attributes #5 = { nobuiltin nounwind "correctly-rounded-divide-sqrt-fp-math"="false" "disable-tail-calls"="false" "less-precise-fpmad"="false" "no-frame-pointer-elim"="true" "no-frame-pointer-elim-non-leaf" "no-infs-fp-math"="false" "no-nans-fp-math"="false" "no-signed-zeros-fp-math"="false" "no-trapping-math"="false" "stack-protector-buffer-size"="8" "target-cpu"="x86-64" "target-features"="+fxsr,+mmx,+sse,+sse2,+x87" "unsafe-fp-math"="false" "use-soft-float"="false" }
attributes #6 = { noreturn nounwind "correctly-rounded-divide-sqrt-fp-math"="false" "disable-tail-calls"="false" "less-precise-fpmad"="false" "no-frame-pointer-elim"="true" "no-frame-pointer-elim-non-leaf" "no-infs-fp-math"="false" "no-nans-fp-math"="false" "no-signed-zeros-fp-math"="false" "no-trapping-math"="false" "stack-protector-buffer-size"="8" "target-cpu"="x86-64" "target-features"="+fxsr,+mmx,+sse,+sse2,+x87" "unsafe-fp-math"="false" "use-soft-float"="false" }
attributes #7 = { noreturn nounwind }
attributes #8 = { noinline noreturn nounwind }
attributes #9 = { nounwind }
attributes #10 = { builtin nounwind }

!llvm.dbg.cu = !{!0}
!llvm.module.flags = !{!2398, !2399, !2400}
!llvm.ident = !{!2401}

!0 = distinct !DICompileUnit(language: DW_LANG_C_plus_plus, file: !1, producer: "clang version 6.0.0-1ubuntu2~16.04.1 (tags/RELEASE_600/final)", isOptimized: false, runtimeVersion: 0, emissionKind: FullDebug, enums: !2, retainedTypes: !1290, imports: !1292)
!1 = !DIFile(filename: "test10.cc", directory: "/home/jiarong/multi_thread_train/compute_prediction/c_packetprocessing/apps/env")
!2 = !{!3, !875, !1179}
!3 = !DICompositeType(tag: DW_TAG_enumeration_type, name: "PacketType", scope: !5, file: !4, line: 368, size: 32, elements: !1171, identifier: "_ZTSN6Packet10PacketTypeE")
!4 = !DIFile(filename: "/usr/local/include/click/packet.hh", directory: "/home/jiarong/multi_thread_train/compute_prediction/c_packetprocessing/apps/env")
!5 = distinct !DICompositeType(tag: DW_TAG_class_type, name: "Packet", file: !4, line: 35, size: 1344, elements: !6, identifier: "_ZTS6Packet")
!6 = !{!7, !73, !75, !78, !79, !80, !81, !121, !129, !130, !244, !247, !250, !253, !256, !260, !264, !267, !270, !275, !276, !279, !280, !281, !282, !283, !284, !287, !290, !293, !294, !297, !298, !301, !304, !305, !306, !307, !310, !313, !316, !319, !320, !321, !324, !325, !326, !329, !330, !331, !332, !333, !334, !335, !336, !337, !338, !339, !340, !341, !342, !343, !344, !349, !352, !357, !358, !359, !362, !367, !368, !369, !372, !375, !380, !385, !390, !395, !399, !916, !920, !923, !929, !932, !935, !938, !941, !945, !948, !949, !950, !951, !1041, !1044, !1045, !1048, !1052, !1057, !1061, !1066, !1069, !1072, !1075, !1078, !1083, !1086, !1089, !1092, !1095, !1098, !1101, !1104, !1107, !1110, !1111, !1114, !1118, !1119, !1120, !1121, !1122, !1123, !1124, !1125, !1126, !1127, !1128, !1129, !1130, !1131, !1132, !1133, !1134, !1135, !1136, !1137, !1138, !1139, !1140, !1141, !1142, !1143, !1144, !1145, !1146, !1147, !1148, !1149, !1150, !1151, !1152, !1155, !1156, !1160, !1163, !1166, !1169, !1170}
!7 = !DIDerivedType(tag: DW_TAG_member, name: "_use_count", scope: !5, file: !4, line: 737, baseType: !8, size: 32)
!8 = distinct !DICompositeType(tag: DW_TAG_class_type, name: "atomic_uint32_t", file: !9, line: 52, size: 32, elements: !10, identifier: "_ZTS15atomic_uint32_t")
!9 = !DIFile(filename: "/usr/local/include/click/atomic.hh", directory: "/home/jiarong/multi_thread_train/compute_prediction/c_packetprocessing/apps/env")
!10 = !{!11, !15, !20, !21, !26, !31, !32, !33, !34, !37, !40, !41, !42, !45, !46, !50, !53, !56, !61, !64, !67, !70}
!11 = !DIDerivedType(tag: DW_TAG_member, name: "_val", scope: !8, file: !9, line: 91, baseType: !12, size: 32)
!12 = !DIDerivedType(tag: DW_TAG_typedef, name: "uint32_t", file: !13, line: 51, baseType: !14)
!13 = !DIFile(filename: "/usr/include/stdint.h", directory: "/home/jiarong/multi_thread_train/compute_prediction/c_packetprocessing/apps/env")
!14 = !DIBasicType(name: "unsigned int", size: 32, encoding: DW_ATE_unsigned)
!15 = !DISubprogram(name: "value", linkageName: "_ZNK15atomic_uint32_t5valueEv", scope: !8, file: !9, line: 57, type: !16, isLocal: false, isDefinition: false, scopeLine: 57, flags: DIFlagPublic | DIFlagPrototyped, isOptimized: false)
!16 = !DISubroutineType(types: !17)
!17 = !{!12, !18}
!18 = !DIDerivedType(tag: DW_TAG_pointer_type, baseType: !19, size: 64, flags: DIFlagArtificial | DIFlagObjectPointer)
!19 = !DIDerivedType(tag: DW_TAG_const_type, baseType: !8)
!20 = !DISubprogram(name: "operator unsigned int", linkageName: "_ZNK15atomic_uint32_tcvjEv", scope: !8, file: !9, line: 58, type: !16, isLocal: false, isDefinition: false, scopeLine: 58, flags: DIFlagPublic | DIFlagPrototyped, isOptimized: false)
!21 = !DISubprogram(name: "operator=", linkageName: "_ZN15atomic_uint32_taSEj", scope: !8, file: !9, line: 60, type: !22, isLocal: false, isDefinition: false, scopeLine: 60, flags: DIFlagPublic | DIFlagPrototyped, isOptimized: false)
!22 = !DISubroutineType(types: !23)
!23 = !{!24, !25, !12}
!24 = !DIDerivedType(tag: DW_TAG_reference_type, baseType: !8, size: 64)
!25 = !DIDerivedType(tag: DW_TAG_pointer_type, baseType: !8, size: 64, flags: DIFlagArtificial | DIFlagObjectPointer)
!26 = !DISubprogram(name: "operator+=", linkageName: "_ZN15atomic_uint32_tpLEi", scope: !8, file: !9, line: 62, type: !27, isLocal: false, isDefinition: false, scopeLine: 62, flags: DIFlagPublic | DIFlagPrototyped, isOptimized: false)
!27 = !DISubroutineType(types: !28)
!28 = !{!24, !25, !29}
!29 = !DIDerivedType(tag: DW_TAG_typedef, name: "int32_t", file: !13, line: 38, baseType: !30)
!30 = !DIBasicType(name: "int", size: 32, encoding: DW_ATE_signed)
!31 = !DISubprogram(name: "operator-=", linkageName: "_ZN15atomic_uint32_tmIEi", scope: !8, file: !9, line: 63, type: !27, isLocal: false, isDefinition: false, scopeLine: 63, flags: DIFlagPublic | DIFlagPrototyped, isOptimized: false)
!32 = !DISubprogram(name: "operator|=", linkageName: "_ZN15atomic_uint32_toREj", scope: !8, file: !9, line: 64, type: !22, isLocal: false, isDefinition: false, scopeLine: 64, flags: DIFlagPublic | DIFlagPrototyped, isOptimized: false)
!33 = !DISubprogram(name: "operator&=", linkageName: "_ZN15atomic_uint32_taNEj", scope: !8, file: !9, line: 65, type: !22, isLocal: false, isDefinition: false, scopeLine: 65, flags: DIFlagPublic | DIFlagPrototyped, isOptimized: false)
!34 = !DISubprogram(name: "operator++", linkageName: "_ZN15atomic_uint32_tppEv", scope: !8, file: !9, line: 67, type: !35, isLocal: false, isDefinition: false, scopeLine: 67, flags: DIFlagPublic | DIFlagPrototyped, isOptimized: false)
!35 = !DISubroutineType(types: !36)
!36 = !{null, !25}
!37 = !DISubprogram(name: "operator++", linkageName: "_ZN15atomic_uint32_tppEi", scope: !8, file: !9, line: 68, type: !38, isLocal: false, isDefinition: false, scopeLine: 68, flags: DIFlagPublic | DIFlagPrototyped, isOptimized: false)
!38 = !DISubroutineType(types: !39)
!39 = !{null, !25, !30}
!40 = !DISubprogram(name: "operator--", linkageName: "_ZN15atomic_uint32_tmmEv", scope: !8, file: !9, line: 69, type: !35, isLocal: false, isDefinition: false, scopeLine: 69, flags: DIFlagPublic | DIFlagPrototyped, isOptimized: false)
!41 = !DISubprogram(name: "operator--", linkageName: "_ZN15atomic_uint32_tmmEi", scope: !8, file: !9, line: 70, type: !38, isLocal: false, isDefinition: false, scopeLine: 70, flags: DIFlagPublic | DIFlagPrototyped, isOptimized: false)
!42 = !DISubprogram(name: "swap", linkageName: "_ZN15atomic_uint32_t4swapEj", scope: !8, file: !9, line: 72, type: !43, isLocal: false, isDefinition: false, scopeLine: 72, flags: DIFlagPublic | DIFlagPrototyped, isOptimized: false)
!43 = !DISubroutineType(types: !44)
!44 = !{!12, !25, !12}
!45 = !DISubprogram(name: "fetch_and_add", linkageName: "_ZN15atomic_uint32_t13fetch_and_addEj", scope: !8, file: !9, line: 73, type: !43, isLocal: false, isDefinition: false, scopeLine: 73, flags: DIFlagPublic | DIFlagPrototyped, isOptimized: false)
!46 = !DISubprogram(name: "dec_and_test", linkageName: "_ZN15atomic_uint32_t12dec_and_testEv", scope: !8, file: !9, line: 74, type: !47, isLocal: false, isDefinition: false, scopeLine: 74, flags: DIFlagPublic | DIFlagPrototyped, isOptimized: false)
!47 = !DISubroutineType(types: !48)
!48 = !{!49, !25}
!49 = !DIBasicType(name: "bool", size: 8, encoding: DW_ATE_boolean)
!50 = !DISubprogram(name: "compare_swap", linkageName: "_ZN15atomic_uint32_t12compare_swapEjj", scope: !8, file: !9, line: 75, type: !51, isLocal: false, isDefinition: false, scopeLine: 75, flags: DIFlagPublic | DIFlagPrototyped, isOptimized: false)
!51 = !DISubroutineType(types: !52)
!52 = !{!12, !25, !12, !12}
!53 = !DISubprogram(name: "compare_and_swap", linkageName: "_ZN15atomic_uint32_t16compare_and_swapEjj", scope: !8, file: !9, line: 76, type: !54, isLocal: false, isDefinition: false, scopeLine: 76, flags: DIFlagPublic | DIFlagPrototyped, isOptimized: false)
!54 = !DISubroutineType(types: !55)
!55 = !{!49, !25, !12, !12}
!56 = !DISubprogram(name: "swap", linkageName: "_ZN15atomic_uint32_t4swapERVjj", scope: !8, file: !9, line: 78, type: !57, isLocal: false, isDefinition: false, scopeLine: 78, flags: DIFlagPublic | DIFlagPrototyped | DIFlagStaticMember, isOptimized: false)
!57 = !DISubroutineType(types: !58)
!58 = !{!12, !59, !12}
!59 = !DIDerivedType(tag: DW_TAG_reference_type, baseType: !60, size: 64)
!60 = !DIDerivedType(tag: DW_TAG_volatile_type, baseType: !12)
!61 = !DISubprogram(name: "inc", linkageName: "_ZN15atomic_uint32_t3incERVj", scope: !8, file: !9, line: 79, type: !62, isLocal: false, isDefinition: false, scopeLine: 79, flags: DIFlagPublic | DIFlagPrototyped | DIFlagStaticMember, isOptimized: false)
!62 = !DISubroutineType(types: !63)
!63 = !{null, !59}
!64 = !DISubprogram(name: "dec_and_test", linkageName: "_ZN15atomic_uint32_t12dec_and_testERVj", scope: !8, file: !9, line: 80, type: !65, isLocal: false, isDefinition: false, scopeLine: 80, flags: DIFlagPublic | DIFlagPrototyped | DIFlagStaticMember, isOptimized: false)
!65 = !DISubroutineType(types: !66)
!66 = !{!49, !59}
!67 = !DISubprogram(name: "compare_swap", linkageName: "_ZN15atomic_uint32_t12compare_swapERVjjj", scope: !8, file: !9, line: 81, type: !68, isLocal: false, isDefinition: false, scopeLine: 81, flags: DIFlagPublic | DIFlagPrototyped | DIFlagStaticMember, isOptimized: false)
!68 = !DISubroutineType(types: !69)
!69 = !{!12, !59, !12, !12}
!70 = !DISubprogram(name: "compare_and_swap", linkageName: "_ZN15atomic_uint32_t16compare_and_swapERVjjj", scope: !8, file: !9, line: 82, type: !71, isLocal: false, isDefinition: false, scopeLine: 82, flags: DIFlagPublic | DIFlagPrototyped | DIFlagStaticMember, isOptimized: false)
!71 = !DISubroutineType(types: !72)
!72 = !{!49, !59, !12, !12}
!73 = !DIDerivedType(tag: DW_TAG_member, name: "_data_packet", scope: !5, file: !4, line: 738, baseType: !74, size: 64, offset: 64)
!74 = !DIDerivedType(tag: DW_TAG_pointer_type, baseType: !5, size: 64)
!75 = !DIDerivedType(tag: DW_TAG_member, name: "_head", scope: !5, file: !4, line: 740, baseType: !76, size: 64, offset: 128)
!76 = !DIDerivedType(tag: DW_TAG_pointer_type, baseType: !77, size: 64)
!77 = !DIBasicType(name: "unsigned char", size: 8, encoding: DW_ATE_unsigned_char)
!78 = !DIDerivedType(tag: DW_TAG_member, name: "_data", scope: !5, file: !4, line: 741, baseType: !76, size: 64, offset: 192)
!79 = !DIDerivedType(tag: DW_TAG_member, name: "_tail", scope: !5, file: !4, line: 742, baseType: !76, size: 64, offset: 256)
!80 = !DIDerivedType(tag: DW_TAG_member, name: "_end", scope: !5, file: !4, line: 743, baseType: !76, size: 64, offset: 320)
!81 = !DIDerivedType(tag: DW_TAG_member, name: "_aa", scope: !5, file: !4, line: 747, baseType: !82, size: 832, offset: 384)
!82 = distinct !DICompositeType(tag: DW_TAG_structure_type, name: "AllAnno", scope: !5, file: !4, line: 722, size: 832, elements: !83, identifier: "_ZTSN6Packet7AllAnnoE")
!83 = !{!84, !111, !112, !113, !114, !115, !119, !120}
!84 = !DIDerivedType(tag: DW_TAG_member, name: "cb", scope: !82, file: !4, line: 723, baseType: !85, size: 384)
!85 = distinct !DICompositeType(tag: DW_TAG_union_type, name: "Anno", scope: !5, file: !4, line: 708, size: 384, elements: !86, identifier: "_ZTSN6Packet4AnnoE")
!86 = !{!87, !92, !95, !101, !105}
!87 = !DIDerivedType(tag: DW_TAG_member, name: "c", scope: !85, file: !4, line: 709, baseType: !88, size: 384)
!88 = !DICompositeType(tag: DW_TAG_array_type, baseType: !89, size: 384, elements: !90)
!89 = !DIBasicType(name: "char", size: 8, encoding: DW_ATE_signed_char)
!90 = !{!91}
!91 = !DISubrange(count: 48)
!92 = !DIDerivedType(tag: DW_TAG_member, name: "u8", scope: !85, file: !4, line: 710, baseType: !93, size: 384)
!93 = !DICompositeType(tag: DW_TAG_array_type, baseType: !94, size: 384, elements: !90)
!94 = !DIDerivedType(tag: DW_TAG_typedef, name: "uint8_t", file: !13, line: 48, baseType: !77)
!95 = !DIDerivedType(tag: DW_TAG_member, name: "u16", scope: !85, file: !4, line: 711, baseType: !96, size: 384)
!96 = !DICompositeType(tag: DW_TAG_array_type, baseType: !97, size: 384, elements: !99)
!97 = !DIDerivedType(tag: DW_TAG_typedef, name: "uint16_t", file: !13, line: 49, baseType: !98)
!98 = !DIBasicType(name: "unsigned short", size: 16, encoding: DW_ATE_unsigned)
!99 = !{!100}
!100 = !DISubrange(count: 24)
!101 = !DIDerivedType(tag: DW_TAG_member, name: "u32", scope: !85, file: !4, line: 712, baseType: !102, size: 384)
!102 = !DICompositeType(tag: DW_TAG_array_type, baseType: !12, size: 384, elements: !103)
!103 = !{!104}
!104 = !DISubrange(count: 12)
!105 = !DIDerivedType(tag: DW_TAG_member, name: "u64", scope: !85, file: !4, line: 714, baseType: !106, size: 384)
!106 = !DICompositeType(tag: DW_TAG_array_type, baseType: !107, size: 384, elements: !109)
!107 = !DIDerivedType(tag: DW_TAG_typedef, name: "uint64_t", file: !13, line: 55, baseType: !108)
!108 = !DIBasicType(name: "long unsigned int", size: 64, encoding: DW_ATE_unsigned)
!109 = !{!110}
!110 = !DISubrange(count: 6)
!111 = !DIDerivedType(tag: DW_TAG_member, name: "mac", scope: !82, file: !4, line: 724, baseType: !76, size: 64, offset: 384)
!112 = !DIDerivedType(tag: DW_TAG_member, name: "nh", scope: !82, file: !4, line: 725, baseType: !76, size: 64, offset: 448)
!113 = !DIDerivedType(tag: DW_TAG_member, name: "h", scope: !82, file: !4, line: 726, baseType: !76, size: 64, offset: 512)
!114 = !DIDerivedType(tag: DW_TAG_member, name: "pkt_type", scope: !82, file: !4, line: 727, baseType: !3, size: 32, offset: 576)
!115 = !DIDerivedType(tag: DW_TAG_member, name: "timestamp", scope: !82, file: !4, line: 728, baseType: !116, size: 64, offset: 608)
!116 = !DICompositeType(tag: DW_TAG_array_type, baseType: !89, size: 64, elements: !117)
!117 = !{!118}
!118 = !DISubrange(count: 8)
!119 = !DIDerivedType(tag: DW_TAG_member, name: "next", scope: !82, file: !4, line: 729, baseType: !74, size: 64, offset: 704)
!120 = !DIDerivedType(tag: DW_TAG_member, name: "prev", scope: !82, file: !4, line: 730, baseType: !74, size: 64, offset: 768)
!121 = !DIDerivedType(tag: DW_TAG_member, name: "_destructor", scope: !5, file: !4, line: 752, baseType: !122, size: 64, offset: 1216)
!122 = !DIDerivedType(tag: DW_TAG_typedef, name: "buffer_destructor_type", scope: !5, file: !4, line: 65, baseType: !123)
!123 = !DIDerivedType(tag: DW_TAG_pointer_type, baseType: !124, size: 64)
!124 = !DISubroutineType(types: !125)
!125 = !{null, !76, !126, !128}
!126 = !DIDerivedType(tag: DW_TAG_typedef, name: "size_t", file: !127, line: 62, baseType: !108)
!127 = !DIFile(filename: "/usr/include/clang/6.0.0/include/stddef.h", directory: "/home/jiarong/multi_thread_train/compute_prediction/c_packetprocessing/apps/env")
!128 = !DIDerivedType(tag: DW_TAG_pointer_type, baseType: null, size: 64)
!129 = !DIDerivedType(tag: DW_TAG_member, name: "_destructor_argument", scope: !5, file: !4, line: 753, baseType: !128, size: 64, offset: 1280)
!130 = !DISubprogram(name: "make", linkageName: "_ZN6Packet4makeEjPKvjj", scope: !5, file: !4, line: 52, type: !131, isLocal: false, isDefinition: false, scopeLine: 52, flags: DIFlagPublic | DIFlagPrototyped | DIFlagStaticMember, isOptimized: false)
!131 = !DISubroutineType(types: !132)
!132 = !{!133, !12, !242, !12, !12}
!133 = !DIDerivedType(tag: DW_TAG_pointer_type, baseType: !134, size: 64)
!134 = distinct !DICompositeType(tag: DW_TAG_class_type, name: "WritablePacket", file: !4, line: 784, size: 1344, elements: !135, identifier: "_ZTS14WritablePacket")
!135 = !{!136, !137, !142, !143, !144, !145, !146, !151, !152, !175, !180, !181, !192, !210, !221, !222, !226, !227, !232, !233, !236, !239}
!136 = !DIDerivedType(tag: DW_TAG_inheritance, scope: !134, baseType: !5, flags: DIFlagPublic)
!137 = !DISubprogram(name: "data", linkageName: "_ZNK14WritablePacket4dataEv", scope: !134, file: !4, line: 786, type: !138, isLocal: false, isDefinition: false, scopeLine: 786, flags: DIFlagPublic | DIFlagPrototyped, isOptimized: false)
!138 = !DISubroutineType(types: !139)
!139 = !{!76, !140}
!140 = !DIDerivedType(tag: DW_TAG_pointer_type, baseType: !141, size: 64, flags: DIFlagArtificial | DIFlagObjectPointer)
!141 = !DIDerivedType(tag: DW_TAG_const_type, baseType: !134)
!142 = !DISubprogram(name: "end_data", linkageName: "_ZNK14WritablePacket8end_dataEv", scope: !134, file: !4, line: 787, type: !138, isLocal: false, isDefinition: false, scopeLine: 787, flags: DIFlagPublic | DIFlagPrototyped, isOptimized: false)
!143 = !DISubprogram(name: "buffer", linkageName: "_ZNK14WritablePacket6bufferEv", scope: !134, file: !4, line: 788, type: !138, isLocal: false, isDefinition: false, scopeLine: 788, flags: DIFlagPublic | DIFlagPrototyped, isOptimized: false)
!144 = !DISubprogram(name: "end_buffer", linkageName: "_ZNK14WritablePacket10end_bufferEv", scope: !134, file: !4, line: 789, type: !138, isLocal: false, isDefinition: false, scopeLine: 789, flags: DIFlagPublic | DIFlagPrototyped, isOptimized: false)
!145 = !DISubprogram(name: "mac_header", linkageName: "_ZNK14WritablePacket10mac_headerEv", scope: !134, file: !4, line: 790, type: !138, isLocal: false, isDefinition: false, scopeLine: 790, flags: DIFlagPublic | DIFlagPrototyped, isOptimized: false)
!146 = !DISubprogram(name: "ether_header", linkageName: "_ZNK14WritablePacket12ether_headerEv", scope: !134, file: !4, line: 791, type: !147, isLocal: false, isDefinition: false, scopeLine: 791, flags: DIFlagPublic | DIFlagPrototyped, isOptimized: false)
!147 = !DISubroutineType(types: !148)
!148 = !{!149, !140}
!149 = !DIDerivedType(tag: DW_TAG_pointer_type, baseType: !150, size: 64)
!150 = !DICompositeType(tag: DW_TAG_structure_type, name: "click_ether", file: !4, line: 24, flags: DIFlagFwdDecl, identifier: "_ZTS11click_ether")
!151 = !DISubprogram(name: "network_header", linkageName: "_ZNK14WritablePacket14network_headerEv", scope: !134, file: !4, line: 792, type: !138, isLocal: false, isDefinition: false, scopeLine: 792, flags: DIFlagPublic | DIFlagPrototyped, isOptimized: false)
!152 = !DISubprogram(name: "ip_header", linkageName: "_ZNK14WritablePacket9ip_headerEv", scope: !134, file: !4, line: 793, type: !153, isLocal: false, isDefinition: false, scopeLine: 793, flags: DIFlagPublic | DIFlagPrototyped, isOptimized: false)
!153 = !DISubroutineType(types: !154)
!154 = !{!155, !140}
!155 = !DIDerivedType(tag: DW_TAG_pointer_type, baseType: !156, size: 64)
!156 = distinct !DICompositeType(tag: DW_TAG_structure_type, name: "click_ip", file: !157, line: 23, size: 160, elements: !158, identifier: "_ZTS8click_ip")
!157 = !DIFile(filename: "/usr/local/include/clicknet/ip.h", directory: "/home/jiarong/multi_thread_train/compute_prediction/c_packetprocessing/apps/env")
!158 = !{!159, !160, !161, !162, !163, !164, !165, !166, !167, !168, !174}
!159 = !DIDerivedType(tag: DW_TAG_member, name: "ip_hl", scope: !156, file: !157, line: 28, baseType: !14, size: 4, flags: DIFlagBitField, extraData: i64 0)
!160 = !DIDerivedType(tag: DW_TAG_member, name: "ip_v", scope: !156, file: !157, line: 29, baseType: !14, size: 4, offset: 4, flags: DIFlagBitField, extraData: i64 0)
!161 = !DIDerivedType(tag: DW_TAG_member, name: "ip_tos", scope: !156, file: !157, line: 33, baseType: !94, size: 8, offset: 8)
!162 = !DIDerivedType(tag: DW_TAG_member, name: "ip_len", scope: !156, file: !157, line: 40, baseType: !97, size: 16, offset: 16)
!163 = !DIDerivedType(tag: DW_TAG_member, name: "ip_id", scope: !156, file: !157, line: 41, baseType: !97, size: 16, offset: 32)
!164 = !DIDerivedType(tag: DW_TAG_member, name: "ip_off", scope: !156, file: !157, line: 42, baseType: !97, size: 16, offset: 48)
!165 = !DIDerivedType(tag: DW_TAG_member, name: "ip_ttl", scope: !156, file: !157, line: 47, baseType: !94, size: 8, offset: 64)
!166 = !DIDerivedType(tag: DW_TAG_member, name: "ip_p", scope: !156, file: !157, line: 48, baseType: !94, size: 8, offset: 72)
!167 = !DIDerivedType(tag: DW_TAG_member, name: "ip_sum", scope: !156, file: !157, line: 49, baseType: !97, size: 16, offset: 80)
!168 = !DIDerivedType(tag: DW_TAG_member, name: "ip_src", scope: !156, file: !157, line: 50, baseType: !169, size: 32, offset: 96)
!169 = distinct !DICompositeType(tag: DW_TAG_structure_type, name: "in_addr", file: !170, line: 31, size: 32, elements: !171, identifier: "_ZTS7in_addr")
!170 = !DIFile(filename: "/usr/include/netinet/in.h", directory: "/home/jiarong/multi_thread_train/compute_prediction/c_packetprocessing/apps/env")
!171 = !{!172}
!172 = !DIDerivedType(tag: DW_TAG_member, name: "s_addr", scope: !169, file: !170, line: 33, baseType: !173, size: 32)
!173 = !DIDerivedType(tag: DW_TAG_typedef, name: "in_addr_t", file: !170, line: 30, baseType: !12)
!174 = !DIDerivedType(tag: DW_TAG_member, name: "ip_dst", scope: !156, file: !157, line: 51, baseType: !169, size: 32, offset: 128)
!175 = !DISubprogram(name: "ip6_header", linkageName: "_ZNK14WritablePacket10ip6_headerEv", scope: !134, file: !4, line: 794, type: !176, isLocal: false, isDefinition: false, scopeLine: 794, flags: DIFlagPublic | DIFlagPrototyped, isOptimized: false)
!176 = !DISubroutineType(types: !177)
!177 = !{!178, !140}
!178 = !DIDerivedType(tag: DW_TAG_pointer_type, baseType: !179, size: 64)
!179 = !DICompositeType(tag: DW_TAG_structure_type, name: "click_ip6", file: !4, line: 27, flags: DIFlagFwdDecl, identifier: "_ZTS9click_ip6")
!180 = !DISubprogram(name: "transport_header", linkageName: "_ZNK14WritablePacket16transport_headerEv", scope: !134, file: !4, line: 795, type: !138, isLocal: false, isDefinition: false, scopeLine: 795, flags: DIFlagPublic | DIFlagPrototyped, isOptimized: false)
!181 = !DISubprogram(name: "icmp_header", linkageName: "_ZNK14WritablePacket11icmp_headerEv", scope: !134, file: !4, line: 796, type: !182, isLocal: false, isDefinition: false, scopeLine: 796, flags: DIFlagPublic | DIFlagPrototyped, isOptimized: false)
!182 = !DISubroutineType(types: !183)
!183 = !{!184, !140}
!184 = !DIDerivedType(tag: DW_TAG_pointer_type, baseType: !185, size: 64)
!185 = distinct !DICompositeType(tag: DW_TAG_structure_type, name: "click_icmp", file: !186, line: 17, size: 64, elements: !187, identifier: "_ZTS10click_icmp")
!186 = !DIFile(filename: "/usr/local/include/clicknet/icmp.h", directory: "/home/jiarong/multi_thread_train/compute_prediction/c_packetprocessing/apps/env")
!187 = !{!188, !189, !190, !191}
!188 = !DIDerivedType(tag: DW_TAG_member, name: "icmp_type", scope: !185, file: !186, line: 18, baseType: !94, size: 8)
!189 = !DIDerivedType(tag: DW_TAG_member, name: "icmp_code", scope: !185, file: !186, line: 19, baseType: !94, size: 8, offset: 8)
!190 = !DIDerivedType(tag: DW_TAG_member, name: "icmp_cksum", scope: !185, file: !186, line: 20, baseType: !97, size: 16, offset: 16)
!191 = !DIDerivedType(tag: DW_TAG_member, name: "padding", scope: !185, file: !186, line: 21, baseType: !12, size: 32, offset: 32)
!192 = !DISubprogram(name: "tcp_header", linkageName: "_ZNK14WritablePacket10tcp_headerEv", scope: !134, file: !4, line: 797, type: !193, isLocal: false, isDefinition: false, scopeLine: 797, flags: DIFlagPublic | DIFlagPrototyped, isOptimized: false)
!193 = !DISubroutineType(types: !194)
!194 = !{!195, !140}
!195 = !DIDerivedType(tag: DW_TAG_pointer_type, baseType: !196, size: 64)
!196 = distinct !DICompositeType(tag: DW_TAG_structure_type, name: "click_tcp", file: !197, line: 24, size: 160, elements: !198, identifier: "_ZTS9click_tcp")
!197 = !DIFile(filename: "/usr/local/include/clicknet/tcp.h", directory: "/home/jiarong/multi_thread_train/compute_prediction/c_packetprocessing/apps/env")
!198 = !{!199, !200, !201, !203, !204, !205, !206, !207, !208, !209}
!199 = !DIDerivedType(tag: DW_TAG_member, name: "th_sport", scope: !196, file: !197, line: 25, baseType: !97, size: 16)
!200 = !DIDerivedType(tag: DW_TAG_member, name: "th_dport", scope: !196, file: !197, line: 26, baseType: !97, size: 16, offset: 16)
!201 = !DIDerivedType(tag: DW_TAG_member, name: "th_seq", scope: !196, file: !197, line: 27, baseType: !202, size: 32, offset: 32)
!202 = !DIDerivedType(tag: DW_TAG_typedef, name: "tcp_seq_t", file: !197, line: 22, baseType: !12)
!203 = !DIDerivedType(tag: DW_TAG_member, name: "th_ack", scope: !196, file: !197, line: 28, baseType: !202, size: 32, offset: 64)
!204 = !DIDerivedType(tag: DW_TAG_member, name: "th_flags2", scope: !196, file: !197, line: 30, baseType: !14, size: 4, offset: 96, flags: DIFlagBitField, extraData: i64 96)
!205 = !DIDerivedType(tag: DW_TAG_member, name: "th_off", scope: !196, file: !197, line: 31, baseType: !14, size: 4, offset: 100, flags: DIFlagBitField, extraData: i64 96)
!206 = !DIDerivedType(tag: DW_TAG_member, name: "th_flags", scope: !196, file: !197, line: 39, baseType: !94, size: 8, offset: 104)
!207 = !DIDerivedType(tag: DW_TAG_member, name: "th_win", scope: !196, file: !197, line: 48, baseType: !97, size: 16, offset: 112)
!208 = !DIDerivedType(tag: DW_TAG_member, name: "th_sum", scope: !196, file: !197, line: 49, baseType: !97, size: 16, offset: 128)
!209 = !DIDerivedType(tag: DW_TAG_member, name: "th_urp", scope: !196, file: !197, line: 50, baseType: !97, size: 16, offset: 144)
!210 = !DISubprogram(name: "udp_header", linkageName: "_ZNK14WritablePacket10udp_headerEv", scope: !134, file: !4, line: 798, type: !211, isLocal: false, isDefinition: false, scopeLine: 798, flags: DIFlagPublic | DIFlagPrototyped, isOptimized: false)
!211 = !DISubroutineType(types: !212)
!212 = !{!213, !140}
!213 = !DIDerivedType(tag: DW_TAG_pointer_type, baseType: !214, size: 64)
!214 = distinct !DICompositeType(tag: DW_TAG_structure_type, name: "click_udp", file: !215, line: 11, size: 64, elements: !216, identifier: "_ZTS9click_udp")
!215 = !DIFile(filename: "/usr/local/include/clicknet/udp.h", directory: "/home/jiarong/multi_thread_train/compute_prediction/c_packetprocessing/apps/env")
!216 = !{!217, !218, !219, !220}
!217 = !DIDerivedType(tag: DW_TAG_member, name: "uh_sport", scope: !214, file: !215, line: 12, baseType: !97, size: 16)
!218 = !DIDerivedType(tag: DW_TAG_member, name: "uh_dport", scope: !214, file: !215, line: 13, baseType: !97, size: 16, offset: 16)
!219 = !DIDerivedType(tag: DW_TAG_member, name: "uh_ulen", scope: !214, file: !215, line: 14, baseType: !97, size: 16, offset: 32)
!220 = !DIDerivedType(tag: DW_TAG_member, name: "uh_sum", scope: !214, file: !215, line: 15, baseType: !97, size: 16, offset: 48)
!221 = !DISubprogram(name: "buffer_data", linkageName: "_ZNK14WritablePacket11buffer_dataEv", scope: !134, file: !4, line: 801, type: !138, isLocal: false, isDefinition: false, scopeLine: 801, flags: DIFlagPublic | DIFlagPrototyped, isOptimized: false)
!222 = !DISubprogram(name: "WritablePacket", scope: !134, file: !4, line: 806, type: !223, isLocal: false, isDefinition: false, scopeLine: 806, flags: DIFlagPrototyped, isOptimized: false)
!223 = !DISubroutineType(types: !224)
!224 = !{null, !225}
!225 = !DIDerivedType(tag: DW_TAG_pointer_type, baseType: !134, size: 64, flags: DIFlagArtificial | DIFlagObjectPointer)
!226 = !DISubprogram(name: "initialize", linkageName: "_ZN14WritablePacket10initializeEv", scope: !134, file: !4, line: 808, type: !223, isLocal: false, isDefinition: false, scopeLine: 808, flags: DIFlagPrototyped, isOptimized: false)
!227 = !DISubprogram(name: "WritablePacket", scope: !134, file: !4, line: 810, type: !228, isLocal: false, isDefinition: false, scopeLine: 810, flags: DIFlagPrototyped, isOptimized: false)
!228 = !DISubroutineType(types: !229)
!229 = !{null, !225, !230}
!230 = !DIDerivedType(tag: DW_TAG_reference_type, baseType: !231, size: 64)
!231 = !DIDerivedType(tag: DW_TAG_const_type, baseType: !5)
!232 = !DISubprogram(name: "~WritablePacket", scope: !134, file: !4, line: 811, type: !223, isLocal: false, isDefinition: false, scopeLine: 811, flags: DIFlagPrototyped, isOptimized: false)
!233 = !DISubprogram(name: "pool_allocate", linkageName: "_ZN14WritablePacket13pool_allocateEb", scope: !134, file: !4, line: 814, type: !234, isLocal: false, isDefinition: false, scopeLine: 814, flags: DIFlagPrototyped | DIFlagStaticMember, isOptimized: false)
!234 = !DISubroutineType(types: !235)
!235 = !{!133, !49}
!236 = !DISubprogram(name: "pool_allocate", linkageName: "_ZN14WritablePacket13pool_allocateEjjj", scope: !134, file: !4, line: 815, type: !237, isLocal: false, isDefinition: false, scopeLine: 815, flags: DIFlagPrototyped | DIFlagStaticMember, isOptimized: false)
!237 = !DISubroutineType(types: !238)
!238 = !{!133, !12, !12, !12}
!239 = !DISubprogram(name: "recycle", linkageName: "_ZN14WritablePacket7recycleEPS_", scope: !134, file: !4, line: 817, type: !240, isLocal: false, isDefinition: false, scopeLine: 817, flags: DIFlagPrototyped | DIFlagStaticMember, isOptimized: false)
!240 = !DISubroutineType(types: !241)
!241 = !{null, !133}
!242 = !DIDerivedType(tag: DW_TAG_pointer_type, baseType: !243, size: 64)
!243 = !DIDerivedType(tag: DW_TAG_const_type, baseType: null)
!244 = !DISubprogram(name: "make", linkageName: "_ZN6Packet4makeEPKvj", scope: !5, file: !4, line: 54, type: !245, isLocal: false, isDefinition: false, scopeLine: 54, flags: DIFlagPublic | DIFlagPrototyped | DIFlagStaticMember, isOptimized: false)
!245 = !DISubroutineType(types: !246)
!246 = !{!133, !242, !12}
!247 = !DISubprogram(name: "make", linkageName: "_ZN6Packet4makeEj", scope: !5, file: !4, line: 55, type: !248, isLocal: false, isDefinition: false, scopeLine: 55, flags: DIFlagPublic | DIFlagPrototyped | DIFlagStaticMember, isOptimized: false)
!248 = !DISubroutineType(types: !249)
!249 = !{!133, !12}
!250 = !DISubprogram(name: "make", linkageName: "_ZN6Packet4makeEPhjPFvS0_mPvES1_ii", scope: !5, file: !4, line: 66, type: !251, isLocal: false, isDefinition: false, scopeLine: 66, flags: DIFlagPublic | DIFlagPrototyped | DIFlagStaticMember, isOptimized: false)
!251 = !DISubroutineType(types: !252)
!252 = !{!133, !76, !12, !122, !128, !30, !30}
!253 = !DISubprogram(name: "static_cleanup", linkageName: "_ZN6Packet14static_cleanupEv", scope: !5, file: !4, line: 71, type: !254, isLocal: false, isDefinition: false, scopeLine: 71, flags: DIFlagPublic | DIFlagPrototyped | DIFlagStaticMember, isOptimized: false)
!254 = !DISubroutineType(types: !255)
!255 = !{null}
!256 = !DISubprogram(name: "kill", linkageName: "_ZN6Packet4killEv", scope: !5, file: !4, line: 73, type: !257, isLocal: false, isDefinition: false, scopeLine: 73, flags: DIFlagPublic | DIFlagPrototyped, isOptimized: false)
!257 = !DISubroutineType(types: !258)
!258 = !{null, !259}
!259 = !DIDerivedType(tag: DW_TAG_pointer_type, baseType: !5, size: 64, flags: DIFlagArtificial | DIFlagObjectPointer)
!260 = !DISubprogram(name: "shared", linkageName: "_ZNK6Packet6sharedEv", scope: !5, file: !4, line: 75, type: !261, isLocal: false, isDefinition: false, scopeLine: 75, flags: DIFlagPublic | DIFlagPrototyped, isOptimized: false)
!261 = !DISubroutineType(types: !262)
!262 = !{!49, !263}
!263 = !DIDerivedType(tag: DW_TAG_pointer_type, baseType: !231, size: 64, flags: DIFlagArtificial | DIFlagObjectPointer)
!264 = !DISubprogram(name: "clone", linkageName: "_ZN6Packet5cloneEv", scope: !5, file: !4, line: 76, type: !265, isLocal: false, isDefinition: false, scopeLine: 76, flags: DIFlagPublic | DIFlagPrototyped, isOptimized: false)
!265 = !DISubroutineType(types: !266)
!266 = !{!74, !259}
!267 = !DISubprogram(name: "uniqueify", linkageName: "_ZN6Packet9uniqueifyEv", scope: !5, file: !4, line: 77, type: !268, isLocal: false, isDefinition: false, scopeLine: 77, flags: DIFlagPublic | DIFlagPrototyped, isOptimized: false)
!268 = !DISubroutineType(types: !269)
!269 = !{!133, !259}
!270 = !DISubprogram(name: "data", linkageName: "_ZNK6Packet4dataEv", scope: !5, file: !4, line: 79, type: !271, isLocal: false, isDefinition: false, scopeLine: 79, flags: DIFlagPublic | DIFlagPrototyped, isOptimized: false)
!271 = !DISubroutineType(types: !272)
!272 = !{!273, !263}
!273 = !DIDerivedType(tag: DW_TAG_pointer_type, baseType: !274, size: 64)
!274 = !DIDerivedType(tag: DW_TAG_const_type, baseType: !77)
!275 = !DISubprogram(name: "end_data", linkageName: "_ZNK6Packet8end_dataEv", scope: !5, file: !4, line: 80, type: !271, isLocal: false, isDefinition: false, scopeLine: 80, flags: DIFlagPublic | DIFlagPrototyped, isOptimized: false)
!276 = !DISubprogram(name: "length", linkageName: "_ZNK6Packet6lengthEv", scope: !5, file: !4, line: 81, type: !277, isLocal: false, isDefinition: false, scopeLine: 81, flags: DIFlagPublic | DIFlagPrototyped, isOptimized: false)
!277 = !DISubroutineType(types: !278)
!278 = !{!12, !263}
!279 = !DISubprogram(name: "headroom", linkageName: "_ZNK6Packet8headroomEv", scope: !5, file: !4, line: 82, type: !277, isLocal: false, isDefinition: false, scopeLine: 82, flags: DIFlagPublic | DIFlagPrototyped, isOptimized: false)
!280 = !DISubprogram(name: "tailroom", linkageName: "_ZNK6Packet8tailroomEv", scope: !5, file: !4, line: 83, type: !277, isLocal: false, isDefinition: false, scopeLine: 83, flags: DIFlagPublic | DIFlagPrototyped, isOptimized: false)
!281 = !DISubprogram(name: "buffer", linkageName: "_ZNK6Packet6bufferEv", scope: !5, file: !4, line: 84, type: !271, isLocal: false, isDefinition: false, scopeLine: 84, flags: DIFlagPublic | DIFlagPrototyped, isOptimized: false)
!282 = !DISubprogram(name: "end_buffer", linkageName: "_ZNK6Packet10end_bufferEv", scope: !5, file: !4, line: 85, type: !271, isLocal: false, isDefinition: false, scopeLine: 85, flags: DIFlagPublic | DIFlagPrototyped, isOptimized: false)
!283 = !DISubprogram(name: "buffer_length", linkageName: "_ZNK6Packet13buffer_lengthEv", scope: !5, file: !4, line: 86, type: !277, isLocal: false, isDefinition: false, scopeLine: 86, flags: DIFlagPublic | DIFlagPrototyped, isOptimized: false)
!284 = !DISubprogram(name: "buffer_destructor", linkageName: "_ZNK6Packet17buffer_destructorEv", scope: !5, file: !4, line: 97, type: !285, isLocal: false, isDefinition: false, scopeLine: 97, flags: DIFlagPublic | DIFlagPrototyped, isOptimized: false)
!285 = !DISubroutineType(types: !286)
!286 = !{!122, !263}
!287 = !DISubprogram(name: "set_buffer_destructor", linkageName: "_ZN6Packet21set_buffer_destructorEPFvPhmPvE", scope: !5, file: !4, line: 101, type: !288, isLocal: false, isDefinition: false, scopeLine: 101, flags: DIFlagPublic | DIFlagPrototyped, isOptimized: false)
!288 = !DISubroutineType(types: !289)
!289 = !{null, !259, !122}
!290 = !DISubprogram(name: "destructor_argument", linkageName: "_ZN6Packet19destructor_argumentEv", scope: !5, file: !4, line: 105, type: !291, isLocal: false, isDefinition: false, scopeLine: 105, flags: DIFlagPublic | DIFlagPrototyped, isOptimized: false)
!291 = !DISubroutineType(types: !292)
!292 = !{!128, !259}
!293 = !DISubprogram(name: "reset_buffer", linkageName: "_ZN6Packet12reset_bufferEv", scope: !5, file: !4, line: 109, type: !257, isLocal: false, isDefinition: false, scopeLine: 109, flags: DIFlagPublic | DIFlagPrototyped, isOptimized: false)
!294 = !DISubprogram(name: "push", linkageName: "_ZN6Packet4pushEj", scope: !5, file: !4, line: 141, type: !295, isLocal: false, isDefinition: false, scopeLine: 141, flags: DIFlagPublic | DIFlagPrototyped, isOptimized: false)
!295 = !DISubroutineType(types: !296)
!296 = !{!133, !259, !12}
!297 = !DISubprogram(name: "push_mac_header", linkageName: "_ZN6Packet15push_mac_headerEj", scope: !5, file: !4, line: 152, type: !295, isLocal: false, isDefinition: false, scopeLine: 152, flags: DIFlagPublic | DIFlagPrototyped, isOptimized: false)
!298 = !DISubprogram(name: "nonunique_push", linkageName: "_ZN6Packet14nonunique_pushEj", scope: !5, file: !4, line: 171, type: !299, isLocal: false, isDefinition: false, scopeLine: 171, flags: DIFlagPublic | DIFlagPrototyped, isOptimized: false)
!299 = !DISubroutineType(types: !300)
!300 = !{!74, !259, !12}
!301 = !DISubprogram(name: "pull", linkageName: "_ZN6Packet4pullEj", scope: !5, file: !4, line: 187, type: !302, isLocal: false, isDefinition: false, scopeLine: 187, flags: DIFlagPublic | DIFlagPrototyped, isOptimized: false)
!302 = !DISubroutineType(types: !303)
!303 = !{null, !259, !12}
!304 = !DISubprogram(name: "put", linkageName: "_ZN6Packet3putEj", scope: !5, file: !4, line: 213, type: !295, isLocal: false, isDefinition: false, scopeLine: 213, flags: DIFlagPublic | DIFlagPrototyped, isOptimized: false)
!305 = !DISubprogram(name: "nonunique_put", linkageName: "_ZN6Packet13nonunique_putEj", scope: !5, file: !4, line: 230, type: !299, isLocal: false, isDefinition: false, scopeLine: 230, flags: DIFlagPublic | DIFlagPrototyped, isOptimized: false)
!306 = !DISubprogram(name: "take", linkageName: "_ZN6Packet4takeEj", scope: !5, file: !4, line: 245, type: !302, isLocal: false, isDefinition: false, scopeLine: 245, flags: DIFlagPublic | DIFlagPrototyped, isOptimized: false)
!307 = !DISubprogram(name: "shift_data", linkageName: "_ZN6Packet10shift_dataEib", scope: !5, file: !4, line: 269, type: !308, isLocal: false, isDefinition: false, scopeLine: 269, flags: DIFlagPublic | DIFlagPrototyped, isOptimized: false)
!308 = !DISubroutineType(types: !309)
!309 = !{!74, !259, !30, !49}
!310 = !DISubprogram(name: "shrink_data", linkageName: "_ZN6Packet11shrink_dataEPKhj", scope: !5, file: !4, line: 271, type: !311, isLocal: false, isDefinition: false, scopeLine: 271, flags: DIFlagPublic | DIFlagPrototyped, isOptimized: false)
!311 = !DISubroutineType(types: !312)
!312 = !{null, !259, !273, !12}
!313 = !DISubprogram(name: "change_headroom_and_length", linkageName: "_ZN6Packet26change_headroom_and_lengthEjj", scope: !5, file: !4, line: 272, type: !314, isLocal: false, isDefinition: false, scopeLine: 272, flags: DIFlagPublic | DIFlagPrototyped, isOptimized: false)
!314 = !DISubroutineType(types: !315)
!315 = !{null, !259, !12, !12}
!316 = !DISubprogram(name: "copy", linkageName: "_ZN6Packet4copyEPS_i", scope: !5, file: !4, line: 274, type: !317, isLocal: false, isDefinition: false, scopeLine: 274, flags: DIFlagPublic | DIFlagPrototyped, isOptimized: false)
!317 = !DISubroutineType(types: !318)
!318 = !{!49, !259, !74, !30}
!319 = !DISubprogram(name: "has_mac_header", linkageName: "_ZNK6Packet14has_mac_headerEv", scope: !5, file: !4, line: 279, type: !261, isLocal: false, isDefinition: false, scopeLine: 279, flags: DIFlagPublic | DIFlagPrototyped, isOptimized: false)
!320 = !DISubprogram(name: "mac_header", linkageName: "_ZNK6Packet10mac_headerEv", scope: !5, file: !4, line: 280, type: !271, isLocal: false, isDefinition: false, scopeLine: 280, flags: DIFlagPublic | DIFlagPrototyped, isOptimized: false)
!321 = !DISubprogram(name: "mac_header_offset", linkageName: "_ZNK6Packet17mac_header_offsetEv", scope: !5, file: !4, line: 281, type: !322, isLocal: false, isDefinition: false, scopeLine: 281, flags: DIFlagPublic | DIFlagPrototyped, isOptimized: false)
!322 = !DISubroutineType(types: !323)
!323 = !{!30, !263}
!324 = !DISubprogram(name: "mac_header_length", linkageName: "_ZNK6Packet17mac_header_lengthEv", scope: !5, file: !4, line: 282, type: !277, isLocal: false, isDefinition: false, scopeLine: 282, flags: DIFlagPublic | DIFlagPrototyped, isOptimized: false)
!325 = !DISubprogram(name: "mac_length", linkageName: "_ZNK6Packet10mac_lengthEv", scope: !5, file: !4, line: 283, type: !322, isLocal: false, isDefinition: false, scopeLine: 283, flags: DIFlagPublic | DIFlagPrototyped, isOptimized: false)
!326 = !DISubprogram(name: "set_mac_header", linkageName: "_ZN6Packet14set_mac_headerEPKh", scope: !5, file: !4, line: 284, type: !327, isLocal: false, isDefinition: false, scopeLine: 284, flags: DIFlagPublic | DIFlagPrototyped, isOptimized: false)
!327 = !DISubroutineType(types: !328)
!328 = !{null, !259, !273}
!329 = !DISubprogram(name: "set_mac_header", linkageName: "_ZN6Packet14set_mac_headerEPKhj", scope: !5, file: !4, line: 285, type: !311, isLocal: false, isDefinition: false, scopeLine: 285, flags: DIFlagPublic | DIFlagPrototyped, isOptimized: false)
!330 = !DISubprogram(name: "clear_mac_header", linkageName: "_ZN6Packet16clear_mac_headerEv", scope: !5, file: !4, line: 286, type: !257, isLocal: false, isDefinition: false, scopeLine: 286, flags: DIFlagPublic | DIFlagPrototyped, isOptimized: false)
!331 = !DISubprogram(name: "has_network_header", linkageName: "_ZNK6Packet18has_network_headerEv", scope: !5, file: !4, line: 288, type: !261, isLocal: false, isDefinition: false, scopeLine: 288, flags: DIFlagPublic | DIFlagPrototyped, isOptimized: false)
!332 = !DISubprogram(name: "network_header", linkageName: "_ZNK6Packet14network_headerEv", scope: !5, file: !4, line: 289, type: !271, isLocal: false, isDefinition: false, scopeLine: 289, flags: DIFlagPublic | DIFlagPrototyped, isOptimized: false)
!333 = !DISubprogram(name: "network_header_offset", linkageName: "_ZNK6Packet21network_header_offsetEv", scope: !5, file: !4, line: 290, type: !322, isLocal: false, isDefinition: false, scopeLine: 290, flags: DIFlagPublic | DIFlagPrototyped, isOptimized: false)
!334 = !DISubprogram(name: "network_header_length", linkageName: "_ZNK6Packet21network_header_lengthEv", scope: !5, file: !4, line: 291, type: !277, isLocal: false, isDefinition: false, scopeLine: 291, flags: DIFlagPublic | DIFlagPrototyped, isOptimized: false)
!335 = !DISubprogram(name: "network_length", linkageName: "_ZNK6Packet14network_lengthEv", scope: !5, file: !4, line: 292, type: !322, isLocal: false, isDefinition: false, scopeLine: 292, flags: DIFlagPublic | DIFlagPrototyped, isOptimized: false)
!336 = !DISubprogram(name: "set_network_header", linkageName: "_ZN6Packet18set_network_headerEPKhj", scope: !5, file: !4, line: 293, type: !311, isLocal: false, isDefinition: false, scopeLine: 293, flags: DIFlagPublic | DIFlagPrototyped, isOptimized: false)
!337 = !DISubprogram(name: "set_network_header_length", linkageName: "_ZN6Packet25set_network_header_lengthEj", scope: !5, file: !4, line: 294, type: !302, isLocal: false, isDefinition: false, scopeLine: 294, flags: DIFlagPublic | DIFlagPrototyped, isOptimized: false)
!338 = !DISubprogram(name: "clear_network_header", linkageName: "_ZN6Packet20clear_network_headerEv", scope: !5, file: !4, line: 295, type: !257, isLocal: false, isDefinition: false, scopeLine: 295, flags: DIFlagPublic | DIFlagPrototyped, isOptimized: false)
!339 = !DISubprogram(name: "has_transport_header", linkageName: "_ZNK6Packet20has_transport_headerEv", scope: !5, file: !4, line: 297, type: !261, isLocal: false, isDefinition: false, scopeLine: 297, flags: DIFlagPublic | DIFlagPrototyped, isOptimized: false)
!340 = !DISubprogram(name: "transport_header", linkageName: "_ZNK6Packet16transport_headerEv", scope: !5, file: !4, line: 298, type: !271, isLocal: false, isDefinition: false, scopeLine: 298, flags: DIFlagPublic | DIFlagPrototyped, isOptimized: false)
!341 = !DISubprogram(name: "transport_header_offset", linkageName: "_ZNK6Packet23transport_header_offsetEv", scope: !5, file: !4, line: 299, type: !322, isLocal: false, isDefinition: false, scopeLine: 299, flags: DIFlagPublic | DIFlagPrototyped, isOptimized: false)
!342 = !DISubprogram(name: "transport_length", linkageName: "_ZNK6Packet16transport_lengthEv", scope: !5, file: !4, line: 300, type: !322, isLocal: false, isDefinition: false, scopeLine: 300, flags: DIFlagPublic | DIFlagPrototyped, isOptimized: false)
!343 = !DISubprogram(name: "clear_transport_header", linkageName: "_ZN6Packet22clear_transport_headerEv", scope: !5, file: !4, line: 301, type: !257, isLocal: false, isDefinition: false, scopeLine: 301, flags: DIFlagPublic | DIFlagPrototyped, isOptimized: false)
!344 = !DISubprogram(name: "ether_header", linkageName: "_ZNK6Packet12ether_headerEv", scope: !5, file: !4, line: 304, type: !345, isLocal: false, isDefinition: false, scopeLine: 304, flags: DIFlagPublic | DIFlagPrototyped, isOptimized: false)
!345 = !DISubroutineType(types: !346)
!346 = !{!347, !263}
!347 = !DIDerivedType(tag: DW_TAG_pointer_type, baseType: !348, size: 64)
!348 = !DIDerivedType(tag: DW_TAG_const_type, baseType: !150)
!349 = !DISubprogram(name: "set_ether_header", linkageName: "_ZN6Packet16set_ether_headerEPK11click_ether", scope: !5, file: !4, line: 305, type: !350, isLocal: false, isDefinition: false, scopeLine: 305, flags: DIFlagPublic | DIFlagPrototyped, isOptimized: false)
!350 = !DISubroutineType(types: !351)
!351 = !{null, !259, !347}
!352 = !DISubprogram(name: "ip_header", linkageName: "_ZNK6Packet9ip_headerEv", scope: !5, file: !4, line: 307, type: !353, isLocal: false, isDefinition: false, scopeLine: 307, flags: DIFlagPublic | DIFlagPrototyped, isOptimized: false)
!353 = !DISubroutineType(types: !354)
!354 = !{!355, !263}
!355 = !DIDerivedType(tag: DW_TAG_pointer_type, baseType: !356, size: 64)
!356 = !DIDerivedType(tag: DW_TAG_const_type, baseType: !156)
!357 = !DISubprogram(name: "ip_header_offset", linkageName: "_ZNK6Packet16ip_header_offsetEv", scope: !5, file: !4, line: 308, type: !322, isLocal: false, isDefinition: false, scopeLine: 308, flags: DIFlagPublic | DIFlagPrototyped, isOptimized: false)
!358 = !DISubprogram(name: "ip_header_length", linkageName: "_ZNK6Packet16ip_header_lengthEv", scope: !5, file: !4, line: 309, type: !277, isLocal: false, isDefinition: false, scopeLine: 309, flags: DIFlagPublic | DIFlagPrototyped, isOptimized: false)
!359 = !DISubprogram(name: "set_ip_header", linkageName: "_ZN6Packet13set_ip_headerEPK8click_ipj", scope: !5, file: !4, line: 310, type: !360, isLocal: false, isDefinition: false, scopeLine: 310, flags: DIFlagPublic | DIFlagPrototyped, isOptimized: false)
!360 = !DISubroutineType(types: !361)
!361 = !{null, !259, !355, !12}
!362 = !DISubprogram(name: "ip6_header", linkageName: "_ZNK6Packet10ip6_headerEv", scope: !5, file: !4, line: 312, type: !363, isLocal: false, isDefinition: false, scopeLine: 312, flags: DIFlagPublic | DIFlagPrototyped, isOptimized: false)
!363 = !DISubroutineType(types: !364)
!364 = !{!365, !263}
!365 = !DIDerivedType(tag: DW_TAG_pointer_type, baseType: !366, size: 64)
!366 = !DIDerivedType(tag: DW_TAG_const_type, baseType: !179)
!367 = !DISubprogram(name: "ip6_header_offset", linkageName: "_ZNK6Packet17ip6_header_offsetEv", scope: !5, file: !4, line: 313, type: !322, isLocal: false, isDefinition: false, scopeLine: 313, flags: DIFlagPublic | DIFlagPrototyped, isOptimized: false)
!368 = !DISubprogram(name: "ip6_header_length", linkageName: "_ZNK6Packet17ip6_header_lengthEv", scope: !5, file: !4, line: 314, type: !277, isLocal: false, isDefinition: false, scopeLine: 314, flags: DIFlagPublic | DIFlagPrototyped, isOptimized: false)
!369 = !DISubprogram(name: "set_ip6_header", linkageName: "_ZN6Packet14set_ip6_headerEPK9click_ip6", scope: !5, file: !4, line: 315, type: !370, isLocal: false, isDefinition: false, scopeLine: 315, flags: DIFlagPublic | DIFlagPrototyped, isOptimized: false)
!370 = !DISubroutineType(types: !371)
!371 = !{null, !259, !365}
!372 = !DISubprogram(name: "set_ip6_header", linkageName: "_ZN6Packet14set_ip6_headerEPK9click_ip6j", scope: !5, file: !4, line: 316, type: !373, isLocal: false, isDefinition: false, scopeLine: 316, flags: DIFlagPublic | DIFlagPrototyped, isOptimized: false)
!373 = !DISubroutineType(types: !374)
!374 = !{null, !259, !365, !12}
!375 = !DISubprogram(name: "icmp_header", linkageName: "_ZNK6Packet11icmp_headerEv", scope: !5, file: !4, line: 318, type: !376, isLocal: false, isDefinition: false, scopeLine: 318, flags: DIFlagPublic | DIFlagPrototyped, isOptimized: false)
!376 = !DISubroutineType(types: !377)
!377 = !{!378, !263}
!378 = !DIDerivedType(tag: DW_TAG_pointer_type, baseType: !379, size: 64)
!379 = !DIDerivedType(tag: DW_TAG_const_type, baseType: !185)
!380 = !DISubprogram(name: "tcp_header", linkageName: "_ZNK6Packet10tcp_headerEv", scope: !5, file: !4, line: 319, type: !381, isLocal: false, isDefinition: false, scopeLine: 319, flags: DIFlagPublic | DIFlagPrototyped, isOptimized: false)
!381 = !DISubroutineType(types: !382)
!382 = !{!383, !263}
!383 = !DIDerivedType(tag: DW_TAG_pointer_type, baseType: !384, size: 64)
!384 = !DIDerivedType(tag: DW_TAG_const_type, baseType: !196)
!385 = !DISubprogram(name: "udp_header", linkageName: "_ZNK6Packet10udp_headerEv", scope: !5, file: !4, line: 320, type: !386, isLocal: false, isDefinition: false, scopeLine: 320, flags: DIFlagPublic | DIFlagPrototyped, isOptimized: false)
!386 = !DISubroutineType(types: !387)
!387 = !{!388, !263}
!388 = !DIDerivedType(tag: DW_TAG_pointer_type, baseType: !389, size: 64)
!389 = !DIDerivedType(tag: DW_TAG_const_type, baseType: !214)
!390 = !DISubprogram(name: "xanno", linkageName: "_ZNK6Packet5xannoEv", scope: !5, file: !4, line: 340, type: !391, isLocal: false, isDefinition: false, scopeLine: 340, flags: DIFlagPrototyped, isOptimized: false)
!391 = !DISubroutineType(types: !392)
!392 = !{!393, !263}
!393 = !DIDerivedType(tag: DW_TAG_pointer_type, baseType: !394, size: 64)
!394 = !DIDerivedType(tag: DW_TAG_const_type, baseType: !85)
!395 = !DISubprogram(name: "xanno", linkageName: "_ZN6Packet5xannoEv", scope: !5, file: !4, line: 341, type: !396, isLocal: false, isDefinition: false, scopeLine: 341, flags: DIFlagPrototyped, isOptimized: false)
!396 = !DISubroutineType(types: !397)
!397 = !{!398, !259}
!398 = !DIDerivedType(tag: DW_TAG_pointer_type, baseType: !85, size: 64)
!399 = !DISubprogram(name: "timestamp_anno", linkageName: "_ZNK6Packet14timestamp_annoEv", scope: !5, file: !4, line: 354, type: !400, isLocal: false, isDefinition: false, scopeLine: 354, flags: DIFlagPublic | DIFlagPrototyped, isOptimized: false)
!400 = !DISubroutineType(types: !401)
!401 = !{!402, !263}
!402 = !DIDerivedType(tag: DW_TAG_reference_type, baseType: !403, size: 64)
!403 = !DIDerivedType(tag: DW_TAG_const_type, baseType: !404)
!404 = distinct !DICompositeType(tag: DW_TAG_class_type, name: "Timestamp", file: !405, line: 122, size: 64, elements: !406, identifier: "_ZTS9Timestamp")
!405 = !DIFile(filename: "/usr/local/include/click/timestamp.hh", directory: "/home/jiarong/multi_thread_train/compute_prediction/c_packetprocessing/apps/env")
!406 = !{!407, !413, !417, !420, !423, !426, !429, !433, !446, !457, !462, !471, !480, !483, !484, !487, !488, !489, !490, !493, !496, !497, !498, !499, !502, !503, !506, !509, !513, !514, !515, !518, !519, !520, !525, !529, !532, !535, !538, !541, !542, !543, !544, !545, !548, !549, !552, !553, !554, !555, !556, !557, !558, !561, !562, !563, !564, !565, !566, !567, !568, !569, !859, !860, !863, !864, !865, !866, !867, !868, !869, !872, !881, !884, !885, !888, !891, !892, !893, !894, !895, !896, !897, !900, !904, !907, !910, !913}
!407 = !DIDerivedType(tag: DW_TAG_member, name: "_t", scope: !404, file: !405, line: 672, baseType: !408, size: 64)
!408 = distinct !DICompositeType(tag: DW_TAG_union_type, name: "rep_t", scope: !404, file: !405, line: 539, size: 64, elements: !409, identifier: "_ZTSN9Timestamp5rep_tE")
!409 = !{!410}
!410 = !DIDerivedType(tag: DW_TAG_member, name: "x", scope: !408, file: !405, line: 541, baseType: !411, size: 64)
!411 = !DIDerivedType(tag: DW_TAG_typedef, name: "int64_t", file: !13, line: 40, baseType: !412)
!412 = !DIBasicType(name: "long int", size: 64, encoding: DW_ATE_signed)
!413 = !DISubprogram(name: "Timestamp", scope: !404, file: !405, line: 174, type: !414, isLocal: false, isDefinition: false, scopeLine: 174, flags: DIFlagPublic | DIFlagPrototyped, isOptimized: false)
!414 = !DISubroutineType(types: !415)
!415 = !{null, !416}
!416 = !DIDerivedType(tag: DW_TAG_pointer_type, baseType: !404, size: 64, flags: DIFlagArtificial | DIFlagObjectPointer)
!417 = !DISubprogram(name: "Timestamp", scope: !404, file: !405, line: 187, type: !418, isLocal: false, isDefinition: false, scopeLine: 187, flags: DIFlagPublic | DIFlagExplicit | DIFlagPrototyped, isOptimized: false)
!418 = !DISubroutineType(types: !419)
!419 = !{null, !416, !412, !12}
!420 = !DISubprogram(name: "Timestamp", scope: !404, file: !405, line: 191, type: !421, isLocal: false, isDefinition: false, scopeLine: 191, flags: DIFlagPublic | DIFlagExplicit | DIFlagPrototyped, isOptimized: false)
!421 = !DISubroutineType(types: !422)
!422 = !{null, !416, !30, !12}
!423 = !DISubprogram(name: "Timestamp", scope: !404, file: !405, line: 195, type: !424, isLocal: false, isDefinition: false, scopeLine: 195, flags: DIFlagPublic | DIFlagExplicit | DIFlagPrototyped, isOptimized: false)
!424 = !DISubroutineType(types: !425)
!425 = !{null, !416, !108, !12}
!426 = !DISubprogram(name: "Timestamp", scope: !404, file: !405, line: 199, type: !427, isLocal: false, isDefinition: false, scopeLine: 199, flags: DIFlagPublic | DIFlagExplicit | DIFlagPrototyped, isOptimized: false)
!427 = !DISubroutineType(types: !428)
!428 = !{null, !416, !14, !12}
!429 = !DISubprogram(name: "Timestamp", scope: !404, file: !405, line: 203, type: !430, isLocal: false, isDefinition: false, scopeLine: 203, flags: DIFlagPublic | DIFlagExplicit | DIFlagPrototyped, isOptimized: false)
!430 = !DISubroutineType(types: !431)
!431 = !{null, !416, !432}
!432 = !DIBasicType(name: "double", size: 64, encoding: DW_ATE_float)
!433 = !DISubprogram(name: "Timestamp", scope: !404, file: !405, line: 206, type: !434, isLocal: false, isDefinition: false, scopeLine: 206, flags: DIFlagPublic | DIFlagPrototyped, isOptimized: false)
!434 = !DISubroutineType(types: !435)
!435 = !{null, !416, !436}
!436 = !DIDerivedType(tag: DW_TAG_reference_type, baseType: !437, size: 64)
!437 = !DIDerivedType(tag: DW_TAG_const_type, baseType: !438)
!438 = distinct !DICompositeType(tag: DW_TAG_structure_type, name: "timeval", file: !439, line: 30, size: 128, elements: !440, identifier: "_ZTS7timeval")
!439 = !DIFile(filename: "/usr/include/x86_64-linux-gnu/bits/time.h", directory: "/home/jiarong/multi_thread_train/compute_prediction/c_packetprocessing/apps/env")
!440 = !{!441, !444}
!441 = !DIDerivedType(tag: DW_TAG_member, name: "tv_sec", scope: !438, file: !439, line: 32, baseType: !442, size: 64)
!442 = !DIDerivedType(tag: DW_TAG_typedef, name: "__time_t", file: !443, line: 139, baseType: !412)
!443 = !DIFile(filename: "/usr/include/x86_64-linux-gnu/bits/types.h", directory: "/home/jiarong/multi_thread_train/compute_prediction/c_packetprocessing/apps/env")
!444 = !DIDerivedType(tag: DW_TAG_member, name: "tv_usec", scope: !438, file: !439, line: 33, baseType: !445, size: 64, offset: 64)
!445 = !DIDerivedType(tag: DW_TAG_typedef, name: "__suseconds_t", file: !443, line: 141, baseType: !412)
!446 = !DISubprogram(name: "Timestamp", scope: !404, file: !405, line: 208, type: !447, isLocal: false, isDefinition: false, scopeLine: 208, flags: DIFlagPublic | DIFlagPrototyped, isOptimized: false)
!447 = !DISubroutineType(types: !448)
!448 = !{null, !416, !449}
!449 = !DIDerivedType(tag: DW_TAG_reference_type, baseType: !450, size: 64)
!450 = !DIDerivedType(tag: DW_TAG_const_type, baseType: !451)
!451 = distinct !DICompositeType(tag: DW_TAG_structure_type, name: "timespec", file: !452, line: 120, size: 128, elements: !453, identifier: "_ZTS8timespec")
!452 = !DIFile(filename: "/usr/include/time.h", directory: "/home/jiarong/multi_thread_train/compute_prediction/c_packetprocessing/apps/env")
!453 = !{!454, !455}
!454 = !DIDerivedType(tag: DW_TAG_member, name: "tv_sec", scope: !451, file: !452, line: 122, baseType: !442, size: 64)
!455 = !DIDerivedType(tag: DW_TAG_member, name: "tv_nsec", scope: !451, file: !452, line: 123, baseType: !456, size: 64, offset: 64)
!456 = !DIDerivedType(tag: DW_TAG_typedef, name: "__syscall_slong_t", file: !443, line: 175, baseType: !412)
!457 = !DISubprogram(name: "Timestamp", scope: !404, file: !405, line: 212, type: !458, isLocal: false, isDefinition: false, scopeLine: 212, flags: DIFlagPublic | DIFlagPrototyped, isOptimized: false)
!458 = !DISubroutineType(types: !459)
!459 = !{null, !416, !460}
!460 = !DIDerivedType(tag: DW_TAG_reference_type, baseType: !461, size: 64)
!461 = !DIDerivedType(tag: DW_TAG_const_type, baseType: !408)
!462 = !DISubprogram(name: "Timestamp", scope: !404, file: !405, line: 217, type: !463, isLocal: false, isDefinition: false, scopeLine: 217, flags: DIFlagPublic | DIFlagPrototyped, isOptimized: false)
!463 = !DISubroutineType(types: !464)
!464 = !{null, !416, !465}
!465 = !DIDerivedType(tag: DW_TAG_reference_type, baseType: !466, size: 64)
!466 = !DIDerivedType(tag: DW_TAG_const_type, baseType: !467)
!467 = !DIDerivedType(tag: DW_TAG_typedef, name: "uninitialized_t", scope: !404, file: !405, line: 168, baseType: !468)
!468 = distinct !DICompositeType(tag: DW_TAG_structure_type, name: "uninitialized_type", file: !469, line: 317, size: 8, elements: !470, identifier: "_ZTS18uninitialized_type")
!469 = !DIFile(filename: "/usr/local/include/click/config.h", directory: "/home/jiarong/multi_thread_train/compute_prediction/c_packetprocessing/apps/env")
!470 = !{}
!471 = !DISubprogram(name: "operator int (Timestamp::*)() const", linkageName: "_ZNK9TimestampcvMS_KFivEEv", scope: !404, file: !405, line: 222, type: !472, isLocal: false, isDefinition: false, scopeLine: 222, flags: DIFlagPublic | DIFlagPrototyped, isOptimized: false)
!472 = !DISubroutineType(types: !473)
!473 = !{!474, !479}
!474 = !DIDerivedType(tag: DW_TAG_typedef, name: "unspecified_bool_type", scope: !404, file: !405, line: 221, baseType: !475)
!475 = !DIDerivedType(tag: DW_TAG_ptr_to_member_type, baseType: !476, size: 128, extraData: !404)
!476 = !DISubroutineType(types: !477)
!477 = !{!478, !479}
!478 = !DIDerivedType(tag: DW_TAG_typedef, name: "seconds_type", scope: !404, file: !405, line: 125, baseType: !29)
!479 = !DIDerivedType(tag: DW_TAG_pointer_type, baseType: !403, size: 64, flags: DIFlagArtificial | DIFlagObjectPointer)
!480 = !DISubprogram(name: "is_negative", linkageName: "_ZNK9Timestamp11is_negativeEv", scope: !404, file: !405, line: 225, type: !481, isLocal: false, isDefinition: false, scopeLine: 225, flags: DIFlagPublic | DIFlagPrototyped, isOptimized: false)
!481 = !DISubroutineType(types: !482)
!482 = !{!49, !479}
!483 = !DISubprogram(name: "sec", linkageName: "_ZNK9Timestamp3secEv", scope: !404, file: !405, line: 233, type: !476, isLocal: false, isDefinition: false, scopeLine: 233, flags: DIFlagPublic | DIFlagPrototyped, isOptimized: false)
!484 = !DISubprogram(name: "subsec", linkageName: "_ZNK9Timestamp6subsecEv", scope: !404, file: !405, line: 234, type: !485, isLocal: false, isDefinition: false, scopeLine: 234, flags: DIFlagPublic | DIFlagPrototyped, isOptimized: false)
!485 = !DISubroutineType(types: !486)
!486 = !{!12, !479}
!487 = !DISubprogram(name: "msec", linkageName: "_ZNK9Timestamp4msecEv", scope: !404, file: !405, line: 235, type: !485, isLocal: false, isDefinition: false, scopeLine: 235, flags: DIFlagPublic | DIFlagPrototyped, isOptimized: false)
!488 = !DISubprogram(name: "usec", linkageName: "_ZNK9Timestamp4usecEv", scope: !404, file: !405, line: 236, type: !485, isLocal: false, isDefinition: false, scopeLine: 236, flags: DIFlagPublic | DIFlagPrototyped, isOptimized: false)
!489 = !DISubprogram(name: "nsec", linkageName: "_ZNK9Timestamp4nsecEv", scope: !404, file: !405, line: 237, type: !485, isLocal: false, isDefinition: false, scopeLine: 237, flags: DIFlagPublic | DIFlagPrototyped, isOptimized: false)
!490 = !DISubprogram(name: "set_sec", linkageName: "_ZN9Timestamp7set_secEi", scope: !404, file: !405, line: 239, type: !491, isLocal: false, isDefinition: false, scopeLine: 239, flags: DIFlagPublic | DIFlagPrototyped, isOptimized: false)
!491 = !DISubroutineType(types: !492)
!492 = !{null, !416, !478}
!493 = !DISubprogram(name: "set_subsec", linkageName: "_ZN9Timestamp10set_subsecEj", scope: !404, file: !405, line: 240, type: !494, isLocal: false, isDefinition: false, scopeLine: 240, flags: DIFlagPublic | DIFlagPrototyped, isOptimized: false)
!494 = !DISubroutineType(types: !495)
!495 = !{null, !416, !12}
!496 = !DISubprogram(name: "msec1", linkageName: "_ZNK9Timestamp5msec1Ev", scope: !404, file: !405, line: 242, type: !476, isLocal: false, isDefinition: false, scopeLine: 242, flags: DIFlagPublic | DIFlagPrototyped, isOptimized: false)
!497 = !DISubprogram(name: "usec1", linkageName: "_ZNK9Timestamp5usec1Ev", scope: !404, file: !405, line: 243, type: !476, isLocal: false, isDefinition: false, scopeLine: 243, flags: DIFlagPublic | DIFlagPrototyped, isOptimized: false)
!498 = !DISubprogram(name: "nsec1", linkageName: "_ZNK9Timestamp5nsec1Ev", scope: !404, file: !405, line: 244, type: !476, isLocal: false, isDefinition: false, scopeLine: 244, flags: DIFlagPublic | DIFlagPrototyped, isOptimized: false)
!499 = !DISubprogram(name: "timeval", linkageName: "_ZNK9Timestamp7timevalEv", scope: !404, file: !405, line: 250, type: !500, isLocal: false, isDefinition: false, scopeLine: 250, flags: DIFlagPublic | DIFlagPrototyped, isOptimized: false)
!500 = !DISubroutineType(types: !501)
!501 = !{!438, !479}
!502 = !DISubprogram(name: "timeval_ceil", linkageName: "_ZNK9Timestamp12timeval_ceilEv", scope: !404, file: !405, line: 251, type: !500, isLocal: false, isDefinition: false, scopeLine: 251, flags: DIFlagPublic | DIFlagPrototyped, isOptimized: false)
!503 = !DISubprogram(name: "timespec", linkageName: "_ZNK9Timestamp8timespecEv", scope: !404, file: !405, line: 257, type: !504, isLocal: false, isDefinition: false, scopeLine: 257, flags: DIFlagPublic | DIFlagPrototyped, isOptimized: false)
!504 = !DISubroutineType(types: !505)
!505 = !{!451, !479}
!506 = !DISubprogram(name: "doubleval", linkageName: "_ZNK9Timestamp9doublevalEv", scope: !404, file: !405, line: 262, type: !507, isLocal: false, isDefinition: false, scopeLine: 262, flags: DIFlagPublic | DIFlagPrototyped, isOptimized: false)
!507 = !DISubroutineType(types: !508)
!508 = !{!432, !479}
!509 = !DISubprogram(name: "msecval", linkageName: "_ZNK9Timestamp7msecvalEv", scope: !404, file: !405, line: 265, type: !510, isLocal: false, isDefinition: false, scopeLine: 265, flags: DIFlagPublic | DIFlagPrototyped, isOptimized: false)
!510 = !DISubroutineType(types: !511)
!511 = !{!512, !479}
!512 = !DIDerivedType(tag: DW_TAG_typedef, name: "value_type", scope: !404, file: !405, line: 128, baseType: !411)
!513 = !DISubprogram(name: "usecval", linkageName: "_ZNK9Timestamp7usecvalEv", scope: !404, file: !405, line: 273, type: !510, isLocal: false, isDefinition: false, scopeLine: 273, flags: DIFlagPublic | DIFlagPrototyped, isOptimized: false)
!514 = !DISubprogram(name: "nsecval", linkageName: "_ZNK9Timestamp7nsecvalEv", scope: !404, file: !405, line: 281, type: !510, isLocal: false, isDefinition: false, scopeLine: 281, flags: DIFlagPublic | DIFlagPrototyped, isOptimized: false)
!515 = !DISubprogram(name: "msec_ceil", linkageName: "_ZNK9Timestamp9msec_ceilEv", scope: !404, file: !405, line: 290, type: !516, isLocal: false, isDefinition: false, scopeLine: 290, flags: DIFlagPublic | DIFlagPrototyped, isOptimized: false)
!516 = !DISubroutineType(types: !517)
!517 = !{!404, !479}
!518 = !DISubprogram(name: "usec_ceil", linkageName: "_ZNK9Timestamp9usec_ceilEv", scope: !404, file: !405, line: 295, type: !516, isLocal: false, isDefinition: false, scopeLine: 295, flags: DIFlagPublic | DIFlagPrototyped, isOptimized: false)
!519 = !DISubprogram(name: "nsec_ceil", linkageName: "_ZNK9Timestamp9nsec_ceilEv", scope: !404, file: !405, line: 304, type: !516, isLocal: false, isDefinition: false, scopeLine: 304, flags: DIFlagPublic | DIFlagPrototyped, isOptimized: false)
!520 = !DISubprogram(name: "make_jiffies", linkageName: "_ZN9Timestamp12make_jiffiesEj", scope: !404, file: !405, line: 310, type: !521, isLocal: false, isDefinition: false, scopeLine: 310, flags: DIFlagPublic | DIFlagPrototyped | DIFlagStaticMember, isOptimized: false)
!521 = !DISubroutineType(types: !522)
!522 = !{!404, !523}
!523 = !DIDerivedType(tag: DW_TAG_typedef, name: "click_jiffies_t", file: !524, line: 477, baseType: !14)
!524 = !DIFile(filename: "/usr/local/include/click/glue.hh", directory: "/home/jiarong/multi_thread_train/compute_prediction/c_packetprocessing/apps/env")
!525 = !DISubprogram(name: "make_jiffies", linkageName: "_ZN9Timestamp12make_jiffiesEi", scope: !404, file: !405, line: 312, type: !526, isLocal: false, isDefinition: false, scopeLine: 312, flags: DIFlagPublic | DIFlagPrototyped | DIFlagStaticMember, isOptimized: false)
!526 = !DISubroutineType(types: !527)
!527 = !{!404, !528}
!528 = !DIDerivedType(tag: DW_TAG_typedef, name: "click_jiffies_difference_t", file: !524, line: 478, baseType: !30)
!529 = !DISubprogram(name: "jiffies", linkageName: "_ZNK9Timestamp7jiffiesEv", scope: !404, file: !405, line: 314, type: !530, isLocal: false, isDefinition: false, scopeLine: 314, flags: DIFlagPublic | DIFlagPrototyped, isOptimized: false)
!530 = !DISubroutineType(types: !531)
!531 = !{!523, !479}
!532 = !DISubprogram(name: "make_sec", linkageName: "_ZN9Timestamp8make_secEi", scope: !404, file: !405, line: 318, type: !533, isLocal: false, isDefinition: false, scopeLine: 318, flags: DIFlagPublic | DIFlagPrototyped | DIFlagStaticMember, isOptimized: false)
!533 = !DISubroutineType(types: !534)
!534 = !{!404, !478}
!535 = !DISubprogram(name: "make_msec", linkageName: "_ZN9Timestamp9make_msecEij", scope: !404, file: !405, line: 324, type: !536, isLocal: false, isDefinition: false, scopeLine: 324, flags: DIFlagPublic | DIFlagPrototyped | DIFlagStaticMember, isOptimized: false)
!536 = !DISubroutineType(types: !537)
!537 = !{!404, !478, !12}
!538 = !DISubprogram(name: "make_msec", linkageName: "_ZN9Timestamp9make_msecEl", scope: !404, file: !405, line: 328, type: !539, isLocal: false, isDefinition: false, scopeLine: 328, flags: DIFlagPublic | DIFlagPrototyped | DIFlagStaticMember, isOptimized: false)
!539 = !DISubroutineType(types: !540)
!540 = !{!404, !512}
!541 = !DISubprogram(name: "make_usec", linkageName: "_ZN9Timestamp9make_usecEij", scope: !404, file: !405, line: 341, type: !536, isLocal: false, isDefinition: false, scopeLine: 341, flags: DIFlagPublic | DIFlagPrototyped | DIFlagStaticMember, isOptimized: false)
!542 = !DISubprogram(name: "make_usec", linkageName: "_ZN9Timestamp9make_usecEl", scope: !404, file: !405, line: 345, type: !539, isLocal: false, isDefinition: false, scopeLine: 345, flags: DIFlagPublic | DIFlagPrototyped | DIFlagStaticMember, isOptimized: false)
!543 = !DISubprogram(name: "make_nsec", linkageName: "_ZN9Timestamp9make_nsecEij", scope: !404, file: !405, line: 358, type: !536, isLocal: false, isDefinition: false, scopeLine: 358, flags: DIFlagPublic | DIFlagPrototyped | DIFlagStaticMember, isOptimized: false)
!544 = !DISubprogram(name: "make_nsec", linkageName: "_ZN9Timestamp9make_nsecEl", scope: !404, file: !405, line: 362, type: !539, isLocal: false, isDefinition: false, scopeLine: 362, flags: DIFlagPublic | DIFlagPrototyped | DIFlagStaticMember, isOptimized: false)
!545 = !DISubprogram(name: "epsilon", linkageName: "_ZN9Timestamp7epsilonEv", scope: !404, file: !405, line: 375, type: !546, isLocal: false, isDefinition: false, scopeLine: 375, flags: DIFlagPublic | DIFlagPrototyped | DIFlagStaticMember, isOptimized: false)
!546 = !DISubroutineType(types: !547)
!547 = !{!404}
!548 = !DISubprogram(name: "clear", linkageName: "_ZN9Timestamp5clearEv", scope: !404, file: !405, line: 380, type: !414, isLocal: false, isDefinition: false, scopeLine: 380, flags: DIFlagPublic | DIFlagPrototyped, isOptimized: false)
!549 = !DISubprogram(name: "assign", linkageName: "_ZN9Timestamp6assignEij", scope: !404, file: !405, line: 388, type: !550, isLocal: false, isDefinition: false, scopeLine: 388, flags: DIFlagPublic | DIFlagPrototyped, isOptimized: false)
!550 = !DISubroutineType(types: !551)
!551 = !{null, !416, !478, !12}
!552 = !DISubprogram(name: "assign_usec", linkageName: "_ZN9Timestamp11assign_usecEij", scope: !404, file: !405, line: 397, type: !550, isLocal: false, isDefinition: false, scopeLine: 397, flags: DIFlagPublic | DIFlagPrototyped, isOptimized: false)
!553 = !DISubprogram(name: "assign_nsec", linkageName: "_ZN9Timestamp11assign_nsecEij", scope: !404, file: !405, line: 401, type: !550, isLocal: false, isDefinition: false, scopeLine: 401, flags: DIFlagPublic | DIFlagPrototyped, isOptimized: false)
!554 = !DISubprogram(name: "set", linkageName: "_ZN9Timestamp3setEij", scope: !404, file: !405, line: 408, type: !550, isLocal: false, isDefinition: false, scopeLine: 408, flags: DIFlagPublic | DIFlagPrototyped, isOptimized: false)
!555 = !DISubprogram(name: "set_usec", linkageName: "_ZN9Timestamp8set_usecEij", scope: !404, file: !405, line: 411, type: !550, isLocal: false, isDefinition: false, scopeLine: 411, flags: DIFlagPublic | DIFlagPrototyped, isOptimized: false)
!556 = !DISubprogram(name: "set_nsec", linkageName: "_ZN9Timestamp8set_nsecEij", scope: !404, file: !405, line: 414, type: !550, isLocal: false, isDefinition: false, scopeLine: 414, flags: DIFlagPublic | DIFlagPrototyped, isOptimized: false)
!557 = !DISubprogram(name: "set_now", linkageName: "_ZN9Timestamp7set_nowEv", scope: !404, file: !405, line: 417, type: !414, isLocal: false, isDefinition: false, scopeLine: 417, flags: DIFlagPublic | DIFlagPrototyped, isOptimized: false)
!558 = !DISubprogram(name: "set_timeval_ioctl", linkageName: "_ZN9Timestamp17set_timeval_ioctlEii", scope: !404, file: !405, line: 420, type: !559, isLocal: false, isDefinition: false, scopeLine: 420, flags: DIFlagPublic | DIFlagPrototyped, isOptimized: false)
!559 = !DISubroutineType(types: !560)
!560 = !{!30, !416, !30, !30}
!561 = !DISubprogram(name: "now", linkageName: "_ZN9Timestamp3nowEv", scope: !404, file: !405, line: 432, type: !546, isLocal: false, isDefinition: false, scopeLine: 432, flags: DIFlagPublic | DIFlagPrototyped | DIFlagStaticMember, isOptimized: false)
!562 = !DISubprogram(name: "assign_now", linkageName: "_ZN9Timestamp10assign_nowEv", scope: !404, file: !405, line: 438, type: !414, isLocal: false, isDefinition: false, scopeLine: 438, flags: DIFlagPublic | DIFlagPrototyped, isOptimized: false)
!563 = !DISubprogram(name: "recent", linkageName: "_ZN9Timestamp6recentEv", scope: !404, file: !405, line: 446, type: !546, isLocal: false, isDefinition: false, scopeLine: 446, flags: DIFlagPublic | DIFlagPrototyped | DIFlagStaticMember, isOptimized: false)
!564 = !DISubprogram(name: "assign_recent", linkageName: "_ZN9Timestamp13assign_recentEv", scope: !404, file: !405, line: 452, type: !414, isLocal: false, isDefinition: false, scopeLine: 452, flags: DIFlagPublic | DIFlagPrototyped, isOptimized: false)
!565 = !DISubprogram(name: "now_steady", linkageName: "_ZN9Timestamp10now_steadyEv", scope: !404, file: !405, line: 466, type: !546, isLocal: false, isDefinition: false, scopeLine: 466, flags: DIFlagPublic | DIFlagPrototyped | DIFlagStaticMember, isOptimized: false)
!566 = !DISubprogram(name: "assign_now_steady", linkageName: "_ZN9Timestamp17assign_now_steadyEv", scope: !404, file: !405, line: 472, type: !414, isLocal: false, isDefinition: false, scopeLine: 472, flags: DIFlagPublic | DIFlagPrototyped, isOptimized: false)
!567 = !DISubprogram(name: "recent_steady", linkageName: "_ZN9Timestamp13recent_steadyEv", scope: !404, file: !405, line: 481, type: !546, isLocal: false, isDefinition: false, scopeLine: 481, flags: DIFlagPublic | DIFlagPrototyped | DIFlagStaticMember, isOptimized: false)
!568 = !DISubprogram(name: "assign_recent_steady", linkageName: "_ZN9Timestamp20assign_recent_steadyEv", scope: !404, file: !405, line: 487, type: !414, isLocal: false, isDefinition: false, scopeLine: 487, flags: DIFlagPublic | DIFlagPrototyped, isOptimized: false)
!569 = !DISubprogram(name: "unparse", linkageName: "_ZNK9Timestamp7unparseEv", scope: !404, file: !405, line: 496, type: !570, isLocal: false, isDefinition: false, scopeLine: 496, flags: DIFlagPublic | DIFlagPrototyped, isOptimized: false)
!570 = !DISubroutineType(types: !571)
!571 = !{!572, !479}
!572 = distinct !DICompositeType(tag: DW_TAG_class_type, name: "String", file: !573, line: 18, size: 192, elements: !574, identifier: "_ZTS6String")
!573 = !DIFile(filename: "/usr/local/include/click/string.hh", directory: "/home/jiarong/multi_thread_train/compute_prediction/c_packetprocessing/apps/env")
!574 = !{!575, !580, !594, !595, !599, !603, !605, !606, !610, !615, !619, !622, !625, !628, !631, !634, !637, !640, !643, !646, !649, !652, !655, !659, !663, !666, !667, !670, !673, !674, !677, !680, !683, !687, !691, !695, !698, !699, !704, !707, !708, !712, !713, !716, !717, !720, !721, !724, !727, !730, !733, !736, !739, !742, !745, !748, !751, !754, !757, !758, !759, !760, !763, !766, !767, !768, !769, !770, !771, !772, !776, !779, !782, !785, !786, !787, !788, !789, !790, !793, !797, !798, !799, !800, !803, !804, !805, !806, !807, !808, !811, !812, !813, !814, !817, !820, !821, !824, !827, !830, !833, !836, !839, !842, !843, !844, !845, !848, !851, !854, !855, !856}
!575 = !DIDerivedType(tag: DW_TAG_member, name: "bool_data", scope: !572, file: !573, line: 183, baseType: !576, flags: DIFlagPublic | DIFlagStaticMember)
!576 = !DICompositeType(tag: DW_TAG_array_type, baseType: !577, size: 88, elements: !578)
!577 = !DIDerivedType(tag: DW_TAG_const_type, baseType: !89)
!578 = !{!579}
!579 = !DISubrange(count: 11)
!580 = !DIDerivedType(tag: DW_TAG_member, name: "_r", scope: !572, file: !573, line: 210, baseType: !581, size: 192)
!581 = distinct !DICompositeType(tag: DW_TAG_structure_type, name: "rep_t", scope: !572, file: !573, line: 203, size: 192, elements: !582, identifier: "_ZTSN6String5rep_tE")
!582 = !{!583, !585, !586}
!583 = !DIDerivedType(tag: DW_TAG_member, name: "data", scope: !581, file: !573, line: 204, baseType: !584, size: 64)
!584 = !DIDerivedType(tag: DW_TAG_pointer_type, baseType: !577, size: 64)
!585 = !DIDerivedType(tag: DW_TAG_member, name: "length", scope: !581, file: !573, line: 205, baseType: !30, size: 32, offset: 64)
!586 = !DIDerivedType(tag: DW_TAG_member, name: "memo", scope: !581, file: !573, line: 206, baseType: !587, size: 64, offset: 128)
!587 = !DIDerivedType(tag: DW_TAG_pointer_type, baseType: !588, size: 64)
!588 = distinct !DICompositeType(tag: DW_TAG_structure_type, name: "memo_t", scope: !572, file: !573, line: 188, size: 160, elements: !589, identifier: "_ZTSN6String6memo_tE")
!589 = !{!590, !591, !592, !593}
!590 = !DIDerivedType(tag: DW_TAG_member, name: "refcount", scope: !588, file: !573, line: 189, baseType: !60, size: 32)
!591 = !DIDerivedType(tag: DW_TAG_member, name: "capacity", scope: !588, file: !573, line: 190, baseType: !12, size: 32, offset: 32)
!592 = !DIDerivedType(tag: DW_TAG_member, name: "dirty", scope: !588, file: !573, line: 191, baseType: !60, size: 32, offset: 64)
!593 = !DIDerivedType(tag: DW_TAG_member, name: "real_data", scope: !588, file: !573, line: 196, baseType: !116, size: 64, offset: 96)
!594 = !DIDerivedType(tag: DW_TAG_member, name: "null_data", scope: !572, file: !573, line: 291, baseType: !577, flags: DIFlagStaticMember)
!595 = !DIDerivedType(tag: DW_TAG_member, name: "oom_data", scope: !572, file: !573, line: 292, baseType: !596, flags: DIFlagStaticMember)
!596 = !DICompositeType(tag: DW_TAG_array_type, baseType: !577, size: 120, elements: !597)
!597 = !{!598}
!598 = !DISubrange(count: 15)
!599 = !DIDerivedType(tag: DW_TAG_member, name: "int_data", scope: !572, file: !573, line: 293, baseType: !600, flags: DIFlagStaticMember)
!600 = !DICompositeType(tag: DW_TAG_array_type, baseType: !577, size: 160, elements: !601)
!601 = !{!602}
!602 = !DISubrange(count: 20)
!603 = !DIDerivedType(tag: DW_TAG_member, name: "null_string_rep", scope: !572, file: !573, line: 294, baseType: !604, flags: DIFlagStaticMember)
!604 = !DIDerivedType(tag: DW_TAG_const_type, baseType: !581)
!605 = !DIDerivedType(tag: DW_TAG_member, name: "oom_string_rep", scope: !572, file: !573, line: 295, baseType: !604, flags: DIFlagStaticMember)
!606 = !DISubprogram(name: "String", scope: !572, file: !573, line: 38, type: !607, isLocal: false, isDefinition: false, scopeLine: 38, flags: DIFlagPublic | DIFlagPrototyped, isOptimized: false)
!607 = !DISubroutineType(types: !608)
!608 = !{null, !609}
!609 = !DIDerivedType(tag: DW_TAG_pointer_type, baseType: !572, size: 64, flags: DIFlagArtificial | DIFlagObjectPointer)
!610 = !DISubprogram(name: "String", scope: !572, file: !573, line: 39, type: !611, isLocal: false, isDefinition: false, scopeLine: 39, flags: DIFlagPublic | DIFlagPrototyped, isOptimized: false)
!611 = !DISubroutineType(types: !612)
!612 = !{null, !609, !613}
!613 = !DIDerivedType(tag: DW_TAG_reference_type, baseType: !614, size: 64)
!614 = !DIDerivedType(tag: DW_TAG_const_type, baseType: !572)
!615 = !DISubprogram(name: "String", scope: !572, file: !573, line: 41, type: !616, isLocal: false, isDefinition: false, scopeLine: 41, flags: DIFlagPublic | DIFlagPrototyped, isOptimized: false)
!616 = !DISubroutineType(types: !617)
!617 = !{null, !609, !618}
!618 = !DIDerivedType(tag: DW_TAG_rvalue_reference_type, baseType: !572, size: 64)
!619 = !DISubprogram(name: "String", scope: !572, file: !573, line: 43, type: !620, isLocal: false, isDefinition: false, scopeLine: 43, flags: DIFlagPublic | DIFlagPrototyped, isOptimized: false)
!620 = !DISubroutineType(types: !621)
!621 = !{null, !609, !584}
!622 = !DISubprogram(name: "String", scope: !572, file: !573, line: 44, type: !623, isLocal: false, isDefinition: false, scopeLine: 44, flags: DIFlagPublic | DIFlagPrototyped, isOptimized: false)
!623 = !DISubroutineType(types: !624)
!624 = !{null, !609, !584, !30}
!625 = !DISubprogram(name: "String", scope: !572, file: !573, line: 45, type: !626, isLocal: false, isDefinition: false, scopeLine: 45, flags: DIFlagPublic | DIFlagPrototyped, isOptimized: false)
!626 = !DISubroutineType(types: !627)
!627 = !{null, !609, !273, !30}
!628 = !DISubprogram(name: "String", scope: !572, file: !573, line: 46, type: !629, isLocal: false, isDefinition: false, scopeLine: 46, flags: DIFlagPublic | DIFlagPrototyped, isOptimized: false)
!629 = !DISubroutineType(types: !630)
!630 = !{null, !609, !584, !584}
!631 = !DISubprogram(name: "String", scope: !572, file: !573, line: 47, type: !632, isLocal: false, isDefinition: false, scopeLine: 47, flags: DIFlagPublic | DIFlagPrototyped, isOptimized: false)
!632 = !DISubroutineType(types: !633)
!633 = !{null, !609, !273, !273}
!634 = !DISubprogram(name: "String", scope: !572, file: !573, line: 48, type: !635, isLocal: false, isDefinition: false, scopeLine: 48, flags: DIFlagPublic | DIFlagExplicit | DIFlagPrototyped, isOptimized: false)
!635 = !DISubroutineType(types: !636)
!636 = !{null, !609, !49}
!637 = !DISubprogram(name: "String", scope: !572, file: !573, line: 49, type: !638, isLocal: false, isDefinition: false, scopeLine: 49, flags: DIFlagPublic | DIFlagExplicit | DIFlagPrototyped, isOptimized: false)
!638 = !DISubroutineType(types: !639)
!639 = !{null, !609, !89}
!640 = !DISubprogram(name: "String", scope: !572, file: !573, line: 50, type: !641, isLocal: false, isDefinition: false, scopeLine: 50, flags: DIFlagPublic | DIFlagExplicit | DIFlagPrototyped, isOptimized: false)
!641 = !DISubroutineType(types: !642)
!642 = !{null, !609, !77}
!643 = !DISubprogram(name: "String", scope: !572, file: !573, line: 51, type: !644, isLocal: false, isDefinition: false, scopeLine: 51, flags: DIFlagPublic | DIFlagExplicit | DIFlagPrototyped, isOptimized: false)
!644 = !DISubroutineType(types: !645)
!645 = !{null, !609, !30}
!646 = !DISubprogram(name: "String", scope: !572, file: !573, line: 52, type: !647, isLocal: false, isDefinition: false, scopeLine: 52, flags: DIFlagPublic | DIFlagExplicit | DIFlagPrototyped, isOptimized: false)
!647 = !DISubroutineType(types: !648)
!648 = !{null, !609, !14}
!649 = !DISubprogram(name: "String", scope: !572, file: !573, line: 53, type: !650, isLocal: false, isDefinition: false, scopeLine: 53, flags: DIFlagPublic | DIFlagExplicit | DIFlagPrototyped, isOptimized: false)
!650 = !DISubroutineType(types: !651)
!651 = !{null, !609, !412}
!652 = !DISubprogram(name: "String", scope: !572, file: !573, line: 54, type: !653, isLocal: false, isDefinition: false, scopeLine: 54, flags: DIFlagPublic | DIFlagExplicit | DIFlagPrototyped, isOptimized: false)
!653 = !DISubroutineType(types: !654)
!654 = !{null, !609, !108}
!655 = !DISubprogram(name: "String", scope: !572, file: !573, line: 56, type: !656, isLocal: false, isDefinition: false, scopeLine: 56, flags: DIFlagPublic | DIFlagExplicit | DIFlagPrototyped, isOptimized: false)
!656 = !DISubroutineType(types: !657)
!657 = !{null, !609, !658}
!658 = !DIBasicType(name: "long long int", size: 64, encoding: DW_ATE_signed)
!659 = !DISubprogram(name: "String", scope: !572, file: !573, line: 57, type: !660, isLocal: false, isDefinition: false, scopeLine: 57, flags: DIFlagPublic | DIFlagExplicit | DIFlagPrototyped, isOptimized: false)
!660 = !DISubroutineType(types: !661)
!661 = !{null, !609, !662}
!662 = !DIBasicType(name: "long long unsigned int", size: 64, encoding: DW_ATE_unsigned)
!663 = !DISubprogram(name: "String", scope: !572, file: !573, line: 64, type: !664, isLocal: false, isDefinition: false, scopeLine: 64, flags: DIFlagPublic | DIFlagExplicit | DIFlagPrototyped, isOptimized: false)
!664 = !DISubroutineType(types: !665)
!665 = !{null, !609, !432}
!666 = !DISubprogram(name: "~String", scope: !572, file: !573, line: 66, type: !607, isLocal: false, isDefinition: false, scopeLine: 66, flags: DIFlagPublic | DIFlagPrototyped, isOptimized: false)
!667 = !DISubprogram(name: "make_empty", linkageName: "_ZN6String10make_emptyEv", scope: !572, file: !573, line: 68, type: !668, isLocal: false, isDefinition: false, scopeLine: 68, flags: DIFlagPublic | DIFlagPrototyped | DIFlagStaticMember, isOptimized: false)
!668 = !DISubroutineType(types: !669)
!669 = !{!613}
!670 = !DISubprogram(name: "make_uninitialized", linkageName: "_ZN6String18make_uninitializedEi", scope: !572, file: !573, line: 69, type: !671, isLocal: false, isDefinition: false, scopeLine: 69, flags: DIFlagPublic | DIFlagPrototyped | DIFlagStaticMember, isOptimized: false)
!671 = !DISubroutineType(types: !672)
!672 = !{!572, !30}
!673 = !DISubprogram(name: "make_garbage", linkageName: "_ZN6String12make_garbageEi", scope: !572, file: !573, line: 70, type: !671, isLocal: false, isDefinition: false, scopeLine: 70, flags: DIFlagPublic | DIFlagPrototyped | DIFlagStaticMember, isOptimized: false)
!674 = !DISubprogram(name: "make_stable", linkageName: "_ZN6String11make_stableEPKc", scope: !572, file: !573, line: 71, type: !675, isLocal: false, isDefinition: false, scopeLine: 71, flags: DIFlagPublic | DIFlagPrototyped | DIFlagStaticMember, isOptimized: false)
!675 = !DISubroutineType(types: !676)
!676 = !{!572, !584}
!677 = !DISubprogram(name: "make_stable", linkageName: "_ZN6String11make_stableEPKci", scope: !572, file: !573, line: 72, type: !678, isLocal: false, isDefinition: false, scopeLine: 72, flags: DIFlagPublic | DIFlagPrototyped | DIFlagStaticMember, isOptimized: false)
!678 = !DISubroutineType(types: !679)
!679 = !{!572, !584, !30}
!680 = !DISubprogram(name: "make_stable", linkageName: "_ZN6String11make_stableEPKcS1_", scope: !572, file: !573, line: 73, type: !681, isLocal: false, isDefinition: false, scopeLine: 73, flags: DIFlagPublic | DIFlagPrototyped | DIFlagStaticMember, isOptimized: false)
!681 = !DISubroutineType(types: !682)
!682 = !{!572, !584, !584}
!683 = !DISubprogram(name: "make_numeric", linkageName: "_ZN6String12make_numericElib", scope: !572, file: !573, line: 74, type: !684, isLocal: false, isDefinition: false, scopeLine: 74, flags: DIFlagPublic | DIFlagPrototyped | DIFlagStaticMember, isOptimized: false)
!684 = !DISubroutineType(types: !685)
!685 = !{!572, !686, !30, !49}
!686 = !DIDerivedType(tag: DW_TAG_typedef, name: "intmax_t", scope: !572, file: !573, line: 26, baseType: !411)
!687 = !DISubprogram(name: "make_numeric", linkageName: "_ZN6String12make_numericEmib", scope: !572, file: !573, line: 75, type: !688, isLocal: false, isDefinition: false, scopeLine: 75, flags: DIFlagPublic | DIFlagPrototyped | DIFlagStaticMember, isOptimized: false)
!688 = !DISubroutineType(types: !689)
!689 = !{!572, !690, !30, !49}
!690 = !DIDerivedType(tag: DW_TAG_typedef, name: "uintmax_t", scope: !572, file: !573, line: 27, baseType: !107)
!691 = !DISubprogram(name: "data", linkageName: "_ZNK6String4dataEv", scope: !572, file: !573, line: 77, type: !692, isLocal: false, isDefinition: false, scopeLine: 77, flags: DIFlagPublic | DIFlagPrototyped, isOptimized: false)
!692 = !DISubroutineType(types: !693)
!693 = !{!584, !694}
!694 = !DIDerivedType(tag: DW_TAG_pointer_type, baseType: !614, size: 64, flags: DIFlagArtificial | DIFlagObjectPointer)
!695 = !DISubprogram(name: "length", linkageName: "_ZNK6String6lengthEv", scope: !572, file: !573, line: 78, type: !696, isLocal: false, isDefinition: false, scopeLine: 78, flags: DIFlagPublic | DIFlagPrototyped, isOptimized: false)
!696 = !DISubroutineType(types: !697)
!697 = !{!30, !694}
!698 = !DISubprogram(name: "c_str", linkageName: "_ZNK6String5c_strEv", scope: !572, file: !573, line: 80, type: !692, isLocal: false, isDefinition: false, scopeLine: 80, flags: DIFlagPublic | DIFlagPrototyped, isOptimized: false)
!699 = !DISubprogram(name: "operator int (String::*)() const", linkageName: "_ZNK6StringcvMS_KFivEEv", scope: !572, file: !573, line: 82, type: !700, isLocal: false, isDefinition: false, scopeLine: 82, flags: DIFlagPublic | DIFlagPrototyped, isOptimized: false)
!700 = !DISubroutineType(types: !701)
!701 = !{!702, !694}
!702 = !DIDerivedType(tag: DW_TAG_typedef, name: "unspecified_bool_type", scope: !572, file: !573, line: 23, baseType: !703)
!703 = !DIDerivedType(tag: DW_TAG_ptr_to_member_type, baseType: !696, size: 128, extraData: !572)
!704 = !DISubprogram(name: "empty", linkageName: "_ZNK6String5emptyEv", scope: !572, file: !573, line: 83, type: !705, isLocal: false, isDefinition: false, scopeLine: 83, flags: DIFlagPublic | DIFlagPrototyped, isOptimized: false)
!705 = !DISubroutineType(types: !706)
!706 = !{!49, !694}
!707 = !DISubprogram(name: "operator!", linkageName: "_ZNK6StringntEv", scope: !572, file: !573, line: 84, type: !705, isLocal: false, isDefinition: false, scopeLine: 84, flags: DIFlagPublic | DIFlagPrototyped, isOptimized: false)
!708 = !DISubprogram(name: "begin", linkageName: "_ZNK6String5beginEv", scope: !572, file: !573, line: 86, type: !709, isLocal: false, isDefinition: false, scopeLine: 86, flags: DIFlagPublic | DIFlagPrototyped, isOptimized: false)
!709 = !DISubroutineType(types: !710)
!710 = !{!711, !694}
!711 = !DIDerivedType(tag: DW_TAG_typedef, name: "const_iterator", scope: !572, file: !573, line: 20, baseType: !584)
!712 = !DISubprogram(name: "end", linkageName: "_ZNK6String3endEv", scope: !572, file: !573, line: 87, type: !709, isLocal: false, isDefinition: false, scopeLine: 87, flags: DIFlagPublic | DIFlagPrototyped, isOptimized: false)
!713 = !DISubprogram(name: "operator[]", linkageName: "_ZNK6StringixEi", scope: !572, file: !573, line: 89, type: !714, isLocal: false, isDefinition: false, scopeLine: 89, flags: DIFlagPublic | DIFlagPrototyped, isOptimized: false)
!714 = !DISubroutineType(types: !715)
!715 = !{!89, !694, !30}
!716 = !DISubprogram(name: "at", linkageName: "_ZNK6String2atEi", scope: !572, file: !573, line: 90, type: !714, isLocal: false, isDefinition: false, scopeLine: 90, flags: DIFlagPublic | DIFlagPrototyped, isOptimized: false)
!717 = !DISubprogram(name: "front", linkageName: "_ZNK6String5frontEv", scope: !572, file: !573, line: 91, type: !718, isLocal: false, isDefinition: false, scopeLine: 91, flags: DIFlagPublic | DIFlagPrototyped, isOptimized: false)
!718 = !DISubroutineType(types: !719)
!719 = !{!89, !694}
!720 = !DISubprogram(name: "back", linkageName: "_ZNK6String4backEv", scope: !572, file: !573, line: 92, type: !718, isLocal: false, isDefinition: false, scopeLine: 92, flags: DIFlagPublic | DIFlagPrototyped, isOptimized: false)
!721 = !DISubprogram(name: "hashcode", linkageName: "_ZN6String8hashcodeEPKcS1_", scope: !572, file: !573, line: 94, type: !722, isLocal: false, isDefinition: false, scopeLine: 94, flags: DIFlagPublic | DIFlagPrototyped | DIFlagStaticMember, isOptimized: false)
!722 = !DISubroutineType(types: !723)
!723 = !{!12, !584, !584}
!724 = !DISubprogram(name: "hashcode", linkageName: "_ZN6String8hashcodeEPKhS1_", scope: !572, file: !573, line: 95, type: !725, isLocal: false, isDefinition: false, scopeLine: 95, flags: DIFlagPublic | DIFlagPrototyped | DIFlagStaticMember, isOptimized: false)
!725 = !DISubroutineType(types: !726)
!726 = !{!12, !273, !273}
!727 = !DISubprogram(name: "hashcode", linkageName: "_ZNK6String8hashcodeEv", scope: !572, file: !573, line: 97, type: !728, isLocal: false, isDefinition: false, scopeLine: 97, flags: DIFlagPublic | DIFlagPrototyped, isOptimized: false)
!728 = !DISubroutineType(types: !729)
!729 = !{!12, !694}
!730 = !DISubprogram(name: "substring", linkageName: "_ZNK6String9substringEPKcS1_", scope: !572, file: !573, line: 99, type: !731, isLocal: false, isDefinition: false, scopeLine: 99, flags: DIFlagPublic | DIFlagPrototyped, isOptimized: false)
!731 = !DISubroutineType(types: !732)
!732 = !{!572, !694, !584, !584}
!733 = !DISubprogram(name: "substring", linkageName: "_ZNK6String9substringEii", scope: !572, file: !573, line: 100, type: !734, isLocal: false, isDefinition: false, scopeLine: 100, flags: DIFlagPublic | DIFlagPrototyped, isOptimized: false)
!734 = !DISubroutineType(types: !735)
!735 = !{!572, !694, !30, !30}
!736 = !DISubprogram(name: "substring", linkageName: "_ZNK6String9substringEi", scope: !572, file: !573, line: 101, type: !737, isLocal: false, isDefinition: false, scopeLine: 101, flags: DIFlagPublic | DIFlagPrototyped, isOptimized: false)
!737 = !DISubroutineType(types: !738)
!738 = !{!572, !694, !30}
!739 = !DISubprogram(name: "trim_space", linkageName: "_ZNK6String10trim_spaceEv", scope: !572, file: !573, line: 102, type: !740, isLocal: false, isDefinition: false, scopeLine: 102, flags: DIFlagPublic | DIFlagPrototyped, isOptimized: false)
!740 = !DISubroutineType(types: !741)
!741 = !{!572, !694}
!742 = !DISubprogram(name: "equals", linkageName: "_ZNK6String6equalsERKS_", scope: !572, file: !573, line: 104, type: !743, isLocal: false, isDefinition: false, scopeLine: 104, flags: DIFlagPublic | DIFlagPrototyped, isOptimized: false)
!743 = !DISubroutineType(types: !744)
!744 = !{!49, !694, !613}
!745 = !DISubprogram(name: "equals", linkageName: "_ZNK6String6equalsEPKci", scope: !572, file: !573, line: 105, type: !746, isLocal: false, isDefinition: false, scopeLine: 105, flags: DIFlagPublic | DIFlagPrototyped, isOptimized: false)
!746 = !DISubroutineType(types: !747)
!747 = !{!49, !694, !584, !30}
!748 = !DISubprogram(name: "compare", linkageName: "_ZN6String7compareERKS_S1_", scope: !572, file: !573, line: 106, type: !749, isLocal: false, isDefinition: false, scopeLine: 106, flags: DIFlagPublic | DIFlagPrototyped | DIFlagStaticMember, isOptimized: false)
!749 = !DISubroutineType(types: !750)
!750 = !{!30, !613, !613}
!751 = !DISubprogram(name: "compare", linkageName: "_ZNK6String7compareERKS_", scope: !572, file: !573, line: 107, type: !752, isLocal: false, isDefinition: false, scopeLine: 107, flags: DIFlagPublic | DIFlagPrototyped, isOptimized: false)
!752 = !DISubroutineType(types: !753)
!753 = !{!30, !694, !613}
!754 = !DISubprogram(name: "compare", linkageName: "_ZNK6String7compareEPKci", scope: !572, file: !573, line: 108, type: !755, isLocal: false, isDefinition: false, scopeLine: 108, flags: DIFlagPublic | DIFlagPrototyped, isOptimized: false)
!755 = !DISubroutineType(types: !756)
!756 = !{!30, !694, !584, !30}
!757 = !DISubprogram(name: "starts_with", linkageName: "_ZNK6String11starts_withERKS_", scope: !572, file: !573, line: 109, type: !743, isLocal: false, isDefinition: false, scopeLine: 109, flags: DIFlagPublic | DIFlagPrototyped, isOptimized: false)
!758 = !DISubprogram(name: "starts_with", linkageName: "_ZNK6String11starts_withEPKci", scope: !572, file: !573, line: 110, type: !746, isLocal: false, isDefinition: false, scopeLine: 110, flags: DIFlagPublic | DIFlagPrototyped, isOptimized: false)
!759 = !DISubprogram(name: "glob_match", linkageName: "_ZNK6String10glob_matchERKS_", scope: !572, file: !573, line: 111, type: !743, isLocal: false, isDefinition: false, scopeLine: 111, flags: DIFlagPublic | DIFlagPrototyped, isOptimized: false)
!760 = !DISubprogram(name: "find_left", linkageName: "_ZNK6String9find_leftEci", scope: !572, file: !573, line: 124, type: !761, isLocal: false, isDefinition: false, scopeLine: 124, flags: DIFlagPublic | DIFlagPrototyped, isOptimized: false)
!761 = !DISubroutineType(types: !762)
!762 = !{!30, !694, !89, !30}
!763 = !DISubprogram(name: "find_left", linkageName: "_ZNK6String9find_leftERKS_i", scope: !572, file: !573, line: 125, type: !764, isLocal: false, isDefinition: false, scopeLine: 125, flags: DIFlagPublic | DIFlagPrototyped, isOptimized: false)
!764 = !DISubroutineType(types: !765)
!765 = !{!30, !694, !613, !30}
!766 = !DISubprogram(name: "find_right", linkageName: "_ZNK6String10find_rightEci", scope: !572, file: !573, line: 126, type: !761, isLocal: false, isDefinition: false, scopeLine: 126, flags: DIFlagPublic | DIFlagPrototyped, isOptimized: false)
!767 = !DISubprogram(name: "lower", linkageName: "_ZNK6String5lowerEv", scope: !572, file: !573, line: 128, type: !740, isLocal: false, isDefinition: false, scopeLine: 128, flags: DIFlagPublic | DIFlagPrototyped, isOptimized: false)
!768 = !DISubprogram(name: "upper", linkageName: "_ZNK6String5upperEv", scope: !572, file: !573, line: 129, type: !740, isLocal: false, isDefinition: false, scopeLine: 129, flags: DIFlagPublic | DIFlagPrototyped, isOptimized: false)
!769 = !DISubprogram(name: "printable", linkageName: "_ZNK6String9printableEv", scope: !572, file: !573, line: 130, type: !740, isLocal: false, isDefinition: false, scopeLine: 130, flags: DIFlagPublic | DIFlagPrototyped, isOptimized: false)
!770 = !DISubprogram(name: "quoted_hex", linkageName: "_ZNK6String10quoted_hexEv", scope: !572, file: !573, line: 131, type: !740, isLocal: false, isDefinition: false, scopeLine: 131, flags: DIFlagPublic | DIFlagPrototyped, isOptimized: false)
!771 = !DISubprogram(name: "encode_json", linkageName: "_ZNK6String11encode_jsonEv", scope: !572, file: !573, line: 132, type: !740, isLocal: false, isDefinition: false, scopeLine: 132, flags: DIFlagPublic | DIFlagPrototyped, isOptimized: false)
!772 = !DISubprogram(name: "operator=", linkageName: "_ZN6StringaSERKS_", scope: !572, file: !573, line: 134, type: !773, isLocal: false, isDefinition: false, scopeLine: 134, flags: DIFlagPublic | DIFlagPrototyped, isOptimized: false)
!773 = !DISubroutineType(types: !774)
!774 = !{!775, !609, !613}
!775 = !DIDerivedType(tag: DW_TAG_reference_type, baseType: !572, size: 64)
!776 = !DISubprogram(name: "operator=", linkageName: "_ZN6StringaSEOS_", scope: !572, file: !573, line: 136, type: !777, isLocal: false, isDefinition: false, scopeLine: 136, flags: DIFlagPublic | DIFlagPrototyped, isOptimized: false)
!777 = !DISubroutineType(types: !778)
!778 = !{!775, !609, !618}
!779 = !DISubprogram(name: "operator=", linkageName: "_ZN6StringaSEPKc", scope: !572, file: !573, line: 138, type: !780, isLocal: false, isDefinition: false, scopeLine: 138, flags: DIFlagPublic | DIFlagPrototyped, isOptimized: false)
!780 = !DISubroutineType(types: !781)
!781 = !{!775, !609, !584}
!782 = !DISubprogram(name: "swap", linkageName: "_ZN6String4swapERS_", scope: !572, file: !573, line: 140, type: !783, isLocal: false, isDefinition: false, scopeLine: 140, flags: DIFlagPublic | DIFlagPrototyped, isOptimized: false)
!783 = !DISubroutineType(types: !784)
!784 = !{null, !609, !775}
!785 = !DISubprogram(name: "append", linkageName: "_ZN6String6appendERKS_", scope: !572, file: !573, line: 142, type: !611, isLocal: false, isDefinition: false, scopeLine: 142, flags: DIFlagPublic | DIFlagPrototyped, isOptimized: false)
!786 = !DISubprogram(name: "append", linkageName: "_ZN6String6appendEPKc", scope: !572, file: !573, line: 143, type: !620, isLocal: false, isDefinition: false, scopeLine: 143, flags: DIFlagPublic | DIFlagPrototyped, isOptimized: false)
!787 = !DISubprogram(name: "append", linkageName: "_ZN6String6appendEPKci", scope: !572, file: !573, line: 144, type: !623, isLocal: false, isDefinition: false, scopeLine: 144, flags: DIFlagPublic | DIFlagPrototyped, isOptimized: false)
!788 = !DISubprogram(name: "append", linkageName: "_ZN6String6appendEPKcS1_", scope: !572, file: !573, line: 145, type: !629, isLocal: false, isDefinition: false, scopeLine: 145, flags: DIFlagPublic | DIFlagPrototyped, isOptimized: false)
!789 = !DISubprogram(name: "append", linkageName: "_ZN6String6appendEc", scope: !572, file: !573, line: 146, type: !638, isLocal: false, isDefinition: false, scopeLine: 146, flags: DIFlagPublic | DIFlagPrototyped, isOptimized: false)
!790 = !DISubprogram(name: "append_fill", linkageName: "_ZN6String11append_fillEii", scope: !572, file: !573, line: 147, type: !791, isLocal: false, isDefinition: false, scopeLine: 147, flags: DIFlagPublic | DIFlagPrototyped, isOptimized: false)
!791 = !DISubroutineType(types: !792)
!792 = !{null, !609, !30, !30}
!793 = !DISubprogram(name: "append_uninitialized", linkageName: "_ZN6String20append_uninitializedEi", scope: !572, file: !573, line: 148, type: !794, isLocal: false, isDefinition: false, scopeLine: 148, flags: DIFlagPublic | DIFlagPrototyped, isOptimized: false)
!794 = !DISubroutineType(types: !795)
!795 = !{!796, !609, !30}
!796 = !DIDerivedType(tag: DW_TAG_pointer_type, baseType: !89, size: 64)
!797 = !DISubprogram(name: "append_garbage", linkageName: "_ZN6String14append_garbageEi", scope: !572, file: !573, line: 149, type: !794, isLocal: false, isDefinition: false, scopeLine: 149, flags: DIFlagPublic | DIFlagPrototyped, isOptimized: false)
!798 = !DISubprogram(name: "operator+=", linkageName: "_ZN6StringpLERKS_", scope: !572, file: !573, line: 151, type: !773, isLocal: false, isDefinition: false, scopeLine: 151, flags: DIFlagPublic | DIFlagPrototyped, isOptimized: false)
!799 = !DISubprogram(name: "operator+=", linkageName: "_ZN6StringpLEPKc", scope: !572, file: !573, line: 152, type: !780, isLocal: false, isDefinition: false, scopeLine: 152, flags: DIFlagPublic | DIFlagPrototyped, isOptimized: false)
!800 = !DISubprogram(name: "operator+=", linkageName: "_ZN6StringpLEc", scope: !572, file: !573, line: 153, type: !801, isLocal: false, isDefinition: false, scopeLine: 153, flags: DIFlagPublic | DIFlagPrototyped, isOptimized: false)
!801 = !DISubroutineType(types: !802)
!802 = !{!775, !609, !89}
!803 = !DISubprogram(name: "is_shared", linkageName: "_ZNK6String9is_sharedEv", scope: !572, file: !573, line: 159, type: !705, isLocal: false, isDefinition: false, scopeLine: 159, flags: DIFlagPublic | DIFlagPrototyped, isOptimized: false)
!804 = !DISubprogram(name: "is_stable", linkageName: "_ZNK6String9is_stableEv", scope: !572, file: !573, line: 160, type: !705, isLocal: false, isDefinition: false, scopeLine: 160, flags: DIFlagPublic | DIFlagPrototyped, isOptimized: false)
!805 = !DISubprogram(name: "unique", linkageName: "_ZNK6String6uniqueEv", scope: !572, file: !573, line: 162, type: !740, isLocal: false, isDefinition: false, scopeLine: 162, flags: DIFlagPublic | DIFlagPrototyped, isOptimized: false)
!806 = !DISubprogram(name: "unshared", linkageName: "_ZNK6String8unsharedEv", scope: !572, file: !573, line: 163, type: !740, isLocal: false, isDefinition: false, scopeLine: 163, flags: DIFlagPublic | DIFlagPrototyped, isOptimized: false)
!807 = !DISubprogram(name: "compact", linkageName: "_ZNK6String7compactEv", scope: !572, file: !573, line: 164, type: !740, isLocal: false, isDefinition: false, scopeLine: 164, flags: DIFlagPublic | DIFlagPrototyped, isOptimized: false)
!808 = !DISubprogram(name: "mutable_data", linkageName: "_ZN6String12mutable_dataEv", scope: !572, file: !573, line: 166, type: !809, isLocal: false, isDefinition: false, scopeLine: 166, flags: DIFlagPublic | DIFlagPrototyped, isOptimized: false)
!809 = !DISubroutineType(types: !810)
!810 = !{!796, !609}
!811 = !DISubprogram(name: "mutable_c_str", linkageName: "_ZN6String13mutable_c_strEv", scope: !572, file: !573, line: 167, type: !809, isLocal: false, isDefinition: false, scopeLine: 167, flags: DIFlagPublic | DIFlagPrototyped, isOptimized: false)
!812 = !DISubprogram(name: "make_out_of_memory", linkageName: "_ZN6String18make_out_of_memoryEv", scope: !572, file: !573, line: 169, type: !668, isLocal: false, isDefinition: false, scopeLine: 169, flags: DIFlagPublic | DIFlagPrototyped | DIFlagStaticMember, isOptimized: false)
!813 = !DISubprogram(name: "out_of_memory", linkageName: "_ZNK6String13out_of_memoryEv", scope: !572, file: !573, line: 170, type: !705, isLocal: false, isDefinition: false, scopeLine: 170, flags: DIFlagPublic | DIFlagPrototyped, isOptimized: false)
!814 = !DISubprogram(name: "out_of_memory_data", linkageName: "_ZN6String18out_of_memory_dataEv", scope: !572, file: !573, line: 171, type: !815, isLocal: false, isDefinition: false, scopeLine: 171, flags: DIFlagPublic | DIFlagPrototyped | DIFlagStaticMember, isOptimized: false)
!815 = !DISubroutineType(types: !816)
!816 = !{!584}
!817 = !DISubprogram(name: "out_of_memory_length", linkageName: "_ZN6String20out_of_memory_lengthEv", scope: !572, file: !573, line: 172, type: !818, isLocal: false, isDefinition: false, scopeLine: 172, flags: DIFlagPublic | DIFlagPrototyped | DIFlagStaticMember, isOptimized: false)
!818 = !DISubroutineType(types: !819)
!819 = !{!30}
!820 = !DISubprogram(name: "empty_data", linkageName: "_ZN6String10empty_dataEv", scope: !572, file: !573, line: 173, type: !815, isLocal: false, isDefinition: false, scopeLine: 173, flags: DIFlagPublic | DIFlagPrototyped | DIFlagStaticMember, isOptimized: false)
!821 = !DISubprogram(name: "skip_utf8_char", linkageName: "_ZN6String14skip_utf8_charEPKcS1_", scope: !572, file: !573, line: 179, type: !822, isLocal: false, isDefinition: false, scopeLine: 179, flags: DIFlagPublic | DIFlagPrototyped | DIFlagStaticMember, isOptimized: false)
!822 = !DISubroutineType(types: !823)
!823 = !{!584, !584, !584}
!824 = !DISubprogram(name: "skip_utf8_char", linkageName: "_ZN6String14skip_utf8_charEPKhS1_", scope: !572, file: !573, line: 180, type: !825, isLocal: false, isDefinition: false, scopeLine: 180, flags: DIFlagPublic | DIFlagPrototyped | DIFlagStaticMember, isOptimized: false)
!825 = !DISubroutineType(types: !826)
!826 = !{!273, !273, !273}
!827 = !DISubprogram(name: "assign_memo", linkageName: "_ZNK6String11assign_memoEPKciPNS_6memo_tE", scope: !572, file: !573, line: 255, type: !828, isLocal: false, isDefinition: false, scopeLine: 255, flags: DIFlagPrototyped, isOptimized: false)
!828 = !DISubroutineType(types: !829)
!829 = !{null, !694, !584, !30, !587}
!830 = !DISubprogram(name: "String", scope: !572, file: !573, line: 262, type: !831, isLocal: false, isDefinition: false, scopeLine: 262, flags: DIFlagPrototyped, isOptimized: false)
!831 = !DISubroutineType(types: !832)
!832 = !{null, !609, !584, !30, !587}
!833 = !DISubprogram(name: "assign", linkageName: "_ZNK6String6assignERKS_", scope: !572, file: !573, line: 266, type: !834, isLocal: false, isDefinition: false, scopeLine: 266, flags: DIFlagPrototyped, isOptimized: false)
!834 = !DISubroutineType(types: !835)
!835 = !{null, !694, !613}
!836 = !DISubprogram(name: "deref", linkageName: "_ZNK6String5derefEv", scope: !572, file: !573, line: 270, type: !837, isLocal: false, isDefinition: false, scopeLine: 270, flags: DIFlagPrototyped, isOptimized: false)
!837 = !DISubroutineType(types: !838)
!838 = !{null, !694}
!839 = !DISubprogram(name: "assign", linkageName: "_ZN6String6assignEPKcib", scope: !572, file: !573, line: 279, type: !840, isLocal: false, isDefinition: false, scopeLine: 279, flags: DIFlagPrototyped, isOptimized: false)
!840 = !DISubroutineType(types: !841)
!841 = !{null, !609, !584, !30, !49}
!842 = !DISubprogram(name: "assign_out_of_memory", linkageName: "_ZN6String20assign_out_of_memoryEv", scope: !572, file: !573, line: 280, type: !607, isLocal: false, isDefinition: false, scopeLine: 280, flags: DIFlagPrototyped, isOptimized: false)
!843 = !DISubprogram(name: "append", linkageName: "_ZN6String6appendEPKciPNS_6memo_tE", scope: !572, file: !573, line: 281, type: !831, isLocal: false, isDefinition: false, scopeLine: 281, flags: DIFlagPrototyped, isOptimized: false)
!844 = !DISubprogram(name: "hard_make_stable", linkageName: "_ZN6String16hard_make_stableEPKci", scope: !572, file: !573, line: 282, type: !678, isLocal: false, isDefinition: false, scopeLine: 282, flags: DIFlagPrototyped | DIFlagStaticMember, isOptimized: false)
!845 = !DISubprogram(name: "absent_memo", linkageName: "_ZN6String11absent_memoEv", scope: !572, file: !573, line: 283, type: !846, isLocal: false, isDefinition: false, scopeLine: 283, flags: DIFlagPrototyped | DIFlagStaticMember, isOptimized: false)
!846 = !DISubroutineType(types: !847)
!847 = !{!587}
!848 = !DISubprogram(name: "create_memo", linkageName: "_ZN6String11create_memoEPcii", scope: !572, file: !573, line: 286, type: !849, isLocal: false, isDefinition: false, scopeLine: 286, flags: DIFlagPrototyped | DIFlagStaticMember, isOptimized: false)
!849 = !DISubroutineType(types: !850)
!850 = !{!587, !796, !30, !30}
!851 = !DISubprogram(name: "delete_memo", linkageName: "_ZN6String11delete_memoEPNS_6memo_tE", scope: !572, file: !573, line: 287, type: !852, isLocal: false, isDefinition: false, scopeLine: 287, flags: DIFlagPrototyped | DIFlagStaticMember, isOptimized: false)
!852 = !DISubroutineType(types: !853)
!853 = !{null, !587}
!854 = !DISubprogram(name: "hard_c_str", linkageName: "_ZNK6String10hard_c_strEv", scope: !572, file: !573, line: 288, type: !692, isLocal: false, isDefinition: false, scopeLine: 288, flags: DIFlagPrototyped, isOptimized: false)
!855 = !DISubprogram(name: "hard_equals", linkageName: "_ZNK6String11hard_equalsEPKci", scope: !572, file: !573, line: 289, type: !746, isLocal: false, isDefinition: false, scopeLine: 289, flags: DIFlagPrototyped, isOptimized: false)
!856 = !DISubprogram(name: "make_claim", linkageName: "_ZN6String10make_claimEPcii", scope: !572, file: !573, line: 298, type: !857, isLocal: false, isDefinition: false, scopeLine: 298, flags: DIFlagPrototyped | DIFlagStaticMember, isOptimized: false)
!857 = !DISubroutineType(types: !858)
!858 = !{!572, !796, !30, !30}
!859 = !DISubprogram(name: "unparse_interval", linkageName: "_ZNK9Timestamp16unparse_intervalEv", scope: !404, file: !405, line: 501, type: !570, isLocal: false, isDefinition: false, scopeLine: 501, flags: DIFlagPublic | DIFlagPrototyped, isOptimized: false)
!860 = !DISubprogram(name: "msec_to_subsec", linkageName: "_ZN9Timestamp14msec_to_subsecEj", scope: !404, file: !405, line: 510, type: !861, isLocal: false, isDefinition: false, scopeLine: 510, flags: DIFlagPublic | DIFlagPrototyped | DIFlagStaticMember, isOptimized: false)
!861 = !DISubroutineType(types: !862)
!862 = !{!12, !12}
!863 = !DISubprogram(name: "usec_to_subsec", linkageName: "_ZN9Timestamp14usec_to_subsecEj", scope: !404, file: !405, line: 514, type: !861, isLocal: false, isDefinition: false, scopeLine: 514, flags: DIFlagPublic | DIFlagPrototyped | DIFlagStaticMember, isOptimized: false)
!864 = !DISubprogram(name: "nsec_to_subsec", linkageName: "_ZN9Timestamp14nsec_to_subsecEj", scope: !404, file: !405, line: 518, type: !861, isLocal: false, isDefinition: false, scopeLine: 518, flags: DIFlagPublic | DIFlagPrototyped | DIFlagStaticMember, isOptimized: false)
!865 = !DISubprogram(name: "subsec_to_msec", linkageName: "_ZN9Timestamp14subsec_to_msecEj", scope: !404, file: !405, line: 522, type: !861, isLocal: false, isDefinition: false, scopeLine: 522, flags: DIFlagPublic | DIFlagPrototyped | DIFlagStaticMember, isOptimized: false)
!866 = !DISubprogram(name: "subsec_to_usec", linkageName: "_ZN9Timestamp14subsec_to_usecEj", scope: !404, file: !405, line: 526, type: !861, isLocal: false, isDefinition: false, scopeLine: 526, flags: DIFlagPublic | DIFlagPrototyped | DIFlagStaticMember, isOptimized: false)
!867 = !DISubprogram(name: "subsec_to_nsec", linkageName: "_ZN9Timestamp14subsec_to_nsecEj", scope: !404, file: !405, line: 530, type: !861, isLocal: false, isDefinition: false, scopeLine: 530, flags: DIFlagPublic | DIFlagPrototyped | DIFlagStaticMember, isOptimized: false)
!868 = !DISubprogram(name: "warp_class", linkageName: "_ZN9Timestamp10warp_classEv", scope: !404, file: !405, line: 581, type: !818, isLocal: false, isDefinition: false, scopeLine: 581, flags: DIFlagPublic | DIFlagPrototyped | DIFlagStaticMember, isOptimized: false)
!869 = !DISubprogram(name: "warp_speed", linkageName: "_ZN9Timestamp10warp_speedEv", scope: !404, file: !405, line: 588, type: !870, isLocal: false, isDefinition: false, scopeLine: 588, flags: DIFlagPublic | DIFlagPrototyped | DIFlagStaticMember, isOptimized: false)
!870 = !DISubroutineType(types: !871)
!871 = !{!432}
!872 = !DISubprogram(name: "warp_set_class", linkageName: "_ZN9Timestamp14warp_set_classENS_15warp_class_typeEd", scope: !404, file: !405, line: 621, type: !873, isLocal: false, isDefinition: false, scopeLine: 621, flags: DIFlagPublic | DIFlagPrototyped | DIFlagStaticMember, isOptimized: false)
!873 = !DISubroutineType(types: !874)
!874 = !{null, !875, !432}
!875 = !DICompositeType(tag: DW_TAG_enumeration_type, name: "warp_class_type", scope: !404, file: !405, line: 571, size: 32, elements: !876, identifier: "_ZTSN9Timestamp15warp_class_typeE")
!876 = !{!877, !878, !879, !880}
!877 = !DIEnumerator(name: "warp_none", value: 0)
!878 = !DIEnumerator(name: "warp_linear", value: 1)
!879 = !DIEnumerator(name: "warp_nowait", value: 2)
!880 = !DIEnumerator(name: "warp_simulation", value: 3)
!881 = !DISubprogram(name: "warp_set_now", linkageName: "_ZN9Timestamp12warp_set_nowERKS_S1_", scope: !404, file: !405, line: 628, type: !882, isLocal: false, isDefinition: false, scopeLine: 628, flags: DIFlagPublic | DIFlagPrototyped | DIFlagStaticMember, isOptimized: false)
!882 = !DISubroutineType(types: !883)
!883 = !{null, !402, !402}
!884 = !DISubprogram(name: "warp_real_delay", linkageName: "_ZNK9Timestamp15warp_real_delayEv", scope: !404, file: !405, line: 632, type: !516, isLocal: false, isDefinition: false, scopeLine: 632, flags: DIFlagPublic | DIFlagPrototyped, isOptimized: false)
!885 = !DISubprogram(name: "warp_jumping", linkageName: "_ZN9Timestamp12warp_jumpingEv", scope: !404, file: !405, line: 635, type: !886, isLocal: false, isDefinition: false, scopeLine: 635, flags: DIFlagPublic | DIFlagPrototyped | DIFlagStaticMember, isOptimized: false)
!886 = !DISubroutineType(types: !887)
!887 = !{!49}
!888 = !DISubprogram(name: "warp_jump_steady", linkageName: "_ZN9Timestamp16warp_jump_steadyERKS_", scope: !404, file: !405, line: 640, type: !889, isLocal: false, isDefinition: false, scopeLine: 640, flags: DIFlagPublic | DIFlagPrototyped | DIFlagStaticMember, isOptimized: false)
!889 = !DISubroutineType(types: !890)
!890 = !{null, !402}
!891 = !DISubprogram(name: "now_unwarped", linkageName: "_ZN9Timestamp12now_unwarpedEv", scope: !404, file: !405, line: 647, type: !546, isLocal: false, isDefinition: false, scopeLine: 647, flags: DIFlagPublic | DIFlagPrototyped | DIFlagStaticMember, isOptimized: false)
!892 = !DISubprogram(name: "assign_now_unwarped", linkageName: "_ZN9Timestamp19assign_now_unwarpedEv", scope: !404, file: !405, line: 653, type: !414, isLocal: false, isDefinition: false, scopeLine: 653, flags: DIFlagPublic | DIFlagPrototyped, isOptimized: false)
!893 = !DISubprogram(name: "now_steady_unwarped", linkageName: "_ZN9Timestamp19now_steady_unwarpedEv", scope: !404, file: !405, line: 659, type: !546, isLocal: false, isDefinition: false, scopeLine: 659, flags: DIFlagPublic | DIFlagPrototyped | DIFlagStaticMember, isOptimized: false)
!894 = !DISubprogram(name: "assign_now_steady_unwarped", linkageName: "_ZN9Timestamp26assign_now_steady_unwarpedEv", scope: !404, file: !405, line: 666, type: !414, isLocal: false, isDefinition: false, scopeLine: 666, flags: DIFlagPublic | DIFlagPrototyped, isOptimized: false)
!895 = !DISubprogram(name: "add_fix", linkageName: "_ZN9Timestamp7add_fixEv", scope: !404, file: !405, line: 674, type: !414, isLocal: false, isDefinition: false, scopeLine: 674, flags: DIFlagPrototyped, isOptimized: false)
!896 = !DISubprogram(name: "sub_fix", linkageName: "_ZN9Timestamp7sub_fixEv", scope: !404, file: !405, line: 686, type: !414, isLocal: false, isDefinition: false, scopeLine: 686, flags: DIFlagPrototyped, isOptimized: false)
!897 = !DISubprogram(name: "value_div", linkageName: "_ZN9Timestamp9value_divElj", scope: !404, file: !405, line: 698, type: !898, isLocal: false, isDefinition: false, scopeLine: 698, flags: DIFlagPrototyped | DIFlagStaticMember, isOptimized: false)
!898 = !DISubroutineType(types: !899)
!899 = !{!512, !512, !12}
!900 = !DISubprogram(name: "value_div_mod", linkageName: "_ZN9Timestamp13value_div_modERiS0_lj", scope: !404, file: !405, line: 702, type: !901, isLocal: false, isDefinition: false, scopeLine: 702, flags: DIFlagPrototyped | DIFlagStaticMember, isOptimized: false)
!901 = !DISubroutineType(types: !902)
!902 = !{null, !903, !903, !512, !12}
!903 = !DIDerivedType(tag: DW_TAG_reference_type, baseType: !29, size: 64)
!904 = !DISubprogram(name: "assign_now", linkageName: "_ZN9Timestamp10assign_nowEbbb", scope: !404, file: !405, line: 709, type: !905, isLocal: false, isDefinition: false, scopeLine: 709, flags: DIFlagPrototyped, isOptimized: false)
!905 = !DISubroutineType(types: !906)
!906 = !{null, !416, !49, !49, !49}
!907 = !DISubprogram(name: "warp_adjust", linkageName: "_ZN9Timestamp11warp_adjustEbRKS_S1_", scope: !404, file: !405, line: 712, type: !908, isLocal: false, isDefinition: false, scopeLine: 712, flags: DIFlagPrototyped | DIFlagStaticMember, isOptimized: false)
!908 = !DISubroutineType(types: !909)
!909 = !{null, !49, !402, !402}
!910 = !DISubprogram(name: "warped", linkageName: "_ZNK9Timestamp6warpedEb", scope: !404, file: !405, line: 713, type: !911, isLocal: false, isDefinition: false, scopeLine: 713, flags: DIFlagPrototyped, isOptimized: false)
!911 = !DISubroutineType(types: !912)
!912 = !{!404, !479, !49}
!913 = !DISubprogram(name: "warp", linkageName: "_ZN9Timestamp4warpEbb", scope: !404, file: !405, line: 714, type: !914, isLocal: false, isDefinition: false, scopeLine: 714, flags: DIFlagPrototyped, isOptimized: false)
!914 = !DISubroutineType(types: !915)
!915 = !{null, !416, !49, !49}
!916 = !DISubprogram(name: "timestamp_anno", linkageName: "_ZN6Packet14timestamp_annoEv", scope: !5, file: !4, line: 356, type: !917, isLocal: false, isDefinition: false, scopeLine: 356, flags: DIFlagPublic | DIFlagPrototyped, isOptimized: false)
!917 = !DISubroutineType(types: !918)
!918 = !{!919, !259}
!919 = !DIDerivedType(tag: DW_TAG_reference_type, baseType: !404, size: 64)
!920 = !DISubprogram(name: "set_timestamp_anno", linkageName: "_ZN6Packet18set_timestamp_annoERK9Timestamp", scope: !5, file: !4, line: 359, type: !921, isLocal: false, isDefinition: false, scopeLine: 359, flags: DIFlagPublic | DIFlagPrototyped, isOptimized: false)
!921 = !DISubroutineType(types: !922)
!922 = !{null, !259, !402}
!923 = !DISubprogram(name: "device_anno", linkageName: "_ZNK6Packet11device_annoEv", scope: !5, file: !4, line: 362, type: !924, isLocal: false, isDefinition: false, scopeLine: 362, flags: DIFlagPublic | DIFlagPrototyped, isOptimized: false)
!924 = !DISubroutineType(types: !925)
!925 = !{!926, !263}
!926 = !DIDerivedType(tag: DW_TAG_pointer_type, baseType: !927, size: 64)
!927 = !DIDerivedType(tag: DW_TAG_typedef, name: "net_device", file: !524, line: 326, baseType: !928)
!928 = !DICompositeType(tag: DW_TAG_structure_type, name: "device", file: !524, line: 326, flags: DIFlagFwdDecl, identifier: "_ZTS6device")
!929 = !DISubprogram(name: "set_device_anno", linkageName: "_ZN6Packet15set_device_annoEP6device", scope: !5, file: !4, line: 364, type: !930, isLocal: false, isDefinition: false, scopeLine: 364, flags: DIFlagPublic | DIFlagPrototyped, isOptimized: false)
!930 = !DISubroutineType(types: !931)
!931 = !{null, !259, !926}
!932 = !DISubprogram(name: "packet_type_anno", linkageName: "_ZNK6Packet16packet_type_annoEv", scope: !5, file: !4, line: 383, type: !933, isLocal: false, isDefinition: false, scopeLine: 383, flags: DIFlagPublic | DIFlagPrototyped, isOptimized: false)
!933 = !DISubroutineType(types: !934)
!934 = !{!3, !263}
!935 = !DISubprogram(name: "set_packet_type_anno", linkageName: "_ZN6Packet20set_packet_type_annoENS_10PacketTypeE", scope: !5, file: !4, line: 385, type: !936, isLocal: false, isDefinition: false, scopeLine: 385, flags: DIFlagPublic | DIFlagPrototyped, isOptimized: false)
!936 = !DISubroutineType(types: !937)
!937 = !{null, !259, !3}
!938 = !DISubprogram(name: "next", linkageName: "_ZNK6Packet4nextEv", scope: !5, file: !4, line: 410, type: !939, isLocal: false, isDefinition: false, scopeLine: 410, flags: DIFlagPublic | DIFlagPrototyped, isOptimized: false)
!939 = !DISubroutineType(types: !940)
!940 = !{!74, !263}
!941 = !DISubprogram(name: "next", linkageName: "_ZN6Packet4nextEv", scope: !5, file: !4, line: 412, type: !942, isLocal: false, isDefinition: false, scopeLine: 412, flags: DIFlagPublic | DIFlagPrototyped, isOptimized: false)
!942 = !DISubroutineType(types: !943)
!943 = !{!944, !259}
!944 = !DIDerivedType(tag: DW_TAG_reference_type, baseType: !74, size: 64)
!945 = !DISubprogram(name: "set_next", linkageName: "_ZN6Packet8set_nextEPS_", scope: !5, file: !4, line: 414, type: !946, isLocal: false, isDefinition: false, scopeLine: 414, flags: DIFlagPublic | DIFlagPrototyped, isOptimized: false)
!946 = !DISubroutineType(types: !947)
!947 = !{null, !259, !74}
!948 = !DISubprogram(name: "prev", linkageName: "_ZNK6Packet4prevEv", scope: !5, file: !4, line: 417, type: !939, isLocal: false, isDefinition: false, scopeLine: 417, flags: DIFlagPublic | DIFlagPrototyped, isOptimized: false)
!949 = !DISubprogram(name: "prev", linkageName: "_ZN6Packet4prevEv", scope: !5, file: !4, line: 419, type: !942, isLocal: false, isDefinition: false, scopeLine: 419, flags: DIFlagPublic | DIFlagPrototyped, isOptimized: false)
!950 = !DISubprogram(name: "set_prev", linkageName: "_ZN6Packet8set_prevEPS_", scope: !5, file: !4, line: 421, type: !946, isLocal: false, isDefinition: false, scopeLine: 421, flags: DIFlagPublic | DIFlagPrototyped, isOptimized: false)
!951 = !DISubprogram(name: "dst_ip_anno", linkageName: "_ZNK6Packet11dst_ip_annoEv", scope: !5, file: !4, line: 431, type: !952, isLocal: false, isDefinition: false, scopeLine: 431, flags: DIFlagPublic | DIFlagPrototyped, isOptimized: false)
!952 = !DISubroutineType(types: !953)
!953 = !{!954, !263}
!954 = distinct !DICompositeType(tag: DW_TAG_class_type, name: "IPAddress", file: !955, line: 15, size: 32, elements: !956, identifier: "_ZTS9IPAddress")
!955 = !DIFile(filename: "/usr/local/include/click/ipaddress.hh", directory: "/home/jiarong/multi_thread_train/compute_prediction/c_packetprocessing/apps/env")
!956 = !{!957, !958, !962, !965, !968, !971, !974, !977, !980, !983, !988, !991, !994, !999, !1002, !1003, !1004, !1005, !1008, !1009, !1012, !1015, !1016, !1019, !1022, !1025, !1026, !1030, !1031, !1032, !1035, !1036, !1039, !1040}
!957 = !DIDerivedType(tag: DW_TAG_member, name: "_addr", scope: !954, file: !955, line: 152, baseType: !12, size: 32)
!958 = !DISubprogram(name: "IPAddress", scope: !954, file: !955, line: 20, type: !959, isLocal: false, isDefinition: false, scopeLine: 20, flags: DIFlagPublic | DIFlagPrototyped, isOptimized: false)
!959 = !DISubroutineType(types: !960)
!960 = !{null, !961}
!961 = !DIDerivedType(tag: DW_TAG_pointer_type, baseType: !954, size: 64, flags: DIFlagArtificial | DIFlagObjectPointer)
!962 = !DISubprogram(name: "IPAddress", scope: !954, file: !955, line: 25, type: !963, isLocal: false, isDefinition: false, scopeLine: 25, flags: DIFlagPublic | DIFlagPrototyped, isOptimized: false)
!963 = !DISubroutineType(types: !964)
!964 = !{null, !961, !14}
!965 = !DISubprogram(name: "IPAddress", scope: !954, file: !955, line: 29, type: !966, isLocal: false, isDefinition: false, scopeLine: 29, flags: DIFlagPublic | DIFlagExplicit | DIFlagPrototyped, isOptimized: false)
!966 = !DISubroutineType(types: !967)
!967 = !{null, !961, !30}
!968 = !DISubprogram(name: "IPAddress", scope: !954, file: !955, line: 33, type: !969, isLocal: false, isDefinition: false, scopeLine: 33, flags: DIFlagPublic | DIFlagExplicit | DIFlagPrototyped, isOptimized: false)
!969 = !DISubroutineType(types: !970)
!970 = !{null, !961, !108}
!971 = !DISubprogram(name: "IPAddress", scope: !954, file: !955, line: 37, type: !972, isLocal: false, isDefinition: false, scopeLine: 37, flags: DIFlagPublic | DIFlagExplicit | DIFlagPrototyped, isOptimized: false)
!972 = !DISubroutineType(types: !973)
!973 = !{null, !961, !412}
!974 = !DISubprogram(name: "IPAddress", scope: !954, file: !955, line: 42, type: !975, isLocal: false, isDefinition: false, scopeLine: 42, flags: DIFlagPublic | DIFlagPrototyped, isOptimized: false)
!975 = !DISubroutineType(types: !976)
!976 = !{null, !961, !169}
!977 = !DISubprogram(name: "IPAddress", scope: !954, file: !955, line: 50, type: !978, isLocal: false, isDefinition: false, scopeLine: 50, flags: DIFlagPublic | DIFlagExplicit | DIFlagPrototyped, isOptimized: false)
!978 = !DISubroutineType(types: !979)
!979 = !{null, !961, !273}
!980 = !DISubprogram(name: "IPAddress", scope: !954, file: !955, line: 63, type: !981, isLocal: false, isDefinition: false, scopeLine: 63, flags: DIFlagPublic | DIFlagExplicit | DIFlagPrototyped, isOptimized: false)
!981 = !DISubroutineType(types: !982)
!982 = !{null, !961, !613}
!983 = !DISubprogram(name: "IPAddress", scope: !954, file: !955, line: 66, type: !984, isLocal: false, isDefinition: false, scopeLine: 66, flags: DIFlagPublic | DIFlagPrototyped, isOptimized: false)
!984 = !DISubroutineType(types: !985)
!985 = !{null, !961, !986}
!986 = !DIDerivedType(tag: DW_TAG_reference_type, baseType: !987, size: 64)
!987 = !DIDerivedType(tag: DW_TAG_const_type, baseType: !468)
!988 = !DISubprogram(name: "make_prefix", linkageName: "_ZN9IPAddress11make_prefixEi", scope: !954, file: !955, line: 78, type: !989, isLocal: false, isDefinition: false, scopeLine: 78, flags: DIFlagPublic | DIFlagPrototyped | DIFlagStaticMember, isOptimized: false)
!989 = !DISubroutineType(types: !990)
!990 = !{!954, !30}
!991 = !DISubprogram(name: "make_broadcast", linkageName: "_ZN9IPAddress14make_broadcastEv", scope: !954, file: !955, line: 81, type: !992, isLocal: false, isDefinition: false, scopeLine: 81, flags: DIFlagPublic | DIFlagPrototyped | DIFlagStaticMember, isOptimized: false)
!992 = !DISubroutineType(types: !993)
!993 = !{!954}
!994 = !DISubprogram(name: "empty", linkageName: "_ZNK9IPAddress5emptyEv", scope: !954, file: !955, line: 86, type: !995, isLocal: false, isDefinition: false, scopeLine: 86, flags: DIFlagPublic | DIFlagPrototyped, isOptimized: false)
!995 = !DISubroutineType(types: !996)
!996 = !{!49, !997}
!997 = !DIDerivedType(tag: DW_TAG_pointer_type, baseType: !998, size: 64, flags: DIFlagArtificial | DIFlagObjectPointer)
!998 = !DIDerivedType(tag: DW_TAG_const_type, baseType: !954)
!999 = !DISubprogram(name: "addr", linkageName: "_ZNK9IPAddress4addrEv", scope: !954, file: !955, line: 91, type: !1000, isLocal: false, isDefinition: false, scopeLine: 91, flags: DIFlagPublic | DIFlagPrototyped, isOptimized: false)
!1000 = !DISubroutineType(types: !1001)
!1001 = !{!12, !997}
!1002 = !DISubprogram(name: "operator unsigned int", linkageName: "_ZNK9IPAddresscvjEv", scope: !954, file: !955, line: 99, type: !1000, isLocal: false, isDefinition: false, scopeLine: 99, flags: DIFlagPublic | DIFlagPrototyped, isOptimized: false)
!1003 = !DISubprogram(name: "is_multicast", linkageName: "_ZNK9IPAddress12is_multicastEv", scope: !954, file: !955, line: 106, type: !995, isLocal: false, isDefinition: false, scopeLine: 106, flags: DIFlagPublic | DIFlagPrototyped, isOptimized: false)
!1004 = !DISubprogram(name: "is_link_local", linkageName: "_ZNK9IPAddress13is_link_localEv", scope: !954, file: !955, line: 110, type: !995, isLocal: false, isDefinition: false, scopeLine: 110, flags: DIFlagPublic | DIFlagPrototyped, isOptimized: false)
!1005 = !DISubprogram(name: "in_addr", linkageName: "_ZNK9IPAddress7in_addrEv", scope: !954, file: !955, line: 114, type: !1006, isLocal: false, isDefinition: false, scopeLine: 114, flags: DIFlagPublic | DIFlagPrototyped, isOptimized: false)
!1006 = !DISubroutineType(types: !1007)
!1007 = !{!169, !997}
!1008 = !DISubprogram(name: "operator in_addr", linkageName: "_ZNK9IPAddresscv7in_addrEv", scope: !954, file: !955, line: 115, type: !1006, isLocal: false, isDefinition: false, scopeLine: 115, flags: DIFlagPublic | DIFlagPrototyped, isOptimized: false)
!1009 = !DISubprogram(name: "data", linkageName: "_ZN9IPAddress4dataEv", scope: !954, file: !955, line: 117, type: !1010, isLocal: false, isDefinition: false, scopeLine: 117, flags: DIFlagPublic | DIFlagPrototyped, isOptimized: false)
!1010 = !DISubroutineType(types: !1011)
!1011 = !{!76, !961}
!1012 = !DISubprogram(name: "data", linkageName: "_ZNK9IPAddress4dataEv", scope: !954, file: !955, line: 118, type: !1013, isLocal: false, isDefinition: false, scopeLine: 118, flags: DIFlagPublic | DIFlagPrototyped, isOptimized: false)
!1013 = !DISubroutineType(types: !1014)
!1014 = !{!273, !997}
!1015 = !DISubprogram(name: "hashcode", linkageName: "_ZNK9IPAddress8hashcodeEv", scope: !954, file: !955, line: 120, type: !1000, isLocal: false, isDefinition: false, scopeLine: 120, flags: DIFlagPublic | DIFlagPrototyped, isOptimized: false)
!1016 = !DISubprogram(name: "mask_to_prefix_len", linkageName: "_ZNK9IPAddress18mask_to_prefix_lenEv", scope: !954, file: !955, line: 122, type: !1017, isLocal: false, isDefinition: false, scopeLine: 122, flags: DIFlagPublic | DIFlagPrototyped, isOptimized: false)
!1017 = !DISubroutineType(types: !1018)
!1018 = !{!30, !997}
!1019 = !DISubprogram(name: "matches_prefix", linkageName: "_ZNK9IPAddress14matches_prefixES_S_", scope: !954, file: !955, line: 123, type: !1020, isLocal: false, isDefinition: false, scopeLine: 123, flags: DIFlagPublic | DIFlagPrototyped, isOptimized: false)
!1020 = !DISubroutineType(types: !1021)
!1021 = !{!49, !997, !954, !954}
!1022 = !DISubprogram(name: "mask_as_specific", linkageName: "_ZNK9IPAddress16mask_as_specificES_", scope: !954, file: !955, line: 124, type: !1023, isLocal: false, isDefinition: false, scopeLine: 124, flags: DIFlagPublic | DIFlagPrototyped, isOptimized: false)
!1023 = !DISubroutineType(types: !1024)
!1024 = !{!49, !997, !954}
!1025 = !DISubprogram(name: "mask_more_specific", linkageName: "_ZNK9IPAddress18mask_more_specificES_", scope: !954, file: !955, line: 125, type: !1023, isLocal: false, isDefinition: false, scopeLine: 125, flags: DIFlagPublic | DIFlagPrototyped, isOptimized: false)
!1026 = !DISubprogram(name: "operator&=", linkageName: "_ZN9IPAddressaNES_", scope: !954, file: !955, line: 137, type: !1027, isLocal: false, isDefinition: false, scopeLine: 137, flags: DIFlagPublic | DIFlagPrototyped, isOptimized: false)
!1027 = !DISubroutineType(types: !1028)
!1028 = !{!1029, !961, !954}
!1029 = !DIDerivedType(tag: DW_TAG_reference_type, baseType: !954, size: 64)
!1030 = !DISubprogram(name: "operator|=", linkageName: "_ZN9IPAddressoRES_", scope: !954, file: !955, line: 138, type: !1027, isLocal: false, isDefinition: false, scopeLine: 138, flags: DIFlagPublic | DIFlagPrototyped, isOptimized: false)
!1031 = !DISubprogram(name: "operator^=", linkageName: "_ZN9IPAddresseOES_", scope: !954, file: !955, line: 139, type: !1027, isLocal: false, isDefinition: false, scopeLine: 139, flags: DIFlagPublic | DIFlagPrototyped, isOptimized: false)
!1032 = !DISubprogram(name: "unparse", linkageName: "_ZNK9IPAddress7unparseEv", scope: !954, file: !955, line: 141, type: !1033, isLocal: false, isDefinition: false, scopeLine: 141, flags: DIFlagPublic | DIFlagPrototyped, isOptimized: false)
!1033 = !DISubroutineType(types: !1034)
!1034 = !{!572, !997}
!1035 = !DISubprogram(name: "unparse_mask", linkageName: "_ZNK9IPAddress12unparse_maskEv", scope: !954, file: !955, line: 142, type: !1033, isLocal: false, isDefinition: false, scopeLine: 142, flags: DIFlagPublic | DIFlagPrototyped, isOptimized: false)
!1036 = !DISubprogram(name: "unparse_with_mask", linkageName: "_ZNK9IPAddress17unparse_with_maskES_", scope: !954, file: !955, line: 143, type: !1037, isLocal: false, isDefinition: false, scopeLine: 143, flags: DIFlagPublic | DIFlagPrototyped, isOptimized: false)
!1037 = !DISubroutineType(types: !1038)
!1038 = !{!572, !997, !954}
!1039 = !DISubprogram(name: "s", linkageName: "_ZNK9IPAddress1sEv", scope: !954, file: !955, line: 145, type: !1033, isLocal: false, isDefinition: false, scopeLine: 145, flags: DIFlagPublic | DIFlagPrototyped, isOptimized: false)
!1040 = !DISubprogram(name: "operator String", linkageName: "_ZNK9IPAddresscv6StringEv", scope: !954, file: !955, line: 146, type: !1033, isLocal: false, isDefinition: false, scopeLine: 146, flags: DIFlagPublic | DIFlagPrototyped, isOptimized: false)
!1041 = !DISubprogram(name: "set_dst_ip_anno", linkageName: "_ZN6Packet15set_dst_ip_annoE9IPAddress", scope: !5, file: !4, line: 436, type: !1042, isLocal: false, isDefinition: false, scopeLine: 436, flags: DIFlagPublic | DIFlagPrototyped, isOptimized: false)
!1042 = !DISubroutineType(types: !1043)
!1043 = !{null, !259, !954}
!1044 = !DISubprogram(name: "anno", linkageName: "_ZN6Packet4annoEv", scope: !5, file: !4, line: 441, type: !291, isLocal: false, isDefinition: false, scopeLine: 441, flags: DIFlagPublic | DIFlagPrototyped, isOptimized: false)
!1045 = !DISubprogram(name: "anno", linkageName: "_ZNK6Packet4annoEv", scope: !5, file: !4, line: 444, type: !1046, isLocal: false, isDefinition: false, scopeLine: 444, flags: DIFlagPublic | DIFlagPrototyped, isOptimized: false)
!1046 = !DISubroutineType(types: !1047)
!1047 = !{!242, !263}
!1048 = !DISubprogram(name: "anno_u8", linkageName: "_ZN6Packet7anno_u8Ev", scope: !5, file: !4, line: 447, type: !1049, isLocal: false, isDefinition: false, scopeLine: 447, flags: DIFlagPublic | DIFlagPrototyped, isOptimized: false)
!1049 = !DISubroutineType(types: !1050)
!1050 = !{!1051, !259}
!1051 = !DIDerivedType(tag: DW_TAG_pointer_type, baseType: !94, size: 64)
!1052 = !DISubprogram(name: "anno_u8", linkageName: "_ZNK6Packet7anno_u8Ev", scope: !5, file: !4, line: 450, type: !1053, isLocal: false, isDefinition: false, scopeLine: 450, flags: DIFlagPublic | DIFlagPrototyped, isOptimized: false)
!1053 = !DISubroutineType(types: !1054)
!1054 = !{!1055, !263}
!1055 = !DIDerivedType(tag: DW_TAG_pointer_type, baseType: !1056, size: 64)
!1056 = !DIDerivedType(tag: DW_TAG_const_type, baseType: !94)
!1057 = !DISubprogram(name: "anno_u32", linkageName: "_ZN6Packet8anno_u32Ev", scope: !5, file: !4, line: 453, type: !1058, isLocal: false, isDefinition: false, scopeLine: 453, flags: DIFlagPublic | DIFlagPrototyped, isOptimized: false)
!1058 = !DISubroutineType(types: !1059)
!1059 = !{!1060, !259}
!1060 = !DIDerivedType(tag: DW_TAG_pointer_type, baseType: !12, size: 64)
!1061 = !DISubprogram(name: "anno_u32", linkageName: "_ZNK6Packet8anno_u32Ev", scope: !5, file: !4, line: 456, type: !1062, isLocal: false, isDefinition: false, scopeLine: 456, flags: DIFlagPublic | DIFlagPrototyped, isOptimized: false)
!1062 = !DISubroutineType(types: !1063)
!1063 = !{!1064, !263}
!1064 = !DIDerivedType(tag: DW_TAG_pointer_type, baseType: !1065, size: 64)
!1065 = !DIDerivedType(tag: DW_TAG_const_type, baseType: !12)
!1066 = !DISubprogram(name: "anno_u8", linkageName: "_ZNK6Packet7anno_u8Ei", scope: !5, file: !4, line: 460, type: !1067, isLocal: false, isDefinition: false, scopeLine: 460, flags: DIFlagPublic | DIFlagPrototyped, isOptimized: false)
!1067 = !DISubroutineType(types: !1068)
!1068 = !{!94, !263, !30}
!1069 = !DISubprogram(name: "set_anno_u8", linkageName: "_ZN6Packet11set_anno_u8Eih", scope: !5, file: !4, line: 469, type: !1070, isLocal: false, isDefinition: false, scopeLine: 469, flags: DIFlagPublic | DIFlagPrototyped, isOptimized: false)
!1070 = !DISubroutineType(types: !1071)
!1071 = !{null, !259, !30, !94}
!1072 = !DISubprogram(name: "anno_u16", linkageName: "_ZNK6Packet8anno_u16Ei", scope: !5, file: !4, line: 479, type: !1073, isLocal: false, isDefinition: false, scopeLine: 479, flags: DIFlagPublic | DIFlagPrototyped, isOptimized: false)
!1073 = !DISubroutineType(types: !1074)
!1074 = !{!97, !263, !30}
!1075 = !DISubprogram(name: "set_anno_u16", linkageName: "_ZN6Packet12set_anno_u16Eit", scope: !5, file: !4, line: 494, type: !1076, isLocal: false, isDefinition: false, scopeLine: 494, flags: DIFlagPublic | DIFlagPrototyped, isOptimized: false)
!1076 = !DISubroutineType(types: !1077)
!1077 = !{null, !259, !30, !97}
!1078 = !DISubprogram(name: "anno_s16", linkageName: "_ZNK6Packet8anno_s16Ei", scope: !5, file: !4, line: 507, type: !1079, isLocal: false, isDefinition: false, scopeLine: 507, flags: DIFlagPublic | DIFlagPrototyped, isOptimized: false)
!1079 = !DISubroutineType(types: !1080)
!1080 = !{!1081, !263, !30}
!1081 = !DIDerivedType(tag: DW_TAG_typedef, name: "int16_t", file: !13, line: 37, baseType: !1082)
!1082 = !DIBasicType(name: "short", size: 16, encoding: DW_ATE_signed)
!1083 = !DISubprogram(name: "set_anno_s16", linkageName: "_ZN6Packet12set_anno_s16Eis", scope: !5, file: !4, line: 522, type: !1084, isLocal: false, isDefinition: false, scopeLine: 522, flags: DIFlagPublic | DIFlagPrototyped, isOptimized: false)
!1084 = !DISubroutineType(types: !1085)
!1085 = !{null, !259, !30, !1081}
!1086 = !DISubprogram(name: "anno_u32", linkageName: "_ZNK6Packet8anno_u32Ei", scope: !5, file: !4, line: 535, type: !1087, isLocal: false, isDefinition: false, scopeLine: 535, flags: DIFlagPublic | DIFlagPrototyped, isOptimized: false)
!1087 = !DISubroutineType(types: !1088)
!1088 = !{!12, !263, !30}
!1089 = !DISubprogram(name: "set_anno_u32", linkageName: "_ZN6Packet12set_anno_u32Eij", scope: !5, file: !4, line: 550, type: !1090, isLocal: false, isDefinition: false, scopeLine: 550, flags: DIFlagPublic | DIFlagPrototyped, isOptimized: false)
!1090 = !DISubroutineType(types: !1091)
!1091 = !{null, !259, !30, !12}
!1092 = !DISubprogram(name: "anno_s32", linkageName: "_ZNK6Packet8anno_s32Ei", scope: !5, file: !4, line: 562, type: !1093, isLocal: false, isDefinition: false, scopeLine: 562, flags: DIFlagPublic | DIFlagPrototyped, isOptimized: false)
!1093 = !DISubroutineType(types: !1094)
!1094 = !{!29, !263, !30}
!1095 = !DISubprogram(name: "set_anno_s32", linkageName: "_ZN6Packet12set_anno_s32Eii", scope: !5, file: !4, line: 577, type: !1096, isLocal: false, isDefinition: false, scopeLine: 577, flags: DIFlagPublic | DIFlagPrototyped, isOptimized: false)
!1096 = !DISubroutineType(types: !1097)
!1097 = !{null, !259, !30, !29}
!1098 = !DISubprogram(name: "anno_u64", linkageName: "_ZNK6Packet8anno_u64Ei", scope: !5, file: !4, line: 591, type: !1099, isLocal: false, isDefinition: false, scopeLine: 591, flags: DIFlagPublic | DIFlagPrototyped, isOptimized: false)
!1099 = !DISubroutineType(types: !1100)
!1100 = !{!107, !263, !30}
!1101 = !DISubprogram(name: "set_anno_u64", linkageName: "_ZN6Packet12set_anno_u64Eim", scope: !5, file: !4, line: 606, type: !1102, isLocal: false, isDefinition: false, scopeLine: 606, flags: DIFlagPublic | DIFlagPrototyped, isOptimized: false)
!1102 = !DISubroutineType(types: !1103)
!1103 = !{null, !259, !30, !107}
!1104 = !DISubprogram(name: "anno_ptr", linkageName: "_ZNK6Packet8anno_ptrEi", scope: !5, file: !4, line: 620, type: !1105, isLocal: false, isDefinition: false, scopeLine: 620, flags: DIFlagPublic | DIFlagPrototyped, isOptimized: false)
!1105 = !DISubroutineType(types: !1106)
!1106 = !{!128, !263, !30}
!1107 = !DISubprogram(name: "set_anno_ptr", linkageName: "_ZN6Packet12set_anno_ptrEiPKv", scope: !5, file: !4, line: 635, type: !1108, isLocal: false, isDefinition: false, scopeLine: 635, flags: DIFlagPublic | DIFlagPrototyped, isOptimized: false)
!1108 = !DISubroutineType(types: !1109)
!1109 = !{null, !259, !30, !242}
!1110 = !DISubprogram(name: "data_packet", linkageName: "_ZN6Packet11data_packetEv", scope: !5, file: !4, line: 644, type: !265, isLocal: false, isDefinition: false, scopeLine: 644, flags: DIFlagPublic | DIFlagPrototyped, isOptimized: false)
!1111 = !DISubprogram(name: "clear_annotations", linkageName: "_ZN6Packet17clear_annotationsEb", scope: !5, file: !4, line: 649, type: !1112, isLocal: false, isDefinition: false, scopeLine: 649, flags: DIFlagPublic | DIFlagPrototyped, isOptimized: false)
!1112 = !DISubroutineType(types: !1113)
!1113 = !{null, !259, !49}
!1114 = !DISubprogram(name: "copy_annotations", linkageName: "_ZN6Packet16copy_annotationsEPKS_", scope: !5, file: !4, line: 650, type: !1115, isLocal: false, isDefinition: false, scopeLine: 650, flags: DIFlagPublic | DIFlagPrototyped, isOptimized: false)
!1115 = !DISubroutineType(types: !1116)
!1116 = !{null, !259, !1117}
!1117 = !DIDerivedType(tag: DW_TAG_pointer_type, baseType: !231, size: 64)
!1118 = !DISubprogram(name: "buffer_data", linkageName: "_ZNK6Packet11buffer_dataEv", scope: !5, file: !4, line: 667, type: !271, isLocal: false, isDefinition: false, scopeLine: 667, flags: DIFlagPublic | DIFlagPrototyped, isOptimized: false)
!1119 = !DISubprogram(name: "addr_anno", linkageName: "_ZN6Packet9addr_annoEv", scope: !5, file: !4, line: 668, type: !291, isLocal: false, isDefinition: false, scopeLine: 668, flags: DIFlagPublic | DIFlagPrototyped, isOptimized: false)
!1120 = !DISubprogram(name: "addr_anno", linkageName: "_ZNK6Packet9addr_annoEv", scope: !5, file: !4, line: 669, type: !1046, isLocal: false, isDefinition: false, scopeLine: 669, flags: DIFlagPublic | DIFlagPrototyped, isOptimized: false)
!1121 = !DISubprogram(name: "user_anno", linkageName: "_ZN6Packet9user_annoEv", scope: !5, file: !4, line: 670, type: !291, isLocal: false, isDefinition: false, scopeLine: 670, flags: DIFlagPublic | DIFlagPrototyped, isOptimized: false)
!1122 = !DISubprogram(name: "user_anno", linkageName: "_ZNK6Packet9user_annoEv", scope: !5, file: !4, line: 671, type: !1046, isLocal: false, isDefinition: false, scopeLine: 671, flags: DIFlagPublic | DIFlagPrototyped, isOptimized: false)
!1123 = !DISubprogram(name: "user_anno_u8", linkageName: "_ZN6Packet12user_anno_u8Ev", scope: !5, file: !4, line: 672, type: !1049, isLocal: false, isDefinition: false, scopeLine: 672, flags: DIFlagPublic | DIFlagPrototyped, isOptimized: false)
!1124 = !DISubprogram(name: "user_anno_u8", linkageName: "_ZNK6Packet12user_anno_u8Ev", scope: !5, file: !4, line: 673, type: !1053, isLocal: false, isDefinition: false, scopeLine: 673, flags: DIFlagPublic | DIFlagPrototyped, isOptimized: false)
!1125 = !DISubprogram(name: "user_anno_u32", linkageName: "_ZN6Packet13user_anno_u32Ev", scope: !5, file: !4, line: 674, type: !1058, isLocal: false, isDefinition: false, scopeLine: 674, flags: DIFlagPublic | DIFlagPrototyped, isOptimized: false)
!1126 = !DISubprogram(name: "user_anno_u32", linkageName: "_ZNK6Packet13user_anno_u32Ev", scope: !5, file: !4, line: 675, type: !1062, isLocal: false, isDefinition: false, scopeLine: 675, flags: DIFlagPublic | DIFlagPrototyped, isOptimized: false)
!1127 = !DISubprogram(name: "user_anno_u8", linkageName: "_ZNK6Packet12user_anno_u8Ei", scope: !5, file: !4, line: 676, type: !1067, isLocal: false, isDefinition: false, scopeLine: 676, flags: DIFlagPublic | DIFlagPrototyped, isOptimized: false)
!1128 = !DISubprogram(name: "set_user_anno_u8", linkageName: "_ZN6Packet16set_user_anno_u8Eih", scope: !5, file: !4, line: 677, type: !1070, isLocal: false, isDefinition: false, scopeLine: 677, flags: DIFlagPublic | DIFlagPrototyped, isOptimized: false)
!1129 = !DISubprogram(name: "user_anno_u16", linkageName: "_ZNK6Packet13user_anno_u16Ei", scope: !5, file: !4, line: 678, type: !1073, isLocal: false, isDefinition: false, scopeLine: 678, flags: DIFlagPublic | DIFlagPrototyped, isOptimized: false)
!1130 = !DISubprogram(name: "set_user_anno_u16", linkageName: "_ZN6Packet17set_user_anno_u16Eit", scope: !5, file: !4, line: 679, type: !1076, isLocal: false, isDefinition: false, scopeLine: 679, flags: DIFlagPublic | DIFlagPrototyped, isOptimized: false)
!1131 = !DISubprogram(name: "user_anno_u32", linkageName: "_ZNK6Packet13user_anno_u32Ei", scope: !5, file: !4, line: 680, type: !1087, isLocal: false, isDefinition: false, scopeLine: 680, flags: DIFlagPublic | DIFlagPrototyped, isOptimized: false)
!1132 = !DISubprogram(name: "set_user_anno_u32", linkageName: "_ZN6Packet17set_user_anno_u32Eij", scope: !5, file: !4, line: 681, type: !1090, isLocal: false, isDefinition: false, scopeLine: 681, flags: DIFlagPublic | DIFlagPrototyped, isOptimized: false)
!1133 = !DISubprogram(name: "user_anno_s32", linkageName: "_ZNK6Packet13user_anno_s32Ei", scope: !5, file: !4, line: 682, type: !1093, isLocal: false, isDefinition: false, scopeLine: 682, flags: DIFlagPublic | DIFlagPrototyped, isOptimized: false)
!1134 = !DISubprogram(name: "set_user_anno_s32", linkageName: "_ZN6Packet17set_user_anno_s32Eii", scope: !5, file: !4, line: 683, type: !1096, isLocal: false, isDefinition: false, scopeLine: 683, flags: DIFlagPublic | DIFlagPrototyped, isOptimized: false)
!1135 = !DISubprogram(name: "user_anno_u64", linkageName: "_ZNK6Packet13user_anno_u64Ei", scope: !5, file: !4, line: 685, type: !1099, isLocal: false, isDefinition: false, scopeLine: 685, flags: DIFlagPublic | DIFlagPrototyped, isOptimized: false)
!1136 = !DISubprogram(name: "set_user_anno_u64", linkageName: "_ZN6Packet17set_user_anno_u64Eim", scope: !5, file: !4, line: 686, type: !1102, isLocal: false, isDefinition: false, scopeLine: 686, flags: DIFlagPublic | DIFlagPrototyped, isOptimized: false)
!1137 = !DISubprogram(name: "all_user_anno", linkageName: "_ZNK6Packet13all_user_annoEv", scope: !5, file: !4, line: 688, type: !1053, isLocal: false, isDefinition: false, scopeLine: 688, flags: DIFlagPublic | DIFlagPrototyped, isOptimized: false)
!1138 = !DISubprogram(name: "all_user_anno", linkageName: "_ZN6Packet13all_user_annoEv", scope: !5, file: !4, line: 689, type: !1049, isLocal: false, isDefinition: false, scopeLine: 689, flags: DIFlagPublic | DIFlagPrototyped, isOptimized: false)
!1139 = !DISubprogram(name: "all_user_anno_u", linkageName: "_ZNK6Packet15all_user_anno_uEv", scope: !5, file: !4, line: 690, type: !1062, isLocal: false, isDefinition: false, scopeLine: 690, flags: DIFlagPublic | DIFlagPrototyped, isOptimized: false)
!1140 = !DISubprogram(name: "all_user_anno_u", linkageName: "_ZN6Packet15all_user_anno_uEv", scope: !5, file: !4, line: 691, type: !1058, isLocal: false, isDefinition: false, scopeLine: 691, flags: DIFlagPublic | DIFlagPrototyped, isOptimized: false)
!1141 = !DISubprogram(name: "user_anno_c", linkageName: "_ZNK6Packet11user_anno_cEi", scope: !5, file: !4, line: 692, type: !1067, isLocal: false, isDefinition: false, scopeLine: 692, flags: DIFlagPublic | DIFlagPrototyped, isOptimized: false)
!1142 = !DISubprogram(name: "set_user_anno_c", linkageName: "_ZN6Packet15set_user_anno_cEih", scope: !5, file: !4, line: 693, type: !1070, isLocal: false, isDefinition: false, scopeLine: 693, flags: DIFlagPublic | DIFlagPrototyped, isOptimized: false)
!1143 = !DISubprogram(name: "user_anno_s", linkageName: "_ZNK6Packet11user_anno_sEi", scope: !5, file: !4, line: 694, type: !1079, isLocal: false, isDefinition: false, scopeLine: 694, flags: DIFlagPublic | DIFlagPrototyped, isOptimized: false)
!1144 = !DISubprogram(name: "set_user_anno_s", linkageName: "_ZN6Packet15set_user_anno_sEis", scope: !5, file: !4, line: 695, type: !1084, isLocal: false, isDefinition: false, scopeLine: 695, flags: DIFlagPublic | DIFlagPrototyped, isOptimized: false)
!1145 = !DISubprogram(name: "user_anno_us", linkageName: "_ZNK6Packet12user_anno_usEi", scope: !5, file: !4, line: 696, type: !1073, isLocal: false, isDefinition: false, scopeLine: 696, flags: DIFlagPublic | DIFlagPrototyped, isOptimized: false)
!1146 = !DISubprogram(name: "set_user_anno_us", linkageName: "_ZN6Packet16set_user_anno_usEit", scope: !5, file: !4, line: 697, type: !1076, isLocal: false, isDefinition: false, scopeLine: 697, flags: DIFlagPublic | DIFlagPrototyped, isOptimized: false)
!1147 = !DISubprogram(name: "user_anno_i", linkageName: "_ZNK6Packet11user_anno_iEi", scope: !5, file: !4, line: 698, type: !1093, isLocal: false, isDefinition: false, scopeLine: 698, flags: DIFlagPublic | DIFlagPrototyped, isOptimized: false)
!1148 = !DISubprogram(name: "set_user_anno_i", linkageName: "_ZN6Packet15set_user_anno_iEii", scope: !5, file: !4, line: 699, type: !1096, isLocal: false, isDefinition: false, scopeLine: 699, flags: DIFlagPublic | DIFlagPrototyped, isOptimized: false)
!1149 = !DISubprogram(name: "user_anno_u", linkageName: "_ZNK6Packet11user_anno_uEi", scope: !5, file: !4, line: 700, type: !1087, isLocal: false, isDefinition: false, scopeLine: 700, flags: DIFlagPublic | DIFlagPrototyped, isOptimized: false)
!1150 = !DISubprogram(name: "set_user_anno_u", linkageName: "_ZN6Packet15set_user_anno_uEij", scope: !5, file: !4, line: 701, type: !1090, isLocal: false, isDefinition: false, scopeLine: 701, flags: DIFlagPublic | DIFlagPrototyped, isOptimized: false)
!1151 = !DISubprogram(name: "Packet", scope: !5, file: !4, line: 757, type: !257, isLocal: false, isDefinition: false, scopeLine: 757, flags: DIFlagPrototyped, isOptimized: false)
!1152 = !DISubprogram(name: "Packet", scope: !5, file: !4, line: 762, type: !1153, isLocal: false, isDefinition: false, scopeLine: 762, flags: DIFlagPrototyped, isOptimized: false)
!1153 = !DISubroutineType(types: !1154)
!1154 = !{null, !259, !230}
!1155 = !DISubprogram(name: "~Packet", scope: !5, file: !4, line: 763, type: !257, isLocal: false, isDefinition: false, scopeLine: 763, flags: DIFlagPrototyped, isOptimized: false)
!1156 = !DISubprogram(name: "operator=", linkageName: "_ZN6PacketaSERKS_", scope: !5, file: !4, line: 764, type: !1157, isLocal: false, isDefinition: false, scopeLine: 764, flags: DIFlagPrototyped, isOptimized: false)
!1157 = !DISubroutineType(types: !1158)
!1158 = !{!1159, !259, !230}
!1159 = !DIDerivedType(tag: DW_TAG_reference_type, baseType: !5, size: 64)
!1160 = !DISubprogram(name: "alloc_data", linkageName: "_ZN6Packet10alloc_dataEjjj", scope: !5, file: !4, line: 767, type: !1161, isLocal: false, isDefinition: false, scopeLine: 767, flags: DIFlagPrototyped, isOptimized: false)
!1161 = !DISubroutineType(types: !1162)
!1162 = !{!49, !259, !12, !12, !12}
!1163 = !DISubprogram(name: "shift_header_annotations", linkageName: "_ZN6Packet24shift_header_annotationsEPKhi", scope: !5, file: !4, line: 774, type: !1164, isLocal: false, isDefinition: false, scopeLine: 774, flags: DIFlagPrototyped, isOptimized: false)
!1164 = !DISubroutineType(types: !1165)
!1165 = !{null, !259, !273, !29}
!1166 = !DISubprogram(name: "expensive_uniqueify", linkageName: "_ZN6Packet19expensive_uniqueifyEiib", scope: !5, file: !4, line: 775, type: !1167, isLocal: false, isDefinition: false, scopeLine: 775, flags: DIFlagPrototyped, isOptimized: false)
!1167 = !DISubroutineType(types: !1168)
!1168 = !{!133, !259, !29, !29, !49}
!1169 = !DISubprogram(name: "expensive_push", linkageName: "_ZN6Packet14expensive_pushEj", scope: !5, file: !4, line: 776, type: !295, isLocal: false, isDefinition: false, scopeLine: 776, flags: DIFlagPrototyped, isOptimized: false)
!1170 = !DISubprogram(name: "expensive_put", linkageName: "_ZN6Packet13expensive_putEj", scope: !5, file: !4, line: 777, type: !295, isLocal: false, isDefinition: false, scopeLine: 777, flags: DIFlagPrototyped, isOptimized: false)
!1171 = !{!1172, !1173, !1174, !1175, !1176, !1177, !1178}
!1172 = !DIEnumerator(name: "HOST", value: 0)
!1173 = !DIEnumerator(name: "BROADCAST", value: 1)
!1174 = !DIEnumerator(name: "MULTICAST", value: 2)
!1175 = !DIEnumerator(name: "OTHERHOST", value: 3)
!1176 = !DIEnumerator(name: "OUTGOING", value: 4)
!1177 = !DIEnumerator(name: "LOOPBACK", value: 5)
!1178 = !DIEnumerator(name: "FASTROUTE", value: 6)
!1179 = !DICompositeType(tag: DW_TAG_enumeration_type, name: "DeprecatedFlags", scope: !1181, file: !1180, line: 252, size: 32, elements: !1279, identifier: "_ZTSN7Handler15DeprecatedFlagsE")
!1180 = !DIFile(filename: "/usr/local/include/click/handler.hh", directory: "/home/jiarong/multi_thread_train/compute_prediction/c_packetprocessing/apps/env")
!1181 = distinct !DICompositeType(tag: DW_TAG_class_type, name: "Handler", file: !1180, line: 19, size: 576, elements: !1182, identifier: "_ZTS7Handler")
!1182 = !{!1183, !1184, !1205, !1214, !1215, !1216, !1217, !1218, !1219, !1220, !1224, !1227, !1230, !1233, !1234, !1235, !1236, !1239, !1240, !1241, !1242, !1243, !1244, !1245, !1246, !1247, !1250, !1253, !1256, !1259, !1262, !1265, !1268, !1272, !1276}
!1183 = !DIDerivedType(tag: DW_TAG_member, name: "_name", scope: !1181, file: !1180, line: 289, baseType: !572, size: 192)
!1184 = !DIDerivedType(tag: DW_TAG_member, name: "_read_hook", scope: !1181, file: !1180, line: 293, baseType: !1185, size: 64, offset: 192)
!1185 = distinct !DICompositeType(tag: DW_TAG_union_type, scope: !1181, file: !1180, line: 290, size: 64, elements: !1186, identifier: "_ZTSN7HandlerUt1_E")
!1186 = !{!1187, !1200}
!1187 = !DIDerivedType(tag: DW_TAG_member, name: "h", scope: !1185, file: !1180, line: 291, baseType: !1188, size: 64)
!1188 = !DIDerivedType(tag: DW_TAG_typedef, name: "HandlerCallback", file: !1180, line: 13, baseType: !1189)
!1189 = !DIDerivedType(tag: DW_TAG_pointer_type, baseType: !1190, size: 64)
!1190 = !DISubroutineType(types: !1191)
!1191 = !{!30, !30, !775, !1192, !1195, !1197}
!1192 = !DIDerivedType(tag: DW_TAG_pointer_type, baseType: !1193, size: 64)
!1193 = !DICompositeType(tag: DW_TAG_class_type, name: "Element", file: !1194, line: 29, flags: DIFlagFwdDecl, identifier: "_ZTS7Element")
!1194 = !DIFile(filename: "/usr/local/include/click/element.hh", directory: "/home/jiarong/multi_thread_train/compute_prediction/c_packetprocessing/apps/env")
!1195 = !DIDerivedType(tag: DW_TAG_pointer_type, baseType: !1196, size: 64)
!1196 = !DIDerivedType(tag: DW_TAG_const_type, baseType: !1181)
!1197 = !DIDerivedType(tag: DW_TAG_pointer_type, baseType: !1198, size: 64)
!1198 = !DICompositeType(tag: DW_TAG_class_type, name: "ErrorHandler", file: !1199, line: 12, flags: DIFlagFwdDecl, identifier: "_ZTS12ErrorHandler")
!1199 = !DIFile(filename: "/usr/local/include/click/confparse.hh", directory: "/home/jiarong/multi_thread_train/compute_prediction/c_packetprocessing/apps/env")
!1200 = !DIDerivedType(tag: DW_TAG_member, name: "r", scope: !1185, file: !1180, line: 292, baseType: !1201, size: 64)
!1201 = !DIDerivedType(tag: DW_TAG_typedef, name: "ReadHandlerCallback", file: !1180, line: 15, baseType: !1202)
!1202 = !DIDerivedType(tag: DW_TAG_pointer_type, baseType: !1203, size: 64)
!1203 = !DISubroutineType(types: !1204)
!1204 = !{!572, !1192, !128}
!1205 = !DIDerivedType(tag: DW_TAG_member, name: "_write_hook", scope: !1181, file: !1180, line: 297, baseType: !1206, size: 64, offset: 256)
!1206 = distinct !DICompositeType(tag: DW_TAG_union_type, scope: !1181, file: !1180, line: 294, size: 64, elements: !1207, identifier: "_ZTSN7HandlerUt2_E")
!1207 = !{!1208, !1209}
!1208 = !DIDerivedType(tag: DW_TAG_member, name: "h", scope: !1206, file: !1180, line: 295, baseType: !1188, size: 64)
!1209 = !DIDerivedType(tag: DW_TAG_member, name: "w", scope: !1206, file: !1180, line: 296, baseType: !1210, size: 64)
!1210 = !DIDerivedType(tag: DW_TAG_typedef, name: "WriteHandlerCallback", file: !1180, line: 16, baseType: !1211)
!1211 = !DIDerivedType(tag: DW_TAG_pointer_type, baseType: !1212, size: 64)
!1212 = !DISubroutineType(types: !1213)
!1213 = !{!30, !613, !1192, !128, !1197}
!1214 = !DIDerivedType(tag: DW_TAG_member, name: "_read_user_data", scope: !1181, file: !1180, line: 298, baseType: !128, size: 64, offset: 320)
!1215 = !DIDerivedType(tag: DW_TAG_member, name: "_write_user_data", scope: !1181, file: !1180, line: 299, baseType: !128, size: 64, offset: 384)
!1216 = !DIDerivedType(tag: DW_TAG_member, name: "_flags", scope: !1181, file: !1180, line: 300, baseType: !12, size: 32, offset: 448)
!1217 = !DIDerivedType(tag: DW_TAG_member, name: "_use_count", scope: !1181, file: !1180, line: 301, baseType: !30, size: 32, offset: 480)
!1218 = !DIDerivedType(tag: DW_TAG_member, name: "_next_by_name", scope: !1181, file: !1180, line: 302, baseType: !30, size: 32, offset: 512)
!1219 = !DIDerivedType(tag: DW_TAG_member, name: "the_blank_handler", scope: !1181, file: !1180, line: 304, baseType: !1195, flags: DIFlagStaticMember)
!1220 = !DISubprogram(name: "name", linkageName: "_ZNK7Handler4nameEv", scope: !1181, file: !1180, line: 62, type: !1221, isLocal: false, isDefinition: false, scopeLine: 62, flags: DIFlagPublic | DIFlagPrototyped, isOptimized: false)
!1221 = !DISubroutineType(types: !1222)
!1222 = !{!613, !1223}
!1223 = !DIDerivedType(tag: DW_TAG_pointer_type, baseType: !1196, size: 64, flags: DIFlagArtificial | DIFlagObjectPointer)
!1224 = !DISubprogram(name: "flags", linkageName: "_ZNK7Handler5flagsEv", scope: !1181, file: !1180, line: 69, type: !1225, isLocal: false, isDefinition: false, scopeLine: 69, flags: DIFlagPublic | DIFlagPrototyped, isOptimized: false)
!1225 = !DISubroutineType(types: !1226)
!1226 = !{!12, !1223}
!1227 = !DISubprogram(name: "user_data", linkageName: "_ZNK7Handler9user_dataEi", scope: !1181, file: !1180, line: 75, type: !1228, isLocal: false, isDefinition: false, scopeLine: 75, flags: DIFlagPublic | DIFlagPrototyped, isOptimized: false)
!1228 = !DISubroutineType(types: !1229)
!1229 = !{!128, !1223, !30}
!1230 = !DISubprogram(name: "read_user_data", linkageName: "_ZNK7Handler14read_user_dataEv", scope: !1181, file: !1180, line: 80, type: !1231, isLocal: false, isDefinition: false, scopeLine: 80, flags: DIFlagPublic | DIFlagPrototyped, isOptimized: false)
!1231 = !DISubroutineType(types: !1232)
!1232 = !{!128, !1223}
!1233 = !DISubprogram(name: "write_user_data", linkageName: "_ZNK7Handler15write_user_dataEv", scope: !1181, file: !1180, line: 85, type: !1231, isLocal: false, isDefinition: false, scopeLine: 85, flags: DIFlagPublic | DIFlagPrototyped, isOptimized: false)
!1234 = !DISubprogram(name: "user_data1", linkageName: "_ZNK7Handler10user_data1Ev", scope: !1181, file: !1180, line: 90, type: !1231, isLocal: false, isDefinition: false, scopeLine: 90, flags: DIFlagPublic | DIFlagPrototyped, isOptimized: false)
!1235 = !DISubprogram(name: "user_data2", linkageName: "_ZNK7Handler10user_data2Ev", scope: !1181, file: !1180, line: 91, type: !1231, isLocal: false, isDefinition: false, scopeLine: 91, flags: DIFlagPublic | DIFlagPrototyped, isOptimized: false)
!1236 = !DISubprogram(name: "readable", linkageName: "_ZNK7Handler8readableEv", scope: !1181, file: !1180, line: 96, type: !1237, isLocal: false, isDefinition: false, scopeLine: 96, flags: DIFlagPublic | DIFlagPrototyped, isOptimized: false)
!1237 = !DISubroutineType(types: !1238)
!1238 = !{!49, !1223}
!1239 = !DISubprogram(name: "read_param", linkageName: "_ZNK7Handler10read_paramEv", scope: !1181, file: !1180, line: 102, type: !1237, isLocal: false, isDefinition: false, scopeLine: 102, flags: DIFlagPublic | DIFlagPrototyped, isOptimized: false)
!1240 = !DISubprogram(name: "read_visible", linkageName: "_ZNK7Handler12read_visibleEv", scope: !1181, file: !1180, line: 111, type: !1237, isLocal: false, isDefinition: false, scopeLine: 111, flags: DIFlagPublic | DIFlagPrototyped, isOptimized: false)
!1241 = !DISubprogram(name: "writable", linkageName: "_ZNK7Handler8writableEv", scope: !1181, file: !1180, line: 116, type: !1237, isLocal: false, isDefinition: false, scopeLine: 116, flags: DIFlagPublic | DIFlagPrototyped, isOptimized: false)
!1242 = !DISubprogram(name: "write_visible", linkageName: "_ZNK7Handler13write_visibleEv", scope: !1181, file: !1180, line: 125, type: !1237, isLocal: false, isDefinition: false, scopeLine: 125, flags: DIFlagPublic | DIFlagPrototyped, isOptimized: false)
!1243 = !DISubprogram(name: "visible", linkageName: "_ZNK7Handler7visibleEv", scope: !1181, file: !1180, line: 130, type: !1237, isLocal: false, isDefinition: false, scopeLine: 130, flags: DIFlagPublic | DIFlagPrototyped, isOptimized: false)
!1244 = !DISubprogram(name: "allow_concurrent_handlers", linkageName: "_ZNK7Handler25allow_concurrent_handlersEv", scope: !1181, file: !1180, line: 136, type: !1237, isLocal: false, isDefinition: false, scopeLine: 136, flags: DIFlagPublic | DIFlagPrototyped, isOptimized: false)
!1245 = !DISubprogram(name: "allow_concurrent_threads", linkageName: "_ZNK7Handler24allow_concurrent_threadsEv", scope: !1181, file: !1180, line: 142, type: !1237, isLocal: false, isDefinition: false, scopeLine: 142, flags: DIFlagPublic | DIFlagPrototyped, isOptimized: false)
!1246 = !DISubprogram(name: "raw", linkageName: "_ZNK7Handler3rawEv", scope: !1181, file: !1180, line: 164, type: !1237, isLocal: false, isDefinition: false, scopeLine: 164, flags: DIFlagPublic | DIFlagPrototyped, isOptimized: false)
!1247 = !DISubprogram(name: "call_read", linkageName: "_ZNK7Handler9call_readEP7ElementRK6StringP12ErrorHandler", scope: !1181, file: !1180, line: 177, type: !1248, isLocal: false, isDefinition: false, scopeLine: 177, flags: DIFlagPublic | DIFlagPrototyped, isOptimized: false)
!1248 = !DISubroutineType(types: !1249)
!1249 = !{!572, !1223, !1192, !613, !1197}
!1250 = !DISubprogram(name: "call_read", linkageName: "_ZNK7Handler9call_readEP7ElementP12ErrorHandler", scope: !1181, file: !1180, line: 186, type: !1251, isLocal: false, isDefinition: false, scopeLine: 186, flags: DIFlagPublic | DIFlagPrototyped, isOptimized: false)
!1251 = !DISubroutineType(types: !1252)
!1252 = !{!572, !1223, !1192, !1197}
!1253 = !DISubprogram(name: "call_write", linkageName: "_ZNK7Handler10call_writeERK6StringP7ElementP12ErrorHandler", scope: !1181, file: !1180, line: 198, type: !1254, isLocal: false, isDefinition: false, scopeLine: 198, flags: DIFlagPublic | DIFlagPrototyped, isOptimized: false)
!1254 = !DISubroutineType(types: !1255)
!1255 = !{!30, !1223, !613, !1192, !1197}
!1256 = !DISubprogram(name: "unparse_name", linkageName: "_ZNK7Handler12unparse_nameEP7Element", scope: !1181, file: !1180, line: 207, type: !1257, isLocal: false, isDefinition: false, scopeLine: 207, flags: DIFlagPublic | DIFlagPrototyped, isOptimized: false)
!1257 = !DISubroutineType(types: !1258)
!1258 = !{!572, !1223, !1192}
!1259 = !DISubprogram(name: "unparse_name", linkageName: "_ZN7Handler12unparse_nameEP7ElementRK6String", scope: !1181, file: !1180, line: 216, type: !1260, isLocal: false, isDefinition: false, scopeLine: 216, flags: DIFlagPublic | DIFlagPrototyped | DIFlagStaticMember, isOptimized: false)
!1260 = !DISubroutineType(types: !1261)
!1261 = !{!572, !1192, !613}
!1262 = !DISubprogram(name: "blank_handler", linkageName: "_ZN7Handler13blank_handlerEv", scope: !1181, file: !1180, line: 223, type: !1263, isLocal: false, isDefinition: false, scopeLine: 223, flags: DIFlagPublic | DIFlagPrototyped | DIFlagStaticMember, isOptimized: false)
!1263 = !DISubroutineType(types: !1264)
!1264 = !{!1195}
!1265 = !DISubprogram(name: "__call_read", linkageName: "_ZNK7Handler11__call_readEP7ElementPv", scope: !1181, file: !1180, line: 281, type: !1266, isLocal: false, isDefinition: false, scopeLine: 281, flags: DIFlagPublic | DIFlagPrototyped, isOptimized: false)
!1266 = !DISubroutineType(types: !1267)
!1267 = !{!572, !1223, !1192, !128}
!1268 = !DISubprogram(name: "Handler", scope: !1181, file: !1180, line: 306, type: !1269, isLocal: false, isDefinition: false, scopeLine: 306, flags: DIFlagPrototyped, isOptimized: false)
!1269 = !DISubroutineType(types: !1270)
!1270 = !{null, !1271, !613}
!1271 = !DIDerivedType(tag: DW_TAG_pointer_type, baseType: !1181, size: 64, flags: DIFlagArtificial | DIFlagObjectPointer)
!1272 = !DISubprogram(name: "combine", linkageName: "_ZN7Handler7combineERKS_", scope: !1181, file: !1180, line: 308, type: !1273, isLocal: false, isDefinition: false, scopeLine: 308, flags: DIFlagPrototyped, isOptimized: false)
!1273 = !DISubroutineType(types: !1274)
!1274 = !{null, !1271, !1275}
!1275 = !DIDerivedType(tag: DW_TAG_reference_type, baseType: !1196, size: 64)
!1276 = !DISubprogram(name: "compatible", linkageName: "_ZNK7Handler10compatibleERKS_", scope: !1181, file: !1180, line: 309, type: !1277, isLocal: false, isDefinition: false, scopeLine: 309, flags: DIFlagPrototyped, isOptimized: false)
!1277 = !DISubroutineType(types: !1278)
!1278 = !{!49, !1223, !1275}
!1279 = !{!1280, !1281, !1282, !1283, !1284, !1285, !1286, !1287, !1288, !1289}
!1280 = !DIEnumerator(name: "OP_READ", value: 1)
!1281 = !DIEnumerator(name: "OP_WRITE", value: 2)
!1282 = !DIEnumerator(name: "READ_PARAM", value: 4)
!1283 = !DIEnumerator(name: "RAW", value: 64)
!1284 = !DIEnumerator(name: "CALM", value: 2048)
!1285 = !DIEnumerator(name: "EXPENSIVE", value: 4096)
!1286 = !DIEnumerator(name: "BUTTON", value: 8192)
!1287 = !DIEnumerator(name: "CHECKBOX", value: 16384)
!1288 = !DIEnumerator(name: "USER_FLAG_SHIFT", value: 28)
!1289 = !DIEnumerator(name: "USER_FLAG_0", value: 268435456)
!1290 = !{!1051, !133, !155, !355, !195, !383, !213, !388, !1291}
!1291 = !DIDerivedType(tag: DW_TAG_pointer_type, baseType: !49, size: 64)
