; ModuleID = 'test6.cc'
source_filename = "test6.cc"
target datalayout = "e-m:e-i64:64-f80:128-n8:16:32:64-S128"
target triple = "x86_64-pc-linux-gnu"

%class.test6 = type { %class.Element.base, i8, i16, i32, i8, i16, i8, i8, i8, i16, i16, i32, i32 }
%class.Element.base = type <{ i32 (...)**, [2 x %"class.Element::Port"*], [4 x %"class.Element::Port"], [2 x i32], %class.Router*, i32 }>
%"class.Element::Port" = type <{ %class.Element*, i32, [4 x i8] }>
%class.Element = type <{ i32 (...)**, [2 x %"class.Element::Port"*], [4 x %"class.Element::Port"], [2 x i32], %class.Router*, i32, [4 x i8] }>
%class.Router = type opaque
%class.Vector = type { %class.vector_memory }
%class.vector_memory = type { %class.String*, i32, i32 }
%class.String = type { %"struct.String::rep_t" }
%"struct.String::rep_t" = type { i8*, i32, %"struct.String::memo_t"* }
%"struct.String::memo_t" = type { i32, i32, i32, [8 x i8] }
%class.ErrorHandler = type opaque
%class.Args = type { %class.ArgContext.base, i8, i8, i8, %class.Vector*, %class.Vector.0, %"struct.Args::Slot"*, [48 x i8] }
%class.ArgContext.base = type <{ %class.Element*, %class.ErrorHandler*, i8*, i8 }>
%class.Vector.0 = type { %class.vector_memory.1 }
%class.vector_memory.1 = type { %struct.char_array*, i32, i32 }
%struct.char_array = type opaque
%"struct.Args::Slot" = type { i32 (...)**, %"struct.Args::Slot"* }
%class.Packet = type { %class.atomic_uint32_t, %class.Packet*, i8*, i8*, i8*, i8*, %"struct.Packet::AllAnno", void (i8*, i64, i8*)*, i8* }
%class.atomic_uint32_t = type { i32 }
%"struct.Packet::AllAnno" = type { %"union.Packet::Anno", i8*, i8*, i8*, i32, [8 x i8], %class.Packet*, %class.Packet* }
%"union.Packet::Anno" = type { [6 x i64] }
%class.WritablePacket = type { %class.Packet }
%struct.click_ip = type { i8, i8, i16, i16, i16, i8, i8, i16, %struct.in_addr, %struct.in_addr }
%struct.in_addr = type { i32 }
%struct.click_tcp = type { i16, i16, i32, i32, i8, i8, i16, i16, i16 }
%struct.click_udp = type { i16, i16, i16, i16 }
%class.Task = type opaque
%class.Timer = type opaque
%class.ArgContext = type <{ %class.Element*, %class.ErrorHandler*, i8*, i8, [7 x i8] }>

$_ZN4Args4readIbEERS_PKcRT_ = comdat any

$_ZNK6Packet18has_network_headerEv = comdat any

$_ZN6Packet9uniqueifyEv = comdat any

$_ZNK14WritablePacket9ip_headerEv = comdat any

$_ZNK14WritablePacket10tcp_headerEv = comdat any

$_ZNK14WritablePacket10udp_headerEv = comdat any

$_ZN5test625customized_click_in_cksumEPKhi = comdat any

$_ZNK6Packet16transport_lengthEv = comdat any

$_ZN5test635customized_click_in_cksum_pseudohdrEjPK8click_ipi = comdat any

$_ZNK5test610class_nameEv = comdat any

$_ZNK5test610port_countEv = comdat any

$_ZNK5test610processingEv = comdat any

$_ZNK6Packet6sharedEv = comdat any

$_ZNK15atomic_uint32_tcvjEv = comdat any

$_ZNK15atomic_uint32_t5valueEv = comdat any

$_ZNK6Packet9ip_headerEv = comdat any

$_ZNK6Packet14network_headerEv = comdat any

$_ZNK6Packet10tcp_headerEv = comdat any

$_ZNK6Packet16transport_headerEv = comdat any

$_ZNK6Packet10udp_headerEv = comdat any

$_ZNK6Packet8end_dataEv = comdat any

$_ZN4Args4readIbEERS_PKciRT_ = comdat any

$_Z14args_base_readIbEvP4ArgsPKciRT_ = comdat any

$_ZN4Args9base_readIbEEvPKciRT_ = comdat any

$_ZNK6StringcvMS_KFivEEv = comdat any

$_ZN17Args_parse_helperI10DefaultArgIbELb0EE4slotIb4ArgsEEPT_RS5_RT0_ = comdat any

$_ZN17Args_parse_helperI10DefaultArgIbELb0EE5parseIb4ArgsEEbS1_RK6StringRT_RT0_ = comdat any

$_ZN6StringD2Ev = comdat any

$_ZNK6String6lengthEv = comdat any

$_ZN4Args4slotIbEEPT_RS1_ = comdat any

$_ZNK6String5derefEv = comdat any

$__clang_call_terminate = comdat any

$_ZN15atomic_uint32_t12dec_and_testERVj = comdat any

@_ZTV5test6 = unnamed_addr constant { [29 x i8*] } { [29 x i8*] [i8* null, i8* bitcast ({ i8*, i8*, i8* }* @_ZTI5test6 to i8*), i8* bitcast (void (%class.test6*)* @_ZN5test6D2Ev to i8*), i8* bitcast (void (%class.test6*)* @_ZN5test6D0Ev to i8*), i8* bitcast (void (%class.Element*, i32, %class.Packet*)* @_ZN7Element4pushEiP6Packet to i8*), i8* bitcast (%class.Packet* (%class.Element*, i32)* @_ZN7Element4pullEi to i8*), i8* bitcast (%class.Packet* (%class.test6*, %class.Packet*)* @_ZN5test613simple_actionEP6Packet to i8*), i8* bitcast (i1 (%class.Element*, %class.Task*)* @_ZN7Element8run_taskEP4Task to i8*), i8* bitcast (void (%class.Element*, %class.Timer*)* @_ZN7Element9run_timerEP5Timer to i8*), i8* bitcast (void (%class.Element*, i32, i32)* @_ZN7Element8selectedEii to i8*), i8* bitcast (void (%class.Element*, i32)* @_ZN7Element8selectedEi to i8*), i8* bitcast (i8* (%class.test6*)* @_ZNK5test610class_nameEv to i8*), i8* bitcast (i8* (%class.test6*)* @_ZNK5test610port_countEv to i8*), i8* bitcast (i8* (%class.test6*)* @_ZNK5test610processingEv to i8*), i8* bitcast (i8* (%class.Element*)* @_ZNK7Element9flow_codeEv to i8*), i8* bitcast (i8* (%class.Element*)* @_ZNK7Element5flagsEv to i8*), i8* bitcast (i8* (%class.Element*, i8*)* @_ZN7Element4castEPKc to i8*), i8* bitcast (i8* (%class.Element*, i1, i32, i8*)* @_ZN7Element9port_castEbiPKc to i8*), i8* bitcast (i32 (%class.Element*)* @_ZNK7Element15configure_phaseEv to i8*), i8* bitcast (i32 (%class.test6*, %class.Vector*, %class.ErrorHandler*)* @_ZN5test69configureER6VectorI6StringEP12ErrorHandler to i8*), i8* bitcast (void (%class.test6*)* @_ZN5test612add_handlersEv to i8*), i8* bitcast (i32 (%class.Element*, %class.ErrorHandler*)* @_ZN7Element10initializeEP12ErrorHandler to i8*), i8* bitcast (void (%class.Element*, %class.Element*, %class.ErrorHandler*)* @_ZN7Element10take_stateEPS_P12ErrorHandler to i8*), i8* bitcast (%class.Element* (%class.Element*)* @_ZNK7Element15hotswap_elementEv to i8*), i8* bitcast (void (%class.Element*, i32)* @_ZN7Element7cleanupENS_12CleanupStageE to i8*), i8* bitcast (void (%class.String*, %class.Element*)* @_ZNK7Element11declarationEv to i8*), i8* bitcast (i1 (%class.Element*)* @_ZNK7Element20can_live_reconfigureEv to i8*), i8* bitcast (i32 (%class.Element*, %class.Vector*, %class.ErrorHandler*)* @_ZN7Element16live_reconfigureER6VectorI6StringEP12ErrorHandler to i8*), i8* bitcast (i32 (%class.Element*, i32, i8*)* @_ZN7Element5llrpcEjPv to i8*)] }, align 8
@.str = private unnamed_addr constant [7 x i8] c"ACTIVE\00", align 1
@.str.1 = private unnamed_addr constant [24 x i8] c"p->has_network_header()\00", align 1
@.str.2 = private unnamed_addr constant [9 x i8] c"test6.cc\00", align 1
@__PRETTY_FUNCTION__._ZN5test613simple_actionEP6Packet = private unnamed_addr constant [47 x i8] c"virtual Packet *test6::simple_action(Packet *)\00", align 1
@.str.3 = private unnamed_addr constant [7 x i8] c"active\00", align 1
@_ZTVN10__cxxabiv120__si_class_type_infoE = external global i8*
@_ZTS5test6 = constant [7 x i8] c"5test6\00"
@_ZTI7Element = external constant i8*
@_ZTI5test6 = constant { i8*, i8*, i8* } { i8* bitcast (i8** getelementptr inbounds (i8*, i8** @_ZTVN10__cxxabiv120__si_class_type_infoE, i64 2) to i8*), i8* getelementptr inbounds ([7 x i8], [7 x i8]* @_ZTS5test6, i32 0, i32 0), i8* bitcast (i8** @_ZTI7Element to i8*) }
@.str.4 = private unnamed_addr constant [6 x i8] c"test6\00", align 1
@_ZN7Element11PORTS_1_1X2E = external constant [0 x i8], align 1
@_ZN7Element15PROCESSING_A_AHE = external constant [0 x i8], align 1
@.str.5 = private unnamed_addr constant [18 x i8] c"_r.memo->refcount\00", align 1
@.str.6 = private unnamed_addr constant [35 x i8] c"/usr/local/include/click/string.hh\00", align 1
@__PRETTY_FUNCTION__._ZNK6String5derefEv = private unnamed_addr constant [27 x i8] c"void String::deref() const\00", align 1

@_ZN5test6C1Ev = alias void (%class.test6*), void (%class.test6*)* @_ZN5test6C2Ev
@_ZN5test6D1Ev = alias void (%class.test6*), void (%class.test6*)* @_ZN5test6D2Ev

; Function Attrs: uwtable
define void @_ZN5test6C2Ev(%class.test6*) unnamed_addr #0 align 2 !dbg !2446 {
  call void @llvm.dbg.value(metadata %class.test6* %0, metadata !2686, metadata !DIExpression()), !dbg !2688
  %2 = bitcast %class.test6* %0 to %class.Element*, !dbg !2689
  tail call void @_ZN7ElementC2Ev(%class.Element* %2), !dbg !2690
  %3 = getelementptr inbounds %class.test6, %class.test6* %0, i64 0, i32 0, i32 0, !dbg !2689
  store i32 (...)** bitcast (i8** getelementptr inbounds ({ [29 x i8*] }, { [29 x i8*] }* @_ZTV5test6, i64 0, inrange i32 0, i64 2) to i32 (...)**), i32 (...)*** %3, align 8, !dbg !2689, !tbaa !2691
  %4 = getelementptr inbounds %class.test6, %class.test6* %0, i64 0, i32 1, !dbg !2694
  store i8 1, i8* %4, align 4, !dbg !2694, !tbaa !2695
  %5 = getelementptr inbounds %class.test6, %class.test6* %0, i64 0, i32 2, !dbg !2701
  store volatile i16 15873, i16* %5, align 2, !dbg !2701, !tbaa !2703
  %6 = getelementptr inbounds %class.test6, %class.test6* %0, i64 0, i32 3, !dbg !2704
  store volatile i32 -1139184143, i32* %6, align 8, !dbg !2704, !tbaa !2705
  %7 = getelementptr inbounds %class.test6, %class.test6* %0, i64 0, i32 4, !dbg !2706
  store volatile i8 -36, i8* %7, align 4, !dbg !2706, !tbaa !2707
  %8 = getelementptr inbounds %class.test6, %class.test6* %0, i64 0, i32 5, !dbg !2708
  store volatile i16 -14147, i16* %8, align 2, !dbg !2708, !tbaa !2709
  %9 = getelementptr inbounds %class.test6, %class.test6* %0, i64 0, i32 6, !dbg !2710
  store volatile i8 74, i8* %9, align 8, !dbg !2710, !tbaa !2711
  %10 = getelementptr inbounds %class.test6, %class.test6* %0, i64 0, i32 7, !dbg !2712
  store volatile i8 112, i8* %10, align 1, !dbg !2712, !tbaa !2713
  %11 = getelementptr inbounds %class.test6, %class.test6* %0, i64 0, i32 8, !dbg !2714
  store volatile i8 -51, i8* %11, align 2, !dbg !2714, !tbaa !2715
  %12 = getelementptr inbounds %class.test6, %class.test6* %0, i64 0, i32 9, !dbg !2716
  store volatile i16 3429, i16* %12, align 4, !dbg !2716, !tbaa !2717
  %13 = getelementptr inbounds %class.test6, %class.test6* %0, i64 0, i32 10, !dbg !2718
  store volatile i16 -14821, i16* %13, align 2, !dbg !2718, !tbaa !2719
  %14 = getelementptr inbounds %class.test6, %class.test6* %0, i64 0, i32 11, !dbg !2720
  store volatile i32 1075941321, i32* %14, align 8, !dbg !2720, !tbaa !2721
  %15 = getelementptr inbounds %class.test6, %class.test6* %0, i64 0, i32 12, !dbg !2722
  store volatile i32 -434888238, i32* %15, align 4, !dbg !2722, !tbaa !2723
  ret void, !dbg !2724
}

declare void @_ZN7ElementC2Ev(%class.Element*) unnamed_addr #1

; Function Attrs: nounwind
declare void @_ZN7ElementD2Ev(%class.Element*) unnamed_addr #2

; Function Attrs: nounwind uwtable
define void @_ZN5test6D2Ev(%class.test6*) unnamed_addr #3 align 2 !dbg !2726 {
  call void @llvm.dbg.value(metadata %class.test6* %0, metadata !2728, metadata !DIExpression()), !dbg !2729
  %2 = bitcast %class.test6* %0 to %class.Element*, !dbg !2730
  tail call void @_ZN7ElementD2Ev(%class.Element* %2) #12, !dbg !2730
  ret void, !dbg !2732
}

; Function Attrs: nounwind uwtable
define void @_ZN5test6D0Ev(%class.test6*) unnamed_addr #3 align 2 !dbg !2733 {
  call void @llvm.dbg.value(metadata %class.test6* %0, metadata !2735, metadata !DIExpression()), !dbg !2736
  tail call void @_ZN5test6D2Ev(%class.test6* %0) #12, !dbg !2737
  %2 = bitcast %class.test6* %0 to i8*, !dbg !2737
  tail call void @_ZdlPv(i8* %2) #13, !dbg !2737
  ret void, !dbg !2738
}

; Function Attrs: nobuiltin nounwind
declare void @_ZdlPv(i8*) local_unnamed_addr #4

; Function Attrs: uwtable
define i32 @_ZN5test69configureER6VectorI6StringEP12ErrorHandler(%class.test6*, %class.Vector* dereferenceable(16), %class.ErrorHandler*) unnamed_addr #0 align 2 personality i8* bitcast (i32 (...)* @__gxx_personality_v0 to i8*) !dbg !2739 {
  %4 = alloca %class.Args, align 8
  call void @llvm.dbg.value(metadata %class.test6* %0, metadata !2741, metadata !DIExpression()), !dbg !2744
  call void @llvm.dbg.value(metadata %class.Vector* %1, metadata !2742, metadata !DIExpression()), !dbg !2745
  call void @llvm.dbg.value(metadata %class.ErrorHandler* %2, metadata !2743, metadata !DIExpression()), !dbg !2746
  %5 = bitcast %class.Args* %4 to i8*, !dbg !2747
  call void @llvm.lifetime.start.p0i8(i64 112, i8* nonnull %5) #12, !dbg !2747
  %6 = bitcast %class.test6* %0 to %class.Element*, !dbg !2748
  call void @_ZN4ArgsC1ERK6VectorI6StringEPK7ElementP12ErrorHandler(%class.Args* nonnull %4, %class.Vector* nonnull dereferenceable(16) %1, %class.Element* %6, %class.ErrorHandler* %2), !dbg !2747
  %7 = getelementptr inbounds %class.test6, %class.test6* %0, i64 0, i32 1, !dbg !2749
  %8 = invoke dereferenceable(112) %class.Args* @_ZN4Args4readIbEERS_PKcRT_(%class.Args* nonnull %4, i8* getelementptr inbounds ([7 x i8], [7 x i8]* @.str, i64 0, i64 0), i8* nonnull dereferenceable(1) %7)
          to label %9 unwind label %12, !dbg !2750

; <label>:9:                                      ; preds = %3
  %10 = invoke i32 @_ZN4Args8completeEv(%class.Args* nonnull %8)
          to label %11 unwind label %12, !dbg !2751

; <label>:11:                                     ; preds = %9
  call void @_ZN4ArgsD1Ev(%class.Args* nonnull %4) #12, !dbg !2752
  call void @llvm.lifetime.end.p0i8(i64 112, i8* nonnull %5) #12, !dbg !2752
  ret i32 %10, !dbg !2752

; <label>:12:                                     ; preds = %9, %3
  %13 = landingpad { i8*, i32 }
          cleanup, !dbg !2753
  call void @_ZN4ArgsD1Ev(%class.Args* nonnull %4) #12, !dbg !2752
  call void @llvm.lifetime.end.p0i8(i64 112, i8* nonnull %5) #12, !dbg !2752
  resume { i8*, i32 } %13, !dbg !2752
}

; Function Attrs: argmemonly nounwind
declare void @llvm.lifetime.start.p0i8(i64, i8* nocapture) #5

declare void @_ZN4ArgsC1ERK6VectorI6StringEPK7ElementP12ErrorHandler(%class.Args*, %class.Vector* dereferenceable(16), %class.Element*, %class.ErrorHandler*) unnamed_addr #1

; Function Attrs: uwtable
define linkonce_odr dereferenceable(112) %class.Args* @_ZN4Args4readIbEERS_PKcRT_(%class.Args*, i8*, i8* dereferenceable(1)) local_unnamed_addr #0 comdat align 2 !dbg !2754 {
  call void @llvm.dbg.value(metadata %class.Args* %0, metadata !3088, metadata !DIExpression()), !dbg !3092
  call void @llvm.dbg.value(metadata i8* %1, metadata !3090, metadata !DIExpression()), !dbg !3093
  call void @llvm.dbg.value(metadata i8* %2, metadata !3091, metadata !DIExpression()), !dbg !3094
  %4 = tail call dereferenceable(112) %class.Args* @_ZN4Args4readIbEERS_PKciRT_(%class.Args* %0, i8* %1, i32 0, i8* nonnull dereferenceable(1) %2), !dbg !3095
  ret %class.Args* %4, !dbg !3096
}

declare i32 @__gxx_personality_v0(...)

declare i32 @_ZN4Args8completeEv(%class.Args*) local_unnamed_addr #1

; Function Attrs: nounwind
declare void @_ZN4ArgsD1Ev(%class.Args*) unnamed_addr #2

; Function Attrs: argmemonly nounwind
declare void @llvm.lifetime.end.p0i8(i64, i8* nocapture) #5

; Function Attrs: uwtable
define %class.Packet* @_ZN5test613simple_actionEP6Packet(%class.test6*, %class.Packet*) unnamed_addr #0 align 2 !dbg !3097 {
  %3 = alloca i32, align 4
  %4 = alloca i32, align 4
  %5 = alloca i32, align 4
  %6 = alloca i32, align 4
  call void @llvm.dbg.value(metadata %class.test6* %0, metadata !3099, metadata !DIExpression()), !dbg !3111
  call void @llvm.dbg.value(metadata %class.Packet* %1, metadata !3100, metadata !DIExpression()), !dbg !3112
  %7 = tail call zeroext i1 @_ZNK6Packet18has_network_headerEv(%class.Packet* %1), !dbg !3113
  br i1 %7, label %9, label %8, !dbg !3113

; <label>:8:                                      ; preds = %2
  tail call void @__assert_fail(i8* getelementptr inbounds ([24 x i8], [24 x i8]* @.str.1, i64 0, i64 0), i8* getelementptr inbounds ([9 x i8], [9 x i8]* @.str.2, i64 0, i64 0), i32 38, i8* getelementptr inbounds ([47 x i8], [47 x i8]* @__PRETTY_FUNCTION__._ZN5test613simple_actionEP6Packet, i64 0, i64 0)) #14, !dbg !3113
  unreachable, !dbg !3113

; <label>:9:                                      ; preds = %2
  %10 = getelementptr inbounds %class.test6, %class.test6* %0, i64 0, i32 1, !dbg !3114
  %11 = load i8, i8* %10, align 4, !dbg !3114, !tbaa !2695, !range !3116
  %12 = icmp eq i8 %11, 0, !dbg !3114
  br i1 %12, label %140, label %13, !dbg !3117

; <label>:13:                                     ; preds = %9
  %14 = tail call %class.WritablePacket* @_ZN6Packet9uniqueifyEv(%class.Packet* %1), !dbg !3118
  call void @llvm.dbg.value(metadata %class.WritablePacket* %14, metadata !3101, metadata !DIExpression()), !dbg !3119
  %15 = icmp eq %class.WritablePacket* %14, null, !dbg !3120
  br i1 %15, label %140, label %16, !dbg !3122

; <label>:16:                                     ; preds = %13
  %17 = bitcast i32* %3 to i8*, !dbg !3123
  call void @llvm.lifetime.start.p0i8(i64 4, i8* nonnull %17), !dbg !3123
  call void @llvm.dbg.value(metadata i32 -1004670718, metadata !3102, metadata !DIExpression()), !dbg !3124
  store volatile i32 -1004670718, i32* %3, align 4, !dbg !3124
  %18 = bitcast i32* %4 to i8*, !dbg !3125
  call void @llvm.lifetime.start.p0i8(i64 4, i8* nonnull %18), !dbg !3125
  call void @llvm.dbg.value(metadata i32 -400599330, metadata !3103, metadata !DIExpression()), !dbg !3126
  store volatile i32 -400599330, i32* %4, align 4, !dbg !3126
  %19 = bitcast i32* %5 to i8*, !dbg !3127
  call void @llvm.lifetime.start.p0i8(i64 4, i8* nonnull %19), !dbg !3127
  call void @llvm.dbg.value(metadata i32 1976829852, metadata !3104, metadata !DIExpression()), !dbg !3128
  store volatile i32 1976829852, i32* %5, align 4, !dbg !3128
  %20 = bitcast i32* %6 to i8*, !dbg !3129
  call void @llvm.lifetime.start.p0i8(i64 4, i8* nonnull %20), !dbg !3129
  call void @llvm.dbg.value(metadata i32 1947653857, metadata !3105, metadata !DIExpression()), !dbg !3130
  store volatile i32 1947653857, i32* %6, align 4, !dbg !3130
  %21 = tail call %struct.click_ip* @_ZNK14WritablePacket9ip_headerEv(%class.WritablePacket* nonnull %14), !dbg !3131
  call void @llvm.dbg.value(metadata %struct.click_ip* %21, metadata !3106, metadata !DIExpression()), !dbg !3132
  %22 = getelementptr inbounds %struct.click_ip, %struct.click_ip* %21, i64 0, i32 6, !dbg !3133
  %23 = load i8, i8* %22, align 1, !dbg !3133, !tbaa !3135
  %24 = icmp eq i8 %23, 6, !dbg !3138
  br i1 %24, label %25, label %27, !dbg !3139

; <label>:25:                                     ; preds = %16
  %26 = tail call %struct.click_tcp* @_ZNK14WritablePacket10tcp_headerEv(%class.WritablePacket* nonnull %14), !dbg !3140
  call void @llvm.dbg.value(metadata %struct.click_tcp* %26, metadata !3107, metadata !DIExpression()), !dbg !3142
  br label %29, !dbg !3143

; <label>:27:                                     ; preds = %16
  %28 = tail call %struct.click_udp* @_ZNK14WritablePacket10udp_headerEv(%class.WritablePacket* nonnull %14), !dbg !3144
  call void @llvm.dbg.value(metadata %struct.click_udp* %28, metadata !3108, metadata !DIExpression()), !dbg !3146
  br label %29

; <label>:29:                                     ; preds = %27, %25
  %30 = phi %struct.click_tcp* [ %26, %25 ], [ undef, %27 ]
  %31 = phi %struct.click_udp* [ undef, %25 ], [ %28, %27 ]
  call void @llvm.dbg.value(metadata %struct.click_udp* %31, metadata !3108, metadata !DIExpression()), !dbg !3146
  call void @llvm.dbg.value(metadata %struct.click_tcp* %30, metadata !3107, metadata !DIExpression()), !dbg !3142
  %32 = getelementptr inbounds %class.test6, %class.test6* %0, i64 0, i32 5, !dbg !3147
  %33 = load volatile i16, i16* %32, align 2, !dbg !3148, !tbaa !2709
  %34 = add i16 %33, -1438, !dbg !3148
  store volatile i16 %34, i16* %32, align 2, !dbg !3148, !tbaa !2709
  %35 = load volatile i32, i32* %5, align 4, !dbg !3149
  call void @llvm.dbg.value(metadata i32 %35, metadata !3104, metadata !DIExpression()), !dbg !3128
  %36 = trunc i32 %35 to i8, !dbg !3149
  %37 = getelementptr inbounds %class.test6, %class.test6* %0, i64 0, i32 7, !dbg !3150
  store volatile i8 %36, i8* %37, align 1, !dbg !3151, !tbaa !2713
  %38 = getelementptr inbounds %class.test6, %class.test6* %0, i64 0, i32 11, !dbg !3152
  %39 = load volatile i32, i32* %38, align 8, !dbg !3152, !tbaa !2721
  %40 = icmp eq i32 %39, 16, !dbg !3154
  br i1 %40, label %99, label %41, !dbg !3155

; <label>:41:                                     ; preds = %29
  %42 = getelementptr inbounds %struct.click_ip, %struct.click_ip* %21, i64 0, i32 9, i32 0, !dbg !3156
  %43 = load i32, i32* %42, align 4, !dbg !3156, !tbaa !3159
  %44 = icmp eq i32 %43, 192, !dbg !3160
  br i1 %44, label %52, label %45, !dbg !3161

; <label>:45:                                     ; preds = %41
  %46 = getelementptr inbounds %class.test6, %class.test6* %0, i64 0, i32 8, !dbg !3162
  %47 = load volatile i8, i8* %46, align 2, !dbg !3162, !tbaa !2715
  %48 = zext i8 %47 to i16, !dbg !3162
  %49 = getelementptr inbounds %class.test6, %class.test6* %0, i64 0, i32 2, !dbg !3164
  %50 = load volatile i16, i16* %49, align 2, !dbg !3164, !tbaa !2703
  %51 = add i16 %50, %48, !dbg !3165
  store volatile i16 %51, i16* %49, align 2, !dbg !3166, !tbaa !2703
  br label %52, !dbg !3167

; <label>:52:                                     ; preds = %41, %45
  %53 = getelementptr inbounds %class.test6, %class.test6* %0, i64 0, i32 10, !dbg !3168
  %54 = load volatile i16, i16* %53, align 2, !dbg !3168, !tbaa !2719
  %55 = icmp eq i16 %54, 129, !dbg !3170
  br i1 %55, label %57, label %56, !dbg !3171

; <label>:56:                                     ; preds = %52
  store volatile i16 -11842, i16* %32, align 2, !dbg !3172, !tbaa !2709
  br label %57, !dbg !3174

; <label>:57:                                     ; preds = %52, %56
  %58 = getelementptr inbounds %struct.click_ip, %struct.click_ip* %21, i64 0, i32 2, !dbg !3175
  %59 = load i16, i16* %58, align 2, !dbg !3175, !tbaa !3177
  %60 = icmp ugt i16 %59, 222, !dbg !3178
  br i1 %60, label %61, label %63, !dbg !3179

; <label>:61:                                     ; preds = %57
  %62 = getelementptr inbounds %struct.click_ip, %struct.click_ip* %21, i64 0, i32 5, !dbg !3180
  store i8 -88, i8* %62, align 4, !dbg !3182, !tbaa !3183
  br label %63, !dbg !3184

; <label>:63:                                     ; preds = %61, %57
  %64 = getelementptr inbounds %class.test6, %class.test6* %0, i64 0, i32 4, !dbg !3185
  store volatile i8 66, i8* %64, align 4, !dbg !3186, !tbaa !2707
  %65 = load volatile i32, i32* %4, align 4, !dbg !3187
  call void @llvm.dbg.value(metadata i32 %65, metadata !3103, metadata !DIExpression()), !dbg !3126
  %66 = icmp ult i32 %65, 163, !dbg !3189
  br i1 %66, label %67, label %68, !dbg !3190

; <label>:67:                                     ; preds = %63
  store i32 1268565687, i32* %42, align 4, !dbg !3191, !tbaa !3159
  br label %71, !dbg !3193

; <label>:68:                                     ; preds = %63
  %69 = load volatile i16, i16* %32, align 2, !dbg !3194, !tbaa !2709
  %70 = or i16 %69, -6529, !dbg !3196
  store volatile i16 %70, i16* %32, align 2, !dbg !3197, !tbaa !2709
  br label %71

; <label>:71:                                     ; preds = %68, %67
  %72 = load volatile i8, i8* %64, align 4, !dbg !3198, !tbaa !2707
  %73 = icmp eq i8 %72, 31, !dbg !3200
  br i1 %73, label %80, label %74, !dbg !3201

; <label>:74:                                     ; preds = %71
  %75 = load volatile i32, i32* %38, align 8, !dbg !3202, !tbaa !2721
  call void @llvm.dbg.value(metadata i32 %75, metadata !3105, metadata !DIExpression()), !dbg !3130
  store volatile i32 %75, i32* %6, align 4, !dbg !3204
  %76 = getelementptr inbounds %struct.click_tcp, %struct.click_tcp* %30, i64 0, i32 1, !dbg !3205
  store i16 -19878, i16* %76, align 2, !dbg !3206, !tbaa !3207
  %77 = getelementptr inbounds %class.test6, %class.test6* %0, i64 0, i32 9, !dbg !3209
  %78 = load volatile i16, i16* %77, align 4, !dbg !3209, !tbaa !2717
  %79 = trunc i16 %78 to i8, !dbg !3209
  store volatile i8 %79, i8* %64, align 4, !dbg !3210, !tbaa !2707
  br label %80, !dbg !3211

; <label>:80:                                     ; preds = %71, %74
  %81 = load volatile i32, i32* %5, align 4, !dbg !3212
  call void @llvm.dbg.value(metadata i32 %81, metadata !3104, metadata !DIExpression()), !dbg !3128
  %82 = trunc i32 %81 to i8, !dbg !3212
  %83 = getelementptr inbounds %struct.click_ip, %struct.click_ip* %21, i64 0, i32 5, !dbg !3213
  store i8 %82, i8* %83, align 4, !dbg !3214, !tbaa !3183
  %84 = load volatile i32, i32* %5, align 4, !dbg !3215
  call void @llvm.dbg.value(metadata i32 %84, metadata !3104, metadata !DIExpression()), !dbg !3128
  %85 = icmp eq i32 %84, 246, !dbg !3217
  br i1 %85, label %86, label %89, !dbg !3218

; <label>:86:                                     ; preds = %80
  %87 = load volatile i32, i32* %5, align 4, !dbg !3219
  call void @llvm.dbg.value(metadata i32 %87, metadata !3104, metadata !DIExpression()), !dbg !3128
  %88 = getelementptr inbounds %class.test6, %class.test6* %0, i64 0, i32 3, !dbg !3221
  store volatile i32 %87, i32* %88, align 8, !dbg !3222, !tbaa !2705
  br label %89, !dbg !3223

; <label>:89:                                     ; preds = %86, %80
  call void @llvm.dbg.value(metadata i32 1937699404, metadata !3105, metadata !DIExpression()), !dbg !3130
  store volatile i32 1937699404, i32* %6, align 4, !dbg !3224
  %90 = getelementptr inbounds %struct.click_udp, %struct.click_udp* %31, i64 0, i32 1, !dbg !3225
  %91 = load i16, i16* %90, align 2, !dbg !3225, !tbaa !3227
  %92 = icmp eq i16 %91, 61, !dbg !3229
  br i1 %92, label %93, label %99, !dbg !3230

; <label>:93:                                     ; preds = %89
  %94 = load volatile i8, i8* %64, align 4, !dbg !3231, !tbaa !2707
  %95 = zext i8 %94 to i32, !dbg !3231
  %96 = add nsw i32 %95, -201, !dbg !3233
  %97 = lshr i32 47639, %96, !dbg !3234
  %98 = trunc i32 %97 to i16, !dbg !3235
  store volatile i16 %98, i16* %32, align 2, !dbg !3236, !tbaa !2709
  br label %99, !dbg !3237

; <label>:99:                                     ; preds = %29, %89, %93
  %100 = getelementptr inbounds %struct.click_tcp, %struct.click_tcp* %30, i64 0, i32 0, !dbg !3238
  store i16 -20933, i16* %100, align 4, !dbg !3239, !tbaa !3240
  %101 = load volatile i32, i32* %3, align 4, !dbg !3241
  call void @llvm.dbg.value(metadata i32 %101, metadata !3102, metadata !DIExpression()), !dbg !3124
  %102 = trunc i32 %101 to i16, !dbg !3241
  %103 = getelementptr inbounds %struct.click_ip, %struct.click_ip* %21, i64 0, i32 2, !dbg !3242
  store i16 %102, i16* %103, align 2, !dbg !3243, !tbaa !3177
  %104 = load volatile i32, i32* %3, align 4, !dbg !3244
  call void @llvm.dbg.value(metadata i32 %104, metadata !3102, metadata !DIExpression()), !dbg !3124
  %105 = icmp eq i32 %104, 235, !dbg !3246
  br i1 %105, label %106, label %115, !dbg !3247

; <label>:106:                                    ; preds = %99
  %107 = getelementptr inbounds %class.test6, %class.test6* %0, i64 0, i32 4, !dbg !3248
  %108 = load volatile i8, i8* %107, align 4, !dbg !3248, !tbaa !2707
  %109 = icmp eq i8 %108, 0, !dbg !3251
  br i1 %109, label %110, label %115, !dbg !3252

; <label>:110:                                    ; preds = %106
  %111 = getelementptr inbounds %class.test6, %class.test6* %0, i64 0, i32 8, !dbg !3253
  %112 = load volatile i8, i8* %111, align 2, !dbg !3253, !tbaa !2715
  %113 = zext i8 %112 to i16, !dbg !3253
  %114 = getelementptr inbounds %struct.click_ip, %struct.click_ip* %21, i64 0, i32 3, !dbg !3255
  store i16 %113, i16* %114, align 4, !dbg !3256, !tbaa !3257
  br label %115, !dbg !3258

; <label>:115:                                    ; preds = %106, %110, %99
  %116 = load volatile i32, i32* %3, align 4, !dbg !3259
  call void @llvm.dbg.value(metadata i32 %116, metadata !3102, metadata !DIExpression()), !dbg !3124
  %117 = load volatile i32, i32* %4, align 4, !dbg !3260
  call void @llvm.dbg.value(metadata i32 %117, metadata !3103, metadata !DIExpression()), !dbg !3126
  %118 = load volatile i32, i32* %5, align 4, !dbg !3261
  call void @llvm.dbg.value(metadata i32 %118, metadata !3104, metadata !DIExpression()), !dbg !3128
  %119 = load volatile i32, i32* %6, align 4, !dbg !3262
  call void @llvm.dbg.value(metadata i32 %119, metadata !3105, metadata !DIExpression()), !dbg !3130
  %120 = or i32 %116, %117, !dbg !3263
  %121 = or i32 %120, %118, !dbg !3264
  %122 = or i32 %121, %119, !dbg !3265
  %123 = or i32 %122, 15034, !dbg !3265
  %124 = getelementptr inbounds %struct.click_ip, %struct.click_ip* %21, i64 0, i32 8, i32 0, !dbg !3266
  store i32 %123, i32* %124, align 4, !dbg !3267, !tbaa !3268
  %125 = getelementptr inbounds %struct.click_ip, %struct.click_ip* %21, i64 0, i32 7, !dbg !3269
  store i16 0, i16* %125, align 2, !dbg !3270, !tbaa !3271
  %126 = getelementptr inbounds %struct.click_ip, %struct.click_ip* %21, i64 0, i32 0, !dbg !3272
  %127 = load i8, i8* %126, align 4, !dbg !3273
  %128 = shl i8 %127, 2, !dbg !3274
  %129 = and i8 %128, 60, !dbg !3274
  %130 = zext i8 %129 to i32, !dbg !3274
  %131 = tail call zeroext i16 @_ZN5test625customized_click_in_cksumEPKhi(%class.test6* nonnull %0, i8* %126, i32 %130), !dbg !3275
  store i16 %131, i16* %125, align 2, !dbg !3276, !tbaa !3271
  %132 = getelementptr inbounds %struct.click_tcp, %struct.click_tcp* %30, i64 0, i32 7, !dbg !3277
  store i16 0, i16* %132, align 4, !dbg !3278, !tbaa !3279
  %133 = bitcast %struct.click_tcp* %30 to i8*, !dbg !3280
  %134 = getelementptr inbounds %class.WritablePacket, %class.WritablePacket* %14, i64 0, i32 0, !dbg !3281
  %135 = tail call i32 @_ZNK6Packet16transport_lengthEv(%class.Packet* nonnull %134), !dbg !3281
  %136 = tail call zeroext i16 @_ZN5test625customized_click_in_cksumEPKhi(%class.test6* nonnull %0, i8* %133, i32 %135), !dbg !3282
  %137 = zext i16 %136 to i32, !dbg !3282
  call void @llvm.dbg.value(metadata i32 %137, metadata !3109, metadata !DIExpression()), !dbg !3283
  %138 = tail call i32 @_ZNK6Packet16transport_lengthEv(%class.Packet* nonnull %134), !dbg !3284
  %139 = tail call zeroext i16 @_ZN5test635customized_click_in_cksum_pseudohdrEjPK8click_ipi(%class.test6* nonnull %0, i32 %137, %struct.click_ip* nonnull %21, i32 %138), !dbg !3285
  unreachable, !dbg !3286

; <label>:140:                                    ; preds = %13, %9
  %141 = phi %class.Packet* [ %1, %9 ], [ null, %13 ]
  ret %class.Packet* %141, !dbg !3287
}

; Function Attrs: inlinehint nounwind uwtable
define linkonce_odr zeroext i1 @_ZNK6Packet18has_network_headerEv(%class.Packet*) local_unnamed_addr #6 comdat align 2 !dbg !3288 {
  call void @llvm.dbg.value(metadata %class.Packet* %0, metadata !3290, metadata !DIExpression()), !dbg !3291
  %2 = getelementptr inbounds %class.Packet, %class.Packet* %0, i64 0, i32 6, i32 2, !dbg !3292
  %3 = load i8*, i8** %2, align 8, !dbg !3292, !tbaa !3293
  %4 = icmp ne i8* %3, null, !dbg !3299
  ret i1 %4, !dbg !3300
}

; Function Attrs: noreturn nounwind
declare void @__assert_fail(i8*, i8*, i32, i8*) local_unnamed_addr #7

; Function Attrs: inlinehint uwtable
define linkonce_odr %class.WritablePacket* @_ZN6Packet9uniqueifyEv(%class.Packet*) local_unnamed_addr #8 comdat align 2 !dbg !3301 {
  call void @llvm.dbg.value(metadata %class.Packet* %0, metadata !3303, metadata !DIExpression()), !dbg !3304
  %2 = tail call zeroext i1 @_ZNK6Packet6sharedEv(%class.Packet* %0), !dbg !3305
  br i1 %2, label %5, label %3, !dbg !3307

; <label>:3:                                      ; preds = %1
  %4 = bitcast %class.Packet* %0 to %class.WritablePacket*, !dbg !3308
  br label %7, !dbg !3309

; <label>:5:                                      ; preds = %1
  %6 = tail call %class.WritablePacket* @_ZN6Packet19expensive_uniqueifyEiib(%class.Packet* %0, i32 0, i32 0, i1 zeroext true), !dbg !3310
  br label %7, !dbg !3311

; <label>:7:                                      ; preds = %5, %3
  %8 = phi %class.WritablePacket* [ %6, %5 ], [ %4, %3 ]
  ret %class.WritablePacket* %8, !dbg !3312
}

; Function Attrs: inlinehint uwtable
define linkonce_odr %struct.click_ip* @_ZNK14WritablePacket9ip_headerEv(%class.WritablePacket*) local_unnamed_addr #8 comdat align 2 !dbg !3313 {
  call void @llvm.dbg.value(metadata %class.WritablePacket* %0, metadata !3315, metadata !DIExpression()), !dbg !3317
  %2 = getelementptr inbounds %class.WritablePacket, %class.WritablePacket* %0, i64 0, i32 0, !dbg !3318
  %3 = tail call %struct.click_ip* @_ZNK6Packet9ip_headerEv(%class.Packet* %2), !dbg !3318
  ret %struct.click_ip* %3, !dbg !3319
}

; Function Attrs: inlinehint uwtable
define linkonce_odr %struct.click_tcp* @_ZNK14WritablePacket10tcp_headerEv(%class.WritablePacket*) local_unnamed_addr #8 comdat align 2 !dbg !3320 {
  call void @llvm.dbg.value(metadata %class.WritablePacket* %0, metadata !3322, metadata !DIExpression()), !dbg !3323
  %2 = getelementptr inbounds %class.WritablePacket, %class.WritablePacket* %0, i64 0, i32 0, !dbg !3324
  %3 = tail call %struct.click_tcp* @_ZNK6Packet10tcp_headerEv(%class.Packet* %2), !dbg !3324
  ret %struct.click_tcp* %3, !dbg !3325
}

; Function Attrs: inlinehint uwtable
define linkonce_odr %struct.click_udp* @_ZNK14WritablePacket10udp_headerEv(%class.WritablePacket*) local_unnamed_addr #8 comdat align 2 !dbg !3326 {
  call void @llvm.dbg.value(metadata %class.WritablePacket* %0, metadata !3328, metadata !DIExpression()), !dbg !3329
  %2 = getelementptr inbounds %class.WritablePacket, %class.WritablePacket* %0, i64 0, i32 0, !dbg !3330
  %3 = tail call %struct.click_udp* @_ZNK6Packet10udp_headerEv(%class.Packet* %2), !dbg !3330
  ret %struct.click_udp* %3, !dbg !3331
}

; Function Attrs: nounwind uwtable
define linkonce_odr zeroext i16 @_ZN5test625customized_click_in_cksumEPKhi(%class.test6*, i8*, i32) local_unnamed_addr #3 comdat align 2 !dbg !3332 {
  call void @llvm.dbg.value(metadata %class.test6* %0, metadata !3334, metadata !DIExpression()), !dbg !3337
  call void @llvm.dbg.value(metadata i8* %1, metadata !3335, metadata !DIExpression()), !dbg !3338
  call void @llvm.dbg.value(metadata i32 %2, metadata !3336, metadata !DIExpression()), !dbg !3339
  ret i16 1, !dbg !3340
}

; Function Attrs: inlinehint uwtable
define linkonce_odr i32 @_ZNK6Packet16transport_lengthEv(%class.Packet*) local_unnamed_addr #8 comdat align 2 !dbg !3341 {
  call void @llvm.dbg.value(metadata %class.Packet* %0, metadata !3343, metadata !DIExpression()), !dbg !3344
  %2 = tail call i8* @_ZNK6Packet8end_dataEv(%class.Packet* %0), !dbg !3345
  %3 = tail call i8* @_ZNK6Packet16transport_headerEv(%class.Packet* %0), !dbg !3346
  %4 = ptrtoint i8* %2 to i64, !dbg !3347
  %5 = ptrtoint i8* %3 to i64, !dbg !3347
  %6 = sub i64 %4, %5, !dbg !3347
  %7 = trunc i64 %6 to i32, !dbg !3345
  ret i32 %7, !dbg !3348
}

; Function Attrs: nounwind uwtable
define linkonce_odr zeroext i16 @_ZN5test635customized_click_in_cksum_pseudohdrEjPK8click_ipi(%class.test6*, i32, %struct.click_ip*, i32) local_unnamed_addr #3 comdat align 2 !dbg !3349 {
  call void @llvm.dbg.value(metadata %class.test6* %0, metadata !3351, metadata !DIExpression()), !dbg !3355
  call void @llvm.dbg.value(metadata i32 %1, metadata !3352, metadata !DIExpression()), !dbg !3356
  call void @llvm.dbg.value(metadata %struct.click_ip* %2, metadata !3353, metadata !DIExpression()), !dbg !3357
  call void @llvm.dbg.value(metadata i32 %3, metadata !3354, metadata !DIExpression()), !dbg !3358
  ret i16 1, !dbg !3359
}

; Function Attrs: uwtable
define void @_ZN5test612add_handlersEv(%class.test6*) unnamed_addr #0 align 2 !dbg !3360 {
  call void @llvm.dbg.value(metadata %class.test6* %0, metadata !3362, metadata !DIExpression()), !dbg !3363
  %2 = bitcast %class.test6* %0 to %class.Element*, !dbg !3364
  %3 = getelementptr inbounds %class.test6, %class.test6* %0, i64 0, i32 1, !dbg !3365
  tail call void @_ZN7Element17add_data_handlersEPKciPb(%class.Element* %2, i8* getelementptr inbounds ([7 x i8], [7 x i8]* @.str.3, i64 0, i64 0), i32 16387, i8* nonnull %3), !dbg !3364
  ret void, !dbg !3366
}

declare void @_ZN7Element17add_data_handlersEPKciPb(%class.Element*, i8*, i32, i8*) local_unnamed_addr #1

declare void @_ZN7Element4pushEiP6Packet(%class.Element*, i32, %class.Packet*) unnamed_addr #1

declare %class.Packet* @_ZN7Element4pullEi(%class.Element*, i32) unnamed_addr #1

declare zeroext i1 @_ZN7Element8run_taskEP4Task(%class.Element*, %class.Task*) unnamed_addr #1

declare void @_ZN7Element9run_timerEP5Timer(%class.Element*, %class.Timer*) unnamed_addr #1

declare void @_ZN7Element8selectedEii(%class.Element*, i32, i32) unnamed_addr #1

declare void @_ZN7Element8selectedEi(%class.Element*, i32) unnamed_addr #1

; Function Attrs: nounwind uwtable
define linkonce_odr i8* @_ZNK5test610class_nameEv(%class.test6*) unnamed_addr #3 comdat align 2 !dbg !3367 {
  call void @llvm.dbg.value(metadata %class.test6* %0, metadata !3369, metadata !DIExpression()), !dbg !3371
  ret i8* getelementptr inbounds ([6 x i8], [6 x i8]* @.str.4, i64 0, i64 0), !dbg !3372
}

; Function Attrs: nounwind uwtable
define linkonce_odr i8* @_ZNK5test610port_countEv(%class.test6*) unnamed_addr #3 comdat align 2 !dbg !3373 {
  call void @llvm.dbg.value(metadata %class.test6* %0, metadata !3375, metadata !DIExpression()), !dbg !3376
  ret i8* getelementptr inbounds ([0 x i8], [0 x i8]* @_ZN7Element11PORTS_1_1X2E, i64 0, i64 0), !dbg !3377
}

; Function Attrs: nounwind uwtable
define linkonce_odr i8* @_ZNK5test610processingEv(%class.test6*) unnamed_addr #3 comdat align 2 !dbg !3378 {
  call void @llvm.dbg.value(metadata %class.test6* %0, metadata !3380, metadata !DIExpression()), !dbg !3381
  ret i8* getelementptr inbounds ([0 x i8], [0 x i8]* @_ZN7Element15PROCESSING_A_AHE, i64 0, i64 0), !dbg !3382
}

declare i8* @_ZNK7Element9flow_codeEv(%class.Element*) unnamed_addr #1

declare i8* @_ZNK7Element5flagsEv(%class.Element*) unnamed_addr #1

declare i8* @_ZN7Element4castEPKc(%class.Element*, i8*) unnamed_addr #1

declare i8* @_ZN7Element9port_castEbiPKc(%class.Element*, i1 zeroext, i32, i8*) unnamed_addr #1

declare i32 @_ZNK7Element15configure_phaseEv(%class.Element*) unnamed_addr #1

declare i32 @_ZN7Element10initializeEP12ErrorHandler(%class.Element*, %class.ErrorHandler*) unnamed_addr #1

declare void @_ZN7Element10take_stateEPS_P12ErrorHandler(%class.Element*, %class.Element*, %class.ErrorHandler*) unnamed_addr #1

declare %class.Element* @_ZNK7Element15hotswap_elementEv(%class.Element*) unnamed_addr #1

declare void @_ZN7Element7cleanupENS_12CleanupStageE(%class.Element*, i32) unnamed_addr #1

declare void @_ZNK7Element11declarationEv(%class.String* sret, %class.Element*) unnamed_addr #1

declare zeroext i1 @_ZNK7Element20can_live_reconfigureEv(%class.Element*) unnamed_addr #1

declare i32 @_ZN7Element16live_reconfigureER6VectorI6StringEP12ErrorHandler(%class.Element*, %class.Vector* dereferenceable(16), %class.ErrorHandler*) unnamed_addr #1

declare i32 @_ZN7Element5llrpcEjPv(%class.Element*, i32, i8*) unnamed_addr #1

; Function Attrs: inlinehint uwtable
define linkonce_odr zeroext i1 @_ZNK6Packet6sharedEv(%class.Packet*) local_unnamed_addr #8 comdat align 2 !dbg !3383 {
  call void @llvm.dbg.value(metadata %class.Packet* %0, metadata !3385, metadata !DIExpression()), !dbg !3386
  %2 = getelementptr inbounds %class.Packet, %class.Packet* %0, i64 0, i32 1, !dbg !3387
  %3 = load %class.Packet*, %class.Packet** %2, align 8, !dbg !3387, !tbaa !3388
  %4 = icmp eq %class.Packet* %3, null, !dbg !3387
  br i1 %4, label %5, label %9, !dbg !3389

; <label>:5:                                      ; preds = %1
  %6 = getelementptr inbounds %class.Packet, %class.Packet* %0, i64 0, i32 0, !dbg !3390
  %7 = tail call i32 @_ZNK15atomic_uint32_tcvjEv(%class.atomic_uint32_t* %6), !dbg !3390
  %8 = icmp ugt i32 %7, 1, !dbg !3391
  br label %9, !dbg !3389

; <label>:9:                                      ; preds = %1, %5
  %10 = phi i1 [ true, %1 ], [ %8, %5 ]
  ret i1 %10, !dbg !3392
}

declare %class.WritablePacket* @_ZN6Packet19expensive_uniqueifyEiib(%class.Packet*, i32, i32, i1 zeroext) local_unnamed_addr #1

; Function Attrs: inlinehint uwtable
define linkonce_odr i32 @_ZNK15atomic_uint32_tcvjEv(%class.atomic_uint32_t*) local_unnamed_addr #8 comdat align 2 !dbg !3393 {
  call void @llvm.dbg.value(metadata %class.atomic_uint32_t* %0, metadata !3395, metadata !DIExpression()), !dbg !3397
  %2 = tail call i32 @_ZNK15atomic_uint32_t5valueEv(%class.atomic_uint32_t* %0), !dbg !3398
  ret i32 %2, !dbg !3399
}

; Function Attrs: inlinehint nounwind uwtable
define linkonce_odr i32 @_ZNK15atomic_uint32_t5valueEv(%class.atomic_uint32_t*) local_unnamed_addr #6 comdat align 2 !dbg !3400 {
  call void @llvm.dbg.value(metadata %class.atomic_uint32_t* %0, metadata !3402, metadata !DIExpression()), !dbg !3403
  %2 = getelementptr inbounds %class.atomic_uint32_t, %class.atomic_uint32_t* %0, i64 0, i32 0, !dbg !3404
  %3 = load i32, i32* %2, align 4, !dbg !3404, !tbaa !3405
  ret i32 %3, !dbg !3406
}

; Function Attrs: inlinehint uwtable
define linkonce_odr %struct.click_ip* @_ZNK6Packet9ip_headerEv(%class.Packet*) local_unnamed_addr #8 comdat align 2 !dbg !3407 {
  call void @llvm.dbg.value(metadata %class.Packet* %0, metadata !3409, metadata !DIExpression()), !dbg !3410
  %2 = tail call i8* @_ZNK6Packet14network_headerEv(%class.Packet* %0), !dbg !3411
  %3 = bitcast i8* %2 to %struct.click_ip*, !dbg !3412
  ret %struct.click_ip* %3, !dbg !3413
}

; Function Attrs: inlinehint nounwind uwtable
define linkonce_odr i8* @_ZNK6Packet14network_headerEv(%class.Packet*) local_unnamed_addr #6 comdat align 2 !dbg !3414 {
  call void @llvm.dbg.value(metadata %class.Packet* %0, metadata !3416, metadata !DIExpression()), !dbg !3417
  %2 = getelementptr inbounds %class.Packet, %class.Packet* %0, i64 0, i32 6, i32 2, !dbg !3418
  %3 = load i8*, i8** %2, align 8, !dbg !3418, !tbaa !3293
  ret i8* %3, !dbg !3419
}

; Function Attrs: inlinehint uwtable
define linkonce_odr %struct.click_tcp* @_ZNK6Packet10tcp_headerEv(%class.Packet*) local_unnamed_addr #8 comdat align 2 !dbg !3420 {
  call void @llvm.dbg.value(metadata %class.Packet* %0, metadata !3422, metadata !DIExpression()), !dbg !3423
  %2 = tail call i8* @_ZNK6Packet16transport_headerEv(%class.Packet* %0), !dbg !3424
  %3 = bitcast i8* %2 to %struct.click_tcp*, !dbg !3425
  ret %struct.click_tcp* %3, !dbg !3426
}

; Function Attrs: inlinehint nounwind uwtable
define linkonce_odr i8* @_ZNK6Packet16transport_headerEv(%class.Packet*) local_unnamed_addr #6 comdat align 2 !dbg !3427 {
  call void @llvm.dbg.value(metadata %class.Packet* %0, metadata !3429, metadata !DIExpression()), !dbg !3430
  %2 = getelementptr inbounds %class.Packet, %class.Packet* %0, i64 0, i32 6, i32 3, !dbg !3431
  %3 = load i8*, i8** %2, align 8, !dbg !3431, !tbaa !3432
  ret i8* %3, !dbg !3433
}

; Function Attrs: inlinehint nounwind uwtable
define linkonce_odr %struct.click_udp* @_ZNK6Packet10udp_headerEv(%class.Packet*) local_unnamed_addr #6 comdat align 2 !dbg !3434 {
  call void @llvm.dbg.value(metadata %class.Packet* %0, metadata !3436, metadata !DIExpression()), !dbg !3437
  %2 = tail call i8* @_ZNK6Packet16transport_headerEv(%class.Packet* %0), !dbg !3438
  %3 = bitcast i8* %2 to %struct.click_udp*, !dbg !3439
  ret %struct.click_udp* %3, !dbg !3440
}

; Function Attrs: inlinehint nounwind uwtable
define linkonce_odr i8* @_ZNK6Packet8end_dataEv(%class.Packet*) local_unnamed_addr #6 comdat align 2 !dbg !3441 {
  call void @llvm.dbg.value(metadata %class.Packet* %0, metadata !3443, metadata !DIExpression()), !dbg !3444
  %2 = getelementptr inbounds %class.Packet, %class.Packet* %0, i64 0, i32 4, !dbg !3445
  %3 = load i8*, i8** %2, align 8, !dbg !3445, !tbaa !3446
  ret i8* %3, !dbg !3447
}

; Function Attrs: uwtable
define linkonce_odr dereferenceable(112) %class.Args* @_ZN4Args4readIbEERS_PKciRT_(%class.Args*, i8*, i32, i8* dereferenceable(1)) local_unnamed_addr #0 comdat align 2 !dbg !3448 {
  call void @llvm.dbg.value(metadata %class.Args* %0, metadata !3453, metadata !DIExpression()), !dbg !3457
  call void @llvm.dbg.value(metadata i8* %1, metadata !3454, metadata !DIExpression()), !dbg !3458
  call void @llvm.dbg.value(metadata i32 %2, metadata !3455, metadata !DIExpression()), !dbg !3459
  call void @llvm.dbg.value(metadata i8* %3, metadata !3456, metadata !DIExpression()), !dbg !3460
  tail call void @_Z14args_base_readIbEvP4ArgsPKciRT_(%class.Args* %0, i8* %1, i32 %2, i8* nonnull dereferenceable(1) %3), !dbg !3461
  ret %class.Args* %0, !dbg !3462
}

; Function Attrs: noinline uwtable
define linkonce_odr void @_Z14args_base_readIbEvP4ArgsPKciRT_(%class.Args*, i8*, i32, i8* dereferenceable(1)) local_unnamed_addr #9 comdat !dbg !3463 {
  call void @llvm.dbg.value(metadata %class.Args* %0, metadata !3467, metadata !DIExpression()), !dbg !3471
  call void @llvm.dbg.value(metadata i8* %1, metadata !3468, metadata !DIExpression()), !dbg !3472
  call void @llvm.dbg.value(metadata i32 %2, metadata !3469, metadata !DIExpression()), !dbg !3473
  call void @llvm.dbg.value(metadata i8* %3, metadata !3470, metadata !DIExpression()), !dbg !3474
  tail call void @_ZN4Args9base_readIbEEvPKciRT_(%class.Args* %0, i8* %1, i32 %2, i8* nonnull dereferenceable(1) %3), !dbg !3475
  ret void, !dbg !3476
}

; Function Attrs: uwtable
define linkonce_odr void @_ZN4Args9base_readIbEEvPKciRT_(%class.Args*, i8*, i32, i8* dereferenceable(1)) local_unnamed_addr #0 comdat align 2 personality i8* bitcast (i32 (...)* @__gxx_personality_v0 to i8*) !dbg !3477 {
  %5 = alloca %"struct.Args::Slot"*, align 8
  %6 = alloca %class.String, align 8
  call void @llvm.dbg.value(metadata %class.Args* %0, metadata !3482, metadata !DIExpression()), !dbg !3491
  call void @llvm.dbg.value(metadata i8* %1, metadata !3483, metadata !DIExpression()), !dbg !3492
  call void @llvm.dbg.value(metadata i32 %2, metadata !3484, metadata !DIExpression()), !dbg !3493
  call void @llvm.dbg.value(metadata i8* %3, metadata !3485, metadata !DIExpression()), !dbg !3494
  %7 = bitcast %"struct.Args::Slot"** %5 to i8*, !dbg !3495
  call void @llvm.lifetime.start.p0i8(i64 8, i8* nonnull %7) #12, !dbg !3495
  %8 = bitcast %class.String* %6 to i8*, !dbg !3496
  call void @llvm.lifetime.start.p0i8(i64 24, i8* nonnull %8) #12, !dbg !3496
  call void @llvm.dbg.value(metadata %"struct.Args::Slot"** %5, metadata !3486, metadata !DIExpression()), !dbg !3497
  call void @llvm.dbg.value(metadata %class.String* %6, metadata !3487, metadata !DIExpression()), !dbg !3498
  call void @_ZN4Args4findEPKciRPNS_4SlotE(%class.String* nonnull sret %6, %class.Args* %0, i8* %1, i32 %2, %"struct.Args::Slot"** nonnull dereferenceable(8) %5), !dbg !3499
  call void @llvm.dbg.value(metadata %class.String* %6, metadata !3487, metadata !DIExpression()), !dbg !3498
  %9 = call { i64, i64 } @_ZNK6StringcvMS_KFivEEv(%class.String* nonnull %6), !dbg !3498
  %10 = extractvalue { i64, i64 } %9, 0, !dbg !3498
  %11 = icmp eq i64 %10, 0, !dbg !3498
  br i1 %11, label %23, label %12, !dbg !3496

; <label>:12:                                     ; preds = %4
  %13 = invoke i8* @_ZN17Args_parse_helperI10DefaultArgIbELb0EE4slotIb4ArgsEEPT_RS5_RT0_(i8* nonnull dereferenceable(1) %3, %class.Args* dereferenceable(112) %0)
          to label %14 unwind label %21, !dbg !3500

; <label>:14:                                     ; preds = %12
  call void @llvm.dbg.value(metadata i8* %13, metadata !3489, metadata !DIExpression()), !dbg !3501
  %15 = icmp eq i8* %13, null, !dbg !3502
  br i1 %15, label %18, label %16, !dbg !3503

; <label>:16:                                     ; preds = %14
  %17 = invoke zeroext i1 @_ZN17Args_parse_helperI10DefaultArgIbELb0EE5parseIb4ArgsEEbS1_RK6StringRT_RT0_(%class.String* nonnull dereferenceable(24) %6, i8* nonnull dereferenceable(1) %13, %class.Args* nonnull dereferenceable(112) %0)
          to label %18 unwind label %21, !dbg !3504

; <label>:18:                                     ; preds = %14, %16
  %19 = phi i1 [ false, %14 ], [ %17, %16 ]
  %20 = load %"struct.Args::Slot"*, %"struct.Args::Slot"** %5, align 8, !dbg !3505, !tbaa !3506
  call void @llvm.dbg.value(metadata %"struct.Args::Slot"* %20, metadata !3486, metadata !DIExpression()), !dbg !3497
  invoke void @_ZN4Args9postparseEbPNS_4SlotE(%class.Args* nonnull %0, i1 zeroext %19, %"struct.Args::Slot"* %20)
          to label %23 unwind label %21, !dbg !3507

; <label>:21:                                     ; preds = %18, %16, %12
  %22 = landingpad { i8*, i32 }
          cleanup, !dbg !3508
  call void @llvm.dbg.value(metadata %class.String* %6, metadata !3487, metadata !DIExpression()), !dbg !3498
  call void @_ZN6StringD2Ev(%class.String* nonnull %6) #12, !dbg !3496
  call void @llvm.lifetime.end.p0i8(i64 24, i8* nonnull %8) #12, !dbg !3496
  call void @llvm.lifetime.end.p0i8(i64 8, i8* nonnull %7) #12, !dbg !3509
  resume { i8*, i32 } %22, !dbg !3509

; <label>:23:                                     ; preds = %18, %4
  call void @llvm.dbg.value(metadata %class.String* %6, metadata !3487, metadata !DIExpression()), !dbg !3498
  call void @_ZN6StringD2Ev(%class.String* nonnull %6) #12, !dbg !3496
  call void @llvm.lifetime.end.p0i8(i64 24, i8* nonnull %8) #12, !dbg !3496
  call void @llvm.lifetime.end.p0i8(i64 8, i8* nonnull %7) #12, !dbg !3509
  ret void, !dbg !3509
}

declare void @_ZN4Args4findEPKciRPNS_4SlotE(%class.String* sret, %class.Args*, i8*, i32, %"struct.Args::Slot"** dereferenceable(8)) local_unnamed_addr #1

; Function Attrs: inlinehint nounwind uwtable
define linkonce_odr { i64, i64 } @_ZNK6StringcvMS_KFivEEv(%class.String*) local_unnamed_addr #6 comdat align 2 !dbg !3510 {
  call void @llvm.dbg.value(metadata %class.String* %0, metadata !3512, metadata !DIExpression()), !dbg !3513
  %2 = getelementptr inbounds %class.String, %class.String* %0, i64 0, i32 0, i32 1, !dbg !3514
  %3 = load i32, i32* %2, align 8, !dbg !3514, !tbaa !3515
  %4 = icmp eq i32 %3, 0, !dbg !3518
  %5 = select i1 %4, { i64, i64 } zeroinitializer, { i64, i64 } { i64 ptrtoint (i32 (%class.String*)* @_ZNK6String6lengthEv to i64), i64 0 }, !dbg !3519
  ret { i64, i64 } %5, !dbg !3520
}

; Function Attrs: inlinehint uwtable
define linkonce_odr i8* @_ZN17Args_parse_helperI10DefaultArgIbELb0EE4slotIb4ArgsEEPT_RS5_RT0_(i8* dereferenceable(1), %class.Args* dereferenceable(112)) local_unnamed_addr #8 comdat align 2 !dbg !3521 {
  call void @llvm.dbg.value(metadata i8* %0, metadata !3544, metadata !DIExpression()), !dbg !3546
  call void @llvm.dbg.value(metadata %class.Args* %1, metadata !3545, metadata !DIExpression()), !dbg !3547
  %3 = tail call i8* @_ZN4Args4slotIbEEPT_RS1_(%class.Args* nonnull %1, i8* nonnull dereferenceable(1) %0), !dbg !3548
  ret i8* %3, !dbg !3549
}

declare void @_ZN4Args9postparseEbPNS_4SlotE(%class.Args*, i1 zeroext, %"struct.Args::Slot"*) local_unnamed_addr #1

; Function Attrs: inlinehint uwtable
define linkonce_odr zeroext i1 @_ZN17Args_parse_helperI10DefaultArgIbELb0EE5parseIb4ArgsEEbS1_RK6StringRT_RT0_(%class.String* dereferenceable(24), i8* dereferenceable(1), %class.Args* dereferenceable(112)) local_unnamed_addr #8 comdat align 2 !dbg !3550 {
  call void @llvm.dbg.value(metadata %class.String* %0, metadata !3556, metadata !DIExpression()), !dbg !3559
  call void @llvm.dbg.value(metadata i8* %1, metadata !3557, metadata !DIExpression()), !dbg !3560
  call void @llvm.dbg.value(metadata %class.Args* %2, metadata !3558, metadata !DIExpression()), !dbg !3561
  %4 = bitcast %class.Args* %2 to %class.ArgContext*, !dbg !3562
  %5 = tail call zeroext i1 @_ZN7BoolArg5parseERK6StringRbRK10ArgContext(%class.String* nonnull dereferenceable(24) %0, i8* nonnull dereferenceable(1) %1, %class.ArgContext* nonnull dereferenceable(32) %4), !dbg !3563
  ret i1 %5, !dbg !3564
}

; Function Attrs: inlinehint nounwind uwtable
define linkonce_odr void @_ZN6StringD2Ev(%class.String*) unnamed_addr #6 comdat align 2 personality i8* bitcast (i32 (...)* @__gxx_personality_v0 to i8*) !dbg !3565 {
  call void @llvm.dbg.value(metadata %class.String* %0, metadata !3567, metadata !DIExpression()), !dbg !3568
  invoke void @_ZNK6String5derefEv(%class.String* %0)
          to label %2 unwind label %3, !dbg !3569

; <label>:2:                                      ; preds = %1
  ret void, !dbg !3571

; <label>:3:                                      ; preds = %1
  %4 = landingpad { i8*, i32 }
          catch i8* null, !dbg !3569
  %5 = extractvalue { i8*, i32 } %4, 0, !dbg !3569
  tail call void @__clang_call_terminate(i8* %5) #14, !dbg !3569
  unreachable, !dbg !3569
}

; Function Attrs: inlinehint nounwind uwtable
define linkonce_odr i32 @_ZNK6String6lengthEv(%class.String*) #6 comdat align 2 !dbg !3572 {
  call void @llvm.dbg.value(metadata %class.String* %0, metadata !3574, metadata !DIExpression()), !dbg !3575
  %2 = getelementptr inbounds %class.String, %class.String* %0, i64 0, i32 0, i32 1, !dbg !3576
  %3 = load i32, i32* %2, align 8, !dbg !3576, !tbaa !3515
  ret i32 %3, !dbg !3577
}

; Function Attrs: uwtable
define linkonce_odr i8* @_ZN4Args4slotIbEEPT_RS1_(%class.Args*, i8* dereferenceable(1)) local_unnamed_addr #0 comdat align 2 !dbg !3578 {
  call void @llvm.dbg.value(metadata %class.Args* %0, metadata !3583, metadata !DIExpression()), !dbg !3585
  call void @llvm.dbg.value(metadata i8* %1, metadata !3584, metadata !DIExpression()), !dbg !3586
  %3 = tail call i8* @_ZN4Args11simple_slotEPvm(%class.Args* %0, i8* nonnull %1, i64 1), !dbg !3587
  ret i8* %3, !dbg !3589
}

declare i8* @_ZN4Args11simple_slotEPvm(%class.Args*, i8*, i64) local_unnamed_addr #1

declare zeroext i1 @_ZN7BoolArg5parseERK6StringRbRK10ArgContext(%class.String* dereferenceable(24), i8* dereferenceable(1), %class.ArgContext* dereferenceable(32)) local_unnamed_addr #1

; Function Attrs: inlinehint uwtable
define linkonce_odr void @_ZNK6String5derefEv(%class.String*) local_unnamed_addr #8 comdat align 2 !dbg !3590 {
  call void @llvm.dbg.value(metadata %class.String* %0, metadata !3592, metadata !DIExpression()), !dbg !3593
  %2 = getelementptr inbounds %class.String, %class.String* %0, i64 0, i32 0, i32 2, !dbg !3594
  %3 = load %"struct.String::memo_t"*, %"struct.String::memo_t"** %2, align 8, !dbg !3594, !tbaa !3596
  %4 = icmp eq %"struct.String::memo_t"* %3, null, !dbg !3597
  br i1 %4, label %15, label %5, !dbg !3598

; <label>:5:                                      ; preds = %1
  %6 = getelementptr inbounds %"struct.String::memo_t", %"struct.String::memo_t"* %3, i64 0, i32 0, !dbg !3599
  %7 = load volatile i32, i32* %6, align 4, !dbg !3599, !tbaa !3601
  %8 = icmp eq i32 %7, 0, !dbg !3599
  br i1 %8, label %9, label %10, !dbg !3599

; <label>:9:                                      ; preds = %5
  tail call void @__assert_fail(i8* getelementptr inbounds ([18 x i8], [18 x i8]* @.str.5, i64 0, i64 0), i8* getelementptr inbounds ([35 x i8], [35 x i8]* @.str.6, i64 0, i64 0), i32 272, i8* getelementptr inbounds ([27 x i8], [27 x i8]* @__PRETTY_FUNCTION__._ZNK6String5derefEv, i64 0, i64 0)) #14, !dbg !3599
  unreachable, !dbg !3599

; <label>:10:                                     ; preds = %5
  %11 = tail call zeroext i1 @_ZN15atomic_uint32_t12dec_and_testERVj(i32* nonnull dereferenceable(4) %6), !dbg !3603
  br i1 %11, label %12, label %14, !dbg !3605

; <label>:12:                                     ; preds = %10
  %13 = load %"struct.String::memo_t"*, %"struct.String::memo_t"** %2, align 8, !dbg !3606, !tbaa !3596
  tail call void @_ZN6String11delete_memoEPNS_6memo_tE(%"struct.String::memo_t"* %13), !dbg !3607
  br label %14, !dbg !3607

; <label>:14:                                     ; preds = %12, %10
  store %"struct.String::memo_t"* null, %"struct.String::memo_t"** %2, align 8, !dbg !3608, !tbaa !3596
  br label %15, !dbg !3609

; <label>:15:                                     ; preds = %1, %14
  ret void, !dbg !3610
}

; Function Attrs: noinline noreturn nounwind
define linkonce_odr hidden void @__clang_call_terminate(i8*) local_unnamed_addr #10 comdat {
  %2 = tail call i8* @__cxa_begin_catch(i8* %0) #12
  tail call void @_ZSt9terminatev() #14
  unreachable
}

declare i8* @__cxa_begin_catch(i8*) local_unnamed_addr

declare void @_ZSt9terminatev() local_unnamed_addr

; Function Attrs: inlinehint nounwind uwtable
define linkonce_odr zeroext i1 @_ZN15atomic_uint32_t12dec_and_testERVj(i32* dereferenceable(4)) local_unnamed_addr #6 comdat align 2 !dbg !3611 {
  call void @llvm.dbg.value(metadata i32* %0, metadata !3613, metadata !DIExpression()), !dbg !3614
  %2 = load volatile i32, i32* %0, align 4, !dbg !3615, !tbaa !3616
  %3 = add i32 %2, -1, !dbg !3615
  store volatile i32 %3, i32* %0, align 4, !dbg !3615, !tbaa !3616
  %4 = icmp eq i32 %3, 0, !dbg !3617
  ret i1 %4, !dbg !3618
}

declare void @_ZN6String11delete_memoEPNS_6memo_tE(%"struct.String::memo_t"*) local_unnamed_addr #1

; Function Attrs: nounwind readnone speculatable
declare void @llvm.dbg.value(metadata, metadata, metadata) #11

attributes #0 = { uwtable "correctly-rounded-divide-sqrt-fp-math"="false" "disable-tail-calls"="false" "less-precise-fpmad"="false" "no-frame-pointer-elim"="false" "no-infs-fp-math"="false" "no-jump-tables"="false" "no-nans-fp-math"="false" "no-signed-zeros-fp-math"="false" "no-trapping-math"="false" "stack-protector-buffer-size"="8" "target-cpu"="x86-64" "target-features"="+fxsr,+mmx,+sse,+sse2,+x87" "unsafe-fp-math"="false" "use-soft-float"="false" }
attributes #1 = { "correctly-rounded-divide-sqrt-fp-math"="false" "disable-tail-calls"="false" "less-precise-fpmad"="false" "no-frame-pointer-elim"="false" "no-infs-fp-math"="false" "no-nans-fp-math"="false" "no-signed-zeros-fp-math"="false" "no-trapping-math"="false" "stack-protector-buffer-size"="8" "target-cpu"="x86-64" "target-features"="+fxsr,+mmx,+sse,+sse2,+x87" "unsafe-fp-math"="false" "use-soft-float"="false" }
attributes #2 = { nounwind "correctly-rounded-divide-sqrt-fp-math"="false" "disable-tail-calls"="false" "less-precise-fpmad"="false" "no-frame-pointer-elim"="false" "no-infs-fp-math"="false" "no-nans-fp-math"="false" "no-signed-zeros-fp-math"="false" "no-trapping-math"="false" "stack-protector-buffer-size"="8" "target-cpu"="x86-64" "target-features"="+fxsr,+mmx,+sse,+sse2,+x87" "unsafe-fp-math"="false" "use-soft-float"="false" }
attributes #3 = { nounwind uwtable "correctly-rounded-divide-sqrt-fp-math"="false" "disable-tail-calls"="false" "less-precise-fpmad"="false" "no-frame-pointer-elim"="false" "no-infs-fp-math"="false" "no-jump-tables"="false" "no-nans-fp-math"="false" "no-signed-zeros-fp-math"="false" "no-trapping-math"="false" "stack-protector-buffer-size"="8" "target-cpu"="x86-64" "target-features"="+fxsr,+mmx,+sse,+sse2,+x87" "unsafe-fp-math"="false" "use-soft-float"="false" }
attributes #4 = { nobuiltin nounwind "correctly-rounded-divide-sqrt-fp-math"="false" "disable-tail-calls"="false" "less-precise-fpmad"="false" "no-frame-pointer-elim"="false" "no-infs-fp-math"="false" "no-nans-fp-math"="false" "no-signed-zeros-fp-math"="false" "no-trapping-math"="false" "stack-protector-buffer-size"="8" "target-cpu"="x86-64" "target-features"="+fxsr,+mmx,+sse,+sse2,+x87" "unsafe-fp-math"="false" "use-soft-float"="false" }
attributes #5 = { argmemonly nounwind }
attributes #6 = { inlinehint nounwind uwtable "correctly-rounded-divide-sqrt-fp-math"="false" "disable-tail-calls"="false" "less-precise-fpmad"="false" "no-frame-pointer-elim"="false" "no-infs-fp-math"="false" "no-jump-tables"="false" "no-nans-fp-math"="false" "no-signed-zeros-fp-math"="false" "no-trapping-math"="false" "stack-protector-buffer-size"="8" "target-cpu"="x86-64" "target-features"="+fxsr,+mmx,+sse,+sse2,+x87" "unsafe-fp-math"="false" "use-soft-float"="false" }
attributes #7 = { noreturn nounwind "correctly-rounded-divide-sqrt-fp-math"="false" "disable-tail-calls"="false" "less-precise-fpmad"="false" "no-frame-pointer-elim"="false" "no-infs-fp-math"="false" "no-nans-fp-math"="false" "no-signed-zeros-fp-math"="false" "no-trapping-math"="false" "stack-protector-buffer-size"="8" "target-cpu"="x86-64" "target-features"="+fxsr,+mmx,+sse,+sse2,+x87" "unsafe-fp-math"="false" "use-soft-float"="false" }
attributes #8 = { inlinehint uwtable "correctly-rounded-divide-sqrt-fp-math"="false" "disable-tail-calls"="false" "less-precise-fpmad"="false" "no-frame-pointer-elim"="false" "no-infs-fp-math"="false" "no-jump-tables"="false" "no-nans-fp-math"="false" "no-signed-zeros-fp-math"="false" "no-trapping-math"="false" "stack-protector-buffer-size"="8" "target-cpu"="x86-64" "target-features"="+fxsr,+mmx,+sse,+sse2,+x87" "unsafe-fp-math"="false" "use-soft-float"="false" }
attributes #9 = { noinline uwtable "correctly-rounded-divide-sqrt-fp-math"="false" "disable-tail-calls"="false" "less-precise-fpmad"="false" "no-frame-pointer-elim"="false" "no-infs-fp-math"="false" "no-jump-tables"="false" "no-nans-fp-math"="false" "no-signed-zeros-fp-math"="false" "no-trapping-math"="false" "stack-protector-buffer-size"="8" "target-cpu"="x86-64" "target-features"="+fxsr,+mmx,+sse,+sse2,+x87" "unsafe-fp-math"="false" "use-soft-float"="false" }
attributes #10 = { noinline noreturn nounwind }
attributes #11 = { nounwind readnone speculatable }
attributes #12 = { nounwind }
attributes #13 = { builtin nounwind }
attributes #14 = { noreturn nounwind }

!llvm.dbg.cu = !{!0}
!llvm.module.flags = !{!2442, !2443, !2444}
!llvm.ident = !{!2445}

!0 = distinct !DICompileUnit(language: DW_LANG_C_plus_plus, file: !1, producer: "clang version 6.0.0-1ubuntu2~16.04.1 (tags/RELEASE_600/final)", isOptimized: true, runtimeVersion: 0, emissionKind: FullDebug, enums: !2, retainedTypes: !1290, imports: !1292)
!1 = !DIFile(filename: "test6.cc", directory: "/home/jiarong/multi_thread_train/compute_prediction/c_packetprocessing/apps/env")
!2 = !{!3, !875, !1179}
!3 = !DICompositeType(tag: DW_TAG_enumeration_type, name: "PacketType", scope: !5, file: !4, line: 368, size: 32, elements: !1171, identifier: "_ZTSN6Packet10PacketTypeE")
!4 = !DIFile(filename: "/usr/local/include/click/packet.hh", directory: "/home/jiarong/multi_thread_train/compute_prediction/c_packetprocessing/apps/env")
!5 = distinct !DICompositeType(tag: DW_TAG_class_type, name: "Packet", file: !4, line: 35, size: 1344, elements: !6, identifier: "_ZTS6Packet")
!6 = !{!7, !73, !75, !78, !79, !80, !81, !121, !129, !130, !244, !247, !250, !253, !256, !260, !264, !267, !270, !275, !276, !279, !280, !281, !282, !283, !284, !287, !290, !293, !294, !297, !298, !301, !304, !305, !306, !307, !310, !313, !316, !319, !320, !321, !324, !325, !326, !329, !330, !331, !332, !333, !334, !335, !336, !337, !338, !339, !340, !341, !342, !343, !344, !349, !352, !357, !358, !359, !362, !367, !368, !369, !372, !375, !380, !385, !390, !395, !399, !916, !920, !923, !929, !932, !935, !938, !941, !945, !948, !949, !950, !951, !1041, !1044, !1045, !1048, !1052, !1057, !1061, !1066, !1069, !1072, !1075, !1078, !1083, !1086, !1089, !1092, !1095, !1098, !1101, !1104, !1107, !1110, !1111, !1114, !1118, !1119, !1120, !1121, !1122, !1123, !1124, !1125, !1126, !1127, !1128, !1129, !1130, !1131, !1132, !1133, !1134, !1135, !1136, !1137, !1138, !1139, !1140, !1141, !1142, !1143, !1144, !1145, !1146, !1147, !1148, !1149, !1150, !1151, !1152, !1155, !1156, !1160, !1163, !1166, !1169, !1170}
!7 = !DIDerivedType(tag: DW_TAG_member, name: "_use_count", scope: !5, file: !4, line: 737, baseType: !8, size: 32)
!8 = distinct !DICompositeType(tag: DW_TAG_class_type, name: "atomic_uint32_t", file: !9, line: 52, size: 32, elements: !10, identifier: "_ZTS15atomic_uint32_t")
!9 = !DIFile(filename: "/usr/local/include/click/atomic.hh", directory: "/home/jiarong/multi_thread_train/compute_prediction/c_packetprocessing/apps/env")
!10 = !{!11, !15, !20, !21, !26, !31, !32, !33, !34, !37, !40, !41, !42, !45, !46, !50, !53, !56, !61, !64, !67, !70}
!11 = !DIDerivedType(tag: DW_TAG_member, name: "_val", scope: !8, file: !9, line: 91, baseType: !12, size: 32)
!12 = !DIDerivedType(tag: DW_TAG_typedef, name: "uint32_t", file: !13, line: 51, baseType: !14)
!13 = !DIFile(filename: "/usr/include/stdint.h", directory: "/home/jiarong/multi_thread_train/compute_prediction/c_packetprocessing/apps/env")
!14 = !DIBasicType(name: "unsigned int", size: 32, encoding: DW_ATE_unsigned)
!15 = !DISubprogram(name: "value", linkageName: "_ZNK15atomic_uint32_t5valueEv", scope: !8, file: !9, line: 57, type: !16, isLocal: false, isDefinition: false, scopeLine: 57, flags: DIFlagPublic | DIFlagPrototyped, isOptimized: true)
!16 = !DISubroutineType(types: !17)
!17 = !{!12, !18}
!18 = !DIDerivedType(tag: DW_TAG_pointer_type, baseType: !19, size: 64, flags: DIFlagArtificial | DIFlagObjectPointer)
!19 = !DIDerivedType(tag: DW_TAG_const_type, baseType: !8)
!20 = !DISubprogram(name: "operator unsigned int", linkageName: "_ZNK15atomic_uint32_tcvjEv", scope: !8, file: !9, line: 58, type: !16, isLocal: false, isDefinition: false, scopeLine: 58, flags: DIFlagPublic | DIFlagPrototyped, isOptimized: true)
!21 = !DISubprogram(name: "operator=", linkageName: "_ZN15atomic_uint32_taSEj", scope: !8, file: !9, line: 60, type: !22, isLocal: false, isDefinition: false, scopeLine: 60, flags: DIFlagPublic | DIFlagPrototyped, isOptimized: true)
!22 = !DISubroutineType(types: !23)
!23 = !{!24, !25, !12}
!24 = !DIDerivedType(tag: DW_TAG_reference_type, baseType: !8, size: 64)
!25 = !DIDerivedType(tag: DW_TAG_pointer_type, baseType: !8, size: 64, flags: DIFlagArtificial | DIFlagObjectPointer)
!26 = !DISubprogram(name: "operator+=", linkageName: "_ZN15atomic_uint32_tpLEi", scope: !8, file: !9, line: 62, type: !27, isLocal: false, isDefinition: false, scopeLine: 62, flags: DIFlagPublic | DIFlagPrototyped, isOptimized: true)
!27 = !DISubroutineType(types: !28)
!28 = !{!24, !25, !29}
!29 = !DIDerivedType(tag: DW_TAG_typedef, name: "int32_t", file: !13, line: 38, baseType: !30)
!30 = !DIBasicType(name: "int", size: 32, encoding: DW_ATE_signed)
!31 = !DISubprogram(name: "operator-=", linkageName: "_ZN15atomic_uint32_tmIEi", scope: !8, file: !9, line: 63, type: !27, isLocal: false, isDefinition: false, scopeLine: 63, flags: DIFlagPublic | DIFlagPrototyped, isOptimized: true)
!32 = !DISubprogram(name: "operator|=", linkageName: "_ZN15atomic_uint32_toREj", scope: !8, file: !9, line: 64, type: !22, isLocal: false, isDefinition: false, scopeLine: 64, flags: DIFlagPublic | DIFlagPrototyped, isOptimized: true)
!33 = !DISubprogram(name: "operator&=", linkageName: "_ZN15atomic_uint32_taNEj", scope: !8, file: !9, line: 65, type: !22, isLocal: false, isDefinition: false, scopeLine: 65, flags: DIFlagPublic | DIFlagPrototyped, isOptimized: true)
!34 = !DISubprogram(name: "operator++", linkageName: "_ZN15atomic_uint32_tppEv", scope: !8, file: !9, line: 67, type: !35, isLocal: false, isDefinition: false, scopeLine: 67, flags: DIFlagPublic | DIFlagPrototyped, isOptimized: true)
!35 = !DISubroutineType(types: !36)
!36 = !{null, !25}
!37 = !DISubprogram(name: "operator++", linkageName: "_ZN15atomic_uint32_tppEi", scope: !8, file: !9, line: 68, type: !38, isLocal: false, isDefinition: false, scopeLine: 68, flags: DIFlagPublic | DIFlagPrototyped, isOptimized: true)
!38 = !DISubroutineType(types: !39)
!39 = !{null, !25, !30}
!40 = !DISubprogram(name: "operator--", linkageName: "_ZN15atomic_uint32_tmmEv", scope: !8, file: !9, line: 69, type: !35, isLocal: false, isDefinition: false, scopeLine: 69, flags: DIFlagPublic | DIFlagPrototyped, isOptimized: true)
!41 = !DISubprogram(name: "operator--", linkageName: "_ZN15atomic_uint32_tmmEi", scope: !8, file: !9, line: 70, type: !38, isLocal: false, isDefinition: false, scopeLine: 70, flags: DIFlagPublic | DIFlagPrototyped, isOptimized: true)
!42 = !DISubprogram(name: "swap", linkageName: "_ZN15atomic_uint32_t4swapEj", scope: !8, file: !9, line: 72, type: !43, isLocal: false, isDefinition: false, scopeLine: 72, flags: DIFlagPublic | DIFlagPrototyped, isOptimized: true)
!43 = !DISubroutineType(types: !44)
!44 = !{!12, !25, !12}
!45 = !DISubprogram(name: "fetch_and_add", linkageName: "_ZN15atomic_uint32_t13fetch_and_addEj", scope: !8, file: !9, line: 73, type: !43, isLocal: false, isDefinition: false, scopeLine: 73, flags: DIFlagPublic | DIFlagPrototyped, isOptimized: true)
!46 = !DISubprogram(name: "dec_and_test", linkageName: "_ZN15atomic_uint32_t12dec_and_testEv", scope: !8, file: !9, line: 74, type: !47, isLocal: false, isDefinition: false, scopeLine: 74, flags: DIFlagPublic | DIFlagPrototyped, isOptimized: true)
!47 = !DISubroutineType(types: !48)
!48 = !{!49, !25}
!49 = !DIBasicType(name: "bool", size: 8, encoding: DW_ATE_boolean)
!50 = !DISubprogram(name: "compare_swap", linkageName: "_ZN15atomic_uint32_t12compare_swapEjj", scope: !8, file: !9, line: 75, type: !51, isLocal: false, isDefinition: false, scopeLine: 75, flags: DIFlagPublic | DIFlagPrototyped, isOptimized: true)
!51 = !DISubroutineType(types: !52)
!52 = !{!12, !25, !12, !12}
!53 = !DISubprogram(name: "compare_and_swap", linkageName: "_ZN15atomic_uint32_t16compare_and_swapEjj", scope: !8, file: !9, line: 76, type: !54, isLocal: false, isDefinition: false, scopeLine: 76, flags: DIFlagPublic | DIFlagPrototyped, isOptimized: true)
!54 = !DISubroutineType(types: !55)
!55 = !{!49, !25, !12, !12}
!56 = !DISubprogram(name: "swap", linkageName: "_ZN15atomic_uint32_t4swapERVjj", scope: !8, file: !9, line: 78, type: !57, isLocal: false, isDefinition: false, scopeLine: 78, flags: DIFlagPublic | DIFlagPrototyped | DIFlagStaticMember, isOptimized: true)
!57 = !DISubroutineType(types: !58)
!58 = !{!12, !59, !12}
!59 = !DIDerivedType(tag: DW_TAG_reference_type, baseType: !60, size: 64)
!60 = !DIDerivedType(tag: DW_TAG_volatile_type, baseType: !12)
!61 = !DISubprogram(name: "inc", linkageName: "_ZN15atomic_uint32_t3incERVj", scope: !8, file: !9, line: 79, type: !62, isLocal: false, isDefinition: false, scopeLine: 79, flags: DIFlagPublic | DIFlagPrototyped | DIFlagStaticMember, isOptimized: true)
!62 = !DISubroutineType(types: !63)
!63 = !{null, !59}
!64 = !DISubprogram(name: "dec_and_test", linkageName: "_ZN15atomic_uint32_t12dec_and_testERVj", scope: !8, file: !9, line: 80, type: !65, isLocal: false, isDefinition: false, scopeLine: 80, flags: DIFlagPublic | DIFlagPrototyped | DIFlagStaticMember, isOptimized: true)
!65 = !DISubroutineType(types: !66)
!66 = !{!49, !59}
!67 = !DISubprogram(name: "compare_swap", linkageName: "_ZN15atomic_uint32_t12compare_swapERVjjj", scope: !8, file: !9, line: 81, type: !68, isLocal: false, isDefinition: false, scopeLine: 81, flags: DIFlagPublic | DIFlagPrototyped | DIFlagStaticMember, isOptimized: true)
!68 = !DISubroutineType(types: !69)
!69 = !{!12, !59, !12, !12}
!70 = !DISubprogram(name: "compare_and_swap", linkageName: "_ZN15atomic_uint32_t16compare_and_swapERVjjj", scope: !8, file: !9, line: 82, type: !71, isLocal: false, isDefinition: false, scopeLine: 82, flags: DIFlagPublic | DIFlagPrototyped | DIFlagStaticMember, isOptimized: true)
!71 = !DISubroutineType(types: !72)
!72 = !{!49, !59, !12, !12}
!73 = !DIDerivedType(tag: DW_TAG_member, name: "_data_packet", scope: !5, file: !4, line: 738, baseType: !74, size: 64, offset: 64)
!74 = !DIDerivedType(tag: DW_TAG_pointer_type, baseType: !5, size: 64)
!75 = !DIDerivedType(tag: DW_TAG_member, name: "_head", scope: !5, file: !4, line: 740, baseType: !76, size: 64, offset: 128)
!76 = !DIDerivedType(tag: DW_TAG_pointer_type, baseType: !77, size: 64)
!77 = !DIBasicType(name: "unsigned char", size: 8, encoding: DW_ATE_unsigned_char)
!78 = !DIDerivedType(tag: DW_TAG_member, name: "_data", scope: !5, file: !4, line: 741, baseType: !76, size: 64, offset: 192)
!79 = !DIDerivedType(tag: DW_TAG_member, name: "_tail", scope: !5, file: !4, line: 742, baseType: !76, size: 64, offset: 256)
!80 = !DIDerivedType(tag: DW_TAG_member, name: "_end", scope: !5, file: !4, line: 743, baseType: !76, size: 64, offset: 320)
!81 = !DIDerivedType(tag: DW_TAG_member, name: "_aa", scope: !5, file: !4, line: 747, baseType: !82, size: 832, offset: 384)
!82 = distinct !DICompositeType(tag: DW_TAG_structure_type, name: "AllAnno", scope: !5, file: !4, line: 722, size: 832, elements: !83, identifier: "_ZTSN6Packet7AllAnnoE")
!83 = !{!84, !111, !112, !113, !114, !115, !119, !120}
!84 = !DIDerivedType(tag: DW_TAG_member, name: "cb", scope: !82, file: !4, line: 723, baseType: !85, size: 384)
!85 = distinct !DICompositeType(tag: DW_TAG_union_type, name: "Anno", scope: !5, file: !4, line: 708, size: 384, elements: !86, identifier: "_ZTSN6Packet4AnnoE")
!86 = !{!87, !92, !95, !101, !105}
!87 = !DIDerivedType(tag: DW_TAG_member, name: "c", scope: !85, file: !4, line: 709, baseType: !88, size: 384)
!88 = !DICompositeType(tag: DW_TAG_array_type, baseType: !89, size: 384, elements: !90)
!89 = !DIBasicType(name: "char", size: 8, encoding: DW_ATE_signed_char)
!90 = !{!91}
!91 = !DISubrange(count: 48)
!92 = !DIDerivedType(tag: DW_TAG_member, name: "u8", scope: !85, file: !4, line: 710, baseType: !93, size: 384)
!93 = !DICompositeType(tag: DW_TAG_array_type, baseType: !94, size: 384, elements: !90)
!94 = !DIDerivedType(tag: DW_TAG_typedef, name: "uint8_t", file: !13, line: 48, baseType: !77)
!95 = !DIDerivedType(tag: DW_TAG_member, name: "u16", scope: !85, file: !4, line: 711, baseType: !96, size: 384)
!96 = !DICompositeType(tag: DW_TAG_array_type, baseType: !97, size: 384, elements: !99)
!97 = !DIDerivedType(tag: DW_TAG_typedef, name: "uint16_t", file: !13, line: 49, baseType: !98)
!98 = !DIBasicType(name: "unsigned short", size: 16, encoding: DW_ATE_unsigned)
!99 = !{!100}
!100 = !DISubrange(count: 24)
!101 = !DIDerivedType(tag: DW_TAG_member, name: "u32", scope: !85, file: !4, line: 712, baseType: !102, size: 384)
!102 = !DICompositeType(tag: DW_TAG_array_type, baseType: !12, size: 384, elements: !103)
!103 = !{!104}
!104 = !DISubrange(count: 12)
!105 = !DIDerivedType(tag: DW_TAG_member, name: "u64", scope: !85, file: !4, line: 714, baseType: !106, size: 384)
!106 = !DICompositeType(tag: DW_TAG_array_type, baseType: !107, size: 384, elements: !109)
!107 = !DIDerivedType(tag: DW_TAG_typedef, name: "uint64_t", file: !13, line: 55, baseType: !108)
!108 = !DIBasicType(name: "long unsigned int", size: 64, encoding: DW_ATE_unsigned)
!109 = !{!110}
!110 = !DISubrange(count: 6)
!111 = !DIDerivedType(tag: DW_TAG_member, name: "mac", scope: !82, file: !4, line: 724, baseType: !76, size: 64, offset: 384)
!112 = !DIDerivedType(tag: DW_TAG_member, name: "nh", scope: !82, file: !4, line: 725, baseType: !76, size: 64, offset: 448)
!113 = !DIDerivedType(tag: DW_TAG_member, name: "h", scope: !82, file: !4, line: 726, baseType: !76, size: 64, offset: 512)
!114 = !DIDerivedType(tag: DW_TAG_member, name: "pkt_type", scope: !82, file: !4, line: 727, baseType: !3, size: 32, offset: 576)
!115 = !DIDerivedType(tag: DW_TAG_member, name: "timestamp", scope: !82, file: !4, line: 728, baseType: !116, size: 64, offset: 608)
!116 = !DICompositeType(tag: DW_TAG_array_type, baseType: !89, size: 64, elements: !117)
!117 = !{!118}
!118 = !DISubrange(count: 8)
!119 = !DIDerivedType(tag: DW_TAG_member, name: "next", scope: !82, file: !4, line: 729, baseType: !74, size: 64, offset: 704)
!120 = !DIDerivedType(tag: DW_TAG_member, name: "prev", scope: !82, file: !4, line: 730, baseType: !74, size: 64, offset: 768)
!121 = !DIDerivedType(tag: DW_TAG_member, name: "_destructor", scope: !5, file: !4, line: 752, baseType: !122, size: 64, offset: 1216)
!122 = !DIDerivedType(tag: DW_TAG_typedef, name: "buffer_destructor_type", scope: !5, file: !4, line: 65, baseType: !123)
!123 = !DIDerivedType(tag: DW_TAG_pointer_type, baseType: !124, size: 64)
!124 = !DISubroutineType(types: !125)
!125 = !{null, !76, !126, !128}
!126 = !DIDerivedType(tag: DW_TAG_typedef, name: "size_t", file: !127, line: 62, baseType: !108)
!127 = !DIFile(filename: "/usr/include/clang/6.0.0/include/stddef.h", directory: "/home/jiarong/multi_thread_train/compute_prediction/c_packetprocessing/apps/env")
!128 = !DIDerivedType(tag: DW_TAG_pointer_type, baseType: null, size: 64)
!129 = !DIDerivedType(tag: DW_TAG_member, name: "_destructor_argument", scope: !5, file: !4, line: 753, baseType: !128, size: 64, offset: 1280)
!130 = !DISubprogram(name: "make", linkageName: "_ZN6Packet4makeEjPKvjj", scope: !5, file: !4, line: 52, type: !131, isLocal: false, isDefinition: false, scopeLine: 52, flags: DIFlagPublic | DIFlagPrototyped | DIFlagStaticMember, isOptimized: true)
!131 = !DISubroutineType(types: !132)
!132 = !{!133, !12, !242, !12, !12}
!133 = !DIDerivedType(tag: DW_TAG_pointer_type, baseType: !134, size: 64)
!134 = distinct !DICompositeType(tag: DW_TAG_class_type, name: "WritablePacket", file: !4, line: 784, size: 1344, elements: !135, identifier: "_ZTS14WritablePacket")
!135 = !{!136, !137, !142, !143, !144, !145, !146, !151, !152, !175, !180, !181, !192, !210, !221, !222, !226, !227, !232, !233, !236, !239}
!136 = !DIDerivedType(tag: DW_TAG_inheritance, scope: !134, baseType: !5, flags: DIFlagPublic)
!137 = !DISubprogram(name: "data", linkageName: "_ZNK14WritablePacket4dataEv", scope: !134, file: !4, line: 786, type: !138, isLocal: false, isDefinition: false, scopeLine: 786, flags: DIFlagPublic | DIFlagPrototyped, isOptimized: true)
!138 = !DISubroutineType(types: !139)
!139 = !{!76, !140}
!140 = !DIDerivedType(tag: DW_TAG_pointer_type, baseType: !141, size: 64, flags: DIFlagArtificial | DIFlagObjectPointer)
!141 = !DIDerivedType(tag: DW_TAG_const_type, baseType: !134)
!142 = !DISubprogram(name: "end_data", linkageName: "_ZNK14WritablePacket8end_dataEv", scope: !134, file: !4, line: 787, type: !138, isLocal: false, isDefinition: false, scopeLine: 787, flags: DIFlagPublic | DIFlagPrototyped, isOptimized: true)
!143 = !DISubprogram(name: "buffer", linkageName: "_ZNK14WritablePacket6bufferEv", scope: !134, file: !4, line: 788, type: !138, isLocal: false, isDefinition: false, scopeLine: 788, flags: DIFlagPublic | DIFlagPrototyped, isOptimized: true)
!144 = !DISubprogram(name: "end_buffer", linkageName: "_ZNK14WritablePacket10end_bufferEv", scope: !134, file: !4, line: 789, type: !138, isLocal: false, isDefinition: false, scopeLine: 789, flags: DIFlagPublic | DIFlagPrototyped, isOptimized: true)
!145 = !DISubprogram(name: "mac_header", linkageName: "_ZNK14WritablePacket10mac_headerEv", scope: !134, file: !4, line: 790, type: !138, isLocal: false, isDefinition: false, scopeLine: 790, flags: DIFlagPublic | DIFlagPrototyped, isOptimized: true)
!146 = !DISubprogram(name: "ether_header", linkageName: "_ZNK14WritablePacket12ether_headerEv", scope: !134, file: !4, line: 791, type: !147, isLocal: false, isDefinition: false, scopeLine: 791, flags: DIFlagPublic | DIFlagPrototyped, isOptimized: true)
!147 = !DISubroutineType(types: !148)
!148 = !{!149, !140}
!149 = !DIDerivedType(tag: DW_TAG_pointer_type, baseType: !150, size: 64)
!150 = !DICompositeType(tag: DW_TAG_structure_type, name: "click_ether", file: !4, line: 24, flags: DIFlagFwdDecl, identifier: "_ZTS11click_ether")
!151 = !DISubprogram(name: "network_header", linkageName: "_ZNK14WritablePacket14network_headerEv", scope: !134, file: !4, line: 792, type: !138, isLocal: false, isDefinition: false, scopeLine: 792, flags: DIFlagPublic | DIFlagPrototyped, isOptimized: true)
!152 = !DISubprogram(name: "ip_header", linkageName: "_ZNK14WritablePacket9ip_headerEv", scope: !134, file: !4, line: 793, type: !153, isLocal: false, isDefinition: false, scopeLine: 793, flags: DIFlagPublic | DIFlagPrototyped, isOptimized: true)
!153 = !DISubroutineType(types: !154)
!154 = !{!155, !140}
!155 = !DIDerivedType(tag: DW_TAG_pointer_type, baseType: !156, size: 64)
!156 = distinct !DICompositeType(tag: DW_TAG_structure_type, name: "click_ip", file: !157, line: 23, size: 160, elements: !158, identifier: "_ZTS8click_ip")
!157 = !DIFile(filename: "/usr/local/include/clicknet/ip.h", directory: "/home/jiarong/multi_thread_train/compute_prediction/c_packetprocessing/apps/env")
!158 = !{!159, !160, !161, !162, !163, !164, !165, !166, !167, !168, !174}
!159 = !DIDerivedType(tag: DW_TAG_member, name: "ip_hl", scope: !156, file: !157, line: 28, baseType: !14, size: 4, flags: DIFlagBitField, extraData: i64 0)
!160 = !DIDerivedType(tag: DW_TAG_member, name: "ip_v", scope: !156, file: !157, line: 29, baseType: !14, size: 4, offset: 4, flags: DIFlagBitField, extraData: i64 0)
!161 = !DIDerivedType(tag: DW_TAG_member, name: "ip_tos", scope: !156, file: !157, line: 33, baseType: !94, size: 8, offset: 8)
!162 = !DIDerivedType(tag: DW_TAG_member, name: "ip_len", scope: !156, file: !157, line: 40, baseType: !97, size: 16, offset: 16)
!163 = !DIDerivedType(tag: DW_TAG_member, name: "ip_id", scope: !156, file: !157, line: 41, baseType: !97, size: 16, offset: 32)
!164 = !DIDerivedType(tag: DW_TAG_member, name: "ip_off", scope: !156, file: !157, line: 42, baseType: !97, size: 16, offset: 48)
!165 = !DIDerivedType(tag: DW_TAG_member, name: "ip_ttl", scope: !156, file: !157, line: 47, baseType: !94, size: 8, offset: 64)
!166 = !DIDerivedType(tag: DW_TAG_member, name: "ip_p", scope: !156, file: !157, line: 48, baseType: !94, size: 8, offset: 72)
!167 = !DIDerivedType(tag: DW_TAG_member, name: "ip_sum", scope: !156, file: !157, line: 49, baseType: !97, size: 16, offset: 80)
!168 = !DIDerivedType(tag: DW_TAG_member, name: "ip_src", scope: !156, file: !157, line: 50, baseType: !169, size: 32, offset: 96)
!169 = distinct !DICompositeType(tag: DW_TAG_structure_type, name: "in_addr", file: !170, line: 31, size: 32, elements: !171, identifier: "_ZTS7in_addr")
!170 = !DIFile(filename: "/usr/include/netinet/in.h", directory: "/home/jiarong/multi_thread_train/compute_prediction/c_packetprocessing/apps/env")
!171 = !{!172}
!172 = !DIDerivedType(tag: DW_TAG_member, name: "s_addr", scope: !169, file: !170, line: 33, baseType: !173, size: 32)
!173 = !DIDerivedType(tag: DW_TAG_typedef, name: "in_addr_t", file: !170, line: 30, baseType: !12)
!174 = !DIDerivedType(tag: DW_TAG_member, name: "ip_dst", scope: !156, file: !157, line: 51, baseType: !169, size: 32, offset: 128)
!175 = !DISubprogram(name: "ip6_header", linkageName: "_ZNK14WritablePacket10ip6_headerEv", scope: !134, file: !4, line: 794, type: !176, isLocal: false, isDefinition: false, scopeLine: 794, flags: DIFlagPublic | DIFlagPrototyped, isOptimized: true)
!176 = !DISubroutineType(types: !177)
!177 = !{!178, !140}
!178 = !DIDerivedType(tag: DW_TAG_pointer_type, baseType: !179, size: 64)
!179 = !DICompositeType(tag: DW_TAG_structure_type, name: "click_ip6", file: !4, line: 27, flags: DIFlagFwdDecl, identifier: "_ZTS9click_ip6")
!180 = !DISubprogram(name: "transport_header", linkageName: "_ZNK14WritablePacket16transport_headerEv", scope: !134, file: !4, line: 795, type: !138, isLocal: false, isDefinition: false, scopeLine: 795, flags: DIFlagPublic | DIFlagPrototyped, isOptimized: true)
!181 = !DISubprogram(name: "icmp_header", linkageName: "_ZNK14WritablePacket11icmp_headerEv", scope: !134, file: !4, line: 796, type: !182, isLocal: false, isDefinition: false, scopeLine: 796, flags: DIFlagPublic | DIFlagPrototyped, isOptimized: true)
!182 = !DISubroutineType(types: !183)
!183 = !{!184, !140}
!184 = !DIDerivedType(tag: DW_TAG_pointer_type, baseType: !185, size: 64)
!185 = distinct !DICompositeType(tag: DW_TAG_structure_type, name: "click_icmp", file: !186, line: 17, size: 64, elements: !187, identifier: "_ZTS10click_icmp")
!186 = !DIFile(filename: "/usr/local/include/clicknet/icmp.h", directory: "/home/jiarong/multi_thread_train/compute_prediction/c_packetprocessing/apps/env")
!187 = !{!188, !189, !190, !191}
!188 = !DIDerivedType(tag: DW_TAG_member, name: "icmp_type", scope: !185, file: !186, line: 18, baseType: !94, size: 8)
!189 = !DIDerivedType(tag: DW_TAG_member, name: "icmp_code", scope: !185, file: !186, line: 19, baseType: !94, size: 8, offset: 8)
!190 = !DIDerivedType(tag: DW_TAG_member, name: "icmp_cksum", scope: !185, file: !186, line: 20, baseType: !97, size: 16, offset: 16)
!191 = !DIDerivedType(tag: DW_TAG_member, name: "padding", scope: !185, file: !186, line: 21, baseType: !12, size: 32, offset: 32)
!192 = !DISubprogram(name: "tcp_header", linkageName: "_ZNK14WritablePacket10tcp_headerEv", scope: !134, file: !4, line: 797, type: !193, isLocal: false, isDefinition: false, scopeLine: 797, flags: DIFlagPublic | DIFlagPrototyped, isOptimized: true)
!193 = !DISubroutineType(types: !194)
!194 = !{!195, !140}
!195 = !DIDerivedType(tag: DW_TAG_pointer_type, baseType: !196, size: 64)
!196 = distinct !DICompositeType(tag: DW_TAG_structure_type, name: "click_tcp", file: !197, line: 24, size: 160, elements: !198, identifier: "_ZTS9click_tcp")
!197 = !DIFile(filename: "/usr/local/include/clicknet/tcp.h", directory: "/home/jiarong/multi_thread_train/compute_prediction/c_packetprocessing/apps/env")
!198 = !{!199, !200, !201, !203, !204, !205, !206, !207, !208, !209}
!199 = !DIDerivedType(tag: DW_TAG_member, name: "th_sport", scope: !196, file: !197, line: 25, baseType: !97, size: 16)
!200 = !DIDerivedType(tag: DW_TAG_member, name: "th_dport", scope: !196, file: !197, line: 26, baseType: !97, size: 16, offset: 16)
!201 = !DIDerivedType(tag: DW_TAG_member, name: "th_seq", scope: !196, file: !197, line: 27, baseType: !202, size: 32, offset: 32)
!202 = !DIDerivedType(tag: DW_TAG_typedef, name: "tcp_seq_t", file: !197, line: 22, baseType: !12)
!203 = !DIDerivedType(tag: DW_TAG_member, name: "th_ack", scope: !196, file: !197, line: 28, baseType: !202, size: 32, offset: 64)
!204 = !DIDerivedType(tag: DW_TAG_member, name: "th_flags2", scope: !196, file: !197, line: 30, baseType: !14, size: 4, offset: 96, flags: DIFlagBitField, extraData: i64 96)
!205 = !DIDerivedType(tag: DW_TAG_member, name: "th_off", scope: !196, file: !197, line: 31, baseType: !14, size: 4, offset: 100, flags: DIFlagBitField, extraData: i64 96)
!206 = !DIDerivedType(tag: DW_TAG_member, name: "th_flags", scope: !196, file: !197, line: 39, baseType: !94, size: 8, offset: 104)
!207 = !DIDerivedType(tag: DW_TAG_member, name: "th_win", scope: !196, file: !197, line: 48, baseType: !97, size: 16, offset: 112)
!208 = !DIDerivedType(tag: DW_TAG_member, name: "th_sum", scope: !196, file: !197, line: 49, baseType: !97, size: 16, offset: 128)
!209 = !DIDerivedType(tag: DW_TAG_member, name: "th_urp", scope: !196, file: !197, line: 50, baseType: !97, size: 16, offset: 144)
!210 = !DISubprogram(name: "udp_header", linkageName: "_ZNK14WritablePacket10udp_headerEv", scope: !134, file: !4, line: 798, type: !211, isLocal: false, isDefinition: false, scopeLine: 798, flags: DIFlagPublic | DIFlagPrototyped, isOptimized: true)
!211 = !DISubroutineType(types: !212)
!212 = !{!213, !140}
!213 = !DIDerivedType(tag: DW_TAG_pointer_type, baseType: !214, size: 64)
!214 = distinct !DICompositeType(tag: DW_TAG_structure_type, name: "click_udp", file: !215, line: 11, size: 64, elements: !216, identifier: "_ZTS9click_udp")
!215 = !DIFile(filename: "/usr/local/include/clicknet/udp.h", directory: "/home/jiarong/multi_thread_train/compute_prediction/c_packetprocessing/apps/env")
!216 = !{!217, !218, !219, !220}
!217 = !DIDerivedType(tag: DW_TAG_member, name: "uh_sport", scope: !214, file: !215, line: 12, baseType: !97, size: 16)
!218 = !DIDerivedType(tag: DW_TAG_member, name: "uh_dport", scope: !214, file: !215, line: 13, baseType: !97, size: 16, offset: 16)
!219 = !DIDerivedType(tag: DW_TAG_member, name: "uh_ulen", scope: !214, file: !215, line: 14, baseType: !97, size: 16, offset: 32)
!220 = !DIDerivedType(tag: DW_TAG_member, name: "uh_sum", scope: !214, file: !215, line: 15, baseType: !97, size: 16, offset: 48)
!221 = !DISubprogram(name: "buffer_data", linkageName: "_ZNK14WritablePacket11buffer_dataEv", scope: !134, file: !4, line: 801, type: !138, isLocal: false, isDefinition: false, scopeLine: 801, flags: DIFlagPublic | DIFlagPrototyped, isOptimized: true)
!222 = !DISubprogram(name: "WritablePacket", scope: !134, file: !4, line: 806, type: !223, isLocal: false, isDefinition: false, scopeLine: 806, flags: DIFlagPrototyped, isOptimized: true)
!223 = !DISubroutineType(types: !224)
!224 = !{null, !225}
!225 = !DIDerivedType(tag: DW_TAG_pointer_type, baseType: !134, size: 64, flags: DIFlagArtificial | DIFlagObjectPointer)
!226 = !DISubprogram(name: "initialize", linkageName: "_ZN14WritablePacket10initializeEv", scope: !134, file: !4, line: 808, type: !223, isLocal: false, isDefinition: false, scopeLine: 808, flags: DIFlagPrototyped, isOptimized: true)
!227 = !DISubprogram(name: "WritablePacket", scope: !134, file: !4, line: 810, type: !228, isLocal: false, isDefinition: false, scopeLine: 810, flags: DIFlagPrototyped, isOptimized: true)
!228 = !DISubroutineType(types: !229)
!229 = !{null, !225, !230}
!230 = !DIDerivedType(tag: DW_TAG_reference_type, baseType: !231, size: 64)
!231 = !DIDerivedType(tag: DW_TAG_const_type, baseType: !5)
!232 = !DISubprogram(name: "~WritablePacket", scope: !134, file: !4, line: 811, type: !223, isLocal: false, isDefinition: false, scopeLine: 811, flags: DIFlagPrototyped, isOptimized: true)
!233 = !DISubprogram(name: "pool_allocate", linkageName: "_ZN14WritablePacket13pool_allocateEb", scope: !134, file: !4, line: 814, type: !234, isLocal: false, isDefinition: false, scopeLine: 814, flags: DIFlagPrototyped | DIFlagStaticMember, isOptimized: true)
!234 = !DISubroutineType(types: !235)
!235 = !{!133, !49}
!236 = !DISubprogram(name: "pool_allocate", linkageName: "_ZN14WritablePacket13pool_allocateEjjj", scope: !134, file: !4, line: 815, type: !237, isLocal: false, isDefinition: false, scopeLine: 815, flags: DIFlagPrototyped | DIFlagStaticMember, isOptimized: true)
!237 = !DISubroutineType(types: !238)
!238 = !{!133, !12, !12, !12}
!239 = !DISubprogram(name: "recycle", linkageName: "_ZN14WritablePacket7recycleEPS_", scope: !134, file: !4, line: 817, type: !240, isLocal: false, isDefinition: false, scopeLine: 817, flags: DIFlagPrototyped | DIFlagStaticMember, isOptimized: true)
!240 = !DISubroutineType(types: !241)
!241 = !{null, !133}
!242 = !DIDerivedType(tag: DW_TAG_pointer_type, baseType: !243, size: 64)
!243 = !DIDerivedType(tag: DW_TAG_const_type, baseType: null)
!244 = !DISubprogram(name: "make", linkageName: "_ZN6Packet4makeEPKvj", scope: !5, file: !4, line: 54, type: !245, isLocal: false, isDefinition: false, scopeLine: 54, flags: DIFlagPublic | DIFlagPrototyped | DIFlagStaticMember, isOptimized: true)
!245 = !DISubroutineType(types: !246)
!246 = !{!133, !242, !12}
!247 = !DISubprogram(name: "make", linkageName: "_ZN6Packet4makeEj", scope: !5, file: !4, line: 55, type: !248, isLocal: false, isDefinition: false, scopeLine: 55, flags: DIFlagPublic | DIFlagPrototyped | DIFlagStaticMember, isOptimized: true)
!248 = !DISubroutineType(types: !249)
!249 = !{!133, !12}
!250 = !DISubprogram(name: "make", linkageName: "_ZN6Packet4makeEPhjPFvS0_mPvES1_ii", scope: !5, file: !4, line: 66, type: !251, isLocal: false, isDefinition: false, scopeLine: 66, flags: DIFlagPublic | DIFlagPrototyped | DIFlagStaticMember, isOptimized: true)
!251 = !DISubroutineType(types: !252)
!252 = !{!133, !76, !12, !122, !128, !30, !30}
!253 = !DISubprogram(name: "static_cleanup", linkageName: "_ZN6Packet14static_cleanupEv", scope: !5, file: !4, line: 71, type: !254, isLocal: false, isDefinition: false, scopeLine: 71, flags: DIFlagPublic | DIFlagPrototyped | DIFlagStaticMember, isOptimized: true)
!254 = !DISubroutineType(types: !255)
!255 = !{null}
!256 = !DISubprogram(name: "kill", linkageName: "_ZN6Packet4killEv", scope: !5, file: !4, line: 73, type: !257, isLocal: false, isDefinition: false, scopeLine: 73, flags: DIFlagPublic | DIFlagPrototyped, isOptimized: true)
!257 = !DISubroutineType(types: !258)
!258 = !{null, !259}
!259 = !DIDerivedType(tag: DW_TAG_pointer_type, baseType: !5, size: 64, flags: DIFlagArtificial | DIFlagObjectPointer)
!260 = !DISubprogram(name: "shared", linkageName: "_ZNK6Packet6sharedEv", scope: !5, file: !4, line: 75, type: !261, isLocal: false, isDefinition: false, scopeLine: 75, flags: DIFlagPublic | DIFlagPrototyped, isOptimized: true)
!261 = !DISubroutineType(types: !262)
!262 = !{!49, !263}
!263 = !DIDerivedType(tag: DW_TAG_pointer_type, baseType: !231, size: 64, flags: DIFlagArtificial | DIFlagObjectPointer)
!264 = !DISubprogram(name: "clone", linkageName: "_ZN6Packet5cloneEv", scope: !5, file: !4, line: 76, type: !265, isLocal: false, isDefinition: false, scopeLine: 76, flags: DIFlagPublic | DIFlagPrototyped, isOptimized: true)
!265 = !DISubroutineType(types: !266)
!266 = !{!74, !259}
!267 = !DISubprogram(name: "uniqueify", linkageName: "_ZN6Packet9uniqueifyEv", scope: !5, file: !4, line: 77, type: !268, isLocal: false, isDefinition: false, scopeLine: 77, flags: DIFlagPublic | DIFlagPrototyped, isOptimized: true)
!268 = !DISubroutineType(types: !269)
!269 = !{!133, !259}
!270 = !DISubprogram(name: "data", linkageName: "_ZNK6Packet4dataEv", scope: !5, file: !4, line: 79, type: !271, isLocal: false, isDefinition: false, scopeLine: 79, flags: DIFlagPublic | DIFlagPrototyped, isOptimized: true)
!271 = !DISubroutineType(types: !272)
!272 = !{!273, !263}
!273 = !DIDerivedType(tag: DW_TAG_pointer_type, baseType: !274, size: 64)
!274 = !DIDerivedType(tag: DW_TAG_const_type, baseType: !77)
!275 = !DISubprogram(name: "end_data", linkageName: "_ZNK6Packet8end_dataEv", scope: !5, file: !4, line: 80, type: !271, isLocal: false, isDefinition: false, scopeLine: 80, flags: DIFlagPublic | DIFlagPrototyped, isOptimized: true)
!276 = !DISubprogram(name: "length", linkageName: "_ZNK6Packet6lengthEv", scope: !5, file: !4, line: 81, type: !277, isLocal: false, isDefinition: false, scopeLine: 81, flags: DIFlagPublic | DIFlagPrototyped, isOptimized: true)
!277 = !DISubroutineType(types: !278)
!278 = !{!12, !263}
!279 = !DISubprogram(name: "headroom", linkageName: "_ZNK6Packet8headroomEv", scope: !5, file: !4, line: 82, type: !277, isLocal: false, isDefinition: false, scopeLine: 82, flags: DIFlagPublic | DIFlagPrototyped, isOptimized: true)
!280 = !DISubprogram(name: "tailroom", linkageName: "_ZNK6Packet8tailroomEv", scope: !5, file: !4, line: 83, type: !277, isLocal: false, isDefinition: false, scopeLine: 83, flags: DIFlagPublic | DIFlagPrototyped, isOptimized: true)
!281 = !DISubprogram(name: "buffer", linkageName: "_ZNK6Packet6bufferEv", scope: !5, file: !4, line: 84, type: !271, isLocal: false, isDefinition: false, scopeLine: 84, flags: DIFlagPublic | DIFlagPrototyped, isOptimized: true)
!282 = !DISubprogram(name: "end_buffer", linkageName: "_ZNK6Packet10end_bufferEv", scope: !5, file: !4, line: 85, type: !271, isLocal: false, isDefinition: false, scopeLine: 85, flags: DIFlagPublic | DIFlagPrototyped, isOptimized: true)
!283 = !DISubprogram(name: "buffer_length", linkageName: "_ZNK6Packet13buffer_lengthEv", scope: !5, file: !4, line: 86, type: !277, isLocal: false, isDefinition: false, scopeLine: 86, flags: DIFlagPublic | DIFlagPrototyped, isOptimized: true)
!284 = !DISubprogram(name: "buffer_destructor", linkageName: "_ZNK6Packet17buffer_destructorEv", scope: !5, file: !4, line: 97, type: !285, isLocal: false, isDefinition: false, scopeLine: 97, flags: DIFlagPublic | DIFlagPrototyped, isOptimized: true)
!285 = !DISubroutineType(types: !286)
!286 = !{!122, !263}
!287 = !DISubprogram(name: "set_buffer_destructor", linkageName: "_ZN6Packet21set_buffer_destructorEPFvPhmPvE", scope: !5, file: !4, line: 101, type: !288, isLocal: false, isDefinition: false, scopeLine: 101, flags: DIFlagPublic | DIFlagPrototyped, isOptimized: true)
!288 = !DISubroutineType(types: !289)
!289 = !{null, !259, !122}
!290 = !DISubprogram(name: "destructor_argument", linkageName: "_ZN6Packet19destructor_argumentEv", scope: !5, file: !4, line: 105, type: !291, isLocal: false, isDefinition: false, scopeLine: 105, flags: DIFlagPublic | DIFlagPrototyped, isOptimized: true)
!291 = !DISubroutineType(types: !292)
!292 = !{!128, !259}
!293 = !DISubprogram(name: "reset_buffer", linkageName: "_ZN6Packet12reset_bufferEv", scope: !5, file: !4, line: 109, type: !257, isLocal: false, isDefinition: false, scopeLine: 109, flags: DIFlagPublic | DIFlagPrototyped, isOptimized: true)
!294 = !DISubprogram(name: "push", linkageName: "_ZN6Packet4pushEj", scope: !5, file: !4, line: 141, type: !295, isLocal: false, isDefinition: false, scopeLine: 141, flags: DIFlagPublic | DIFlagPrototyped, isOptimized: true)
!295 = !DISubroutineType(types: !296)
!296 = !{!133, !259, !12}
!297 = !DISubprogram(name: "push_mac_header", linkageName: "_ZN6Packet15push_mac_headerEj", scope: !5, file: !4, line: 152, type: !295, isLocal: false, isDefinition: false, scopeLine: 152, flags: DIFlagPublic | DIFlagPrototyped, isOptimized: true)
!298 = !DISubprogram(name: "nonunique_push", linkageName: "_ZN6Packet14nonunique_pushEj", scope: !5, file: !4, line: 171, type: !299, isLocal: false, isDefinition: false, scopeLine: 171, flags: DIFlagPublic | DIFlagPrototyped, isOptimized: true)
!299 = !DISubroutineType(types: !300)
!300 = !{!74, !259, !12}
!301 = !DISubprogram(name: "pull", linkageName: "_ZN6Packet4pullEj", scope: !5, file: !4, line: 187, type: !302, isLocal: false, isDefinition: false, scopeLine: 187, flags: DIFlagPublic | DIFlagPrototyped, isOptimized: true)
!302 = !DISubroutineType(types: !303)
!303 = !{null, !259, !12}
!304 = !DISubprogram(name: "put", linkageName: "_ZN6Packet3putEj", scope: !5, file: !4, line: 213, type: !295, isLocal: false, isDefinition: false, scopeLine: 213, flags: DIFlagPublic | DIFlagPrototyped, isOptimized: true)
!305 = !DISubprogram(name: "nonunique_put", linkageName: "_ZN6Packet13nonunique_putEj", scope: !5, file: !4, line: 230, type: !299, isLocal: false, isDefinition: false, scopeLine: 230, flags: DIFlagPublic | DIFlagPrototyped, isOptimized: true)
!306 = !DISubprogram(name: "take", linkageName: "_ZN6Packet4takeEj", scope: !5, file: !4, line: 245, type: !302, isLocal: false, isDefinition: false, scopeLine: 245, flags: DIFlagPublic | DIFlagPrototyped, isOptimized: true)
!307 = !DISubprogram(name: "shift_data", linkageName: "_ZN6Packet10shift_dataEib", scope: !5, file: !4, line: 269, type: !308, isLocal: false, isDefinition: false, scopeLine: 269, flags: DIFlagPublic | DIFlagPrototyped, isOptimized: true)
!308 = !DISubroutineType(types: !309)
!309 = !{!74, !259, !30, !49}
!310 = !DISubprogram(name: "shrink_data", linkageName: "_ZN6Packet11shrink_dataEPKhj", scope: !5, file: !4, line: 271, type: !311, isLocal: false, isDefinition: false, scopeLine: 271, flags: DIFlagPublic | DIFlagPrototyped, isOptimized: true)
!311 = !DISubroutineType(types: !312)
!312 = !{null, !259, !273, !12}
!313 = !DISubprogram(name: "change_headroom_and_length", linkageName: "_ZN6Packet26change_headroom_and_lengthEjj", scope: !5, file: !4, line: 272, type: !314, isLocal: false, isDefinition: false, scopeLine: 272, flags: DIFlagPublic | DIFlagPrototyped, isOptimized: true)
!314 = !DISubroutineType(types: !315)
!315 = !{null, !259, !12, !12}
!316 = !DISubprogram(name: "copy", linkageName: "_ZN6Packet4copyEPS_i", scope: !5, file: !4, line: 274, type: !317, isLocal: false, isDefinition: false, scopeLine: 274, flags: DIFlagPublic | DIFlagPrototyped, isOptimized: true)
!317 = !DISubroutineType(types: !318)
!318 = !{!49, !259, !74, !30}
!319 = !DISubprogram(name: "has_mac_header", linkageName: "_ZNK6Packet14has_mac_headerEv", scope: !5, file: !4, line: 279, type: !261, isLocal: false, isDefinition: false, scopeLine: 279, flags: DIFlagPublic | DIFlagPrototyped, isOptimized: true)
!320 = !DISubprogram(name: "mac_header", linkageName: "_ZNK6Packet10mac_headerEv", scope: !5, file: !4, line: 280, type: !271, isLocal: false, isDefinition: false, scopeLine: 280, flags: DIFlagPublic | DIFlagPrototyped, isOptimized: true)
!321 = !DISubprogram(name: "mac_header_offset", linkageName: "_ZNK6Packet17mac_header_offsetEv", scope: !5, file: !4, line: 281, type: !322, isLocal: false, isDefinition: false, scopeLine: 281, flags: DIFlagPublic | DIFlagPrototyped, isOptimized: true)
!322 = !DISubroutineType(types: !323)
!323 = !{!30, !263}
!324 = !DISubprogram(name: "mac_header_length", linkageName: "_ZNK6Packet17mac_header_lengthEv", scope: !5, file: !4, line: 282, type: !277, isLocal: false, isDefinition: false, scopeLine: 282, flags: DIFlagPublic | DIFlagPrototyped, isOptimized: true)
!325 = !DISubprogram(name: "mac_length", linkageName: "_ZNK6Packet10mac_lengthEv", scope: !5, file: !4, line: 283, type: !322, isLocal: false, isDefinition: false, scopeLine: 283, flags: DIFlagPublic | DIFlagPrototyped, isOptimized: true)
!326 = !DISubprogram(name: "set_mac_header", linkageName: "_ZN6Packet14set_mac_headerEPKh", scope: !5, file: !4, line: 284, type: !327, isLocal: false, isDefinition: false, scopeLine: 284, flags: DIFlagPublic | DIFlagPrototyped, isOptimized: true)
!327 = !DISubroutineType(types: !328)
!328 = !{null, !259, !273}
!329 = !DISubprogram(name: "set_mac_header", linkageName: "_ZN6Packet14set_mac_headerEPKhj", scope: !5, file: !4, line: 285, type: !311, isLocal: false, isDefinition: false, scopeLine: 285, flags: DIFlagPublic | DIFlagPrototyped, isOptimized: true)
!330 = !DISubprogram(name: "clear_mac_header", linkageName: "_ZN6Packet16clear_mac_headerEv", scope: !5, file: !4, line: 286, type: !257, isLocal: false, isDefinition: false, scopeLine: 286, flags: DIFlagPublic | DIFlagPrototyped, isOptimized: true)
!331 = !DISubprogram(name: "has_network_header", linkageName: "_ZNK6Packet18has_network_headerEv", scope: !5, file: !4, line: 288, type: !261, isLocal: false, isDefinition: false, scopeLine: 288, flags: DIFlagPublic | DIFlagPrototyped, isOptimized: true)
!332 = !DISubprogram(name: "network_header", linkageName: "_ZNK6Packet14network_headerEv", scope: !5, file: !4, line: 289, type: !271, isLocal: false, isDefinition: false, scopeLine: 289, flags: DIFlagPublic | DIFlagPrototyped, isOptimized: true)
!333 = !DISubprogram(name: "network_header_offset", linkageName: "_ZNK6Packet21network_header_offsetEv", scope: !5, file: !4, line: 290, type: !322, isLocal: false, isDefinition: false, scopeLine: 290, flags: DIFlagPublic | DIFlagPrototyped, isOptimized: true)
!334 = !DISubprogram(name: "network_header_length", linkageName: "_ZNK6Packet21network_header_lengthEv", scope: !5, file: !4, line: 291, type: !277, isLocal: false, isDefinition: false, scopeLine: 291, flags: DIFlagPublic | DIFlagPrototyped, isOptimized: true)
!335 = !DISubprogram(name: "network_length", linkageName: "_ZNK6Packet14network_lengthEv", scope: !5, file: !4, line: 292, type: !322, isLocal: false, isDefinition: false, scopeLine: 292, flags: DIFlagPublic | DIFlagPrototyped, isOptimized: true)
!336 = !DISubprogram(name: "set_network_header", linkageName: "_ZN6Packet18set_network_headerEPKhj", scope: !5, file: !4, line: 293, type: !311, isLocal: false, isDefinition: false, scopeLine: 293, flags: DIFlagPublic | DIFlagPrototyped, isOptimized: true)
!337 = !DISubprogram(name: "set_network_header_length", linkageName: "_ZN6Packet25set_network_header_lengthEj", scope: !5, file: !4, line: 294, type: !302, isLocal: false, isDefinition: false, scopeLine: 294, flags: DIFlagPublic | DIFlagPrototyped, isOptimized: true)
!338 = !DISubprogram(name: "clear_network_header", linkageName: "_ZN6Packet20clear_network_headerEv", scope: !5, file: !4, line: 295, type: !257, isLocal: false, isDefinition: false, scopeLine: 295, flags: DIFlagPublic | DIFlagPrototyped, isOptimized: true)
!339 = !DISubprogram(name: "has_transport_header", linkageName: "_ZNK6Packet20has_transport_headerEv", scope: !5, file: !4, line: 297, type: !261, isLocal: false, isDefinition: false, scopeLine: 297, flags: DIFlagPublic | DIFlagPrototyped, isOptimized: true)
!340 = !DISubprogram(name: "transport_header", linkageName: "_ZNK6Packet16transport_headerEv", scope: !5, file: !4, line: 298, type: !271, isLocal: false, isDefinition: false, scopeLine: 298, flags: DIFlagPublic | DIFlagPrototyped, isOptimized: true)
!341 = !DISubprogram(name: "transport_header_offset", linkageName: "_ZNK6Packet23transport_header_offsetEv", scope: !5, file: !4, line: 299, type: !322, isLocal: false, isDefinition: false, scopeLine: 299, flags: DIFlagPublic | DIFlagPrototyped, isOptimized: true)
!342 = !DISubprogram(name: "transport_length", linkageName: "_ZNK6Packet16transport_lengthEv", scope: !5, file: !4, line: 300, type: !322, isLocal: false, isDefinition: false, scopeLine: 300, flags: DIFlagPublic | DIFlagPrototyped, isOptimized: true)
!343 = !DISubprogram(name: "clear_transport_header", linkageName: "_ZN6Packet22clear_transport_headerEv", scope: !5, file: !4, line: 301, type: !257, isLocal: false, isDefinition: false, scopeLine: 301, flags: DIFlagPublic | DIFlagPrototyped, isOptimized: true)
!344 = !DISubprogram(name: "ether_header", linkageName: "_ZNK6Packet12ether_headerEv", scope: !5, file: !4, line: 304, type: !345, isLocal: false, isDefinition: false, scopeLine: 304, flags: DIFlagPublic | DIFlagPrototyped, isOptimized: true)
!345 = !DISubroutineType(types: !346)
!346 = !{!347, !263}
!347 = !DIDerivedType(tag: DW_TAG_pointer_type, baseType: !348, size: 64)
!348 = !DIDerivedType(tag: DW_TAG_const_type, baseType: !150)
!349 = !DISubprogram(name: "set_ether_header", linkageName: "_ZN6Packet16set_ether_headerEPK11click_ether", scope: !5, file: !4, line: 305, type: !350, isLocal: false, isDefinition: false, scopeLine: 305, flags: DIFlagPublic | DIFlagPrototyped, isOptimized: true)
!350 = !DISubroutineType(types: !351)
!351 = !{null, !259, !347}
!352 = !DISubprogram(name: "ip_header", linkageName: "_ZNK6Packet9ip_headerEv", scope: !5, file: !4, line: 307, type: !353, isLocal: false, isDefinition: false, scopeLine: 307, flags: DIFlagPublic | DIFlagPrototyped, isOptimized: true)
!353 = !DISubroutineType(types: !354)
!354 = !{!355, !263}
!355 = !DIDerivedType(tag: DW_TAG_pointer_type, baseType: !356, size: 64)
!356 = !DIDerivedType(tag: DW_TAG_const_type, baseType: !156)
!357 = !DISubprogram(name: "ip_header_offset", linkageName: "_ZNK6Packet16ip_header_offsetEv", scope: !5, file: !4, line: 308, type: !322, isLocal: false, isDefinition: false, scopeLine: 308, flags: DIFlagPublic | DIFlagPrototyped, isOptimized: true)
!358 = !DISubprogram(name: "ip_header_length", linkageName: "_ZNK6Packet16ip_header_lengthEv", scope: !5, file: !4, line: 309, type: !277, isLocal: false, isDefinition: false, scopeLine: 309, flags: DIFlagPublic | DIFlagPrototyped, isOptimized: true)
!359 = !DISubprogram(name: "set_ip_header", linkageName: "_ZN6Packet13set_ip_headerEPK8click_ipj", scope: !5, file: !4, line: 310, type: !360, isLocal: false, isDefinition: false, scopeLine: 310, flags: DIFlagPublic | DIFlagPrototyped, isOptimized: true)
!360 = !DISubroutineType(types: !361)
!361 = !{null, !259, !355, !12}
!362 = !DISubprogram(name: "ip6_header", linkageName: "_ZNK6Packet10ip6_headerEv", scope: !5, file: !4, line: 312, type: !363, isLocal: false, isDefinition: false, scopeLine: 312, flags: DIFlagPublic | DIFlagPrototyped, isOptimized: true)
!363 = !DISubroutineType(types: !364)
!364 = !{!365, !263}
!365 = !DIDerivedType(tag: DW_TAG_pointer_type, baseType: !366, size: 64)
!366 = !DIDerivedType(tag: DW_TAG_const_type, baseType: !179)
!367 = !DISubprogram(name: "ip6_header_offset", linkageName: "_ZNK6Packet17ip6_header_offsetEv", scope: !5, file: !4, line: 313, type: !322, isLocal: false, isDefinition: false, scopeLine: 313, flags: DIFlagPublic | DIFlagPrototyped, isOptimized: true)
!368 = !DISubprogram(name: "ip6_header_length", linkageName: "_ZNK6Packet17ip6_header_lengthEv", scope: !5, file: !4, line: 314, type: !277, isLocal: false, isDefinition: false, scopeLine: 314, flags: DIFlagPublic | DIFlagPrototyped, isOptimized: true)
!369 = !DISubprogram(name: "set_ip6_header", linkageName: "_ZN6Packet14set_ip6_headerEPK9click_ip6", scope: !5, file: !4, line: 315, type: !370, isLocal: false, isDefinition: false, scopeLine: 315, flags: DIFlagPublic | DIFlagPrototyped, isOptimized: true)
!370 = !DISubroutineType(types: !371)
!371 = !{null, !259, !365}
!372 = !DISubprogram(name: "set_ip6_header", linkageName: "_ZN6Packet14set_ip6_headerEPK9click_ip6j", scope: !5, file: !4, line: 316, type: !373, isLocal: false, isDefinition: false, scopeLine: 316, flags: DIFlagPublic | DIFlagPrototyped, isOptimized: true)
!373 = !DISubroutineType(types: !374)
!374 = !{null, !259, !365, !12}
!375 = !DISubprogram(name: "icmp_header", linkageName: "_ZNK6Packet11icmp_headerEv", scope: !5, file: !4, line: 318, type: !376, isLocal: false, isDefinition: false, scopeLine: 318, flags: DIFlagPublic | DIFlagPrototyped, isOptimized: true)
!376 = !DISubroutineType(types: !377)
!377 = !{!378, !263}
!378 = !DIDerivedType(tag: DW_TAG_pointer_type, baseType: !379, size: 64)
!379 = !DIDerivedType(tag: DW_TAG_const_type, baseType: !185)
!380 = !DISubprogram(name: "tcp_header", linkageName: "_ZNK6Packet10tcp_headerEv", scope: !5, file: !4, line: 319, type: !381, isLocal: false, isDefinition: false, scopeLine: 319, flags: DIFlagPublic | DIFlagPrototyped, isOptimized: true)
!381 = !DISubroutineType(types: !382)
!382 = !{!383, !263}
!383 = !DIDerivedType(tag: DW_TAG_pointer_type, baseType: !384, size: 64)
!384 = !DIDerivedType(tag: DW_TAG_const_type, baseType: !196)
!385 = !DISubprogram(name: "udp_header", linkageName: "_ZNK6Packet10udp_headerEv", scope: !5, file: !4, line: 320, type: !386, isLocal: false, isDefinition: false, scopeLine: 320, flags: DIFlagPublic | DIFlagPrototyped, isOptimized: true)
!386 = !DISubroutineType(types: !387)
!387 = !{!388, !263}
!388 = !DIDerivedType(tag: DW_TAG_pointer_type, baseType: !389, size: 64)
!389 = !DIDerivedType(tag: DW_TAG_const_type, baseType: !214)
!390 = !DISubprogram(name: "xanno", linkageName: "_ZNK6Packet5xannoEv", scope: !5, file: !4, line: 340, type: !391, isLocal: false, isDefinition: false, scopeLine: 340, flags: DIFlagPrototyped, isOptimized: true)
!391 = !DISubroutineType(types: !392)
!392 = !{!393, !263}
!393 = !DIDerivedType(tag: DW_TAG_pointer_type, baseType: !394, size: 64)
!394 = !DIDerivedType(tag: DW_TAG_const_type, baseType: !85)
!395 = !DISubprogram(name: "xanno", linkageName: "_ZN6Packet5xannoEv", scope: !5, file: !4, line: 341, type: !396, isLocal: false, isDefinition: false, scopeLine: 341, flags: DIFlagPrototyped, isOptimized: true)
!396 = !DISubroutineType(types: !397)
!397 = !{!398, !259}
!398 = !DIDerivedType(tag: DW_TAG_pointer_type, baseType: !85, size: 64)
!399 = !DISubprogram(name: "timestamp_anno", linkageName: "_ZNK6Packet14timestamp_annoEv", scope: !5, file: !4, line: 354, type: !400, isLocal: false, isDefinition: false, scopeLine: 354, flags: DIFlagPublic | DIFlagPrototyped, isOptimized: true)
!400 = !DISubroutineType(types: !401)
!401 = !{!402, !263}
!402 = !DIDerivedType(tag: DW_TAG_reference_type, baseType: !403, size: 64)
!403 = !DIDerivedType(tag: DW_TAG_const_type, baseType: !404)
!404 = distinct !DICompositeType(tag: DW_TAG_class_type, name: "Timestamp", file: !405, line: 122, size: 64, elements: !406, identifier: "_ZTS9Timestamp")
!405 = !DIFile(filename: "/usr/local/include/click/timestamp.hh", directory: "/home/jiarong/multi_thread_train/compute_prediction/c_packetprocessing/apps/env")
!406 = !{!407, !413, !417, !420, !423, !426, !429, !433, !446, !457, !462, !471, !480, !483, !484, !487, !488, !489, !490, !493, !496, !497, !498, !499, !502, !503, !506, !509, !513, !514, !515, !518, !519, !520, !525, !529, !532, !535, !538, !541, !542, !543, !544, !545, !548, !549, !552, !553, !554, !555, !556, !557, !558, !561, !562, !563, !564, !565, !566, !567, !568, !569, !859, !860, !863, !864, !865, !866, !867, !868, !869, !872, !881, !884, !885, !888, !891, !892, !893, !894, !895, !896, !897, !900, !904, !907, !910, !913}
!407 = !DIDerivedType(tag: DW_TAG_member, name: "_t", scope: !404, file: !405, line: 672, baseType: !408, size: 64)
!408 = distinct !DICompositeType(tag: DW_TAG_union_type, name: "rep_t", scope: !404, file: !405, line: 539, size: 64, elements: !409, identifier: "_ZTSN9Timestamp5rep_tE")
!409 = !{!410}
!410 = !DIDerivedType(tag: DW_TAG_member, name: "x", scope: !408, file: !405, line: 541, baseType: !411, size: 64)
!411 = !DIDerivedType(tag: DW_TAG_typedef, name: "int64_t", file: !13, line: 40, baseType: !412)
!412 = !DIBasicType(name: "long int", size: 64, encoding: DW_ATE_signed)
!413 = !DISubprogram(name: "Timestamp", scope: !404, file: !405, line: 174, type: !414, isLocal: false, isDefinition: false, scopeLine: 174, flags: DIFlagPublic | DIFlagPrototyped, isOptimized: true)
!414 = !DISubroutineType(types: !415)
!415 = !{null, !416}
!416 = !DIDerivedType(tag: DW_TAG_pointer_type, baseType: !404, size: 64, flags: DIFlagArtificial | DIFlagObjectPointer)
!417 = !DISubprogram(name: "Timestamp", scope: !404, file: !405, line: 187, type: !418, isLocal: false, isDefinition: false, scopeLine: 187, flags: DIFlagPublic | DIFlagExplicit | DIFlagPrototyped, isOptimized: true)
!418 = !DISubroutineType(types: !419)
!419 = !{null, !416, !412, !12}
!420 = !DISubprogram(name: "Timestamp", scope: !404, file: !405, line: 191, type: !421, isLocal: false, isDefinition: false, scopeLine: 191, flags: DIFlagPublic | DIFlagExplicit | DIFlagPrototyped, isOptimized: true)
!421 = !DISubroutineType(types: !422)
!422 = !{null, !416, !30, !12}
!423 = !DISubprogram(name: "Timestamp", scope: !404, file: !405, line: 195, type: !424, isLocal: false, isDefinition: false, scopeLine: 195, flags: DIFlagPublic | DIFlagExplicit | DIFlagPrototyped, isOptimized: true)
!424 = !DISubroutineType(types: !425)
!425 = !{null, !416, !108, !12}
!426 = !DISubprogram(name: "Timestamp", scope: !404, file: !405, line: 199, type: !427, isLocal: false, isDefinition: false, scopeLine: 199, flags: DIFlagPublic | DIFlagExplicit | DIFlagPrototyped, isOptimized: true)
!427 = !DISubroutineType(types: !428)
!428 = !{null, !416, !14, !12}
!429 = !DISubprogram(name: "Timestamp", scope: !404, file: !405, line: 203, type: !430, isLocal: false, isDefinition: false, scopeLine: 203, flags: DIFlagPublic | DIFlagExplicit | DIFlagPrototyped, isOptimized: true)
!430 = !DISubroutineType(types: !431)
!431 = !{null, !416, !432}
!432 = !DIBasicType(name: "double", size: 64, encoding: DW_ATE_float)
!433 = !DISubprogram(name: "Timestamp", scope: !404, file: !405, line: 206, type: !434, isLocal: false, isDefinition: false, scopeLine: 206, flags: DIFlagPublic | DIFlagPrototyped, isOptimized: true)
!434 = !DISubroutineType(types: !435)
!435 = !{null, !416, !436}
!436 = !DIDerivedType(tag: DW_TAG_reference_type, baseType: !437, size: 64)
!437 = !DIDerivedType(tag: DW_TAG_const_type, baseType: !438)
!438 = distinct !DICompositeType(tag: DW_TAG_structure_type, name: "timeval", file: !439, line: 30, size: 128, elements: !440, identifier: "_ZTS7timeval")
!439 = !DIFile(filename: "/usr/include/x86_64-linux-gnu/bits/time.h", directory: "/home/jiarong/multi_thread_train/compute_prediction/c_packetprocessing/apps/env")
!440 = !{!441, !444}
!441 = !DIDerivedType(tag: DW_TAG_member, name: "tv_sec", scope: !438, file: !439, line: 32, baseType: !442, size: 64)
!442 = !DIDerivedType(tag: DW_TAG_typedef, name: "__time_t", file: !443, line: 139, baseType: !412)
!443 = !DIFile(filename: "/usr/include/x86_64-linux-gnu/bits/types.h", directory: "/home/jiarong/multi_thread_train/compute_prediction/c_packetprocessing/apps/env")
!444 = !DIDerivedType(tag: DW_TAG_member, name: "tv_usec", scope: !438, file: !439, line: 33, baseType: !445, size: 64, offset: 64)
!445 = !DIDerivedType(tag: DW_TAG_typedef, name: "__suseconds_t", file: !443, line: 141, baseType: !412)
!446 = !DISubprogram(name: "Timestamp", scope: !404, file: !405, line: 208, type: !447, isLocal: false, isDefinition: false, scopeLine: 208, flags: DIFlagPublic | DIFlagPrototyped, isOptimized: true)
!447 = !DISubroutineType(types: !448)
!448 = !{null, !416, !449}
!449 = !DIDerivedType(tag: DW_TAG_reference_type, baseType: !450, size: 64)
!450 = !DIDerivedType(tag: DW_TAG_const_type, baseType: !451)
!451 = distinct !DICompositeType(tag: DW_TAG_structure_type, name: "timespec", file: !452, line: 120, size: 128, elements: !453, identifier: "_ZTS8timespec")
!452 = !DIFile(filename: "/usr/include/time.h", directory: "/home/jiarong/multi_thread_train/compute_prediction/c_packetprocessing/apps/env")
!453 = !{!454, !455}
!454 = !DIDerivedType(tag: DW_TAG_member, name: "tv_sec", scope: !451, file: !452, line: 122, baseType: !442, size: 64)
!455 = !DIDerivedType(tag: DW_TAG_member, name: "tv_nsec", scope: !451, file: !452, line: 123, baseType: !456, size: 64, offset: 64)
!456 = !DIDerivedType(tag: DW_TAG_typedef, name: "__syscall_slong_t", file: !443, line: 175, baseType: !412)
!457 = !DISubprogram(name: "Timestamp", scope: !404, file: !405, line: 212, type: !458, isLocal: false, isDefinition: false, scopeLine: 212, flags: DIFlagPublic | DIFlagPrototyped, isOptimized: true)
!458 = !DISubroutineType(types: !459)
!459 = !{null, !416, !460}
!460 = !DIDerivedType(tag: DW_TAG_reference_type, baseType: !461, size: 64)
!461 = !DIDerivedType(tag: DW_TAG_const_type, baseType: !408)
!462 = !DISubprogram(name: "Timestamp", scope: !404, file: !405, line: 217, type: !463, isLocal: false, isDefinition: false, scopeLine: 217, flags: DIFlagPublic | DIFlagPrototyped, isOptimized: true)
!463 = !DISubroutineType(types: !464)
!464 = !{null, !416, !465}
!465 = !DIDerivedType(tag: DW_TAG_reference_type, baseType: !466, size: 64)
!466 = !DIDerivedType(tag: DW_TAG_const_type, baseType: !467)
!467 = !DIDerivedType(tag: DW_TAG_typedef, name: "uninitialized_t", scope: !404, file: !405, line: 168, baseType: !468)
!468 = distinct !DICompositeType(tag: DW_TAG_structure_type, name: "uninitialized_type", file: !469, line: 317, size: 8, elements: !470, identifier: "_ZTS18uninitialized_type")
!469 = !DIFile(filename: "/usr/local/include/click/config.h", directory: "/home/jiarong/multi_thread_train/compute_prediction/c_packetprocessing/apps/env")
!470 = !{}
!471 = !DISubprogram(name: "operator int (Timestamp::*)() const", linkageName: "_ZNK9TimestampcvMS_KFivEEv", scope: !404, file: !405, line: 222, type: !472, isLocal: false, isDefinition: false, scopeLine: 222, flags: DIFlagPublic | DIFlagPrototyped, isOptimized: true)
!472 = !DISubroutineType(types: !473)
!473 = !{!474, !479}
!474 = !DIDerivedType(tag: DW_TAG_typedef, name: "unspecified_bool_type", scope: !404, file: !405, line: 221, baseType: !475)
!475 = !DIDerivedType(tag: DW_TAG_ptr_to_member_type, baseType: !476, size: 128, extraData: !404)
!476 = !DISubroutineType(types: !477)
!477 = !{!478, !479}
!478 = !DIDerivedType(tag: DW_TAG_typedef, name: "seconds_type", scope: !404, file: !405, line: 125, baseType: !29)
!479 = !DIDerivedType(tag: DW_TAG_pointer_type, baseType: !403, size: 64, flags: DIFlagArtificial | DIFlagObjectPointer)
!480 = !DISubprogram(name: "is_negative", linkageName: "_ZNK9Timestamp11is_negativeEv", scope: !404, file: !405, line: 225, type: !481, isLocal: false, isDefinition: false, scopeLine: 225, flags: DIFlagPublic | DIFlagPrototyped, isOptimized: true)
!481 = !DISubroutineType(types: !482)
!482 = !{!49, !479}
!483 = !DISubprogram(name: "sec", linkageName: "_ZNK9Timestamp3secEv", scope: !404, file: !405, line: 233, type: !476, isLocal: false, isDefinition: false, scopeLine: 233, flags: DIFlagPublic | DIFlagPrototyped, isOptimized: true)
!484 = !DISubprogram(name: "subsec", linkageName: "_ZNK9Timestamp6subsecEv", scope: !404, file: !405, line: 234, type: !485, isLocal: false, isDefinition: false, scopeLine: 234, flags: DIFlagPublic | DIFlagPrototyped, isOptimized: true)
!485 = !DISubroutineType(types: !486)
!486 = !{!12, !479}
!487 = !DISubprogram(name: "msec", linkageName: "_ZNK9Timestamp4msecEv", scope: !404, file: !405, line: 235, type: !485, isLocal: false, isDefinition: false, scopeLine: 235, flags: DIFlagPublic | DIFlagPrototyped, isOptimized: true)
!488 = !DISubprogram(name: "usec", linkageName: "_ZNK9Timestamp4usecEv", scope: !404, file: !405, line: 236, type: !485, isLocal: false, isDefinition: false, scopeLine: 236, flags: DIFlagPublic | DIFlagPrototyped, isOptimized: true)
!489 = !DISubprogram(name: "nsec", linkageName: "_ZNK9Timestamp4nsecEv", scope: !404, file: !405, line: 237, type: !485, isLocal: false, isDefinition: false, scopeLine: 237, flags: DIFlagPublic | DIFlagPrototyped, isOptimized: true)
!490 = !DISubprogram(name: "set_sec", linkageName: "_ZN9Timestamp7set_secEi", scope: !404, file: !405, line: 239, type: !491, isLocal: false, isDefinition: false, scopeLine: 239, flags: DIFlagPublic | DIFlagPrototyped, isOptimized: true)
!491 = !DISubroutineType(types: !492)
!492 = !{null, !416, !478}
!493 = !DISubprogram(name: "set_subsec", linkageName: "_ZN9Timestamp10set_subsecEj", scope: !404, file: !405, line: 240, type: !494, isLocal: false, isDefinition: false, scopeLine: 240, flags: DIFlagPublic | DIFlagPrototyped, isOptimized: true)
!494 = !DISubroutineType(types: !495)
!495 = !{null, !416, !12}
!496 = !DISubprogram(name: "msec1", linkageName: "_ZNK9Timestamp5msec1Ev", scope: !404, file: !405, line: 242, type: !476, isLocal: false, isDefinition: false, scopeLine: 242, flags: DIFlagPublic | DIFlagPrototyped, isOptimized: true)
!497 = !DISubprogram(name: "usec1", linkageName: "_ZNK9Timestamp5usec1Ev", scope: !404, file: !405, line: 243, type: !476, isLocal: false, isDefinition: false, scopeLine: 243, flags: DIFlagPublic | DIFlagPrototyped, isOptimized: true)
!498 = !DISubprogram(name: "nsec1", linkageName: "_ZNK9Timestamp5nsec1Ev", scope: !404, file: !405, line: 244, type: !476, isLocal: false, isDefinition: false, scopeLine: 244, flags: DIFlagPublic | DIFlagPrototyped, isOptimized: true)
!499 = !DISubprogram(name: "timeval", linkageName: "_ZNK9Timestamp7timevalEv", scope: !404, file: !405, line: 250, type: !500, isLocal: false, isDefinition: false, scopeLine: 250, flags: DIFlagPublic | DIFlagPrototyped, isOptimized: true)
!500 = !DISubroutineType(types: !501)
!501 = !{!438, !479}
!502 = !DISubprogram(name: "timeval_ceil", linkageName: "_ZNK9Timestamp12timeval_ceilEv", scope: !404, file: !405, line: 251, type: !500, isLocal: false, isDefinition: false, scopeLine: 251, flags: DIFlagPublic | DIFlagPrototyped, isOptimized: true)
!503 = !DISubprogram(name: "timespec", linkageName: "_ZNK9Timestamp8timespecEv", scope: !404, file: !405, line: 257, type: !504, isLocal: false, isDefinition: false, scopeLine: 257, flags: DIFlagPublic | DIFlagPrototyped, isOptimized: true)
!504 = !DISubroutineType(types: !505)
!505 = !{!451, !479}
!506 = !DISubprogram(name: "doubleval", linkageName: "_ZNK9Timestamp9doublevalEv", scope: !404, file: !405, line: 262, type: !507, isLocal: false, isDefinition: false, scopeLine: 262, flags: DIFlagPublic | DIFlagPrototyped, isOptimized: true)
!507 = !DISubroutineType(types: !508)
!508 = !{!432, !479}
!509 = !DISubprogram(name: "msecval", linkageName: "_ZNK9Timestamp7msecvalEv", scope: !404, file: !405, line: 265, type: !510, isLocal: false, isDefinition: false, scopeLine: 265, flags: DIFlagPublic | DIFlagPrototyped, isOptimized: true)
!510 = !DISubroutineType(types: !511)
!511 = !{!512, !479}
!512 = !DIDerivedType(tag: DW_TAG_typedef, name: "value_type", scope: !404, file: !405, line: 128, baseType: !411)
!513 = !DISubprogram(name: "usecval", linkageName: "_ZNK9Timestamp7usecvalEv", scope: !404, file: !405, line: 273, type: !510, isLocal: false, isDefinition: false, scopeLine: 273, flags: DIFlagPublic | DIFlagPrototyped, isOptimized: true)
!514 = !DISubprogram(name: "nsecval", linkageName: "_ZNK9Timestamp7nsecvalEv", scope: !404, file: !405, line: 281, type: !510, isLocal: false, isDefinition: false, scopeLine: 281, flags: DIFlagPublic | DIFlagPrototyped, isOptimized: true)
!515 = !DISubprogram(name: "msec_ceil", linkageName: "_ZNK9Timestamp9msec_ceilEv", scope: !404, file: !405, line: 290, type: !516, isLocal: false, isDefinition: false, scopeLine: 290, flags: DIFlagPublic | DIFlagPrototyped, isOptimized: true)
!516 = !DISubroutineType(types: !517)
!517 = !{!404, !479}
!518 = !DISubprogram(name: "usec_ceil", linkageName: "_ZNK9Timestamp9usec_ceilEv", scope: !404, file: !405, line: 295, type: !516, isLocal: false, isDefinition: false, scopeLine: 295, flags: DIFlagPublic | DIFlagPrototyped, isOptimized: true)
!519 = !DISubprogram(name: "nsec_ceil", linkageName: "_ZNK9Timestamp9nsec_ceilEv", scope: !404, file: !405, line: 304, type: !516, isLocal: false, isDefinition: false, scopeLine: 304, flags: DIFlagPublic | DIFlagPrototyped, isOptimized: true)
!520 = !DISubprogram(name: "make_jiffies", linkageName: "_ZN9Timestamp12make_jiffiesEj", scope: !404, file: !405, line: 310, type: !521, isLocal: false, isDefinition: false, scopeLine: 310, flags: DIFlagPublic | DIFlagPrototyped | DIFlagStaticMember, isOptimized: true)
!521 = !DISubroutineType(types: !522)
!522 = !{!404, !523}
!523 = !DIDerivedType(tag: DW_TAG_typedef, name: "click_jiffies_t", file: !524, line: 477, baseType: !14)
!524 = !DIFile(filename: "/usr/local/include/click/glue.hh", directory: "/home/jiarong/multi_thread_train/compute_prediction/c_packetprocessing/apps/env")
!525 = !DISubprogram(name: "make_jiffies", linkageName: "_ZN9Timestamp12make_jiffiesEi", scope: !404, file: !405, line: 312, type: !526, isLocal: false, isDefinition: false, scopeLine: 312, flags: DIFlagPublic | DIFlagPrototyped | DIFlagStaticMember, isOptimized: true)
!526 = !DISubroutineType(types: !527)
!527 = !{!404, !528}
!528 = !DIDerivedType(tag: DW_TAG_typedef, name: "click_jiffies_difference_t", file: !524, line: 478, baseType: !30)
!529 = !DISubprogram(name: "jiffies", linkageName: "_ZNK9Timestamp7jiffiesEv", scope: !404, file: !405, line: 314, type: !530, isLocal: false, isDefinition: false, scopeLine: 314, flags: DIFlagPublic | DIFlagPrototyped, isOptimized: true)
!530 = !DISubroutineType(types: !531)
!531 = !{!523, !479}
!532 = !DISubprogram(name: "make_sec", linkageName: "_ZN9Timestamp8make_secEi", scope: !404, file: !405, line: 318, type: !533, isLocal: false, isDefinition: false, scopeLine: 318, flags: DIFlagPublic | DIFlagPrototyped | DIFlagStaticMember, isOptimized: true)
!533 = !DISubroutineType(types: !534)
!534 = !{!404, !478}
!535 = !DISubprogram(name: "make_msec", linkageName: "_ZN9Timestamp9make_msecEij", scope: !404, file: !405, line: 324, type: !536, isLocal: false, isDefinition: false, scopeLine: 324, flags: DIFlagPublic | DIFlagPrototyped | DIFlagStaticMember, isOptimized: true)
!536 = !DISubroutineType(types: !537)
!537 = !{!404, !478, !12}
!538 = !DISubprogram(name: "make_msec", linkageName: "_ZN9Timestamp9make_msecEl", scope: !404, file: !405, line: 328, type: !539, isLocal: false, isDefinition: false, scopeLine: 328, flags: DIFlagPublic | DIFlagPrototyped | DIFlagStaticMember, isOptimized: true)
!539 = !DISubroutineType(types: !540)
!540 = !{!404, !512}
!541 = !DISubprogram(name: "make_usec", linkageName: "_ZN9Timestamp9make_usecEij", scope: !404, file: !405, line: 341, type: !536, isLocal: false, isDefinition: false, scopeLine: 341, flags: DIFlagPublic | DIFlagPrototyped | DIFlagStaticMember, isOptimized: true)
!542 = !DISubprogram(name: "make_usec", linkageName: "_ZN9Timestamp9make_usecEl", scope: !404, file: !405, line: 345, type: !539, isLocal: false, isDefinition: false, scopeLine: 345, flags: DIFlagPublic | DIFlagPrototyped | DIFlagStaticMember, isOptimized: true)
!543 = !DISubprogram(name: "make_nsec", linkageName: "_ZN9Timestamp9make_nsecEij", scope: !404, file: !405, line: 358, type: !536, isLocal: false, isDefinition: false, scopeLine: 358, flags: DIFlagPublic | DIFlagPrototyped | DIFlagStaticMember, isOptimized: true)
!544 = !DISubprogram(name: "make_nsec", linkageName: "_ZN9Timestamp9make_nsecEl", scope: !404, file: !405, line: 362, type: !539, isLocal: false, isDefinition: false, scopeLine: 362, flags: DIFlagPublic | DIFlagPrototyped | DIFlagStaticMember, isOptimized: true)
!545 = !DISubprogram(name: "epsilon", linkageName: "_ZN9Timestamp7epsilonEv", scope: !404, file: !405, line: 375, type: !546, isLocal: false, isDefinition: false, scopeLine: 375, flags: DIFlagPublic | DIFlagPrototyped | DIFlagStaticMember, isOptimized: true)
!546 = !DISubroutineType(types: !547)
!547 = !{!404}
!548 = !DISubprogram(name: "clear", linkageName: "_ZN9Timestamp5clearEv", scope: !404, file: !405, line: 380, type: !414, isLocal: false, isDefinition: false, scopeLine: 380, flags: DIFlagPublic | DIFlagPrototyped, isOptimized: true)
!549 = !DISubprogram(name: "assign", linkageName: "_ZN9Timestamp6assignEij", scope: !404, file: !405, line: 388, type: !550, isLocal: false, isDefinition: false, scopeLine: 388, flags: DIFlagPublic | DIFlagPrototyped, isOptimized: true)
!550 = !DISubroutineType(types: !551)
!551 = !{null, !416, !478, !12}
!552 = !DISubprogram(name: "assign_usec", linkageName: "_ZN9Timestamp11assign_usecEij", scope: !404, file: !405, line: 397, type: !550, isLocal: false, isDefinition: false, scopeLine: 397, flags: DIFlagPublic | DIFlagPrototyped, isOptimized: true)
!553 = !DISubprogram(name: "assign_nsec", linkageName: "_ZN9Timestamp11assign_nsecEij", scope: !404, file: !405, line: 401, type: !550, isLocal: false, isDefinition: false, scopeLine: 401, flags: DIFlagPublic | DIFlagPrototyped, isOptimized: true)
!554 = !DISubprogram(name: "set", linkageName: "_ZN9Timestamp3setEij", scope: !404, file: !405, line: 408, type: !550, isLocal: false, isDefinition: false, scopeLine: 408, flags: DIFlagPublic | DIFlagPrototyped, isOptimized: true)
!555 = !DISubprogram(name: "set_usec", linkageName: "_ZN9Timestamp8set_usecEij", scope: !404, file: !405, line: 411, type: !550, isLocal: false, isDefinition: false, scopeLine: 411, flags: DIFlagPublic | DIFlagPrototyped, isOptimized: true)
!556 = !DISubprogram(name: "set_nsec", linkageName: "_ZN9Timestamp8set_nsecEij", scope: !404, file: !405, line: 414, type: !550, isLocal: false, isDefinition: false, scopeLine: 414, flags: DIFlagPublic | DIFlagPrototyped, isOptimized: true)
!557 = !DISubprogram(name: "set_now", linkageName: "_ZN9Timestamp7set_nowEv", scope: !404, file: !405, line: 417, type: !414, isLocal: false, isDefinition: false, scopeLine: 417, flags: DIFlagPublic | DIFlagPrototyped, isOptimized: true)
!558 = !DISubprogram(name: "set_timeval_ioctl", linkageName: "_ZN9Timestamp17set_timeval_ioctlEii", scope: !404, file: !405, line: 420, type: !559, isLocal: false, isDefinition: false, scopeLine: 420, flags: DIFlagPublic | DIFlagPrototyped, isOptimized: true)
!559 = !DISubroutineType(types: !560)
!560 = !{!30, !416, !30, !30}
!561 = !DISubprogram(name: "now", linkageName: "_ZN9Timestamp3nowEv", scope: !404, file: !405, line: 432, type: !546, isLocal: false, isDefinition: false, scopeLine: 432, flags: DIFlagPublic | DIFlagPrototyped | DIFlagStaticMember, isOptimized: true)
!562 = !DISubprogram(name: "assign_now", linkageName: "_ZN9Timestamp10assign_nowEv", scope: !404, file: !405, line: 438, type: !414, isLocal: false, isDefinition: false, scopeLine: 438, flags: DIFlagPublic | DIFlagPrototyped, isOptimized: true)
!563 = !DISubprogram(name: "recent", linkageName: "_ZN9Timestamp6recentEv", scope: !404, file: !405, line: 446, type: !546, isLocal: false, isDefinition: false, scopeLine: 446, flags: DIFlagPublic | DIFlagPrototyped | DIFlagStaticMember, isOptimized: true)
!564 = !DISubprogram(name: "assign_recent", linkageName: "_ZN9Timestamp13assign_recentEv", scope: !404, file: !405, line: 452, type: !414, isLocal: false, isDefinition: false, scopeLine: 452, flags: DIFlagPublic | DIFlagPrototyped, isOptimized: true)
!565 = !DISubprogram(name: "now_steady", linkageName: "_ZN9Timestamp10now_steadyEv", scope: !404, file: !405, line: 466, type: !546, isLocal: false, isDefinition: false, scopeLine: 466, flags: DIFlagPublic | DIFlagPrototyped | DIFlagStaticMember, isOptimized: true)
!566 = !DISubprogram(name: "assign_now_steady", linkageName: "_ZN9Timestamp17assign_now_steadyEv", scope: !404, file: !405, line: 472, type: !414, isLocal: false, isDefinition: false, scopeLine: 472, flags: DIFlagPublic | DIFlagPrototyped, isOptimized: true)
!567 = !DISubprogram(name: "recent_steady", linkageName: "_ZN9Timestamp13recent_steadyEv", scope: !404, file: !405, line: 481, type: !546, isLocal: false, isDefinition: false, scopeLine: 481, flags: DIFlagPublic | DIFlagPrototyped | DIFlagStaticMember, isOptimized: true)
!568 = !DISubprogram(name: "assign_recent_steady", linkageName: "_ZN9Timestamp20assign_recent_steadyEv", scope: !404, file: !405, line: 487, type: !414, isLocal: false, isDefinition: false, scopeLine: 487, flags: DIFlagPublic | DIFlagPrototyped, isOptimized: true)
!569 = !DISubprogram(name: "unparse", linkageName: "_ZNK9Timestamp7unparseEv", scope: !404, file: !405, line: 496, type: !570, isLocal: false, isDefinition: false, scopeLine: 496, flags: DIFlagPublic | DIFlagPrototyped, isOptimized: true)
!570 = !DISubroutineType(types: !571)
!571 = !{!572, !479}
!572 = distinct !DICompositeType(tag: DW_TAG_class_type, name: "String", file: !573, line: 18, size: 192, elements: !574, identifier: "_ZTS6String")
!573 = !DIFile(filename: "/usr/local/include/click/string.hh", directory: "/home/jiarong/multi_thread_train/compute_prediction/c_packetprocessing/apps/env")
!574 = !{!575, !580, !594, !595, !599, !603, !605, !606, !610, !615, !619, !622, !625, !628, !631, !634, !637, !640, !643, !646, !649, !652, !655, !659, !663, !666, !667, !670, !673, !674, !677, !680, !683, !687, !691, !695, !698, !699, !704, !707, !708, !712, !713, !716, !717, !720, !721, !724, !727, !730, !733, !736, !739, !742, !745, !748, !751, !754, !757, !758, !759, !760, !763, !766, !767, !768, !769, !770, !771, !772, !776, !779, !782, !785, !786, !787, !788, !789, !790, !793, !797, !798, !799, !800, !803, !804, !805, !806, !807, !808, !811, !812, !813, !814, !817, !820, !821, !824, !827, !830, !833, !836, !839, !842, !843, !844, !845, !848, !851, !854, !855, !856}
!575 = !DIDerivedType(tag: DW_TAG_member, name: "bool_data", scope: !572, file: !573, line: 183, baseType: !576, flags: DIFlagPublic | DIFlagStaticMember)
!576 = !DICompositeType(tag: DW_TAG_array_type, baseType: !577, size: 88, elements: !578)
!577 = !DIDerivedType(tag: DW_TAG_const_type, baseType: !89)
!578 = !{!579}
!579 = !DISubrange(count: 11)
!580 = !DIDerivedType(tag: DW_TAG_member, name: "_r", scope: !572, file: !573, line: 210, baseType: !581, size: 192)
!581 = distinct !DICompositeType(tag: DW_TAG_structure_type, name: "rep_t", scope: !572, file: !573, line: 203, size: 192, elements: !582, identifier: "_ZTSN6String5rep_tE")
!582 = !{!583, !585, !586}
!583 = !DIDerivedType(tag: DW_TAG_member, name: "data", scope: !581, file: !573, line: 204, baseType: !584, size: 64)
!584 = !DIDerivedType(tag: DW_TAG_pointer_type, baseType: !577, size: 64)
!585 = !DIDerivedType(tag: DW_TAG_member, name: "length", scope: !581, file: !573, line: 205, baseType: !30, size: 32, offset: 64)
!586 = !DIDerivedType(tag: DW_TAG_member, name: "memo", scope: !581, file: !573, line: 206, baseType: !587, size: 64, offset: 128)
!587 = !DIDerivedType(tag: DW_TAG_pointer_type, baseType: !588, size: 64)
!588 = distinct !DICompositeType(tag: DW_TAG_structure_type, name: "memo_t", scope: !572, file: !573, line: 188, size: 160, elements: !589, identifier: "_ZTSN6String6memo_tE")
!589 = !{!590, !591, !592, !593}
!590 = !DIDerivedType(tag: DW_TAG_member, name: "refcount", scope: !588, file: !573, line: 189, baseType: !60, size: 32)
!591 = !DIDerivedType(tag: DW_TAG_member, name: "capacity", scope: !588, file: !573, line: 190, baseType: !12, size: 32, offset: 32)
!592 = !DIDerivedType(tag: DW_TAG_member, name: "dirty", scope: !588, file: !573, line: 191, baseType: !60, size: 32, offset: 64)
!593 = !DIDerivedType(tag: DW_TAG_member, name: "real_data", scope: !588, file: !573, line: 196, baseType: !116, size: 64, offset: 96)
!594 = !DIDerivedType(tag: DW_TAG_member, name: "null_data", scope: !572, file: !573, line: 291, baseType: !577, flags: DIFlagStaticMember)
!595 = !DIDerivedType(tag: DW_TAG_member, name: "oom_data", scope: !572, file: !573, line: 292, baseType: !596, flags: DIFlagStaticMember)
!596 = !DICompositeType(tag: DW_TAG_array_type, baseType: !577, size: 120, elements: !597)
!597 = !{!598}
!598 = !DISubrange(count: 15)
!599 = !DIDerivedType(tag: DW_TAG_member, name: "int_data", scope: !572, file: !573, line: 293, baseType: !600, flags: DIFlagStaticMember)
!600 = !DICompositeType(tag: DW_TAG_array_type, baseType: !577, size: 160, elements: !601)
!601 = !{!602}
!602 = !DISubrange(count: 20)
!603 = !DIDerivedType(tag: DW_TAG_member, name: "null_string_rep", scope: !572, file: !573, line: 294, baseType: !604, flags: DIFlagStaticMember)
!604 = !DIDerivedType(tag: DW_TAG_const_type, baseType: !581)
!605 = !DIDerivedType(tag: DW_TAG_member, name: "oom_string_rep", scope: !572, file: !573, line: 295, baseType: !604, flags: DIFlagStaticMember)
!606 = !DISubprogram(name: "String", scope: !572, file: !573, line: 38, type: !607, isLocal: false, isDefinition: false, scopeLine: 38, flags: DIFlagPublic | DIFlagPrototyped, isOptimized: true)
!607 = !DISubroutineType(types: !608)
!608 = !{null, !609}
!609 = !DIDerivedType(tag: DW_TAG_pointer_type, baseType: !572, size: 64, flags: DIFlagArtificial | DIFlagObjectPointer)
!610 = !DISubprogram(name: "String", scope: !572, file: !573, line: 39, type: !611, isLocal: false, isDefinition: false, scopeLine: 39, flags: DIFlagPublic | DIFlagPrototyped, isOptimized: true)
!611 = !DISubroutineType(types: !612)
!612 = !{null, !609, !613}
!613 = !DIDerivedType(tag: DW_TAG_reference_type, baseType: !614, size: 64)
!614 = !DIDerivedType(tag: DW_TAG_const_type, baseType: !572)
!615 = !DISubprogram(name: "String", scope: !572, file: !573, line: 41, type: !616, isLocal: false, isDefinition: false, scopeLine: 41, flags: DIFlagPublic | DIFlagPrototyped, isOptimized: true)
!616 = !DISubroutineType(types: !617)
!617 = !{null, !609, !618}
!618 = !DIDerivedType(tag: DW_TAG_rvalue_reference_type, baseType: !572, size: 64)
!619 = !DISubprogram(name: "String", scope: !572, file: !573, line: 43, type: !620, isLocal: false, isDefinition: false, scopeLine: 43, flags: DIFlagPublic | DIFlagPrototyped, isOptimized: true)
!620 = !DISubroutineType(types: !621)
!621 = !{null, !609, !584}
!622 = !DISubprogram(name: "String", scope: !572, file: !573, line: 44, type: !623, isLocal: false, isDefinition: false, scopeLine: 44, flags: DIFlagPublic | DIFlagPrototyped, isOptimized: true)
!623 = !DISubroutineType(types: !624)
!624 = !{null, !609, !584, !30}
!625 = !DISubprogram(name: "String", scope: !572, file: !573, line: 45, type: !626, isLocal: false, isDefinition: false, scopeLine: 45, flags: DIFlagPublic | DIFlagPrototyped, isOptimized: true)
!626 = !DISubroutineType(types: !627)
!627 = !{null, !609, !273, !30}
!628 = !DISubprogram(name: "String", scope: !572, file: !573, line: 46, type: !629, isLocal: false, isDefinition: false, scopeLine: 46, flags: DIFlagPublic | DIFlagPrototyped, isOptimized: true)
!629 = !DISubroutineType(types: !630)
!630 = !{null, !609, !584, !584}
!631 = !DISubprogram(name: "String", scope: !572, file: !573, line: 47, type: !632, isLocal: false, isDefinition: false, scopeLine: 47, flags: DIFlagPublic | DIFlagPrototyped, isOptimized: true)
!632 = !DISubroutineType(types: !633)
!633 = !{null, !609, !273, !273}
!634 = !DISubprogram(name: "String", scope: !572, file: !573, line: 48, type: !635, isLocal: false, isDefinition: false, scopeLine: 48, flags: DIFlagPublic | DIFlagExplicit | DIFlagPrototyped, isOptimized: true)
!635 = !DISubroutineType(types: !636)
!636 = !{null, !609, !49}
!637 = !DISubprogram(name: "String", scope: !572, file: !573, line: 49, type: !638, isLocal: false, isDefinition: false, scopeLine: 49, flags: DIFlagPublic | DIFlagExplicit | DIFlagPrototyped, isOptimized: true)
!638 = !DISubroutineType(types: !639)
!639 = !{null, !609, !89}
!640 = !DISubprogram(name: "String", scope: !572, file: !573, line: 50, type: !641, isLocal: false, isDefinition: false, scopeLine: 50, flags: DIFlagPublic | DIFlagExplicit | DIFlagPrototyped, isOptimized: true)
!641 = !DISubroutineType(types: !642)
!642 = !{null, !609, !77}
!643 = !DISubprogram(name: "String", scope: !572, file: !573, line: 51, type: !644, isLocal: false, isDefinition: false, scopeLine: 51, flags: DIFlagPublic | DIFlagExplicit | DIFlagPrototyped, isOptimized: true)
!644 = !DISubroutineType(types: !645)
!645 = !{null, !609, !30}
!646 = !DISubprogram(name: "String", scope: !572, file: !573, line: 52, type: !647, isLocal: false, isDefinition: false, scopeLine: 52, flags: DIFlagPublic | DIFlagExplicit | DIFlagPrototyped, isOptimized: true)
!647 = !DISubroutineType(types: !648)
!648 = !{null, !609, !14}
!649 = !DISubprogram(name: "String", scope: !572, file: !573, line: 53, type: !650, isLocal: false, isDefinition: false, scopeLine: 53, flags: DIFlagPublic | DIFlagExplicit | DIFlagPrototyped, isOptimized: true)
!650 = !DISubroutineType(types: !651)
!651 = !{null, !609, !412}
!652 = !DISubprogram(name: "String", scope: !572, file: !573, line: 54, type: !653, isLocal: false, isDefinition: false, scopeLine: 54, flags: DIFlagPublic | DIFlagExplicit | DIFlagPrototyped, isOptimized: true)
!653 = !DISubroutineType(types: !654)
!654 = !{null, !609, !108}
!655 = !DISubprogram(name: "String", scope: !572, file: !573, line: 56, type: !656, isLocal: false, isDefinition: false, scopeLine: 56, flags: DIFlagPublic | DIFlagExplicit | DIFlagPrototyped, isOptimized: true)
!656 = !DISubroutineType(types: !657)
!657 = !{null, !609, !658}
!658 = !DIBasicType(name: "long long int", size: 64, encoding: DW_ATE_signed)
!659 = !DISubprogram(name: "String", scope: !572, file: !573, line: 57, type: !660, isLocal: false, isDefinition: false, scopeLine: 57, flags: DIFlagPublic | DIFlagExplicit | DIFlagPrototyped, isOptimized: true)
!660 = !DISubroutineType(types: !661)
!661 = !{null, !609, !662}
!662 = !DIBasicType(name: "long long unsigned int", size: 64, encoding: DW_ATE_unsigned)
!663 = !DISubprogram(name: "String", scope: !572, file: !573, line: 64, type: !664, isLocal: false, isDefinition: false, scopeLine: 64, flags: DIFlagPublic | DIFlagExplicit | DIFlagPrototyped, isOptimized: true)
!664 = !DISubroutineType(types: !665)
!665 = !{null, !609, !432}
!666 = !DISubprogram(name: "~String", scope: !572, file: !573, line: 66, type: !607, isLocal: false, isDefinition: false, scopeLine: 66, flags: DIFlagPublic | DIFlagPrototyped, isOptimized: true)
!667 = !DISubprogram(name: "make_empty", linkageName: "_ZN6String10make_emptyEv", scope: !572, file: !573, line: 68, type: !668, isLocal: false, isDefinition: false, scopeLine: 68, flags: DIFlagPublic | DIFlagPrototyped | DIFlagStaticMember, isOptimized: true)
!668 = !DISubroutineType(types: !669)
!669 = !{!613}
!670 = !DISubprogram(name: "make_uninitialized", linkageName: "_ZN6String18make_uninitializedEi", scope: !572, file: !573, line: 69, type: !671, isLocal: false, isDefinition: false, scopeLine: 69, flags: DIFlagPublic | DIFlagPrototyped | DIFlagStaticMember, isOptimized: true)
!671 = !DISubroutineType(types: !672)
!672 = !{!572, !30}
!673 = !DISubprogram(name: "make_garbage", linkageName: "_ZN6String12make_garbageEi", scope: !572, file: !573, line: 70, type: !671, isLocal: false, isDefinition: false, scopeLine: 70, flags: DIFlagPublic | DIFlagPrototyped | DIFlagStaticMember, isOptimized: true)
!674 = !DISubprogram(name: "make_stable", linkageName: "_ZN6String11make_stableEPKc", scope: !572, file: !573, line: 71, type: !675, isLocal: false, isDefinition: false, scopeLine: 71, flags: DIFlagPublic | DIFlagPrototyped | DIFlagStaticMember, isOptimized: true)
!675 = !DISubroutineType(types: !676)
!676 = !{!572, !584}
!677 = !DISubprogram(name: "make_stable", linkageName: "_ZN6String11make_stableEPKci", scope: !572, file: !573, line: 72, type: !678, isLocal: false, isDefinition: false, scopeLine: 72, flags: DIFlagPublic | DIFlagPrototyped | DIFlagStaticMember, isOptimized: true)
!678 = !DISubroutineType(types: !679)
!679 = !{!572, !584, !30}
!680 = !DISubprogram(name: "make_stable", linkageName: "_ZN6String11make_stableEPKcS1_", scope: !572, file: !573, line: 73, type: !681, isLocal: false, isDefinition: false, scopeLine: 73, flags: DIFlagPublic | DIFlagPrototyped | DIFlagStaticMember, isOptimized: true)
!681 = !DISubroutineType(types: !682)
!682 = !{!572, !584, !584}
!683 = !DISubprogram(name: "make_numeric", linkageName: "_ZN6String12make_numericElib", scope: !572, file: !573, line: 74, type: !684, isLocal: false, isDefinition: false, scopeLine: 74, flags: DIFlagPublic | DIFlagPrototyped | DIFlagStaticMember, isOptimized: true)
!684 = !DISubroutineType(types: !685)
!685 = !{!572, !686, !30, !49}
!686 = !DIDerivedType(tag: DW_TAG_typedef, name: "intmax_t", scope: !572, file: !573, line: 26, baseType: !411)
!687 = !DISubprogram(name: "make_numeric", linkageName: "_ZN6String12make_numericEmib", scope: !572, file: !573, line: 75, type: !688, isLocal: false, isDefinition: false, scopeLine: 75, flags: DIFlagPublic | DIFlagPrototyped | DIFlagStaticMember, isOptimized: true)
!688 = !DISubroutineType(types: !689)
!689 = !{!572, !690, !30, !49}
!690 = !DIDerivedType(tag: DW_TAG_typedef, name: "uintmax_t", scope: !572, file: !573, line: 27, baseType: !107)
!691 = !DISubprogram(name: "data", linkageName: "_ZNK6String4dataEv", scope: !572, file: !573, line: 77, type: !692, isLocal: false, isDefinition: false, scopeLine: 77, flags: DIFlagPublic | DIFlagPrototyped, isOptimized: true)
!692 = !DISubroutineType(types: !693)
!693 = !{!584, !694}
!694 = !DIDerivedType(tag: DW_TAG_pointer_type, baseType: !614, size: 64, flags: DIFlagArtificial | DIFlagObjectPointer)
!695 = !DISubprogram(name: "length", linkageName: "_ZNK6String6lengthEv", scope: !572, file: !573, line: 78, type: !696, isLocal: false, isDefinition: false, scopeLine: 78, flags: DIFlagPublic | DIFlagPrototyped, isOptimized: true)
!696 = !DISubroutineType(types: !697)
!697 = !{!30, !694}
!698 = !DISubprogram(name: "c_str", linkageName: "_ZNK6String5c_strEv", scope: !572, file: !573, line: 80, type: !692, isLocal: false, isDefinition: false, scopeLine: 80, flags: DIFlagPublic | DIFlagPrototyped, isOptimized: true)
!699 = !DISubprogram(name: "operator int (String::*)() const", linkageName: "_ZNK6StringcvMS_KFivEEv", scope: !572, file: !573, line: 82, type: !700, isLocal: false, isDefinition: false, scopeLine: 82, flags: DIFlagPublic | DIFlagPrototyped, isOptimized: true)
!700 = !DISubroutineType(types: !701)
!701 = !{!702, !694}
!702 = !DIDerivedType(tag: DW_TAG_typedef, name: "unspecified_bool_type", scope: !572, file: !573, line: 23, baseType: !703)
!703 = !DIDerivedType(tag: DW_TAG_ptr_to_member_type, baseType: !696, size: 128, extraData: !572)
!704 = !DISubprogram(name: "empty", linkageName: "_ZNK6String5emptyEv", scope: !572, file: !573, line: 83, type: !705, isLocal: false, isDefinition: false, scopeLine: 83, flags: DIFlagPublic | DIFlagPrototyped, isOptimized: true)
!705 = !DISubroutineType(types: !706)
!706 = !{!49, !694}
!707 = !DISubprogram(name: "operator!", linkageName: "_ZNK6StringntEv", scope: !572, file: !573, line: 84, type: !705, isLocal: false, isDefinition: false, scopeLine: 84, flags: DIFlagPublic | DIFlagPrototyped, isOptimized: true)
!708 = !DISubprogram(name: "begin", linkageName: "_ZNK6String5beginEv", scope: !572, file: !573, line: 86, type: !709, isLocal: false, isDefinition: false, scopeLine: 86, flags: DIFlagPublic | DIFlagPrototyped, isOptimized: true)
!709 = !DISubroutineType(types: !710)
!710 = !{!711, !694}
!711 = !DIDerivedType(tag: DW_TAG_typedef, name: "const_iterator", scope: !572, file: !573, line: 20, baseType: !584)
!712 = !DISubprogram(name: "end", linkageName: "_ZNK6String3endEv", scope: !572, file: !573, line: 87, type: !709, isLocal: false, isDefinition: false, scopeLine: 87, flags: DIFlagPublic | DIFlagPrototyped, isOptimized: true)
!713 = !DISubprogram(name: "operator[]", linkageName: "_ZNK6StringixEi", scope: !572, file: !573, line: 89, type: !714, isLocal: false, isDefinition: false, scopeLine: 89, flags: DIFlagPublic | DIFlagPrototyped, isOptimized: true)
!714 = !DISubroutineType(types: !715)
!715 = !{!89, !694, !30}
!716 = !DISubprogram(name: "at", linkageName: "_ZNK6String2atEi", scope: !572, file: !573, line: 90, type: !714, isLocal: false, isDefinition: false, scopeLine: 90, flags: DIFlagPublic | DIFlagPrototyped, isOptimized: true)
!717 = !DISubprogram(name: "front", linkageName: "_ZNK6String5frontEv", scope: !572, file: !573, line: 91, type: !718, isLocal: false, isDefinition: false, scopeLine: 91, flags: DIFlagPublic | DIFlagPrototyped, isOptimized: true)
!718 = !DISubroutineType(types: !719)
!719 = !{!89, !694}
!720 = !DISubprogram(name: "back", linkageName: "_ZNK6String4backEv", scope: !572, file: !573, line: 92, type: !718, isLocal: false, isDefinition: false, scopeLine: 92, flags: DIFlagPublic | DIFlagPrototyped, isOptimized: true)
!721 = !DISubprogram(name: "hashcode", linkageName: "_ZN6String8hashcodeEPKcS1_", scope: !572, file: !573, line: 94, type: !722, isLocal: false, isDefinition: false, scopeLine: 94, flags: DIFlagPublic | DIFlagPrototyped | DIFlagStaticMember, isOptimized: true)
!722 = !DISubroutineType(types: !723)
!723 = !{!12, !584, !584}
!724 = !DISubprogram(name: "hashcode", linkageName: "_ZN6String8hashcodeEPKhS1_", scope: !572, file: !573, line: 95, type: !725, isLocal: false, isDefinition: false, scopeLine: 95, flags: DIFlagPublic | DIFlagPrototyped | DIFlagStaticMember, isOptimized: true)
!725 = !DISubroutineType(types: !726)
!726 = !{!12, !273, !273}
!727 = !DISubprogram(name: "hashcode", linkageName: "_ZNK6String8hashcodeEv", scope: !572, file: !573, line: 97, type: !728, isLocal: false, isDefinition: false, scopeLine: 97, flags: DIFlagPublic | DIFlagPrototyped, isOptimized: true)
!728 = !DISubroutineType(types: !729)
!729 = !{!12, !694}
!730 = !DISubprogram(name: "substring", linkageName: "_ZNK6String9substringEPKcS1_", scope: !572, file: !573, line: 99, type: !731, isLocal: false, isDefinition: false, scopeLine: 99, flags: DIFlagPublic | DIFlagPrototyped, isOptimized: true)
!731 = !DISubroutineType(types: !732)
!732 = !{!572, !694, !584, !584}
!733 = !DISubprogram(name: "substring", linkageName: "_ZNK6String9substringEii", scope: !572, file: !573, line: 100, type: !734, isLocal: false, isDefinition: false, scopeLine: 100, flags: DIFlagPublic | DIFlagPrototyped, isOptimized: true)
!734 = !DISubroutineType(types: !735)
!735 = !{!572, !694, !30, !30}
!736 = !DISubprogram(name: "substring", linkageName: "_ZNK6String9substringEi", scope: !572, file: !573, line: 101, type: !737, isLocal: false, isDefinition: false, scopeLine: 101, flags: DIFlagPublic | DIFlagPrototyped, isOptimized: true)
!737 = !DISubroutineType(types: !738)
!738 = !{!572, !694, !30}
!739 = !DISubprogram(name: "trim_space", linkageName: "_ZNK6String10trim_spaceEv", scope: !572, file: !573, line: 102, type: !740, isLocal: false, isDefinition: false, scopeLine: 102, flags: DIFlagPublic | DIFlagPrototyped, isOptimized: true)
!740 = !DISubroutineType(types: !741)
!741 = !{!572, !694}
!742 = !DISubprogram(name: "equals", linkageName: "_ZNK6String6equalsERKS_", scope: !572, file: !573, line: 104, type: !743, isLocal: false, isDefinition: false, scopeLine: 104, flags: DIFlagPublic | DIFlagPrototyped, isOptimized: true)
!743 = !DISubroutineType(types: !744)
!744 = !{!49, !694, !613}
!745 = !DISubprogram(name: "equals", linkageName: "_ZNK6String6equalsEPKci", scope: !572, file: !573, line: 105, type: !746, isLocal: false, isDefinition: false, scopeLine: 105, flags: DIFlagPublic | DIFlagPrototyped, isOptimized: true)
!746 = !DISubroutineType(types: !747)
!747 = !{!49, !694, !584, !30}
!748 = !DISubprogram(name: "compare", linkageName: "_ZN6String7compareERKS_S1_", scope: !572, file: !573, line: 106, type: !749, isLocal: false, isDefinition: false, scopeLine: 106, flags: DIFlagPublic | DIFlagPrototyped | DIFlagStaticMember, isOptimized: true)
!749 = !DISubroutineType(types: !750)
!750 = !{!30, !613, !613}
!751 = !DISubprogram(name: "compare", linkageName: "_ZNK6String7compareERKS_", scope: !572, file: !573, line: 107, type: !752, isLocal: false, isDefinition: false, scopeLine: 107, flags: DIFlagPublic | DIFlagPrototyped, isOptimized: true)
!752 = !DISubroutineType(types: !753)
!753 = !{!30, !694, !613}
!754 = !DISubprogram(name: "compare", linkageName: "_ZNK6String7compareEPKci", scope: !572, file: !573, line: 108, type: !755, isLocal: false, isDefinition: false, scopeLine: 108, flags: DIFlagPublic | DIFlagPrototyped, isOptimized: true)
!755 = !DISubroutineType(types: !756)
!756 = !{!30, !694, !584, !30}
!757 = !DISubprogram(name: "starts_with", linkageName: "_ZNK6String11starts_withERKS_", scope: !572, file: !573, line: 109, type: !743, isLocal: false, isDefinition: false, scopeLine: 109, flags: DIFlagPublic | DIFlagPrototyped, isOptimized: true)
!758 = !DISubprogram(name: "starts_with", linkageName: "_ZNK6String11starts_withEPKci", scope: !572, file: !573, line: 110, type: !746, isLocal: false, isDefinition: false, scopeLine: 110, flags: DIFlagPublic | DIFlagPrototyped, isOptimized: true)
!759 = !DISubprogram(name: "glob_match", linkageName: "_ZNK6String10glob_matchERKS_", scope: !572, file: !573, line: 111, type: !743, isLocal: false, isDefinition: false, scopeLine: 111, flags: DIFlagPublic | DIFlagPrototyped, isOptimized: true)
!760 = !DISubprogram(name: "find_left", linkageName: "_ZNK6String9find_leftEci", scope: !572, file: !573, line: 124, type: !761, isLocal: false, isDefinition: false, scopeLine: 124, flags: DIFlagPublic | DIFlagPrototyped, isOptimized: true)
!761 = !DISubroutineType(types: !762)
!762 = !{!30, !694, !89, !30}
!763 = !DISubprogram(name: "find_left", linkageName: "_ZNK6String9find_leftERKS_i", scope: !572, file: !573, line: 125, type: !764, isLocal: false, isDefinition: false, scopeLine: 125, flags: DIFlagPublic | DIFlagPrototyped, isOptimized: true)
!764 = !DISubroutineType(types: !765)
!765 = !{!30, !694, !613, !30}
!766 = !DISubprogram(name: "find_right", linkageName: "_ZNK6String10find_rightEci", scope: !572, file: !573, line: 126, type: !761, isLocal: false, isDefinition: false, scopeLine: 126, flags: DIFlagPublic | DIFlagPrototyped, isOptimized: true)
!767 = !DISubprogram(name: "lower", linkageName: "_ZNK6String5lowerEv", scope: !572, file: !573, line: 128, type: !740, isLocal: false, isDefinition: false, scopeLine: 128, flags: DIFlagPublic | DIFlagPrototyped, isOptimized: true)
!768 = !DISubprogram(name: "upper", linkageName: "_ZNK6String5upperEv", scope: !572, file: !573, line: 129, type: !740, isLocal: false, isDefinition: false, scopeLine: 129, flags: DIFlagPublic | DIFlagPrototyped, isOptimized: true)
!769 = !DISubprogram(name: "printable", linkageName: "_ZNK6String9printableEv", scope: !572, file: !573, line: 130, type: !740, isLocal: false, isDefinition: false, scopeLine: 130, flags: DIFlagPublic | DIFlagPrototyped, isOptimized: true)
!770 = !DISubprogram(name: "quoted_hex", linkageName: "_ZNK6String10quoted_hexEv", scope: !572, file: !573, line: 131, type: !740, isLocal: false, isDefinition: false, scopeLine: 131, flags: DIFlagPublic | DIFlagPrototyped, isOptimized: true)
!771 = !DISubprogram(name: "encode_json", linkageName: "_ZNK6String11encode_jsonEv", scope: !572, file: !573, line: 132, type: !740, isLocal: false, isDefinition: false, scopeLine: 132, flags: DIFlagPublic | DIFlagPrototyped, isOptimized: true)
!772 = !DISubprogram(name: "operator=", linkageName: "_ZN6StringaSERKS_", scope: !572, file: !573, line: 134, type: !773, isLocal: false, isDefinition: false, scopeLine: 134, flags: DIFlagPublic | DIFlagPrototyped, isOptimized: true)
!773 = !DISubroutineType(types: !774)
!774 = !{!775, !609, !613}
!775 = !DIDerivedType(tag: DW_TAG_reference_type, baseType: !572, size: 64)
!776 = !DISubprogram(name: "operator=", linkageName: "_ZN6StringaSEOS_", scope: !572, file: !573, line: 136, type: !777, isLocal: false, isDefinition: false, scopeLine: 136, flags: DIFlagPublic | DIFlagPrototyped, isOptimized: true)
!777 = !DISubroutineType(types: !778)
!778 = !{!775, !609, !618}
!779 = !DISubprogram(name: "operator=", linkageName: "_ZN6StringaSEPKc", scope: !572, file: !573, line: 138, type: !780, isLocal: false, isDefinition: false, scopeLine: 138, flags: DIFlagPublic | DIFlagPrototyped, isOptimized: true)
!780 = !DISubroutineType(types: !781)
!781 = !{!775, !609, !584}
!782 = !DISubprogram(name: "swap", linkageName: "_ZN6String4swapERS_", scope: !572, file: !573, line: 140, type: !783, isLocal: false, isDefinition: false, scopeLine: 140, flags: DIFlagPublic | DIFlagPrototyped, isOptimized: true)
!783 = !DISubroutineType(types: !784)
!784 = !{null, !609, !775}
!785 = !DISubprogram(name: "append", linkageName: "_ZN6String6appendERKS_", scope: !572, file: !573, line: 142, type: !611, isLocal: false, isDefinition: false, scopeLine: 142, flags: DIFlagPublic | DIFlagPrototyped, isOptimized: true)
!786 = !DISubprogram(name: "append", linkageName: "_ZN6String6appendEPKc", scope: !572, file: !573, line: 143, type: !620, isLocal: false, isDefinition: false, scopeLine: 143, flags: DIFlagPublic | DIFlagPrototyped, isOptimized: true)
!787 = !DISubprogram(name: "append", linkageName: "_ZN6String6appendEPKci", scope: !572, file: !573, line: 144, type: !623, isLocal: false, isDefinition: false, scopeLine: 144, flags: DIFlagPublic | DIFlagPrototyped, isOptimized: true)
!788 = !DISubprogram(name: "append", linkageName: "_ZN6String6appendEPKcS1_", scope: !572, file: !573, line: 145, type: !629, isLocal: false, isDefinition: false, scopeLine: 145, flags: DIFlagPublic | DIFlagPrototyped, isOptimized: true)
!789 = !DISubprogram(name: "append", linkageName: "_ZN6String6appendEc", scope: !572, file: !573, line: 146, type: !638, isLocal: false, isDefinition: false, scopeLine: 146, flags: DIFlagPublic | DIFlagPrototyped, isOptimized: true)
!790 = !DISubprogram(name: "append_fill", linkageName: "_ZN6String11append_fillEii", scope: !572, file: !573, line: 147, type: !791, isLocal: false, isDefinition: false, scopeLine: 147, flags: DIFlagPublic | DIFlagPrototyped, isOptimized: true)
!791 = !DISubroutineType(types: !792)
!792 = !{null, !609, !30, !30}
!793 = !DISubprogram(name: "append_uninitialized", linkageName: "_ZN6String20append_uninitializedEi", scope: !572, file: !573, line: 148, type: !794, isLocal: false, isDefinition: false, scopeLine: 148, flags: DIFlagPublic | DIFlagPrototyped, isOptimized: true)
!794 = !DISubroutineType(types: !795)
!795 = !{!796, !609, !30}
!796 = !DIDerivedType(tag: DW_TAG_pointer_type, baseType: !89, size: 64)
!797 = !DISubprogram(name: "append_garbage", linkageName: "_ZN6String14append_garbageEi", scope: !572, file: !573, line: 149, type: !794, isLocal: false, isDefinition: false, scopeLine: 149, flags: DIFlagPublic | DIFlagPrototyped, isOptimized: true)
!798 = !DISubprogram(name: "operator+=", linkageName: "_ZN6StringpLERKS_", scope: !572, file: !573, line: 151, type: !773, isLocal: false, isDefinition: false, scopeLine: 151, flags: DIFlagPublic | DIFlagPrototyped, isOptimized: true)
!799 = !DISubprogram(name: "operator+=", linkageName: "_ZN6StringpLEPKc", scope: !572, file: !573, line: 152, type: !780, isLocal: false, isDefinition: false, scopeLine: 152, flags: DIFlagPublic | DIFlagPrototyped, isOptimized: true)
!800 = !DISubprogram(name: "operator+=", linkageName: "_ZN6StringpLEc", scope: !572, file: !573, line: 153, type: !801, isLocal: false, isDefinition: false, scopeLine: 153, flags: DIFlagPublic | DIFlagPrototyped, isOptimized: true)
!801 = !DISubroutineType(types: !802)
!802 = !{!775, !609, !89}
!803 = !DISubprogram(name: "is_shared", linkageName: "_ZNK6String9is_sharedEv", scope: !572, file: !573, line: 159, type: !705, isLocal: false, isDefinition: false, scopeLine: 159, flags: DIFlagPublic | DIFlagPrototyped, isOptimized: true)
!804 = !DISubprogram(name: "is_stable", linkageName: "_ZNK6String9is_stableEv", scope: !572, file: !573, line: 160, type: !705, isLocal: false, isDefinition: false, scopeLine: 160, flags: DIFlagPublic | DIFlagPrototyped, isOptimized: true)
!805 = !DISubprogram(name: "unique", linkageName: "_ZNK6String6uniqueEv", scope: !572, file: !573, line: 162, type: !740, isLocal: false, isDefinition: false, scopeLine: 162, flags: DIFlagPublic | DIFlagPrototyped, isOptimized: true)
!806 = !DISubprogram(name: "unshared", linkageName: "_ZNK6String8unsharedEv", scope: !572, file: !573, line: 163, type: !740, isLocal: false, isDefinition: false, scopeLine: 163, flags: DIFlagPublic | DIFlagPrototyped, isOptimized: true)
!807 = !DISubprogram(name: "compact", linkageName: "_ZNK6String7compactEv", scope: !572, file: !573, line: 164, type: !740, isLocal: false, isDefinition: false, scopeLine: 164, flags: DIFlagPublic | DIFlagPrototyped, isOptimized: true)
!808 = !DISubprogram(name: "mutable_data", linkageName: "_ZN6String12mutable_dataEv", scope: !572, file: !573, line: 166, type: !809, isLocal: false, isDefinition: false, scopeLine: 166, flags: DIFlagPublic | DIFlagPrototyped, isOptimized: true)
!809 = !DISubroutineType(types: !810)
!810 = !{!796, !609}
!811 = !DISubprogram(name: "mutable_c_str", linkageName: "_ZN6String13mutable_c_strEv", scope: !572, file: !573, line: 167, type: !809, isLocal: false, isDefinition: false, scopeLine: 167, flags: DIFlagPublic | DIFlagPrototyped, isOptimized: true)
!812 = !DISubprogram(name: "make_out_of_memory", linkageName: "_ZN6String18make_out_of_memoryEv", scope: !572, file: !573, line: 169, type: !668, isLocal: false, isDefinition: false, scopeLine: 169, flags: DIFlagPublic | DIFlagPrototyped | DIFlagStaticMember, isOptimized: true)
!813 = !DISubprogram(name: "out_of_memory", linkageName: "_ZNK6String13out_of_memoryEv", scope: !572, file: !573, line: 170, type: !705, isLocal: false, isDefinition: false, scopeLine: 170, flags: DIFlagPublic | DIFlagPrototyped, isOptimized: true)
!814 = !DISubprogram(name: "out_of_memory_data", linkageName: "_ZN6String18out_of_memory_dataEv", scope: !572, file: !573, line: 171, type: !815, isLocal: false, isDefinition: false, scopeLine: 171, flags: DIFlagPublic | DIFlagPrototyped | DIFlagStaticMember, isOptimized: true)
!815 = !DISubroutineType(types: !816)
!816 = !{!584}
!817 = !DISubprogram(name: "out_of_memory_length", linkageName: "_ZN6String20out_of_memory_lengthEv", scope: !572, file: !573, line: 172, type: !818, isLocal: false, isDefinition: false, scopeLine: 172, flags: DIFlagPublic | DIFlagPrototyped | DIFlagStaticMember, isOptimized: true)
!818 = !DISubroutineType(types: !819)
!819 = !{!30}
!820 = !DISubprogram(name: "empty_data", linkageName: "_ZN6String10empty_dataEv", scope: !572, file: !573, line: 173, type: !815, isLocal: false, isDefinition: false, scopeLine: 173, flags: DIFlagPublic | DIFlagPrototyped | DIFlagStaticMember, isOptimized: true)
!821 = !DISubprogram(name: "skip_utf8_char", linkageName: "_ZN6String14skip_utf8_charEPKcS1_", scope: !572, file: !573, line: 179, type: !822, isLocal: false, isDefinition: false, scopeLine: 179, flags: DIFlagPublic | DIFlagPrototyped | DIFlagStaticMember, isOptimized: true)
!822 = !DISubroutineType(types: !823)
!823 = !{!584, !584, !584}
!824 = !DISubprogram(name: "skip_utf8_char", linkageName: "_ZN6String14skip_utf8_charEPKhS1_", scope: !572, file: !573, line: 180, type: !825, isLocal: false, isDefinition: false, scopeLine: 180, flags: DIFlagPublic | DIFlagPrototyped | DIFlagStaticMember, isOptimized: true)
!825 = !DISubroutineType(types: !826)
!826 = !{!273, !273, !273}
!827 = !DISubprogram(name: "assign_memo", linkageName: "_ZNK6String11assign_memoEPKciPNS_6memo_tE", scope: !572, file: !573, line: 255, type: !828, isLocal: false, isDefinition: false, scopeLine: 255, flags: DIFlagPrototyped, isOptimized: true)
!828 = !DISubroutineType(types: !829)
!829 = !{null, !694, !584, !30, !587}
!830 = !DISubprogram(name: "String", scope: !572, file: !573, line: 262, type: !831, isLocal: false, isDefinition: false, scopeLine: 262, flags: DIFlagPrototyped, isOptimized: true)
!831 = !DISubroutineType(types: !832)
!832 = !{null, !609, !584, !30, !587}
!833 = !DISubprogram(name: "assign", linkageName: "_ZNK6String6assignERKS_", scope: !572, file: !573, line: 266, type: !834, isLocal: false, isDefinition: false, scopeLine: 266, flags: DIFlagPrototyped, isOptimized: true)
!834 = !DISubroutineType(types: !835)
!835 = !{null, !694, !613}
!836 = !DISubprogram(name: "deref", linkageName: "_ZNK6String5derefEv", scope: !572, file: !573, line: 270, type: !837, isLocal: false, isDefinition: false, scopeLine: 270, flags: DIFlagPrototyped, isOptimized: true)
!837 = !DISubroutineType(types: !838)
!838 = !{null, !694}
!839 = !DISubprogram(name: "assign", linkageName: "_ZN6String6assignEPKcib", scope: !572, file: !573, line: 279, type: !840, isLocal: false, isDefinition: false, scopeLine: 279, flags: DIFlagPrototyped, isOptimized: true)
!840 = !DISubroutineType(types: !841)
!841 = !{null, !609, !584, !30, !49}
!842 = !DISubprogram(name: "assign_out_of_memory", linkageName: "_ZN6String20assign_out_of_memoryEv", scope: !572, file: !573, line: 280, type: !607, isLocal: false, isDefinition: false, scopeLine: 280, flags: DIFlagPrototyped, isOptimized: true)
!843 = !DISubprogram(name: "append", linkageName: "_ZN6String6appendEPKciPNS_6memo_tE", scope: !572, file: !573, line: 281, type: !831, isLocal: false, isDefinition: false, scopeLine: 281, flags: DIFlagPrototyped, isOptimized: true)
!844 = !DISubprogram(name: "hard_make_stable", linkageName: "_ZN6String16hard_make_stableEPKci", scope: !572, file: !573, line: 282, type: !678, isLocal: false, isDefinition: false, scopeLine: 282, flags: DIFlagPrototyped | DIFlagStaticMember, isOptimized: true)
!845 = !DISubprogram(name: "absent_memo", linkageName: "_ZN6String11absent_memoEv", scope: !572, file: !573, line: 283, type: !846, isLocal: false, isDefinition: false, scopeLine: 283, flags: DIFlagPrototyped | DIFlagStaticMember, isOptimized: true)
!846 = !DISubroutineType(types: !847)
!847 = !{!587}
!848 = !DISubprogram(name: "create_memo", linkageName: "_ZN6String11create_memoEPcii", scope: !572, file: !573, line: 286, type: !849, isLocal: false, isDefinition: false, scopeLine: 286, flags: DIFlagPrototyped | DIFlagStaticMember, isOptimized: true)
!849 = !DISubroutineType(types: !850)
!850 = !{!587, !796, !30, !30}
!851 = !DISubprogram(name: "delete_memo", linkageName: "_ZN6String11delete_memoEPNS_6memo_tE", scope: !572, file: !573, line: 287, type: !852, isLocal: false, isDefinition: false, scopeLine: 287, flags: DIFlagPrototyped | DIFlagStaticMember, isOptimized: true)
!852 = !DISubroutineType(types: !853)
!853 = !{null, !587}
!854 = !DISubprogram(name: "hard_c_str", linkageName: "_ZNK6String10hard_c_strEv", scope: !572, file: !573, line: 288, type: !692, isLocal: false, isDefinition: false, scopeLine: 288, flags: DIFlagPrototyped, isOptimized: true)
!855 = !DISubprogram(name: "hard_equals", linkageName: "_ZNK6String11hard_equalsEPKci", scope: !572, file: !573, line: 289, type: !746, isLocal: false, isDefinition: false, scopeLine: 289, flags: DIFlagPrototyped, isOptimized: true)
!856 = !DISubprogram(name: "make_claim", linkageName: "_ZN6String10make_claimEPcii", scope: !572, file: !573, line: 298, type: !857, isLocal: false, isDefinition: false, scopeLine: 298, flags: DIFlagPrototyped | DIFlagStaticMember, isOptimized: true)
!857 = !DISubroutineType(types: !858)
!858 = !{!572, !796, !30, !30}
!859 = !DISubprogram(name: "unparse_interval", linkageName: "_ZNK9Timestamp16unparse_intervalEv", scope: !404, file: !405, line: 501, type: !570, isLocal: false, isDefinition: false, scopeLine: 501, flags: DIFlagPublic | DIFlagPrototyped, isOptimized: true)
!860 = !DISubprogram(name: "msec_to_subsec", linkageName: "_ZN9Timestamp14msec_to_subsecEj", scope: !404, file: !405, line: 510, type: !861, isLocal: false, isDefinition: false, scopeLine: 510, flags: DIFlagPublic | DIFlagPrototyped | DIFlagStaticMember, isOptimized: true)
!861 = !DISubroutineType(types: !862)
!862 = !{!12, !12}
!863 = !DISubprogram(name: "usec_to_subsec", linkageName: "_ZN9Timestamp14usec_to_subsecEj", scope: !404, file: !405, line: 514, type: !861, isLocal: false, isDefinition: false, scopeLine: 514, flags: DIFlagPublic | DIFlagPrototyped | DIFlagStaticMember, isOptimized: true)
!864 = !DISubprogram(name: "nsec_to_subsec", linkageName: "_ZN9Timestamp14nsec_to_subsecEj", scope: !404, file: !405, line: 518, type: !861, isLocal: false, isDefinition: false, scopeLine: 518, flags: DIFlagPublic | DIFlagPrototyped | DIFlagStaticMember, isOptimized: true)
!865 = !DISubprogram(name: "subsec_to_msec", linkageName: "_ZN9Timestamp14subsec_to_msecEj", scope: !404, file: !405, line: 522, type: !861, isLocal: false, isDefinition: false, scopeLine: 522, flags: DIFlagPublic | DIFlagPrototyped | DIFlagStaticMember, isOptimized: true)
!866 = !DISubprogram(name: "subsec_to_usec", linkageName: "_ZN9Timestamp14subsec_to_usecEj", scope: !404, file: !405, line: 526, type: !861, isLocal: false, isDefinition: false, scopeLine: 526, flags: DIFlagPublic | DIFlagPrototyped | DIFlagStaticMember, isOptimized: true)
!867 = !DISubprogram(name: "subsec_to_nsec", linkageName: "_ZN9Timestamp14subsec_to_nsecEj", scope: !404, file: !405, line: 530, type: !861, isLocal: false, isDefinition: false, scopeLine: 530, flags: DIFlagPublic | DIFlagPrototyped | DIFlagStaticMember, isOptimized: true)
!868 = !DISubprogram(name: "warp_class", linkageName: "_ZN9Timestamp10warp_classEv", scope: !404, file: !405, line: 581, type: !818, isLocal: false, isDefinition: false, scopeLine: 581, flags: DIFlagPublic | DIFlagPrototyped | DIFlagStaticMember, isOptimized: true)
!869 = !DISubprogram(name: "warp_speed", linkageName: "_ZN9Timestamp10warp_speedEv", scope: !404, file: !405, line: 588, type: !870, isLocal: false, isDefinition: false, scopeLine: 588, flags: DIFlagPublic | DIFlagPrototyped | DIFlagStaticMember, isOptimized: true)
!870 = !DISubroutineType(types: !871)
!871 = !{!432}
!872 = !DISubprogram(name: "warp_set_class", linkageName: "_ZN9Timestamp14warp_set_classENS_15warp_class_typeEd", scope: !404, file: !405, line: 621, type: !873, isLocal: false, isDefinition: false, scopeLine: 621, flags: DIFlagPublic | DIFlagPrototyped | DIFlagStaticMember, isOptimized: true)
!873 = !DISubroutineType(types: !874)
!874 = !{null, !875, !432}
!875 = !DICompositeType(tag: DW_TAG_enumeration_type, name: "warp_class_type", scope: !404, file: !405, line: 571, size: 32, elements: !876, identifier: "_ZTSN9Timestamp15warp_class_typeE")
!876 = !{!877, !878, !879, !880}
!877 = !DIEnumerator(name: "warp_none", value: 0)
!878 = !DIEnumerator(name: "warp_linear", value: 1)
!879 = !DIEnumerator(name: "warp_nowait", value: 2)
!880 = !DIEnumerator(name: "warp_simulation", value: 3)
!881 = !DISubprogram(name: "warp_set_now", linkageName: "_ZN9Timestamp12warp_set_nowERKS_S1_", scope: !404, file: !405, line: 628, type: !882, isLocal: false, isDefinition: false, scopeLine: 628, flags: DIFlagPublic | DIFlagPrototyped | DIFlagStaticMember, isOptimized: true)
!882 = !DISubroutineType(types: !883)
!883 = !{null, !402, !402}
!884 = !DISubprogram(name: "warp_real_delay", linkageName: "_ZNK9Timestamp15warp_real_delayEv", scope: !404, file: !405, line: 632, type: !516, isLocal: false, isDefinition: false, scopeLine: 632, flags: DIFlagPublic | DIFlagPrototyped, isOptimized: true)
!885 = !DISubprogram(name: "warp_jumping", linkageName: "_ZN9Timestamp12warp_jumpingEv", scope: !404, file: !405, line: 635, type: !886, isLocal: false, isDefinition: false, scopeLine: 635, flags: DIFlagPublic | DIFlagPrototyped | DIFlagStaticMember, isOptimized: true)
!886 = !DISubroutineType(types: !887)
!887 = !{!49}
!888 = !DISubprogram(name: "warp_jump_steady", linkageName: "_ZN9Timestamp16warp_jump_steadyERKS_", scope: !404, file: !405, line: 640, type: !889, isLocal: false, isDefinition: false, scopeLine: 640, flags: DIFlagPublic | DIFlagPrototyped | DIFlagStaticMember, isOptimized: true)
!889 = !DISubroutineType(types: !890)
!890 = !{null, !402}
!891 = !DISubprogram(name: "now_unwarped", linkageName: "_ZN9Timestamp12now_unwarpedEv", scope: !404, file: !405, line: 647, type: !546, isLocal: false, isDefinition: false, scopeLine: 647, flags: DIFlagPublic | DIFlagPrototyped | DIFlagStaticMember, isOptimized: true)
!892 = !DISubprogram(name: "assign_now_unwarped", linkageName: "_ZN9Timestamp19assign_now_unwarpedEv", scope: !404, file: !405, line: 653, type: !414, isLocal: false, isDefinition: false, scopeLine: 653, flags: DIFlagPublic | DIFlagPrototyped, isOptimized: true)
!893 = !DISubprogram(name: "now_steady_unwarped", linkageName: "_ZN9Timestamp19now_steady_unwarpedEv", scope: !404, file: !405, line: 659, type: !546, isLocal: false, isDefinition: false, scopeLine: 659, flags: DIFlagPublic | DIFlagPrototyped | DIFlagStaticMember, isOptimized: true)
!894 = !DISubprogram(name: "assign_now_steady_unwarped", linkageName: "_ZN9Timestamp26assign_now_steady_unwarpedEv", scope: !404, file: !405, line: 666, type: !414, isLocal: false, isDefinition: false, scopeLine: 666, flags: DIFlagPublic | DIFlagPrototyped, isOptimized: true)
!895 = !DISubprogram(name: "add_fix", linkageName: "_ZN9Timestamp7add_fixEv", scope: !404, file: !405, line: 674, type: !414, isLocal: false, isDefinition: false, scopeLine: 674, flags: DIFlagPrototyped, isOptimized: true)
!896 = !DISubprogram(name: "sub_fix", linkageName: "_ZN9Timestamp7sub_fixEv", scope: !404, file: !405, line: 686, type: !414, isLocal: false, isDefinition: false, scopeLine: 686, flags: DIFlagPrototyped, isOptimized: true)
!897 = !DISubprogram(name: "value_div", linkageName: "_ZN9Timestamp9value_divElj", scope: !404, file: !405, line: 698, type: !898, isLocal: false, isDefinition: false, scopeLine: 698, flags: DIFlagPrototyped | DIFlagStaticMember, isOptimized: true)
!898 = !DISubroutineType(types: !899)
!899 = !{!512, !512, !12}
!900 = !DISubprogram(name: "value_div_mod", linkageName: "_ZN9Timestamp13value_div_modERiS0_lj", scope: !404, file: !405, line: 702, type: !901, isLocal: false, isDefinition: false, scopeLine: 702, flags: DIFlagPrototyped | DIFlagStaticMember, isOptimized: true)
!901 = !DISubroutineType(types: !902)
!902 = !{null, !903, !903, !512, !12}
!903 = !DIDerivedType(tag: DW_TAG_reference_type, baseType: !29, size: 64)
!904 = !DISubprogram(name: "assign_now", linkageName: "_ZN9Timestamp10assign_nowEbbb", scope: !404, file: !405, line: 709, type: !905, isLocal: false, isDefinition: false, scopeLine: 709, flags: DIFlagPrototyped, isOptimized: true)
!905 = !DISubroutineType(types: !906)
!906 = !{null, !416, !49, !49, !49}
!907 = !DISubprogram(name: "warp_adjust", linkageName: "_ZN9Timestamp11warp_adjustEbRKS_S1_", scope: !404, file: !405, line: 712, type: !908, isLocal: false, isDefinition: false, scopeLine: 712, flags: DIFlagPrototyped | DIFlagStaticMember, isOptimized: true)
!908 = !DISubroutineType(types: !909)
!909 = !{null, !49, !402, !402}
!910 = !DISubprogram(name: "warped", linkageName: "_ZNK9Timestamp6warpedEb", scope: !404, file: !405, line: 713, type: !911, isLocal: false, isDefinition: false, scopeLine: 713, flags: DIFlagPrototyped, isOptimized: true)
!911 = !DISubroutineType(types: !912)
!912 = !{!404, !479, !49}
!913 = !DISubprogram(name: "warp", linkageName: "_ZN9Timestamp4warpEbb", scope: !404, file: !405, line: 714, type: !914, isLocal: false, isDefinition: false, scopeLine: 714, flags: DIFlagPrototyped, isOptimized: true)
!914 = !DISubroutineType(types: !915)
!915 = !{null, !416, !49, !49}
!916 = !DISubprogram(name: "timestamp_anno", linkageName: "_ZN6Packet14timestamp_annoEv", scope: !5, file: !4, line: 356, type: !917, isLocal: false, isDefinition: false, scopeLine: 356, flags: DIFlagPublic | DIFlagPrototyped, isOptimized: true)
!917 = !DISubroutineType(types: !918)
!918 = !{!919, !259}
!919 = !DIDerivedType(tag: DW_TAG_reference_type, baseType: !404, size: 64)
!920 = !DISubprogram(name: "set_timestamp_anno", linkageName: "_ZN6Packet18set_timestamp_annoERK9Timestamp", scope: !5, file: !4, line: 359, type: !921, isLocal: false, isDefinition: false, scopeLine: 359, flags: DIFlagPublic | DIFlagPrototyped, isOptimized: true)
!921 = !DISubroutineType(types: !922)
!922 = !{null, !259, !402}
!923 = !DISubprogram(name: "device_anno", linkageName: "_ZNK6Packet11device_annoEv", scope: !5, file: !4, line: 362, type: !924, isLocal: false, isDefinition: false, scopeLine: 362, flags: DIFlagPublic | DIFlagPrototyped, isOptimized: true)
!924 = !DISubroutineType(types: !925)
!925 = !{!926, !263}
!926 = !DIDerivedType(tag: DW_TAG_pointer_type, baseType: !927, size: 64)
!927 = !DIDerivedType(tag: DW_TAG_typedef, name: "net_device", file: !524, line: 326, baseType: !928)
!928 = !DICompositeType(tag: DW_TAG_structure_type, name: "device", file: !524, line: 326, flags: DIFlagFwdDecl, identifier: "_ZTS6device")
!929 = !DISubprogram(name: "set_device_anno", linkageName: "_ZN6Packet15set_device_annoEP6device", scope: !5, file: !4, line: 364, type: !930, isLocal: false, isDefinition: false, scopeLine: 364, flags: DIFlagPublic | DIFlagPrototyped, isOptimized: true)
!930 = !DISubroutineType(types: !931)
!931 = !{null, !259, !926}
!932 = !DISubprogram(name: "packet_type_anno", linkageName: "_ZNK6Packet16packet_type_annoEv", scope: !5, file: !4, line: 383, type: !933, isLocal: false, isDefinition: false, scopeLine: 383, flags: DIFlagPublic | DIFlagPrototyped, isOptimized: true)
!933 = !DISubroutineType(types: !934)
!934 = !{!3, !263}
!935 = !DISubprogram(name: "set_packet_type_anno", linkageName: "_ZN6Packet20set_packet_type_annoENS_10PacketTypeE", scope: !5, file: !4, line: 385, type: !936, isLocal: false, isDefinition: false, scopeLine: 385, flags: DIFlagPublic | DIFlagPrototyped, isOptimized: true)
!936 = !DISubroutineType(types: !937)
!937 = !{null, !259, !3}
!938 = !DISubprogram(name: "next", linkageName: "_ZNK6Packet4nextEv", scope: !5, file: !4, line: 410, type: !939, isLocal: false, isDefinition: false, scopeLine: 410, flags: DIFlagPublic | DIFlagPrototyped, isOptimized: true)
!939 = !DISubroutineType(types: !940)
!940 = !{!74, !263}
!941 = !DISubprogram(name: "next", linkageName: "_ZN6Packet4nextEv", scope: !5, file: !4, line: 412, type: !942, isLocal: false, isDefinition: false, scopeLine: 412, flags: DIFlagPublic | DIFlagPrototyped, isOptimized: true)
!942 = !DISubroutineType(types: !943)
!943 = !{!944, !259}
!944 = !DIDerivedType(tag: DW_TAG_reference_type, baseType: !74, size: 64)
!945 = !DISubprogram(name: "set_next", linkageName: "_ZN6Packet8set_nextEPS_", scope: !5, file: !4, line: 414, type: !946, isLocal: false, isDefinition: false, scopeLine: 414, flags: DIFlagPublic | DIFlagPrototyped, isOptimized: true)
!946 = !DISubroutineType(types: !947)
!947 = !{null, !259, !74}
!948 = !DISubprogram(name: "prev", linkageName: "_ZNK6Packet4prevEv", scope: !5, file: !4, line: 417, type: !939, isLocal: false, isDefinition: false, scopeLine: 417, flags: DIFlagPublic | DIFlagPrototyped, isOptimized: true)
!949 = !DISubprogram(name: "prev", linkageName: "_ZN6Packet4prevEv", scope: !5, file: !4, line: 419, type: !942, isLocal: false, isDefinition: false, scopeLine: 419, flags: DIFlagPublic | DIFlagPrototyped, isOptimized: true)
!950 = !DISubprogram(name: "set_prev", linkageName: "_ZN6Packet8set_prevEPS_", scope: !5, file: !4, line: 421, type: !946, isLocal: false, isDefinition: false, scopeLine: 421, flags: DIFlagPublic | DIFlagPrototyped, isOptimized: true)
!951 = !DISubprogram(name: "dst_ip_anno", linkageName: "_ZNK6Packet11dst_ip_annoEv", scope: !5, file: !4, line: 431, type: !952, isLocal: false, isDefinition: false, scopeLine: 431, flags: DIFlagPublic | DIFlagPrototyped, isOptimized: true)
!952 = !DISubroutineType(types: !953)
!953 = !{!954, !263}
!954 = distinct !DICompositeType(tag: DW_TAG_class_type, name: "IPAddress", file: !955, line: 15, size: 32, elements: !956, identifier: "_ZTS9IPAddress")
!955 = !DIFile(filename: "/usr/local/include/click/ipaddress.hh", directory: "/home/jiarong/multi_thread_train/compute_prediction/c_packetprocessing/apps/env")
!956 = !{!957, !958, !962, !965, !968, !971, !974, !977, !980, !983, !988, !991, !994, !999, !1002, !1003, !1004, !1005, !1008, !1009, !1012, !1015, !1016, !1019, !1022, !1025, !1026, !1030, !1031, !1032, !1035, !1036, !1039, !1040}
!957 = !DIDerivedType(tag: DW_TAG_member, name: "_addr", scope: !954, file: !955, line: 152, baseType: !12, size: 32)
!958 = !DISubprogram(name: "IPAddress", scope: !954, file: !955, line: 20, type: !959, isLocal: false, isDefinition: false, scopeLine: 20, flags: DIFlagPublic | DIFlagPrototyped, isOptimized: true)
!959 = !DISubroutineType(types: !960)
!960 = !{null, !961}
!961 = !DIDerivedType(tag: DW_TAG_pointer_type, baseType: !954, size: 64, flags: DIFlagArtificial | DIFlagObjectPointer)
!962 = !DISubprogram(name: "IPAddress", scope: !954, file: !955, line: 25, type: !963, isLocal: false, isDefinition: false, scopeLine: 25, flags: DIFlagPublic | DIFlagPrototyped, isOptimized: true)
!963 = !DISubroutineType(types: !964)
!964 = !{null, !961, !14}
!965 = !DISubprogram(name: "IPAddress", scope: !954, file: !955, line: 29, type: !966, isLocal: false, isDefinition: false, scopeLine: 29, flags: DIFlagPublic | DIFlagExplicit | DIFlagPrototyped, isOptimized: true)
!966 = !DISubroutineType(types: !967)
!967 = !{null, !961, !30}
!968 = !DISubprogram(name: "IPAddress", scope: !954, file: !955, line: 33, type: !969, isLocal: false, isDefinition: false, scopeLine: 33, flags: DIFlagPublic | DIFlagExplicit | DIFlagPrototyped, isOptimized: true)
!969 = !DISubroutineType(types: !970)
!970 = !{null, !961, !108}
!971 = !DISubprogram(name: "IPAddress", scope: !954, file: !955, line: 37, type: !972, isLocal: false, isDefinition: false, scopeLine: 37, flags: DIFlagPublic | DIFlagExplicit | DIFlagPrototyped, isOptimized: true)
!972 = !DISubroutineType(types: !973)
!973 = !{null, !961, !412}
!974 = !DISubprogram(name: "IPAddress", scope: !954, file: !955, line: 42, type: !975, isLocal: false, isDefinition: false, scopeLine: 42, flags: DIFlagPublic | DIFlagPrototyped, isOptimized: true)
!975 = !DISubroutineType(types: !976)
!976 = !{null, !961, !169}
!977 = !DISubprogram(name: "IPAddress", scope: !954, file: !955, line: 50, type: !978, isLocal: false, isDefinition: false, scopeLine: 50, flags: DIFlagPublic | DIFlagExplicit | DIFlagPrototyped, isOptimized: true)
!978 = !DISubroutineType(types: !979)
!979 = !{null, !961, !273}
!980 = !DISubprogram(name: "IPAddress", scope: !954, file: !955, line: 63, type: !981, isLocal: false, isDefinition: false, scopeLine: 63, flags: DIFlagPublic | DIFlagExplicit | DIFlagPrototyped, isOptimized: true)
!981 = !DISubroutineType(types: !982)
!982 = !{null, !961, !613}
!983 = !DISubprogram(name: "IPAddress", scope: !954, file: !955, line: 66, type: !984, isLocal: false, isDefinition: false, scopeLine: 66, flags: DIFlagPublic | DIFlagPrototyped, isOptimized: true)
!984 = !DISubroutineType(types: !985)
!985 = !{null, !961, !986}
!986 = !DIDerivedType(tag: DW_TAG_reference_type, baseType: !987, size: 64)
!987 = !DIDerivedType(tag: DW_TAG_const_type, baseType: !468)
!988 = !DISubprogram(name: "make_prefix", linkageName: "_ZN9IPAddress11make_prefixEi", scope: !954, file: !955, line: 78, type: !989, isLocal: false, isDefinition: false, scopeLine: 78, flags: DIFlagPublic | DIFlagPrototyped | DIFlagStaticMember, isOptimized: true)
!989 = !DISubroutineType(types: !990)
!990 = !{!954, !30}
!991 = !DISubprogram(name: "make_broadcast", linkageName: "_ZN9IPAddress14make_broadcastEv", scope: !954, file: !955, line: 81, type: !992, isLocal: false, isDefinition: false, scopeLine: 81, flags: DIFlagPublic | DIFlagPrototyped | DIFlagStaticMember, isOptimized: true)
!992 = !DISubroutineType(types: !993)
!993 = !{!954}
!994 = !DISubprogram(name: "empty", linkageName: "_ZNK9IPAddress5emptyEv", scope: !954, file: !955, line: 86, type: !995, isLocal: false, isDefinition: false, scopeLine: 86, flags: DIFlagPublic | DIFlagPrototyped, isOptimized: true)
!995 = !DISubroutineType(types: !996)
!996 = !{!49, !997}
!997 = !DIDerivedType(tag: DW_TAG_pointer_type, baseType: !998, size: 64, flags: DIFlagArtificial | DIFlagObjectPointer)
!998 = !DIDerivedType(tag: DW_TAG_const_type, baseType: !954)
!999 = !DISubprogram(name: "addr", linkageName: "_ZNK9IPAddress4addrEv", scope: !954, file: !955, line: 91, type: !1000, isLocal: false, isDefinition: false, scopeLine: 91, flags: DIFlagPublic | DIFlagPrototyped, isOptimized: true)
!1000 = !DISubroutineType(types: !1001)
!1001 = !{!12, !997}
!1002 = !DISubprogram(name: "operator unsigned int", linkageName: "_ZNK9IPAddresscvjEv", scope: !954, file: !955, line: 99, type: !1000, isLocal: false, isDefinition: false, scopeLine: 99, flags: DIFlagPublic | DIFlagPrototyped, isOptimized: true)
!1003 = !DISubprogram(name: "is_multicast", linkageName: "_ZNK9IPAddress12is_multicastEv", scope: !954, file: !955, line: 106, type: !995, isLocal: false, isDefinition: false, scopeLine: 106, flags: DIFlagPublic | DIFlagPrototyped, isOptimized: true)
!1004 = !DISubprogram(name: "is_link_local", linkageName: "_ZNK9IPAddress13is_link_localEv", scope: !954, file: !955, line: 110, type: !995, isLocal: false, isDefinition: false, scopeLine: 110, flags: DIFlagPublic | DIFlagPrototyped, isOptimized: true)
!1005 = !DISubprogram(name: "in_addr", linkageName: "_ZNK9IPAddress7in_addrEv", scope: !954, file: !955, line: 114, type: !1006, isLocal: false, isDefinition: false, scopeLine: 114, flags: DIFlagPublic | DIFlagPrototyped, isOptimized: true)
!1006 = !DISubroutineType(types: !1007)
!1007 = !{!169, !997}
!1008 = !DISubprogram(name: "operator in_addr", linkageName: "_ZNK9IPAddresscv7in_addrEv", scope: !954, file: !955, line: 115, type: !1006, isLocal: false, isDefinition: false, scopeLine: 115, flags: DIFlagPublic | DIFlagPrototyped, isOptimized: true)
!1009 = !DISubprogram(name: "data", linkageName: "_ZN9IPAddress4dataEv", scope: !954, file: !955, line: 117, type: !1010, isLocal: false, isDefinition: false, scopeLine: 117, flags: DIFlagPublic | DIFlagPrototyped, isOptimized: true)
!1010 = !DISubroutineType(types: !1011)
!1011 = !{!76, !961}
!1012 = !DISubprogram(name: "data", linkageName: "_ZNK9IPAddress4dataEv", scope: !954, file: !955, line: 118, type: !1013, isLocal: false, isDefinition: false, scopeLine: 118, flags: DIFlagPublic | DIFlagPrototyped, isOptimized: true)
!1013 = !DISubroutineType(types: !1014)
!1014 = !{!273, !997}
!1015 = !DISubprogram(name: "hashcode", linkageName: "_ZNK9IPAddress8hashcodeEv", scope: !954, file: !955, line: 120, type: !1000, isLocal: false, isDefinition: false, scopeLine: 120, flags: DIFlagPublic | DIFlagPrototyped, isOptimized: true)
!1016 = !DISubprogram(name: "mask_to_prefix_len", linkageName: "_ZNK9IPAddress18mask_to_prefix_lenEv", scope: !954, file: !955, line: 122, type: !1017, isLocal: false, isDefinition: false, scopeLine: 122, flags: DIFlagPublic | DIFlagPrototyped, isOptimized: true)
!1017 = !DISubroutineType(types: !1018)
!1018 = !{!30, !997}
!1019 = !DISubprogram(name: "matches_prefix", linkageName: "_ZNK9IPAddress14matches_prefixES_S_", scope: !954, file: !955, line: 123, type: !1020, isLocal: false, isDefinition: false, scopeLine: 123, flags: DIFlagPublic | DIFlagPrototyped, isOptimized: true)
!1020 = !DISubroutineType(types: !1021)
!1021 = !{!49, !997, !954, !954}
!1022 = !DISubprogram(name: "mask_as_specific", linkageName: "_ZNK9IPAddress16mask_as_specificES_", scope: !954, file: !955, line: 124, type: !1023, isLocal: false, isDefinition: false, scopeLine: 124, flags: DIFlagPublic | DIFlagPrototyped, isOptimized: true)
!1023 = !DISubroutineType(types: !1024)
!1024 = !{!49, !997, !954}
!1025 = !DISubprogram(name: "mask_more_specific", linkageName: "_ZNK9IPAddress18mask_more_specificES_", scope: !954, file: !955, line: 125, type: !1023, isLocal: false, isDefinition: false, scopeLine: 125, flags: DIFlagPublic | DIFlagPrototyped, isOptimized: true)
!1026 = !DISubprogram(name: "operator&=", linkageName: "_ZN9IPAddressaNES_", scope: !954, file: !955, line: 137, type: !1027, isLocal: false, isDefinition: false, scopeLine: 137, flags: DIFlagPublic | DIFlagPrototyped, isOptimized: true)
!1027 = !DISubroutineType(types: !1028)
!1028 = !{!1029, !961, !954}
!1029 = !DIDerivedType(tag: DW_TAG_reference_type, baseType: !954, size: 64)
!1030 = !DISubprogram(name: "operator|=", linkageName: "_ZN9IPAddressoRES_", scope: !954, file: !955, line: 138, type: !1027, isLocal: false, isDefinition: false, scopeLine: 138, flags: DIFlagPublic | DIFlagPrototyped, isOptimized: true)
!1031 = !DISubprogram(name: "operator^=", linkageName: "_ZN9IPAddresseOES_", scope: !954, file: !955, line: 139, type: !1027, isLocal: false, isDefinition: false, scopeLine: 139, flags: DIFlagPublic | DIFlagPrototyped, isOptimized: true)
!1032 = !DISubprogram(name: "unparse", linkageName: "_ZNK9IPAddress7unparseEv", scope: !954, file: !955, line: 141, type: !1033, isLocal: false, isDefinition: false, scopeLine: 141, flags: DIFlagPublic | DIFlagPrototyped, isOptimized: true)
!1033 = !DISubroutineType(types: !1034)
!1034 = !{!572, !997}
!1035 = !DISubprogram(name: "unparse_mask", linkageName: "_ZNK9IPAddress12unparse_maskEv", scope: !954, file: !955, line: 142, type: !1033, isLocal: false, isDefinition: false, scopeLine: 142, flags: DIFlagPublic | DIFlagPrototyped, isOptimized: true)
!1036 = !DISubprogram(name: "unparse_with_mask", linkageName: "_ZNK9IPAddress17unparse_with_maskES_", scope: !954, file: !955, line: 143, type: !1037, isLocal: false, isDefinition: false, scopeLine: 143, flags: DIFlagPublic | DIFlagPrototyped, isOptimized: true)
!1037 = !DISubroutineType(types: !1038)
!1038 = !{!572, !997, !954}
!1039 = !DISubprogram(name: "s", linkageName: "_ZNK9IPAddress1sEv", scope: !954, file: !955, line: 145, type: !1033, isLocal: false, isDefinition: false, scopeLine: 145, flags: DIFlagPublic | DIFlagPrototyped, isOptimized: true)
!1040 = !DISubprogram(name: "operator String", linkageName: "_ZNK9IPAddresscv6StringEv", scope: !954, file: !955, line: 146, type: !1033, isLocal: false, isDefinition: false, scopeLine: 146, flags: DIFlagPublic | DIFlagPrototyped, isOptimized: true)
!1041 = !DISubprogram(name: "set_dst_ip_anno", linkageName: "_ZN6Packet15set_dst_ip_annoE9IPAddress", scope: !5, file: !4, line: 436, type: !1042, isLocal: false, isDefinition: false, scopeLine: 436, flags: DIFlagPublic | DIFlagPrototyped, isOptimized: true)
!1042 = !DISubroutineType(types: !1043)
!1043 = !{null, !259, !954}
!1044 = !DISubprogram(name: "anno", linkageName: "_ZN6Packet4annoEv", scope: !5, file: !4, line: 441, type: !291, isLocal: false, isDefinition: false, scopeLine: 441, flags: DIFlagPublic | DIFlagPrototyped, isOptimized: true)
!1045 = !DISubprogram(name: "anno", linkageName: "_ZNK6Packet4annoEv", scope: !5, file: !4, line: 444, type: !1046, isLocal: false, isDefinition: false, scopeLine: 444, flags: DIFlagPublic | DIFlagPrototyped, isOptimized: true)
!1046 = !DISubroutineType(types: !1047)
!1047 = !{!242, !263}
!1048 = !DISubprogram(name: "anno_u8", linkageName: "_ZN6Packet7anno_u8Ev", scope: !5, file: !4, line: 447, type: !1049, isLocal: false, isDefinition: false, scopeLine: 447, flags: DIFlagPublic | DIFlagPrototyped, isOptimized: true)
!1049 = !DISubroutineType(types: !1050)
!1050 = !{!1051, !259}
!1051 = !DIDerivedType(tag: DW_TAG_pointer_type, baseType: !94, size: 64)
!1052 = !DISubprogram(name: "anno_u8", linkageName: "_ZNK6Packet7anno_u8Ev", scope: !5, file: !4, line: 450, type: !1053, isLocal: false, isDefinition: false, scopeLine: 450, flags: DIFlagPublic | DIFlagPrototyped, isOptimized: true)
!1053 = !DISubroutineType(types: !1054)
!1054 = !{!1055, !263}
!1055 = !DIDerivedType(tag: DW_TAG_pointer_type, baseType: !1056, size: 64)
!1056 = !DIDerivedType(tag: DW_TAG_const_type, baseType: !94)
!1057 = !DISubprogram(name: "anno_u32", linkageName: "_ZN6Packet8anno_u32Ev", scope: !5, file: !4, line: 453, type: !1058, isLocal: false, isDefinition: false, scopeLine: 453, flags: DIFlagPublic | DIFlagPrototyped, isOptimized: true)
!1058 = !DISubroutineType(types: !1059)
!1059 = !{!1060, !259}
!1060 = !DIDerivedType(tag: DW_TAG_pointer_type, baseType: !12, size: 64)
!1061 = !DISubprogram(name: "anno_u32", linkageName: "_ZNK6Packet8anno_u32Ev", scope: !5, file: !4, line: 456, type: !1062, isLocal: false, isDefinition: false, scopeLine: 456, flags: DIFlagPublic | DIFlagPrototyped, isOptimized: true)
!1062 = !DISubroutineType(types: !1063)
!1063 = !{!1064, !263}
!1064 = !DIDerivedType(tag: DW_TAG_pointer_type, baseType: !1065, size: 64)
!1065 = !DIDerivedType(tag: DW_TAG_const_type, baseType: !12)
!1066 = !DISubprogram(name: "anno_u8", linkageName: "_ZNK6Packet7anno_u8Ei", scope: !5, file: !4, line: 460, type: !1067, isLocal: false, isDefinition: false, scopeLine: 460, flags: DIFlagPublic | DIFlagPrototyped, isOptimized: true)
!1067 = !DISubroutineType(types: !1068)
!1068 = !{!94, !263, !30}
!1069 = !DISubprogram(name: "set_anno_u8", linkageName: "_ZN6Packet11set_anno_u8Eih", scope: !5, file: !4, line: 469, type: !1070, isLocal: false, isDefinition: false, scopeLine: 469, flags: DIFlagPublic | DIFlagPrototyped, isOptimized: true)
!1070 = !DISubroutineType(types: !1071)
!1071 = !{null, !259, !30, !94}
!1072 = !DISubprogram(name: "anno_u16", linkageName: "_ZNK6Packet8anno_u16Ei", scope: !5, file: !4, line: 479, type: !1073, isLocal: false, isDefinition: false, scopeLine: 479, flags: DIFlagPublic | DIFlagPrototyped, isOptimized: true)
!1073 = !DISubroutineType(types: !1074)
!1074 = !{!97, !263, !30}
!1075 = !DISubprogram(name: "set_anno_u16", linkageName: "_ZN6Packet12set_anno_u16Eit", scope: !5, file: !4, line: 494, type: !1076, isLocal: false, isDefinition: false, scopeLine: 494, flags: DIFlagPublic | DIFlagPrototyped, isOptimized: true)
!1076 = !DISubroutineType(types: !1077)
!1077 = !{null, !259, !30, !97}
!1078 = !DISubprogram(name: "anno_s16", linkageName: "_ZNK6Packet8anno_s16Ei", scope: !5, file: !4, line: 507, type: !1079, isLocal: false, isDefinition: false, scopeLine: 507, flags: DIFlagPublic | DIFlagPrototyped, isOptimized: true)
!1079 = !DISubroutineType(types: !1080)
!1080 = !{!1081, !263, !30}
!1081 = !DIDerivedType(tag: DW_TAG_typedef, name: "int16_t", file: !13, line: 37, baseType: !1082)
!1082 = !DIBasicType(name: "short", size: 16, encoding: DW_ATE_signed)
!1083 = !DISubprogram(name: "set_anno_s16", linkageName: "_ZN6Packet12set_anno_s16Eis", scope: !5, file: !4, line: 522, type: !1084, isLocal: false, isDefinition: false, scopeLine: 522, flags: DIFlagPublic | DIFlagPrototyped, isOptimized: true)
!1084 = !DISubroutineType(types: !1085)
!1085 = !{null, !259, !30, !1081}
!1086 = !DISubprogram(name: "anno_u32", linkageName: "_ZNK6Packet8anno_u32Ei", scope: !5, file: !4, line: 535, type: !1087, isLocal: false, isDefinition: false, scopeLine: 535, flags: DIFlagPublic | DIFlagPrototyped, isOptimized: true)
!1087 = !DISubroutineType(types: !1088)
!1088 = !{!12, !263, !30}
!1089 = !DISubprogram(name: "set_anno_u32", linkageName: "_ZN6Packet12set_anno_u32Eij", scope: !5, file: !4, line: 550, type: !1090, isLocal: false, isDefinition: false, scopeLine: 550, flags: DIFlagPublic | DIFlagPrototyped, isOptimized: true)
!1090 = !DISubroutineType(types: !1091)
!1091 = !{null, !259, !30, !12}
!1092 = !DISubprogram(name: "anno_s32", linkageName: "_ZNK6Packet8anno_s32Ei", scope: !5, file: !4, line: 562, type: !1093, isLocal: false, isDefinition: false, scopeLine: 562, flags: DIFlagPublic | DIFlagPrototyped, isOptimized: true)
!1093 = !DISubroutineType(types: !1094)
!1094 = !{!29, !263, !30}
!1095 = !DISubprogram(name: "set_anno_s32", linkageName: "_ZN6Packet12set_anno_s32Eii", scope: !5, file: !4, line: 577, type: !1096, isLocal: false, isDefinition: false, scopeLine: 577, flags: DIFlagPublic | DIFlagPrototyped, isOptimized: true)
!1096 = !DISubroutineType(types: !1097)
!1097 = !{null, !259, !30, !29}
!1098 = !DISubprogram(name: "anno_u64", linkageName: "_ZNK6Packet8anno_u64Ei", scope: !5, file: !4, line: 591, type: !1099, isLocal: false, isDefinition: false, scopeLine: 591, flags: DIFlagPublic | DIFlagPrototyped, isOptimized: true)
!1099 = !DISubroutineType(types: !1100)
!1100 = !{!107, !263, !30}
!1101 = !DISubprogram(name: "set_anno_u64", linkageName: "_ZN6Packet12set_anno_u64Eim", scope: !5, file: !4, line: 606, type: !1102, isLocal: false, isDefinition: false, scopeLine: 606, flags: DIFlagPublic | DIFlagPrototyped, isOptimized: true)
!1102 = !DISubroutineType(types: !1103)
!1103 = !{null, !259, !30, !107}
!1104 = !DISubprogram(name: "anno_ptr", linkageName: "_ZNK6Packet8anno_ptrEi", scope: !5, file: !4, line: 620, type: !1105, isLocal: false, isDefinition: false, scopeLine: 620, flags: DIFlagPublic | DIFlagPrototyped, isOptimized: true)
!1105 = !DISubroutineType(types: !1106)
!1106 = !{!128, !263, !30}
!1107 = !DISubprogram(name: "set_anno_ptr", linkageName: "_ZN6Packet12set_anno_ptrEiPKv", scope: !5, file: !4, line: 635, type: !1108, isLocal: false, isDefinition: false, scopeLine: 635, flags: DIFlagPublic | DIFlagPrototyped, isOptimized: true)
!1108 = !DISubroutineType(types: !1109)
!1109 = !{null, !259, !30, !242}
!1110 = !DISubprogram(name: "data_packet", linkageName: "_ZN6Packet11data_packetEv", scope: !5, file: !4, line: 644, type: !265, isLocal: false, isDefinition: false, scopeLine: 644, flags: DIFlagPublic | DIFlagPrototyped, isOptimized: true)
!1111 = !DISubprogram(name: "clear_annotations", linkageName: "_ZN6Packet17clear_annotationsEb", scope: !5, file: !4, line: 649, type: !1112, isLocal: false, isDefinition: false, scopeLine: 649, flags: DIFlagPublic | DIFlagPrototyped, isOptimized: true)
!1112 = !DISubroutineType(types: !1113)
!1113 = !{null, !259, !49}
!1114 = !DISubprogram(name: "copy_annotations", linkageName: "_ZN6Packet16copy_annotationsEPKS_", scope: !5, file: !4, line: 650, type: !1115, isLocal: false, isDefinition: false, scopeLine: 650, flags: DIFlagPublic | DIFlagPrototyped, isOptimized: true)
!1115 = !DISubroutineType(types: !1116)
!1116 = !{null, !259, !1117}
!1117 = !DIDerivedType(tag: DW_TAG_pointer_type, baseType: !231, size: 64)
!1118 = !DISubprogram(name: "buffer_data", linkageName: "_ZNK6Packet11buffer_dataEv", scope: !5, file: !4, line: 667, type: !271, isLocal: false, isDefinition: false, scopeLine: 667, flags: DIFlagPublic | DIFlagPrototyped, isOptimized: true)
!1119 = !DISubprogram(name: "addr_anno", linkageName: "_ZN6Packet9addr_annoEv", scope: !5, file: !4, line: 668, type: !291, isLocal: false, isDefinition: false, scopeLine: 668, flags: DIFlagPublic | DIFlagPrototyped, isOptimized: true)
!1120 = !DISubprogram(name: "addr_anno", linkageName: "_ZNK6Packet9addr_annoEv", scope: !5, file: !4, line: 669, type: !1046, isLocal: false, isDefinition: false, scopeLine: 669, flags: DIFlagPublic | DIFlagPrototyped, isOptimized: true)
!1121 = !DISubprogram(name: "user_anno", linkageName: "_ZN6Packet9user_annoEv", scope: !5, file: !4, line: 670, type: !291, isLocal: false, isDefinition: false, scopeLine: 670, flags: DIFlagPublic | DIFlagPrototyped, isOptimized: true)
!1122 = !DISubprogram(name: "user_anno", linkageName: "_ZNK6Packet9user_annoEv", scope: !5, file: !4, line: 671, type: !1046, isLocal: false, isDefinition: false, scopeLine: 671, flags: DIFlagPublic | DIFlagPrototyped, isOptimized: true)
!1123 = !DISubprogram(name: "user_anno_u8", linkageName: "_ZN6Packet12user_anno_u8Ev", scope: !5, file: !4, line: 672, type: !1049, isLocal: false, isDefinition: false, scopeLine: 672, flags: DIFlagPublic | DIFlagPrototyped, isOptimized: true)
!1124 = !DISubprogram(name: "user_anno_u8", linkageName: "_ZNK6Packet12user_anno_u8Ev", scope: !5, file: !4, line: 673, type: !1053, isLocal: false, isDefinition: false, scopeLine: 673, flags: DIFlagPublic | DIFlagPrototyped, isOptimized: true)
!1125 = !DISubprogram(name: "user_anno_u32", linkageName: "_ZN6Packet13user_anno_u32Ev", scope: !5, file: !4, line: 674, type: !1058, isLocal: false, isDefinition: false, scopeLine: 674, flags: DIFlagPublic | DIFlagPrototyped, isOptimized: true)
!1126 = !DISubprogram(name: "user_anno_u32", linkageName: "_ZNK6Packet13user_anno_u32Ev", scope: !5, file: !4, line: 675, type: !1062, isLocal: false, isDefinition: false, scopeLine: 675, flags: DIFlagPublic | DIFlagPrototyped, isOptimized: true)
!1127 = !DISubprogram(name: "user_anno_u8", linkageName: "_ZNK6Packet12user_anno_u8Ei", scope: !5, file: !4, line: 676, type: !1067, isLocal: false, isDefinition: false, scopeLine: 676, flags: DIFlagPublic | DIFlagPrototyped, isOptimized: true)
!1128 = !DISubprogram(name: "set_user_anno_u8", linkageName: "_ZN6Packet16set_user_anno_u8Eih", scope: !5, file: !4, line: 677, type: !1070, isLocal: false, isDefinition: false, scopeLine: 677, flags: DIFlagPublic | DIFlagPrototyped, isOptimized: true)
!1129 = !DISubprogram(name: "user_anno_u16", linkageName: "_ZNK6Packet13user_anno_u16Ei", scope: !5, file: !4, line: 678, type: !1073, isLocal: false, isDefinition: false, scopeLine: 678, flags: DIFlagPublic | DIFlagPrototyped, isOptimized: true)
!1130 = !DISubprogram(name: "set_user_anno_u16", linkageName: "_ZN6Packet17set_user_anno_u16Eit", scope: !5, file: !4, line: 679, type: !1076, isLocal: false, isDefinition: false, scopeLine: 679, flags: DIFlagPublic | DIFlagPrototyped, isOptimized: true)
!1131 = !DISubprogram(name: "user_anno_u32", linkageName: "_ZNK6Packet13user_anno_u32Ei", scope: !5, file: !4, line: 680, type: !1087, isLocal: false, isDefinition: false, scopeLine: 680, flags: DIFlagPublic | DIFlagPrototyped, isOptimized: true)
!1132 = !DISubprogram(name: "set_user_anno_u32", linkageName: "_ZN6Packet17set_user_anno_u32Eij", scope: !5, file: !4, line: 681, type: !1090, isLocal: false, isDefinition: false, scopeLine: 681, flags: DIFlagPublic | DIFlagPrototyped, isOptimized: true)
!1133 = !DISubprogram(name: "user_anno_s32", linkageName: "_ZNK6Packet13user_anno_s32Ei", scope: !5, file: !4, line: 682, type: !1093, isLocal: false, isDefinition: false, scopeLine: 682, flags: DIFlagPublic | DIFlagPrototyped, isOptimized: true)
!1134 = !DISubprogram(name: "set_user_anno_s32", linkageName: "_ZN6Packet17set_user_anno_s32Eii", scope: !5, file: !4, line: 683, type: !1096, isLocal: false, isDefinition: false, scopeLine: 683, flags: DIFlagPublic | DIFlagPrototyped, isOptimized: true)
!1135 = !DISubprogram(name: "user_anno_u64", linkageName: "_ZNK6Packet13user_anno_u64Ei", scope: !5, file: !4, line: 685, type: !1099, isLocal: false, isDefinition: false, scopeLine: 685, flags: DIFlagPublic | DIFlagPrototyped, isOptimized: true)
!1136 = !DISubprogram(name: "set_user_anno_u64", linkageName: "_ZN6Packet17set_user_anno_u64Eim", scope: !5, file: !4, line: 686, type: !1102, isLocal: false, isDefinition: false, scopeLine: 686, flags: DIFlagPublic | DIFlagPrototyped, isOptimized: true)
!1137 = !DISubprogram(name: "all_user_anno", linkageName: "_ZNK6Packet13all_user_annoEv", scope: !5, file: !4, line: 688, type: !1053, isLocal: false, isDefinition: false, scopeLine: 688, flags: DIFlagPublic | DIFlagPrototyped, isOptimized: true)
!1138 = !DISubprogram(name: "all_user_anno", linkageName: "_ZN6Packet13all_user_annoEv", scope: !5, file: !4, line: 689, type: !1049, isLocal: false, isDefinition: false, scopeLine: 689, flags: DIFlagPublic | DIFlagPrototyped, isOptimized: true)
!1139 = !DISubprogram(name: "all_user_anno_u", linkageName: "_ZNK6Packet15all_user_anno_uEv", scope: !5, file: !4, line: 690, type: !1062, isLocal: false, isDefinition: false, scopeLine: 690, flags: DIFlagPublic | DIFlagPrototyped, isOptimized: true)
!1140 = !DISubprogram(name: "all_user_anno_u", linkageName: "_ZN6Packet15all_user_anno_uEv", scope: !5, file: !4, line: 691, type: !1058, isLocal: false, isDefinition: false, scopeLine: 691, flags: DIFlagPublic | DIFlagPrototyped, isOptimized: true)
!1141 = !DISubprogram(name: "user_anno_c", linkageName: "_ZNK6Packet11user_anno_cEi", scope: !5, file: !4, line: 692, type: !1067, isLocal: false, isDefinition: false, scopeLine: 692, flags: DIFlagPublic | DIFlagPrototyped, isOptimized: true)
!1142 = !DISubprogram(name: "set_user_anno_c", linkageName: "_ZN6Packet15set_user_anno_cEih", scope: !5, file: !4, line: 693, type: !1070, isLocal: false, isDefinition: false, scopeLine: 693, flags: DIFlagPublic | DIFlagPrototyped, isOptimized: true)
!1143 = !DISubprogram(name: "user_anno_s", linkageName: "_ZNK6Packet11user_anno_sEi", scope: !5, file: !4, line: 694, type: !1079, isLocal: false, isDefinition: false, scopeLine: 694, flags: DIFlagPublic | DIFlagPrototyped, isOptimized: true)
!1144 = !DISubprogram(name: "set_user_anno_s", linkageName: "_ZN6Packet15set_user_anno_sEis", scope: !5, file: !4, line: 695, type: !1084, isLocal: false, isDefinition: false, scopeLine: 695, flags: DIFlagPublic | DIFlagPrototyped, isOptimized: true)
!1145 = !DISubprogram(name: "user_anno_us", linkageName: "_ZNK6Packet12user_anno_usEi", scope: !5, file: !4, line: 696, type: !1073, isLocal: false, isDefinition: false, scopeLine: 696, flags: DIFlagPublic | DIFlagPrototyped, isOptimized: true)
!1146 = !DISubprogram(name: "set_user_anno_us", linkageName: "_ZN6Packet16set_user_anno_usEit", scope: !5, file: !4, line: 697, type: !1076, isLocal: false, isDefinition: false, scopeLine: 697, flags: DIFlagPublic | DIFlagPrototyped, isOptimized: true)
!1147 = !DISubprogram(name: "user_anno_i", linkageName: "_ZNK6Packet11user_anno_iEi", scope: !5, file: !4, line: 698, type: !1093, isLocal: false, isDefinition: false, scopeLine: 698, flags: DIFlagPublic | DIFlagPrototyped, isOptimized: true)
!1148 = !DISubprogram(name: "set_user_anno_i", linkageName: "_ZN6Packet15set_user_anno_iEii", scope: !5, file: !4, line: 699, type: !1096, isLocal: false, isDefinition: false, scopeLine: 699, flags: DIFlagPublic | DIFlagPrototyped, isOptimized: true)
!1149 = !DISubprogram(name: "user_anno_u", linkageName: "_ZNK6Packet11user_anno_uEi", scope: !5, file: !4, line: 700, type: !1087, isLocal: false, isDefinition: false, scopeLine: 700, flags: DIFlagPublic | DIFlagPrototyped, isOptimized: true)
!1150 = !DISubprogram(name: "set_user_anno_u", linkageName: "_ZN6Packet15set_user_anno_uEij", scope: !5, file: !4, line: 701, type: !1090, isLocal: false, isDefinition: false, scopeLine: 701, flags: DIFlagPublic | DIFlagPrototyped, isOptimized: true)
!1151 = !DISubprogram(name: "Packet", scope: !5, file: !4, line: 757, type: !257, isLocal: false, isDefinition: false, scopeLine: 757, flags: DIFlagPrototyped, isOptimized: true)
!1152 = !DISubprogram(name: "Packet", scope: !5, file: !4, line: 762, type: !1153, isLocal: false, isDefinition: false, scopeLine: 762, flags: DIFlagPrototyped, isOptimized: true)
!1153 = !DISubroutineType(types: !1154)
!1154 = !{null, !259, !230}
!1155 = !DISubprogram(name: "~Packet", scope: !5, file: !4, line: 763, type: !257, isLocal: false, isDefinition: false, scopeLine: 763, flags: DIFlagPrototyped, isOptimized: true)
!1156 = !DISubprogram(name: "operator=", linkageName: "_ZN6PacketaSERKS_", scope: !5, file: !4, line: 764, type: !1157, isLocal: false, isDefinition: false, scopeLine: 764, flags: DIFlagPrototyped, isOptimized: true)
!1157 = !DISubroutineType(types: !1158)
!1158 = !{!1159, !259, !230}
!1159 = !DIDerivedType(tag: DW_TAG_reference_type, baseType: !5, size: 64)
!1160 = !DISubprogram(name: "alloc_data", linkageName: "_ZN6Packet10alloc_dataEjjj", scope: !5, file: !4, line: 767, type: !1161, isLocal: false, isDefinition: false, scopeLine: 767, flags: DIFlagPrototyped, isOptimized: true)
!1161 = !DISubroutineType(types: !1162)
!1162 = !{!49, !259, !12, !12, !12}
!1163 = !DISubprogram(name: "shift_header_annotations", linkageName: "_ZN6Packet24shift_header_annotationsEPKhi", scope: !5, file: !4, line: 774, type: !1164, isLocal: false, isDefinition: false, scopeLine: 774, flags: DIFlagPrototyped, isOptimized: true)
!1164 = !DISubroutineType(types: !1165)
!1165 = !{null, !259, !273, !29}
!1166 = !DISubprogram(name: "expensive_uniqueify", linkageName: "_ZN6Packet19expensive_uniqueifyEiib", scope: !5, file: !4, line: 775, type: !1167, isLocal: false, isDefinition: false, scopeLine: 775, flags: DIFlagPrototyped, isOptimized: true)
!1167 = !DISubroutineType(types: !1168)
!1168 = !{!133, !259, !29, !29, !49}
!1169 = !DISubprogram(name: "expensive_push", linkageName: "_ZN6Packet14expensive_pushEj", scope: !5, file: !4, line: 776, type: !295, isLocal: false, isDefinition: false, scopeLine: 776, flags: DIFlagPrototyped, isOptimized: true)
!1170 = !DISubprogram(name: "expensive_put", linkageName: "_ZN6Packet13expensive_putEj", scope: !5, file: !4, line: 777, type: !295, isLocal: false, isDefinition: false, scopeLine: 777, flags: DIFlagPrototyped, isOptimized: true)
!1171 = !{!1172, !1173, !1174, !1175, !1176, !1177, !1178}
!1172 = !DIEnumerator(name: "HOST", value: 0)
!1173 = !DIEnumerator(name: "BROADCAST", value: 1)
!1174 = !DIEnumerator(name: "MULTICAST", value: 2)
!1175 = !DIEnumerator(name: "OTHERHOST", value: 3)
!1176 = !DIEnumerator(name: "OUTGOING", value: 4)
!1177 = !DIEnumerator(name: "LOOPBACK", value: 5)
!1178 = !DIEnumerator(name: "FASTROUTE", value: 6)
!1179 = !DICompositeType(tag: DW_TAG_enumeration_type, name: "DeprecatedFlags", scope: !1181, file: !1180, line: 252, size: 32, elements: !1279, identifier: "_ZTSN7Handler15DeprecatedFlagsE")
!1180 = !DIFile(filename: "/usr/local/include/click/handler.hh", directory: "/home/jiarong/multi_thread_train/compute_prediction/c_packetprocessing/apps/env")
!1181 = distinct !DICompositeType(tag: DW_TAG_class_type, name: "Handler", file: !1180, line: 19, size: 576, elements: !1182, identifier: "_ZTS7Handler")
!1182 = !{!1183, !1184, !1205, !1214, !1215, !1216, !1217, !1218, !1219, !1220, !1224, !1227, !1230, !1233, !1234, !1235, !1236, !1239, !1240, !1241, !1242, !1243, !1244, !1245, !1246, !1247, !1250, !1253, !1256, !1259, !1262, !1265, !1268, !1272, !1276}
!1183 = !DIDerivedType(tag: DW_TAG_member, name: "_name", scope: !1181, file: !1180, line: 289, baseType: !572, size: 192)
!1184 = !DIDerivedType(tag: DW_TAG_member, name: "_read_hook", scope: !1181, file: !1180, line: 293, baseType: !1185, size: 64, offset: 192)
!1185 = distinct !DICompositeType(tag: DW_TAG_union_type, scope: !1181, file: !1180, line: 290, size: 64, elements: !1186, identifier: "_ZTSN7HandlerUt1_E")
!1186 = !{!1187, !1200}
!1187 = !DIDerivedType(tag: DW_TAG_member, name: "h", scope: !1185, file: !1180, line: 291, baseType: !1188, size: 64)
!1188 = !DIDerivedType(tag: DW_TAG_typedef, name: "HandlerCallback", file: !1180, line: 13, baseType: !1189)
!1189 = !DIDerivedType(tag: DW_TAG_pointer_type, baseType: !1190, size: 64)
!1190 = !DISubroutineType(types: !1191)
!1191 = !{!30, !30, !775, !1192, !1195, !1197}
!1192 = !DIDerivedType(tag: DW_TAG_pointer_type, baseType: !1193, size: 64)
!1193 = !DICompositeType(tag: DW_TAG_class_type, name: "Element", file: !1194, line: 29, flags: DIFlagFwdDecl, identifier: "_ZTS7Element")
!1194 = !DIFile(filename: "/usr/local/include/click/element.hh", directory: "/home/jiarong/multi_thread_train/compute_prediction/c_packetprocessing/apps/env")
!1195 = !DIDerivedType(tag: DW_TAG_pointer_type, baseType: !1196, size: 64)
!1196 = !DIDerivedType(tag: DW_TAG_const_type, baseType: !1181)
!1197 = !DIDerivedType(tag: DW_TAG_pointer_type, baseType: !1198, size: 64)
!1198 = !DICompositeType(tag: DW_TAG_class_type, name: "ErrorHandler", file: !1199, line: 12, flags: DIFlagFwdDecl, identifier: "_ZTS12ErrorHandler")
!1199 = !DIFile(filename: "/usr/local/include/click/confparse.hh", directory: "/home/jiarong/multi_thread_train/compute_prediction/c_packetprocessing/apps/env")
!1200 = !DIDerivedType(tag: DW_TAG_member, name: "r", scope: !1185, file: !1180, line: 292, baseType: !1201, size: 64)
!1201 = !DIDerivedType(tag: DW_TAG_typedef, name: "ReadHandlerCallback", file: !1180, line: 15, baseType: !1202)
!1202 = !DIDerivedType(tag: DW_TAG_pointer_type, baseType: !1203, size: 64)
!1203 = !DISubroutineType(types: !1204)
!1204 = !{!572, !1192, !128}
!1205 = !DIDerivedType(tag: DW_TAG_member, name: "_write_hook", scope: !1181, file: !1180, line: 297, baseType: !1206, size: 64, offset: 256)
!1206 = distinct !DICompositeType(tag: DW_TAG_union_type, scope: !1181, file: !1180, line: 294, size: 64, elements: !1207, identifier: "_ZTSN7HandlerUt2_E")
!1207 = !{!1208, !1209}
!1208 = !DIDerivedType(tag: DW_TAG_member, name: "h", scope: !1206, file: !1180, line: 295, baseType: !1188, size: 64)
!1209 = !DIDerivedType(tag: DW_TAG_member, name: "w", scope: !1206, file: !1180, line: 296, baseType: !1210, size: 64)
!1210 = !DIDerivedType(tag: DW_TAG_typedef, name: "WriteHandlerCallback", file: !1180, line: 16, baseType: !1211)
!1211 = !DIDerivedType(tag: DW_TAG_pointer_type, baseType: !1212, size: 64)
!1212 = !DISubroutineType(types: !1213)
!1213 = !{!30, !613, !1192, !128, !1197}
!1214 = !DIDerivedType(tag: DW_TAG_member, name: "_read_user_data", scope: !1181, file: !1180, line: 298, baseType: !128, size: 64, offset: 320)
!1215 = !DIDerivedType(tag: DW_TAG_member, name: "_write_user_data", scope: !1181, file: !1180, line: 299, baseType: !128, size: 64, offset: 384)
!1216 = !DIDerivedType(tag: DW_TAG_member, name: "_flags", scope: !1181, file: !1180, line: 300, baseType: !12, size: 32, offset: 448)
!1217 = !DIDerivedType(tag: DW_TAG_member, name: "_use_count", scope: !1181, file: !1180, line: 301, baseType: !30, size: 32, offset: 480)
!1218 = !DIDerivedType(tag: DW_TAG_member, name: "_next_by_name", scope: !1181, file: !1180, line: 302, baseType: !30, size: 32, offset: 512)
!1219 = !DIDerivedType(tag: DW_TAG_member, name: "the_blank_handler", scope: !1181, file: !1180, line: 304, baseType: !1195, flags: DIFlagStaticMember)
!1220 = !DISubprogram(name: "name", linkageName: "_ZNK7Handler4nameEv", scope: !1181, file: !1180, line: 62, type: !1221, isLocal: false, isDefinition: false, scopeLine: 62, flags: DIFlagPublic | DIFlagPrototyped, isOptimized: true)
!1221 = !DISubroutineType(types: !1222)
!1222 = !{!613, !1223}
!1223 = !DIDerivedType(tag: DW_TAG_pointer_type, baseType: !1196, size: 64, flags: DIFlagArtificial | DIFlagObjectPointer)
!1224 = !DISubprogram(name: "flags", linkageName: "_ZNK7Handler5flagsEv", scope: !1181, file: !1180, line: 69, type: !1225, isLocal: false, isDefinition: false, scopeLine: 69, flags: DIFlagPublic | DIFlagPrototyped, isOptimized: true)
!1225 = !DISubroutineType(types: !1226)
!1226 = !{!12, !1223}
!1227 = !DISubprogram(name: "user_data", linkageName: "_ZNK7Handler9user_dataEi", scope: !1181, file: !1180, line: 75, type: !1228, isLocal: false, isDefinition: false, scopeLine: 75, flags: DIFlagPublic | DIFlagPrototyped, isOptimized: true)
!1228 = !DISubroutineType(types: !1229)
!1229 = !{!128, !1223, !30}
!1230 = !DISubprogram(name: "read_user_data", linkageName: "_ZNK7Handler14read_user_dataEv", scope: !1181, file: !1180, line: 80, type: !1231, isLocal: false, isDefinition: false, scopeLine: 80, flags: DIFlagPublic | DIFlagPrototyped, isOptimized: true)
!1231 = !DISubroutineType(types: !1232)
!1232 = !{!128, !1223}
!1233 = !DISubprogram(name: "write_user_data", linkageName: "_ZNK7Handler15write_user_dataEv", scope: !1181, file: !1180, line: 85, type: !1231, isLocal: false, isDefinition: false, scopeLine: 85, flags: DIFlagPublic | DIFlagPrototyped, isOptimized: true)
!1234 = !DISubprogram(name: "user_data1", linkageName: "_ZNK7Handler10user_data1Ev", scope: !1181, file: !1180, line: 90, type: !1231, isLocal: false, isDefinition: false, scopeLine: 90, flags: DIFlagPublic | DIFlagPrototyped, isOptimized: true)
!1235 = !DISubprogram(name: "user_data2", linkageName: "_ZNK7Handler10user_data2Ev", scope: !1181, file: !1180, line: 91, type: !1231, isLocal: false, isDefinition: false, scopeLine: 91, flags: DIFlagPublic | DIFlagPrototyped, isOptimized: true)
!1236 = !DISubprogram(name: "readable", linkageName: "_ZNK7Handler8readableEv", scope: !1181, file: !1180, line: 96, type: !1237, isLocal: false, isDefinition: false, scopeLine: 96, flags: DIFlagPublic | DIFlagPrototyped, isOptimized: true)
!1237 = !DISubroutineType(types: !1238)
!1238 = !{!49, !1223}
!1239 = !DISubprogram(name: "read_param", linkageName: "_ZNK7Handler10read_paramEv", scope: !1181, file: !1180, line: 102, type: !1237, isLocal: false, isDefinition: false, scopeLine: 102, flags: DIFlagPublic | DIFlagPrototyped, isOptimized: true)
!1240 = !DISubprogram(name: "read_visible", linkageName: "_ZNK7Handler12read_visibleEv", scope: !1181, file: !1180, line: 111, type: !1237, isLocal: false, isDefinition: false, scopeLine: 111, flags: DIFlagPublic | DIFlagPrototyped, isOptimized: true)
!1241 = !DISubprogram(name: "writable", linkageName: "_ZNK7Handler8writableEv", scope: !1181, file: !1180, line: 116, type: !1237, isLocal: false, isDefinition: false, scopeLine: 116, flags: DIFlagPublic | DIFlagPrototyped, isOptimized: true)
!1242 = !DISubprogram(name: "write_visible", linkageName: "_ZNK7Handler13write_visibleEv", scope: !1181, file: !1180, line: 125, type: !1237, isLocal: false, isDefinition: false, scopeLine: 125, flags: DIFlagPublic | DIFlagPrototyped, isOptimized: true)
!1243 = !DISubprogram(name: "visible", linkageName: "_ZNK7Handler7visibleEv", scope: !1181, file: !1180, line: 130, type: !1237, isLocal: false, isDefinition: false, scopeLine: 130, flags: DIFlagPublic | DIFlagPrototyped, isOptimized: true)
!1244 = !DISubprogram(name: "allow_concurrent_handlers", linkageName: "_ZNK7Handler25allow_concurrent_handlersEv", scope: !1181, file: !1180, line: 136, type: !1237, isLocal: false, isDefinition: false, scopeLine: 136, flags: DIFlagPublic | DIFlagPrototyped, isOptimized: true)
!1245 = !DISubprogram(name: "allow_concurrent_threads", linkageName: "_ZNK7Handler24allow_concurrent_threadsEv", scope: !1181, file: !1180, line: 142, type: !1237, isLocal: false, isDefinition: false, scopeLine: 142, flags: DIFlagPublic | DIFlagPrototyped, isOptimized: true)
!1246 = !DISubprogram(name: "raw", linkageName: "_ZNK7Handler3rawEv", scope: !1181, file: !1180, line: 164, type: !1237, isLocal: false, isDefinition: false, scopeLine: 164, flags: DIFlagPublic | DIFlagPrototyped, isOptimized: true)
!1247 = !DISubprogram(name: "call_read", linkageName: "_ZNK7Handler9call_readEP7ElementRK6StringP12ErrorHandler", scope: !1181, file: !1180, line: 177, type: !1248, isLocal: false, isDefinition: false, scopeLine: 177, flags: DIFlagPublic | DIFlagPrototyped, isOptimized: true)
!1248 = !DISubroutineType(types: !1249)
!1249 = !{!572, !1223, !1192, !613, !1197}
!1250 = !DISubprogram(name: "call_read", linkageName: "_ZNK7Handler9call_readEP7ElementP12ErrorHandler", scope: !1181, file: !1180, line: 186, type: !1251, isLocal: false, isDefinition: false, scopeLine: 186, flags: DIFlagPublic | DIFlagPrototyped, isOptimized: true)
!1251 = !DISubroutineType(types: !1252)
!1252 = !{!572, !1223, !1192, !1197}
!1253 = !DISubprogram(name: "call_write", linkageName: "_ZNK7Handler10call_writeERK6StringP7ElementP12ErrorHandler", scope: !1181, file: !1180, line: 198, type: !1254, isLocal: false, isDefinition: false, scopeLine: 198, flags: DIFlagPublic | DIFlagPrototyped, isOptimized: true)
!1254 = !DISubroutineType(types: !1255)
!1255 = !{!30, !1223, !613, !1192, !1197}
!1256 = !DISubprogram(name: "unparse_name", linkageName: "_ZNK7Handler12unparse_nameEP7Element", scope: !1181, file: !1180, line: 207, type: !1257, isLocal: false, isDefinition: false, scopeLine: 207, flags: DIFlagPublic | DIFlagPrototyped, isOptimized: true)
!1257 = !DISubroutineType(types: !1258)
!1258 = !{!572, !1223, !1192}
!1259 = !DISubprogram(name: "unparse_name", linkageName: "_ZN7Handler12unparse_nameEP7ElementRK6String", scope: !1181, file: !1180, line: 216, type: !1260, isLocal: false, isDefinition: false, scopeLine: 216, flags: DIFlagPublic | DIFlagPrototyped | DIFlagStaticMember, isOptimized: true)
!1260 = !DISubroutineType(types: !1261)
!1261 = !{!572, !1192, !613}
!1262 = !DISubprogram(name: "blank_handler", linkageName: "_ZN7Handler13blank_handlerEv", scope: !1181, file: !1180, line: 223, type: !1263, isLocal: false, isDefinition: false, scopeLine: 223, flags: DIFlagPublic | DIFlagPrototyped | DIFlagStaticMember, isOptimized: true)
!1263 = !DISubroutineType(types: !1264)
!1264 = !{!1195}
!1265 = !DISubprogram(name: "__call_read", linkageName: "_ZNK7Handler11__call_readEP7ElementPv", scope: !1181, file: !1180, line: 281, type: !1266, isLocal: false, isDefinition: false, scopeLine: 281, flags: DIFlagPublic | DIFlagPrototyped, isOptimized: true)
!1266 = !DISubroutineType(types: !1267)
!1267 = !{!572, !1223, !1192, !128}
!1268 = !DISubprogram(name: "Handler", scope: !1181, file: !1180, line: 306, type: !1269, isLocal: false, isDefinition: false, scopeLine: 306, flags: DIFlagPrototyped, isOptimized: true)
!1269 = !DISubroutineType(types: !1270)
!1270 = !{null, !1271, !613}
!1271 = !DIDerivedType(tag: DW_TAG_pointer_type, baseType: !1181, size: 64, flags: DIFlagArtificial | DIFlagObjectPointer)
!1272 = !DISubprogram(name: "combine", linkageName: "_ZN7Handler7combineERKS_", scope: !1181, file: !1180, line: 308, type: !1273, isLocal: false, isDefinition: false, scopeLine: 308, flags: DIFlagPrototyped, isOptimized: true)
!1273 = !DISubroutineType(types: !1274)
!1274 = !{null, !1271, !1275}
!1275 = !DIDerivedType(tag: DW_TAG_reference_type, baseType: !1196, size: 64)
!1276 = !DISubprogram(name: "compatible", linkageName: "_ZNK7Handler10compatibleERKS_", scope: !1181, file: !1180, line: 309, type: !1277, isLocal: false, isDefinition: false, scopeLine: 309, flags: DIFlagPrototyped, isOptimized: true)
!1277 = !DISubroutineType(types: !1278)
!1278 = !{!49, !1223, !1275}
!1279 = !{!1280, !1281, !1282, !1283, !1284, !1285, !1286, !1287, !1288, !1289}
!1280 = !DIEnumerator(name: "OP_READ", value: 1)
!1281 = !DIEnumerator(name: "OP_WRITE", value: 2)
!1282 = !DIEnumerator(name: "READ_PARAM", value: 4)
!1283 = !DIEnumerator(name: "RAW", value: 64)
!1284 = !DIEnumerator(name: "CALM", value: 2048)
!1285 = !DIEnumerator(name: "EXPENSIVE", value: 4096)
!1286 = !DIEnumerator(name: "BUTTON", value: 8192)
!1287 = !DIEnumerator(name: "CHECKBOX", value: 16384)
!1288 = !DIEnumerator(name: "USER_FLAG_SHIFT", value: 28)
!1289 = !DIEnumerator(name: "USER_FLAG_0", value: 268435456)
!1290 = !{!1051, !133, !155, !355, !195, !383, !213, !388, !1291}
!1291 = !DIDerivedType(tag: DW_TAG_pointer_type, baseType: !49, size: 64)
!1292 = !{!1293, !1348, !1352, !1357, !1363, !1365, !1369, !1374, !1376, !1381, !1385, !1389, !1398, !1402, !1406, !1410, !1414, !1418, !1422, !1426, !1430, !1434, !1442, !1446, !1450, !1452, !1454, !1458, !1462, !1468, !1472, !1476, !1478, !1486, !1490, !1497, !1499, !1503, !1507, !1511, !1515, !1519, !1524, !1529, !1530, !1531, !1532, !1534, !1535, !1536, !1537, !1538, !1539, !1540, !1546, !1548, !1550, !1554, !1556, !1558, !1560, !1562, !1564, !1566, !1568, !1573, !1577, !1579, !1581, !1586, !1588, !1590, !1592, !1594, !1596, !1598, !1601, !1603, !1605, !1609, !1613, !1615, !1617, !1619, !1621, !1623, !1625, !1627, !1629, !1631, !1633, !1637, !1641, !1643, !1645, !1647, !1649, !1651, !1653, !1655, !1657, !1659, !1661, !1663, !1665, !1667, !1669, !1671, !1675, !1679, !1683, !1685, !1687, !1689, !1691, !1693, !1695, !1697, !1699, !1701, !1705, !1709, !1713, !1715, !1717, !1719, !1723, !1727, !1731, !1733, !1735, !1737, !1739, !1741, !1743, !1745, !1747, !1749, !1751, !1753, !1755, !1759, !1763, !1767, !1769, !1771, !1773, !1775, !1779, !1783, !1785, !1787, !1789, !1791, !1793, !1795, !1799, !1803, !1805, !1807, !1809, !1811, !1815, !1819, !1823, !1825, !1827, !1829, !1831, !1833, !1835, !1839, !1843, !1847, !1849, !1853, !1857, !1859, !1861, !1863, !1865, !1867, !1869, !1885, !1887, !1891, !1942, !1947, !1951, !1955, !1959, !1963, !1965, !1967, !1971, !1977, !1981, !1987, !1993, !1995, !1999, !2003, !2007, !2011, !2022, !2024, !2028, !2032, !2036, !2038, !2042, !2046, !2050, !2052, !2054, !2058, !2066, !2070, !2074, !2078, !2080, !2086, !2088, !2094, !2098, !2102, !2106, !2110, !2114, !2118, !2120, !2122, !2126, !2130, !2134, !2136, !2140, !2144, !2146, !2148, !2152, !2156, !2160, !2164, !2165, !2166, !2167, !2168, !2169, !2170, !2171, !2172, !2173, !2174, !2177, !2178, !2179, !2180, !2182, !2184, !2186, !2188, !2190, !2192, !2194, !2196, !2198, !2200, !2201, !2202, !2203, !2204, !2206, !2208, !2210, !2212, !2214, !2216, !2218, !2220, !2222, !2224, !2227, !2229, !2233, !2237, !2242, !2246, !2248, !2250, !2252, !2254, !2256, !2258, !2260, !2262, !2264, !2266, !2268, !2270, !2272, !2275, !2280, !2285, !2289, !2291, !2293, !2295, !2297, !2304, !2308, !2312, !2316, !2320, !2324, !2329, !2333, !2335, !2339, !2345, !2349, !2354, !2356, !2359, !2363, !2367, !2369, !2371, !2373, !2375, !2379, !2381, !2383, !2387, !2391, !2395, !2399, !2403, !2407, !2409, !2413, !2417, !2421, !2425, !2427, !2429, !2433, !2437, !2438, !2439, !2440, !2441}
!1293 = !DIImportedEntity(tag: DW_TAG_imported_declaration, scope: !1294, entity: !1295, file: !1296, line: 58)
!1294 = !DINamespace(name: "std", scope: null)
!1295 = distinct !DICompositeType(tag: DW_TAG_class_type, name: "exception_ptr", scope: !1297, file: !1296, line: 75, size: 64, elements: !1298, identifier: "_ZTSNSt15__exception_ptr13exception_ptrE")
!1296 = !DIFile(filename: "/usr/bin/../lib/gcc/x86_64-linux-gnu/5.4.0/../../../../include/c++/5.4.0/bits/exception_ptr.h", directory: "/home/jiarong/multi_thread_train/compute_prediction/c_packetprocessing/apps/env")
!1297 = !DINamespace(name: "__exception_ptr", scope: !1294)
!1298 = !{!1299, !1300, !1304, !1307, !1308, !1313, !1314, !1318, !1324, !1328, !1332, !1335, !1336, !1339, !1342}
!1299 = !DIDerivedType(tag: DW_TAG_member, name: "_M_exception_object", scope: !1295, file: !1296, line: 77, baseType: !128, size: 64)
!1300 = !DISubprogram(name: "exception_ptr", scope: !1295, file: !1296, line: 79, type: !1301, isLocal: false, isDefinition: false, scopeLine: 79, flags: DIFlagExplicit | DIFlagPrototyped, isOptimized: true)
!1301 = !DISubroutineType(types: !1302)
!1302 = !{null, !1303, !128}
!1303 = !DIDerivedType(tag: DW_TAG_pointer_type, baseType: !1295, size: 64, flags: DIFlagArtificial | DIFlagObjectPointer)
!1304 = !DISubprogram(name: "_M_addref", linkageName: "_ZNSt15__exception_ptr13exception_ptr9_M_addrefEv", scope: !1295, file: !1296, line: 81, type: !1305, isLocal: false, isDefinition: false, scopeLine: 81, flags: DIFlagPrototyped, isOptimized: true)
!1305 = !DISubroutineType(types: !1306)
!1306 = !{null, !1303}
!1307 = !DISubprogram(name: "_M_release", linkageName: "_ZNSt15__exception_ptr13exception_ptr10_M_releaseEv", scope: !1295, file: !1296, line: 82, type: !1305, isLocal: false, isDefinition: false, scopeLine: 82, flags: DIFlagPrototyped, isOptimized: true)
!1308 = !DISubprogram(name: "_M_get", linkageName: "_ZNKSt15__exception_ptr13exception_ptr6_M_getEv", scope: !1295, file: !1296, line: 84, type: !1309, isLocal: false, isDefinition: false, scopeLine: 84, flags: DIFlagPrototyped, isOptimized: true)
!1309 = !DISubroutineType(types: !1310)
!1310 = !{!128, !1311}
!1311 = !DIDerivedType(tag: DW_TAG_pointer_type, baseType: !1312, size: 64, flags: DIFlagArtificial | DIFlagObjectPointer)
!1312 = !DIDerivedType(tag: DW_TAG_const_type, baseType: !1295)
!1313 = !DISubprogram(name: "exception_ptr", scope: !1295, file: !1296, line: 90, type: !1305, isLocal: false, isDefinition: false, scopeLine: 90, flags: DIFlagPublic | DIFlagPrototyped, isOptimized: true)
!1314 = !DISubprogram(name: "exception_ptr", scope: !1295, file: !1296, line: 92, type: !1315, isLocal: false, isDefinition: false, scopeLine: 92, flags: DIFlagPublic | DIFlagPrototyped, isOptimized: true)
!1315 = !DISubroutineType(types: !1316)
!1316 = !{null, !1303, !1317}
!1317 = !DIDerivedType(tag: DW_TAG_reference_type, baseType: !1312, size: 64)
!1318 = !DISubprogram(name: "exception_ptr", scope: !1295, file: !1296, line: 95, type: !1319, isLocal: false, isDefinition: false, scopeLine: 95, flags: DIFlagPublic | DIFlagPrototyped, isOptimized: true)
!1319 = !DISubroutineType(types: !1320)
!1320 = !{null, !1303, !1321}
!1321 = !DIDerivedType(tag: DW_TAG_typedef, name: "nullptr_t", scope: !1294, file: !1322, line: 200, baseType: !1323)
!1322 = !DIFile(filename: "/usr/bin/../lib/gcc/x86_64-linux-gnu/5.4.0/../../../../include/x86_64-linux-gnu/c++/5.4.0/bits/c++config.h", directory: "/home/jiarong/multi_thread_train/compute_prediction/c_packetprocessing/apps/env")
!1323 = !DIBasicType(tag: DW_TAG_unspecified_type, name: "decltype(nullptr)")
!1324 = !DISubprogram(name: "exception_ptr", scope: !1295, file: !1296, line: 99, type: !1325, isLocal: false, isDefinition: false, scopeLine: 99, flags: DIFlagPublic | DIFlagPrototyped, isOptimized: true)
!1325 = !DISubroutineType(types: !1326)
!1326 = !{null, !1303, !1327}
!1327 = !DIDerivedType(tag: DW_TAG_rvalue_reference_type, baseType: !1295, size: 64)
!1328 = !DISubprogram(name: "operator=", linkageName: "_ZNSt15__exception_ptr13exception_ptraSERKS0_", scope: !1295, file: !1296, line: 112, type: !1329, isLocal: false, isDefinition: false, scopeLine: 112, flags: DIFlagPublic | DIFlagPrototyped, isOptimized: true)
!1329 = !DISubroutineType(types: !1330)
!1330 = !{!1331, !1303, !1317}
!1331 = !DIDerivedType(tag: DW_TAG_reference_type, baseType: !1295, size: 64)
!1332 = !DISubprogram(name: "operator=", linkageName: "_ZNSt15__exception_ptr13exception_ptraSEOS0_", scope: !1295, file: !1296, line: 116, type: !1333, isLocal: false, isDefinition: false, scopeLine: 116, flags: DIFlagPublic | DIFlagPrototyped, isOptimized: true)
!1333 = !DISubroutineType(types: !1334)
!1334 = !{!1331, !1303, !1327}
!1335 = !DISubprogram(name: "~exception_ptr", scope: !1295, file: !1296, line: 123, type: !1305, isLocal: false, isDefinition: false, scopeLine: 123, flags: DIFlagPublic | DIFlagPrototyped, isOptimized: true)
!1336 = !DISubprogram(name: "swap", linkageName: "_ZNSt15__exception_ptr13exception_ptr4swapERS0_", scope: !1295, file: !1296, line: 126, type: !1337, isLocal: false, isDefinition: false, scopeLine: 126, flags: DIFlagPublic | DIFlagPrototyped, isOptimized: true)
!1337 = !DISubroutineType(types: !1338)
!1338 = !{null, !1303, !1331}
!1339 = !DISubprogram(name: "operator bool", linkageName: "_ZNKSt15__exception_ptr13exception_ptrcvbEv", scope: !1295, file: !1296, line: 138, type: !1340, isLocal: false, isDefinition: false, scopeLine: 138, flags: DIFlagPublic | DIFlagExplicit | DIFlagPrototyped, isOptimized: true)
!1340 = !DISubroutineType(types: !1341)
!1341 = !{!49, !1311}
!1342 = !DISubprogram(name: "__cxa_exception_type", linkageName: "_ZNKSt15__exception_ptr13exception_ptr20__cxa_exception_typeEv", scope: !1295, file: !1296, line: 147, type: !1343, isLocal: false, isDefinition: false, scopeLine: 147, flags: DIFlagPublic | DIFlagPrototyped, isOptimized: true)
!1343 = !DISubroutineType(types: !1344)
!1344 = !{!1345, !1311}
!1345 = !DIDerivedType(tag: DW_TAG_pointer_type, baseType: !1346, size: 64)
!1346 = !DIDerivedType(tag: DW_TAG_const_type, baseType: !1347)
!1347 = !DICompositeType(tag: DW_TAG_class_type, name: "type_info", scope: !1294, file: !1296, line: 47, flags: DIFlagFwdDecl, identifier: "_ZTSSt9type_info")
!1348 = !DIImportedEntity(tag: DW_TAG_imported_module, scope: !1349, entity: !1350, file: !1351, line: 56)
!1349 = !DINamespace(name: "__gnu_debug", scope: null)
!1350 = !DINamespace(name: "__debug", scope: !1294)
!1351 = !DIFile(filename: "/usr/bin/../lib/gcc/x86_64-linux-gnu/5.4.0/../../../../include/c++/5.4.0/debug/debug.h", directory: "/home/jiarong/multi_thread_train/compute_prediction/c_packetprocessing/apps/env")
!1352 = !DIImportedEntity(tag: DW_TAG_imported_declaration, scope: !1294, entity: !1353, file: !1356, line: 118)
!1353 = !DIDerivedType(tag: DW_TAG_typedef, name: "div_t", file: !1354, line: 101, baseType: !1355)
!1354 = !DIFile(filename: "/usr/include/stdlib.h", directory: "/home/jiarong/multi_thread_train/compute_prediction/c_packetprocessing/apps/env")
!1355 = !DICompositeType(tag: DW_TAG_structure_type, file: !1354, line: 97, flags: DIFlagFwdDecl, identifier: "_ZTS5div_t")
!1356 = !DIFile(filename: "/usr/bin/../lib/gcc/x86_64-linux-gnu/5.4.0/../../../../include/c++/5.4.0/cstdlib", directory: "/home/jiarong/multi_thread_train/compute_prediction/c_packetprocessing/apps/env")
!1357 = !DIImportedEntity(tag: DW_TAG_imported_declaration, scope: !1294, entity: !1358, file: !1356, line: 119)
!1358 = !DIDerivedType(tag: DW_TAG_typedef, name: "ldiv_t", file: !1354, line: 109, baseType: !1359)
!1359 = distinct !DICompositeType(tag: DW_TAG_structure_type, file: !1354, line: 105, size: 128, elements: !1360, identifier: "_ZTS6ldiv_t")
!1360 = !{!1361, !1362}
!1361 = !DIDerivedType(tag: DW_TAG_member, name: "quot", scope: !1359, file: !1354, line: 107, baseType: !412, size: 64)
!1362 = !DIDerivedType(tag: DW_TAG_member, name: "rem", scope: !1359, file: !1354, line: 108, baseType: !412, size: 64, offset: 64)
!1363 = !DIImportedEntity(tag: DW_TAG_imported_declaration, scope: !1294, entity: !1364, file: !1356, line: 121)
!1364 = !DISubprogram(name: "abort", scope: !1354, file: !1354, line: 515, type: !254, isLocal: false, isDefinition: false, flags: DIFlagPrototyped | DIFlagNoReturn, isOptimized: true)
!1365 = !DIImportedEntity(tag: DW_TAG_imported_declaration, scope: !1294, entity: !1366, file: !1356, line: 122)
!1366 = !DISubprogram(name: "abs", scope: !1354, file: !1354, line: 774, type: !1367, isLocal: false, isDefinition: false, flags: DIFlagPrototyped, isOptimized: true)
!1367 = !DISubroutineType(types: !1368)
!1368 = !{!30, !30}
!1369 = !DIImportedEntity(tag: DW_TAG_imported_declaration, scope: !1294, entity: !1370, file: !1356, line: 123)
!1370 = !DISubprogram(name: "atexit", scope: !1354, file: !1354, line: 519, type: !1371, isLocal: false, isDefinition: false, flags: DIFlagPrototyped, isOptimized: true)
!1371 = !DISubroutineType(types: !1372)
!1372 = !{!30, !1373}
!1373 = !DIDerivedType(tag: DW_TAG_pointer_type, baseType: !254, size: 64)
!1374 = !DIImportedEntity(tag: DW_TAG_imported_declaration, scope: !1294, entity: !1375, file: !1356, line: 126)
!1375 = !DISubprogram(name: "at_quick_exit", scope: !1354, file: !1354, line: 524, type: !1371, isLocal: false, isDefinition: false, flags: DIFlagPrototyped, isOptimized: true)
!1376 = !DIImportedEntity(tag: DW_TAG_imported_declaration, scope: !1294, entity: !1377, file: !1356, line: 129)
!1377 = !DISubprogram(name: "atof", scope: !1378, file: !1378, line: 26, type: !1379, isLocal: false, isDefinition: false, flags: DIFlagPrototyped, isOptimized: true)
!1378 = !DIFile(filename: "/usr/include/x86_64-linux-gnu/bits/stdlib-float.h", directory: "/home/jiarong/multi_thread_train/compute_prediction/c_packetprocessing/apps/env")
!1379 = !DISubroutineType(types: !1380)
!1380 = !{!432, !584}
!1381 = !DIImportedEntity(tag: DW_TAG_imported_declaration, scope: !1294, entity: !1382, file: !1356, line: 130)
!1382 = !DISubprogram(name: "atoi", scope: !1354, file: !1354, line: 278, type: !1383, isLocal: false, isDefinition: false, flags: DIFlagPrototyped, isOptimized: true)
!1383 = !DISubroutineType(types: !1384)
!1384 = !{!30, !584}
!1385 = !DIImportedEntity(tag: DW_TAG_imported_declaration, scope: !1294, entity: !1386, file: !1356, line: 131)
!1386 = !DISubprogram(name: "atol", scope: !1354, file: !1354, line: 283, type: !1387, isLocal: false, isDefinition: false, flags: DIFlagPrototyped, isOptimized: true)
!1387 = !DISubroutineType(types: !1388)
!1388 = !{!412, !584}
!1389 = !DIImportedEntity(tag: DW_TAG_imported_declaration, scope: !1294, entity: !1390, file: !1356, line: 132)
!1390 = !DISubprogram(name: "bsearch", scope: !1391, file: !1391, line: 20, type: !1392, isLocal: false, isDefinition: false, flags: DIFlagPrototyped, isOptimized: true)
!1391 = !DIFile(filename: "/usr/include/x86_64-linux-gnu/bits/stdlib-bsearch.h", directory: "/home/jiarong/multi_thread_train/compute_prediction/c_packetprocessing/apps/env")
!1392 = !DISubroutineType(types: !1393)
!1393 = !{!128, !242, !242, !126, !126, !1394}
!1394 = !DIDerivedType(tag: DW_TAG_typedef, name: "__compar_fn_t", file: !1354, line: 741, baseType: !1395)
!1395 = !DIDerivedType(tag: DW_TAG_pointer_type, baseType: !1396, size: 64)
!1396 = !DISubroutineType(types: !1397)
!1397 = !{!30, !242, !242}
!1398 = !DIImportedEntity(tag: DW_TAG_imported_declaration, scope: !1294, entity: !1399, file: !1356, line: 133)
!1399 = !DISubprogram(name: "calloc", scope: !1354, file: !1354, line: 468, type: !1400, isLocal: false, isDefinition: false, flags: DIFlagPrototyped, isOptimized: true)
!1400 = !DISubroutineType(types: !1401)
!1401 = !{!128, !126, !126}
!1402 = !DIImportedEntity(tag: DW_TAG_imported_declaration, scope: !1294, entity: !1403, file: !1356, line: 134)
!1403 = !DISubprogram(name: "div", scope: !1354, file: !1354, line: 788, type: !1404, isLocal: false, isDefinition: false, flags: DIFlagPrototyped, isOptimized: true)
!1404 = !DISubroutineType(types: !1405)
!1405 = !{!1353, !30, !30}
!1406 = !DIImportedEntity(tag: DW_TAG_imported_declaration, scope: !1294, entity: !1407, file: !1356, line: 135)
!1407 = !DISubprogram(name: "exit", scope: !1354, file: !1354, line: 543, type: !1408, isLocal: false, isDefinition: false, flags: DIFlagPrototyped | DIFlagNoReturn, isOptimized: true)
!1408 = !DISubroutineType(types: !1409)
!1409 = !{null, !30}
!1410 = !DIImportedEntity(tag: DW_TAG_imported_declaration, scope: !1294, entity: !1411, file: !1356, line: 136)
!1411 = !DISubprogram(name: "free", scope: !1354, file: !1354, line: 483, type: !1412, isLocal: false, isDefinition: false, flags: DIFlagPrototyped, isOptimized: true)
!1412 = !DISubroutineType(types: !1413)
!1413 = !{null, !128}
!1414 = !DIImportedEntity(tag: DW_TAG_imported_declaration, scope: !1294, entity: !1415, file: !1356, line: 137)
!1415 = !DISubprogram(name: "getenv", scope: !1354, file: !1354, line: 564, type: !1416, isLocal: false, isDefinition: false, flags: DIFlagPrototyped, isOptimized: true)
!1416 = !DISubroutineType(types: !1417)
!1417 = !{!796, !584}
!1418 = !DIImportedEntity(tag: DW_TAG_imported_declaration, scope: !1294, entity: !1419, file: !1356, line: 138)
!1419 = !DISubprogram(name: "labs", scope: !1354, file: !1354, line: 775, type: !1420, isLocal: false, isDefinition: false, flags: DIFlagPrototyped, isOptimized: true)
!1420 = !DISubroutineType(types: !1421)
!1421 = !{!412, !412}
!1422 = !DIImportedEntity(tag: DW_TAG_imported_declaration, scope: !1294, entity: !1423, file: !1356, line: 139)
!1423 = !DISubprogram(name: "ldiv", scope: !1354, file: !1354, line: 790, type: !1424, isLocal: false, isDefinition: false, flags: DIFlagPrototyped, isOptimized: true)
!1424 = !DISubroutineType(types: !1425)
!1425 = !{!1358, !412, !412}
!1426 = !DIImportedEntity(tag: DW_TAG_imported_declaration, scope: !1294, entity: !1427, file: !1356, line: 140)
!1427 = !DISubprogram(name: "malloc", scope: !1354, file: !1354, line: 466, type: !1428, isLocal: false, isDefinition: false, flags: DIFlagPrototyped, isOptimized: true)
!1428 = !DISubroutineType(types: !1429)
!1429 = !{!128, !126}
!1430 = !DIImportedEntity(tag: DW_TAG_imported_declaration, scope: !1294, entity: !1431, file: !1356, line: 142)
!1431 = !DISubprogram(name: "mblen", scope: !1354, file: !1354, line: 862, type: !1432, isLocal: false, isDefinition: false, flags: DIFlagPrototyped, isOptimized: true)
!1432 = !DISubroutineType(types: !1433)
!1433 = !{!30, !584, !126}
!1434 = !DIImportedEntity(tag: DW_TAG_imported_declaration, scope: !1294, entity: !1435, file: !1356, line: 143)
!1435 = !DISubprogram(name: "mbstowcs", scope: !1354, file: !1354, line: 873, type: !1436, isLocal: false, isDefinition: false, flags: DIFlagPrototyped, isOptimized: true)
!1436 = !DISubroutineType(types: !1437)
!1437 = !{!126, !1438, !1441, !126}
!1438 = !DIDerivedType(tag: DW_TAG_restrict_type, baseType: !1439)
!1439 = !DIDerivedType(tag: DW_TAG_pointer_type, baseType: !1440, size: 64)
!1440 = !DIBasicType(name: "wchar_t", size: 32, encoding: DW_ATE_signed)
!1441 = !DIDerivedType(tag: DW_TAG_restrict_type, baseType: !584)
!1442 = !DIImportedEntity(tag: DW_TAG_imported_declaration, scope: !1294, entity: !1443, file: !1356, line: 144)
!1443 = !DISubprogram(name: "mbtowc", scope: !1354, file: !1354, line: 865, type: !1444, isLocal: false, isDefinition: false, flags: DIFlagPrototyped, isOptimized: true)
!1444 = !DISubroutineType(types: !1445)
!1445 = !{!30, !1438, !1441, !126}
!1446 = !DIImportedEntity(tag: DW_TAG_imported_declaration, scope: !1294, entity: !1447, file: !1356, line: 146)
!1447 = !DISubprogram(name: "qsort", scope: !1354, file: !1354, line: 764, type: !1448, isLocal: false, isDefinition: false, flags: DIFlagPrototyped, isOptimized: true)
!1448 = !DISubroutineType(types: !1449)
!1449 = !{null, !128, !126, !126, !1394}
!1450 = !DIImportedEntity(tag: DW_TAG_imported_declaration, scope: !1294, entity: !1451, file: !1356, line: 149)
!1451 = !DISubprogram(name: "quick_exit", scope: !1354, file: !1354, line: 549, type: !1408, isLocal: false, isDefinition: false, flags: DIFlagPrototyped | DIFlagNoReturn, isOptimized: true)
!1452 = !DIImportedEntity(tag: DW_TAG_imported_declaration, scope: !1294, entity: !1453, file: !1356, line: 152)
!1453 = !DISubprogram(name: "rand", scope: !1354, file: !1354, line: 374, type: !818, isLocal: false, isDefinition: false, flags: DIFlagPrototyped, isOptimized: true)
!1454 = !DIImportedEntity(tag: DW_TAG_imported_declaration, scope: !1294, entity: !1455, file: !1356, line: 153)
!1455 = !DISubprogram(name: "realloc", scope: !1354, file: !1354, line: 480, type: !1456, isLocal: false, isDefinition: false, flags: DIFlagPrototyped, isOptimized: true)
!1456 = !DISubroutineType(types: !1457)
!1457 = !{!128, !128, !126}
!1458 = !DIImportedEntity(tag: DW_TAG_imported_declaration, scope: !1294, entity: !1459, file: !1356, line: 154)
!1459 = !DISubprogram(name: "srand", scope: !1354, file: !1354, line: 376, type: !1460, isLocal: false, isDefinition: false, flags: DIFlagPrototyped, isOptimized: true)
!1460 = !DISubroutineType(types: !1461)
!1461 = !{null, !14}
!1462 = !DIImportedEntity(tag: DW_TAG_imported_declaration, scope: !1294, entity: !1463, file: !1356, line: 155)
!1463 = !DISubprogram(name: "strtod", scope: !1354, file: !1354, line: 164, type: !1464, isLocal: false, isDefinition: false, flags: DIFlagPrototyped, isOptimized: true)
!1464 = !DISubroutineType(types: !1465)
!1465 = !{!432, !1441, !1466}
!1466 = !DIDerivedType(tag: DW_TAG_restrict_type, baseType: !1467)
!1467 = !DIDerivedType(tag: DW_TAG_pointer_type, baseType: !796, size: 64)
!1468 = !DIImportedEntity(tag: DW_TAG_imported_declaration, scope: !1294, entity: !1469, file: !1356, line: 156)
!1469 = !DISubprogram(name: "strtol", scope: !1354, file: !1354, line: 183, type: !1470, isLocal: false, isDefinition: false, flags: DIFlagPrototyped, isOptimized: true)
!1470 = !DISubroutineType(types: !1471)
!1471 = !{!412, !1441, !1466, !30}
!1472 = !DIImportedEntity(tag: DW_TAG_imported_declaration, scope: !1294, entity: !1473, file: !1356, line: 157)
!1473 = !DISubprogram(name: "strtoul", scope: !1354, file: !1354, line: 187, type: !1474, isLocal: false, isDefinition: false, flags: DIFlagPrototyped, isOptimized: true)
!1474 = !DISubroutineType(types: !1475)
!1475 = !{!108, !1441, !1466, !30}
!1476 = !DIImportedEntity(tag: DW_TAG_imported_declaration, scope: !1294, entity: !1477, file: !1356, line: 158)
!1477 = !DISubprogram(name: "system", scope: !1354, file: !1354, line: 716, type: !1383, isLocal: false, isDefinition: false, flags: DIFlagPrototyped, isOptimized: true)
!1478 = !DIImportedEntity(tag: DW_TAG_imported_declaration, scope: !1294, entity: !1479, file: !1356, line: 160)
!1479 = !DISubprogram(name: "wcstombs", scope: !1354, file: !1354, line: 876, type: !1480, isLocal: false, isDefinition: false, flags: DIFlagPrototyped, isOptimized: true)
!1480 = !DISubroutineType(types: !1481)
!1481 = !{!126, !1482, !1483, !126}
!1482 = !DIDerivedType(tag: DW_TAG_restrict_type, baseType: !796)
!1483 = !DIDerivedType(tag: DW_TAG_restrict_type, baseType: !1484)
!1484 = !DIDerivedType(tag: DW_TAG_pointer_type, baseType: !1485, size: 64)
!1485 = !DIDerivedType(tag: DW_TAG_const_type, baseType: !1440)
!1486 = !DIImportedEntity(tag: DW_TAG_imported_declaration, scope: !1294, entity: !1487, file: !1356, line: 161)
!1487 = !DISubprogram(name: "wctomb", scope: !1354, file: !1354, line: 869, type: !1488, isLocal: false, isDefinition: false, flags: DIFlagPrototyped, isOptimized: true)
!1488 = !DISubroutineType(types: !1489)
!1489 = !{!30, !796, !1440}
!1490 = !DIImportedEntity(tag: DW_TAG_imported_declaration, scope: !1491, entity: !1492, file: !1356, line: 214)
!1491 = !DINamespace(name: "__gnu_cxx", scope: null)
!1492 = !DIDerivedType(tag: DW_TAG_typedef, name: "lldiv_t", file: !1354, line: 121, baseType: !1493)
!1493 = distinct !DICompositeType(tag: DW_TAG_structure_type, file: !1354, line: 117, size: 128, elements: !1494, identifier: "_ZTS7lldiv_t")
!1494 = !{!1495, !1496}
!1495 = !DIDerivedType(tag: DW_TAG_member, name: "quot", scope: !1493, file: !1354, line: 119, baseType: !658, size: 64)
!1496 = !DIDerivedType(tag: DW_TAG_member, name: "rem", scope: !1493, file: !1354, line: 120, baseType: !658, size: 64, offset: 64)
!1497 = !DIImportedEntity(tag: DW_TAG_imported_declaration, scope: !1491, entity: !1498, file: !1356, line: 220)
!1498 = !DISubprogram(name: "_Exit", scope: !1354, file: !1354, line: 557, type: !1408, isLocal: false, isDefinition: false, flags: DIFlagPrototyped | DIFlagNoReturn, isOptimized: true)
!1499 = !DIImportedEntity(tag: DW_TAG_imported_declaration, scope: !1491, entity: !1500, file: !1356, line: 224)
!1500 = !DISubprogram(name: "llabs", scope: !1354, file: !1354, line: 779, type: !1501, isLocal: false, isDefinition: false, flags: DIFlagPrototyped, isOptimized: true)
!1501 = !DISubroutineType(types: !1502)
!1502 = !{!658, !658}
!1503 = !DIImportedEntity(tag: DW_TAG_imported_declaration, scope: !1491, entity: !1504, file: !1356, line: 230)
!1504 = !DISubprogram(name: "lldiv", scope: !1354, file: !1354, line: 796, type: !1505, isLocal: false, isDefinition: false, flags: DIFlagPrototyped, isOptimized: true)
!1505 = !DISubroutineType(types: !1506)
!1506 = !{!1492, !658, !658}
!1507 = !DIImportedEntity(tag: DW_TAG_imported_declaration, scope: !1491, entity: !1508, file: !1356, line: 241)
!1508 = !DISubprogram(name: "atoll", scope: !1354, file: !1354, line: 292, type: !1509, isLocal: false, isDefinition: false, flags: DIFlagPrototyped, isOptimized: true)
!1509 = !DISubroutineType(types: !1510)
!1510 = !{!658, !584}
!1511 = !DIImportedEntity(tag: DW_TAG_imported_declaration, scope: !1491, entity: !1512, file: !1356, line: 242)
!1512 = !DISubprogram(name: "strtoll", scope: !1354, file: !1354, line: 209, type: !1513, isLocal: false, isDefinition: false, flags: DIFlagPrototyped, isOptimized: true)
!1513 = !DISubroutineType(types: !1514)
!1514 = !{!658, !1441, !1466, !30}
!1515 = !DIImportedEntity(tag: DW_TAG_imported_declaration, scope: !1491, entity: !1516, file: !1356, line: 243)
!1516 = !DISubprogram(name: "strtoull", scope: !1354, file: !1354, line: 214, type: !1517, isLocal: false, isDefinition: false, flags: DIFlagPrototyped, isOptimized: true)
!1517 = !DISubroutineType(types: !1518)
!1518 = !{!662, !1441, !1466, !30}
!1519 = !DIImportedEntity(tag: DW_TAG_imported_declaration, scope: !1491, entity: !1520, file: !1356, line: 245)
!1520 = !DISubprogram(name: "strtof", scope: !1354, file: !1354, line: 172, type: !1521, isLocal: false, isDefinition: false, flags: DIFlagPrototyped, isOptimized: true)
!1521 = !DISubroutineType(types: !1522)
!1522 = !{!1523, !1441, !1466}
!1523 = !DIBasicType(name: "float", size: 32, encoding: DW_ATE_float)
!1524 = !DIImportedEntity(tag: DW_TAG_imported_declaration, scope: !1491, entity: !1525, file: !1356, line: 246)
!1525 = !DISubprogram(name: "strtold", scope: !1354, file: !1354, line: 175, type: !1526, isLocal: false, isDefinition: false, flags: DIFlagPrototyped, isOptimized: true)
!1526 = !DISubroutineType(types: !1527)
!1527 = !{!1528, !1441, !1466}
!1528 = !DIBasicType(name: "long double", size: 128, encoding: DW_ATE_float)
!1529 = !DIImportedEntity(tag: DW_TAG_imported_declaration, scope: !1294, entity: !1492, file: !1356, line: 254)
!1530 = !DIImportedEntity(tag: DW_TAG_imported_declaration, scope: !1294, entity: !1498, file: !1356, line: 256)
!1531 = !DIImportedEntity(tag: DW_TAG_imported_declaration, scope: !1294, entity: !1500, file: !1356, line: 258)
!1532 = !DIImportedEntity(tag: DW_TAG_imported_declaration, scope: !1294, entity: !1533, file: !1356, line: 259)
!1533 = !DISubprogram(name: "div", linkageName: "_ZN9__gnu_cxx3divExx", scope: !1491, file: !1356, line: 227, type: !1505, isLocal: false, isDefinition: false, flags: DIFlagPrototyped, isOptimized: true)
!1534 = !DIImportedEntity(tag: DW_TAG_imported_declaration, scope: !1294, entity: !1504, file: !1356, line: 260)
!1535 = !DIImportedEntity(tag: DW_TAG_imported_declaration, scope: !1294, entity: !1508, file: !1356, line: 262)
!1536 = !DIImportedEntity(tag: DW_TAG_imported_declaration, scope: !1294, entity: !1520, file: !1356, line: 263)
!1537 = !DIImportedEntity(tag: DW_TAG_imported_declaration, scope: !1294, entity: !1512, file: !1356, line: 264)
!1538 = !DIImportedEntity(tag: DW_TAG_imported_declaration, scope: !1294, entity: !1516, file: !1356, line: 265)
!1539 = !DIImportedEntity(tag: DW_TAG_imported_declaration, scope: !1294, entity: !1525, file: !1356, line: 266)
!1540 = !DIImportedEntity(tag: DW_TAG_imported_declaration, scope: !1294, entity: !1541, file: !1545, line: 102)
!1541 = !DISubprogram(name: "acos", scope: !1542, file: !1542, line: 54, type: !1543, isLocal: false, isDefinition: false, flags: DIFlagPrototyped, isOptimized: true)
!1542 = !DIFile(filename: "/usr/include/x86_64-linux-gnu/bits/mathcalls.h", directory: "/home/jiarong/multi_thread_train/compute_prediction/c_packetprocessing/apps/env")
!1543 = !DISubroutineType(types: !1544)
!1544 = !{!432, !432}
!1545 = !DIFile(filename: "/usr/bin/../lib/gcc/x86_64-linux-gnu/5.4.0/../../../../include/c++/5.4.0/cmath", directory: "/home/jiarong/multi_thread_train/compute_prediction/c_packetprocessing/apps/env")
!1546 = !DIImportedEntity(tag: DW_TAG_imported_declaration, scope: !1294, entity: !1547, file: !1545, line: 121)
!1547 = !DISubprogram(name: "asin", scope: !1542, file: !1542, line: 56, type: !1543, isLocal: false, isDefinition: false, flags: DIFlagPrototyped, isOptimized: true)
!1548 = !DIImportedEntity(tag: DW_TAG_imported_declaration, scope: !1294, entity: !1549, file: !1545, line: 140)
!1549 = !DISubprogram(name: "atan", scope: !1542, file: !1542, line: 58, type: !1543, isLocal: false, isDefinition: false, flags: DIFlagPrototyped, isOptimized: true)
!1550 = !DIImportedEntity(tag: DW_TAG_imported_declaration, scope: !1294, entity: !1551, file: !1545, line: 159)
