; ModuleID = '../../click/elements/ipsec/aes.cc'
source_filename = "../../click/elements/ipsec/aes.cc"
target datalayout = "e-m:e-i64:64-f80:128-n8:16:32:64-S128"
target triple = "x86_64-pc-linux-gnu"

%class.Aes = type { %class.Element.base, i32, i32, %struct.aes_key_st }
%class.Element.base = type <{ i32 (...)**, [2 x %"class.Element::Port"*], [4 x %"class.Element::Port"], [2 x i32], %class.Router*, i32 }>
%"class.Element::Port" = type <{ %class.Element*, i32, [4 x i8] }>
%class.Element = type <{ i32 (...)**, [2 x %"class.Element::Port"*], [4 x %"class.Element::Port"], [2 x i32], %class.Router*, i32, [4 x i8] }>
%class.Router = type opaque
%struct.aes_key_st = type { [60 x i64], i32 }
%class.Vector = type { %class.vector_memory }
%class.vector_memory = type { %class.String*, i32, i32 }
%class.String = type { %"struct.String::rep_t" }
%"struct.String::rep_t" = type { i8*, i32, %"struct.String::memo_t"* }
%"struct.String::memo_t" = type { i32, i32, i32, [8 x i8] }
%class.ErrorHandler = type <{ i32 (...)**, i32, [4 x i8] }>
%class.Args = type { %class.ArgContext.base, i8, i8, i8, %class.Vector*, %class.Vector.0, %"struct.Args::Slot"*, [48 x i8] }
%class.ArgContext.base = type <{ %class.Element*, %class.ErrorHandler*, i8*, i8 }>
%class.Vector.0 = type { %class.vector_memory.1 }
%class.vector_memory.1 = type { %struct.char_array*, i32, i32 }
%struct.char_array = type opaque
%"struct.Args::Slot" = type { i32 (...)**, %"struct.Args::Slot"* }
%class.Packet = type { %class.atomic_uint32_t, %class.Packet*, i8*, i8*, i8*, i8*, %"struct.Packet::AllAnno", void (i8*, i64, i8*)*, i8* }
%class.atomic_uint32_t = type { i32 }
%"struct.Packet::AllAnno" = type { %"union.Packet::Anno", i8*, i8*, i8*, i32, [8 x i8], %class.Packet*, %class.Packet* }
%"union.Packet::Anno" = type { [6 x i64] }
%class.WritablePacket = type { %class.Packet }
%struct.esp_new = type { i32, i32, [8 x i8] }
%class.SADataTuple = type { [16 x i8], [16 x i8], i32, i32, i8, i32, i32 }
%class.Task = type opaque
%class.Timer = type opaque
%struct.DefaultArg = type { %class.IntArg }
%class.IntArg = type { i32, i32 }
%class.ArgContext = type <{ %class.Element*, %class.ErrorHandler*, i8*, i8, [7 x i8] }>
%class.NumArg = type { i8 }

$_ZN4Args7read_mpIiEERS_PKcRT_ = comdat any

$_ZN6Packet9uniqueifyEv = comdat any

$_ZNK14WritablePacket4dataEv = comdat any

$_ZNK6Packet6lengthEv = comdat any

$_ZNK6Packet8anno_u64Ei = comdat any

$_ZN6Packet4killEv = comdat any

$_ZNK3Aes10class_nameEv = comdat any

$_ZNK3Aes10port_countEv = comdat any

$_ZNK6Packet6sharedEv = comdat any

$_ZNK15atomic_uint32_tcvjEv = comdat any

$_ZNK15atomic_uint32_t5valueEv = comdat any

$_ZNK6Packet4dataEv = comdat any

$_ZNK6Packet5xannoEv = comdat any

$_ZN15atomic_uint32_t12dec_and_testEv = comdat any

$_ZN4Args4readIiEERS_PKciRT_ = comdat any

$_Z14args_base_readIiEvP4ArgsPKciRT_ = comdat any

$_ZN4Args9base_readIiEEvPKciRT_ = comdat any

$_ZNK6StringcvMS_KFivEEv = comdat any

$_ZN17Args_parse_helperI10DefaultArgIiELb0EE4slotIi4ArgsEEPT_RS5_RT0_ = comdat any

$_ZN17Args_parse_helperI10DefaultArgIiELb0EE5parseIi4ArgsEEbS1_RK6StringRT_RT0_ = comdat any

$_ZN10DefaultArgIiEC2Ev = comdat any

$_ZN6StringD2Ev = comdat any

$_ZNK6String6lengthEv = comdat any

$_ZN4Args4slotIiEEPT_RS1_ = comdat any

$_ZN6IntArg5parseIiEEbRK6StringRT_RK10ArgContext = comdat any

$_ZN6IntArg16parse_saturatingIiEEbRK6StringRT_RK10ArgContext = comdat any

$_ZNK6String5beginEv = comdat any

$_ZNK6String3endEv = comdat any

$_Z15extract_integerIjjEvPKT_RT0_ = comdat any

$_ZN22extract_integer_helperILi1EjjE7extractEPKjRj = comdat any

$_ZN6IntArgC2Ei = comdat any

$_ZNK6String5derefEv = comdat any

$__clang_call_terminate = comdat any

$_ZN15atomic_uint32_t12dec_and_testERVj = comdat any

@_ZTV3Aes = unnamed_addr constant { [29 x i8*] } { [29 x i8*] [i8* null, i8* bitcast ({ i8*, i8*, i8* }* @_ZTI3Aes to i8*), i8* bitcast (void (%class.Aes*)* @_ZN3AesD1Ev to i8*), i8* bitcast (void (%class.Aes*)* @_ZN3AesD0Ev to i8*), i8* bitcast (void (%class.Element*, i32, %class.Packet*)* @_ZN7Element4pushEiP6Packet to i8*), i8* bitcast (%class.Packet* (%class.Element*, i32)* @_ZN7Element4pullEi to i8*), i8* bitcast (%class.Packet* (%class.Aes*, %class.Packet*)* @_ZN3Aes13simple_actionEP6Packet to i8*), i8* bitcast (i1 (%class.Element*, %class.Task*)* @_ZN7Element8run_taskEP4Task to i8*), i8* bitcast (void (%class.Element*, %class.Timer*)* @_ZN7Element9run_timerEP5Timer to i8*), i8* bitcast (void (%class.Element*, i32, i32)* @_ZN7Element8selectedEii to i8*), i8* bitcast (void (%class.Element*, i32)* @_ZN7Element8selectedEi to i8*), i8* bitcast (i8* (%class.Aes*)* @_ZNK3Aes10class_nameEv to i8*), i8* bitcast (i8* (%class.Aes*)* @_ZNK3Aes10port_countEv to i8*), i8* bitcast (i8* (%class.Element*)* @_ZNK7Element10processingEv to i8*), i8* bitcast (i8* (%class.Element*)* @_ZNK7Element9flow_codeEv to i8*), i8* bitcast (i8* (%class.Element*)* @_ZNK7Element5flagsEv to i8*), i8* bitcast (i8* (%class.Element*, i8*)* @_ZN7Element4castEPKc to i8*), i8* bitcast (i8* (%class.Element*, i1, i32, i8*)* @_ZN7Element9port_castEbiPKc to i8*), i8* bitcast (i32 (%class.Element*)* @_ZNK7Element15configure_phaseEv to i8*), i8* bitcast (i32 (%class.Aes*, %class.Vector*, %class.ErrorHandler*)* @_ZN3Aes9configureER6VectorI6StringEP12ErrorHandler to i8*), i8* bitcast (void (%class.Element*)* @_ZN7Element12add_handlersEv to i8*), i8* bitcast (i32 (%class.Aes*, %class.ErrorHandler*)* @_ZN3Aes10initializeEP12ErrorHandler to i8*), i8* bitcast (void (%class.Element*, %class.Element*, %class.ErrorHandler*)* @_ZN7Element10take_stateEPS_P12ErrorHandler to i8*), i8* bitcast (%class.Element* (%class.Element*)* @_ZNK7Element15hotswap_elementEv to i8*), i8* bitcast (void (%class.Element*, i32)* @_ZN7Element7cleanupENS_12CleanupStageE to i8*), i8* bitcast (void (%class.String*, %class.Element*)* @_ZNK7Element11declarationEv to i8*), i8* bitcast (i1 (%class.Element*)* @_ZNK7Element20can_live_reconfigureEv to i8*), i8* bitcast (i32 (%class.Element*, %class.Vector*, %class.ErrorHandler*)* @_ZN7Element16live_reconfigureER6VectorI6StringEP12ErrorHandler to i8*), i8* bitcast (i32 (%class.Element*, i32, i8*)* @_ZN7Element5llrpcEjPv to i8*)] }, align 8
@.str = private unnamed_addr constant [8 x i8] c"ENCRYPT\00", align 1
@.str.1 = private unnamed_addr constant [58 x i8] c"AES: No SADataTuple reference annotation. check man page\0A\00", align 1
@.str.2 = private unnamed_addr constant [83 x i8] c"AES: No SADataTuple annotation. This module is not properly placed check man page\0A\00", align 1
@_ZL3Te4 = internal constant [256 x i64] [i64 1667457891, i64 2088533116, i64 2004318071, i64 2071690107, i64 4076008178, i64 1802201963, i64 1869573999, i64 3318072773, i64 808464432, i64 16843009, i64 1734829927, i64 724249387, i64 4278124286, i64 3621246935, i64 2880154539, i64 1987475062, i64 3402287818, i64 2189591170, i64 3385444809, i64 2105376125, i64 4210752250, i64 1499027801, i64 1195853639, i64 4042322160, i64 2913840557, i64 3570717908, i64 2728567458, i64 2947526575, i64 2627509404, i64 2762253476, i64 1920103026, i64 3233857728, i64 3082270647, i64 4261281277, i64 2475922323, i64 640034342, i64 909522486, i64 1061109567, i64 4160223223, i64 3435973836, i64 875836468, i64 2779096485, i64 3857049061, i64 4059165169, i64 1903260017, i64 3638089944, i64 825307441, i64 353703189, i64 67372036, i64 3351758791, i64 589505315, i64 3284386755, i64 404232216, i64 2526451350, i64 84215045, i64 2593823386, i64 117901063, i64 303174162, i64 2155905152, i64 3806520034, i64 3958107115, i64 656877351, i64 2998055602, i64 1970632053, i64 151587081, i64 2206434179, i64 741092396, i64 437918234, i64 454761243, i64 1852730990, i64 1515870810, i64 2694881440, i64 1381126738, i64 993737531, i64 3604403926, i64 3014898611, i64 690563369, i64 3823363043, i64 791621423, i64 2223277188, i64 1397969747, i64 3520188881, i64 0, i64 3991793133, i64 538976288, i64 4244438268, i64 2981212593, i64 1532713819, i64 1785358954, i64 3419130827, i64 3200171710, i64 960051513, i64 1246382666, i64 1280068684, i64 1482184792, i64 3486502863, i64 3503345872, i64 4025479151, i64 2863311530, i64 4227595259, i64 1128481603, i64 1296911693, i64 858993459, i64 2240120197, i64 1162167621, i64 4193909241, i64 33686018, i64 2139062143, i64 1347440720, i64 1010580540, i64 2678038431, i64 2829625512, i64 1364283729, i64 2745410467, i64 1077952576, i64 2408550287, i64 2459079314, i64 2644352413, i64 943208504, i64 4126537205, i64 3166485692, i64 3065427638, i64 3671775962, i64 555819297, i64 269488144, i64 4294967295, i64 4092851187, i64 3537031890, i64 3452816845, i64 202116108, i64 320017171, i64 3974950124, i64 1600085855, i64 2543294359, i64 1145324612, i64 387389207, i64 3301229764, i64 2812782503, i64 2122219134, i64 1027423549, i64 1684300900, i64 1566399837, i64 421075225, i64 1936946035, i64 1616928864, i64 2172748161, i64 1330597711, i64 3705461980, i64 572662306, i64 707406378, i64 2425393296, i64 2290649224, i64 1179010630, i64 4008636142, i64 3099113656, i64 336860180, i64 3739147998, i64 1583242846, i64 185273099, i64 3688618971, i64 3772834016, i64 842150450, i64 976894522, i64 168430090, i64 1229539657, i64 101058054, i64 606348324, i64 1549556828, i64 3267543746, i64 3553874899, i64 2896997548, i64 1650614882, i64 2442236305, i64 2509608341, i64 3840206052, i64 2038004089, i64 3890735079, i64 3368601800, i64 926365495, i64 1835887981, i64 2374864269, i64 3587560917, i64 1313754702, i64 2846468521, i64 1819044972, i64 1448498774, i64 4109694196, i64 3941264106, i64 1701143909, i64 2054847098, i64 2930683566, i64 134744072, i64 3132799674, i64 2021161080, i64 623191333, i64 774778414, i64 471604252, i64 2795939494, i64 3031741620, i64 3334915782, i64 3907578088, i64 3722304989, i64 1953789044, i64 522133279, i64 1263225675, i64 3183328701, i64 2341178251, i64 2324335242, i64 1886417008, i64 1044266558, i64 3048584629, i64 1717986918, i64 1212696648, i64 50529027, i64 4143380214, i64 235802126, i64 1633771873, i64 892679477, i64 1465341783, i64 3115956665, i64 2256963206, i64 3250700737, i64 488447261, i64 2661195422, i64 3789677025, i64 4177066232, i64 2560137368, i64 286331153, i64 1768515945, i64 3654932953, i64 2391707278, i64 2492765332, i64 2610666395, i64 505290270, i64 2273806215, i64 3924421097, i64 3469659854, i64 1431655765, i64 673720360, i64 3755991007, i64 2358021260, i64 2711724449, i64 2307492233, i64 218959117, i64 3217014719, i64 3873892070, i64 1111638594, i64 1751672936, i64 1094795585, i64 2576980377, i64 757935405, i64 252645135, i64 2964369584, i64 1414812756, i64 3149642683, i64 370546198], align 16
@_ZL4rcon = internal constant [10 x i64] [i64 16777216, i64 33554432, i64 67108864, i64 134217728, i64 268435456, i64 536870912, i64 1073741824, i64 2147483648, i64 452984832, i64 905969664], align 16
@_ZL3Td0 = internal constant [256 x i64] [i64 1374988112, i64 2118214995, i64 437757123, i64 975658646, i64 1001089995, i64 530400753, i64 2902087851, i64 1273168787, i64 540080725, i64 2910219766, i64 2295101073, i64 4110568485, i64 1340463100, i64 3307916247, i64 641025152, i64 3043140495, i64 3736164937, i64 632953703, i64 1172967064, i64 1576976609, i64 3274667266, i64 2169303058, i64 2370213795, i64 1809054150, i64 59727847, i64 361929877, i64 3211623147, i64 2505202138, i64 3569255213, i64 1484005843, i64 1239443753, i64 2395588676, i64 1975683434, i64 4102977912, i64 2572697195, i64 666464733, i64 3202437046, i64 4035489047, i64 3374361702, i64 2110667444, i64 1675577880, i64 3843699074, i64 2538681184, i64 1649639237, i64 2976151520, i64 3144396420, i64 4269907996, i64 4178062228, i64 1883793496, i64 2403728665, i64 2497604743, i64 1383856311, i64 2876494627, i64 1917518562, i64 3810496343, i64 1716890410, i64 3001755655, i64 800440835, i64 2261089178, i64 3543599269, i64 807962610, i64 599762354, i64 33778362, i64 3977675356, i64 2328828971, i64 2809771154, i64 4077384432, i64 1315562145, i64 1708848333, i64 101039829, i64 3509871135, i64 3299278474, i64 875451293, i64 2733856160, i64 92987698, i64 2767645557, i64 193195065, i64 1080094634, i64 1584504582, i64 3178106961, i64 1042385657, i64 2531067453, i64 3711829422, i64 1306967366, i64 2438237621, i64 1908694277, i64 67556463, i64 1615861247, i64 429456164, i64 3602770327, i64 2302690252, i64 1742315127, i64 2968011453, i64 126454664, i64 3877198648, i64 2043211483, i64 2709260871, i64 2084704233, i64 4169408201, i64 0, i64 159417987, i64 841739592, i64 504459436, i64 1817866830, i64 4245618683, i64 260388950, i64 1034867998, i64 908933415, i64 168810852, i64 1750902305, i64 2606453969, i64 607530554, i64 202008497, i64 2472011535, i64 3035535058, i64 463180190, i64 2160117071, i64 1641816226, i64 1517767529, i64 470948374, i64 3801332234, i64 3231722213, i64 1008918595, i64 303765277, i64 235474187, i64 4069246893, i64 766945465, i64 337553864, i64 1475418501, i64 2943682380, i64 4003061179, i64 2743034109, i64 4144047775, i64 1551037884, i64 1147550661, i64 1543208500, i64 2336434550, i64 3408119516, i64 3069049960, i64 3102011747, i64 3610369226, i64 1113818384, i64 328671808, i64 2227573024, i64 2236228733, i64 3535486456, i64 2935566865, i64 3341394285, i64 496906059, i64 3702665459, i64 226906860, i64 2009195472, i64 733156972, i64 2842737049, i64 294930682, i64 1206477858, i64 2835123396, i64 2700099354, i64 1451044056, i64 573804783, i64 2269728455, i64 3644379585, i64 2362090238, i64 2564033334, i64 2801107407, i64 2776292904, i64 3669462566, i64 1068351396, i64 742039012, i64 1350078989, i64 1784663195, i64 1417561698, i64 4136440770, i64 2430122216, i64 775550814, i64 2193862645, i64 2673705150, i64 1775276924, i64 1876241833, i64 3475313331, i64 3366754619, i64 270040487, i64 3902563182, i64 3678124923, i64 3441850377, i64 1851332852, i64 3969562369, i64 2203032232, i64 3868552805, i64 2868897406, i64 566021896, i64 4011190502, i64 3135740889, i64 1248802510, i64 3936291284, i64 699432150, i64 832877231, i64 708780849, i64 3332740144, i64 899835584, i64 1951317047, i64 4236429990, i64 3767586992, i64 866637845, i64 4043610186, i64 1106041591, i64 2144161806, i64 395441711, i64 1984812685, i64 1139781709, i64 3433712980, i64 3835036895, i64 2664543715, i64 1282050075, i64 3240894392, i64 1181045119, i64 2640243204, i64 25965917, i64 4203181171, i64 4211818798, i64 3009879386, i64 2463879762, i64 3910161971, i64 1842759443, i64 2597806476, i64 933301370, i64 1509430414, i64 3943906441, i64 3467192302, i64 3076639029, i64 3776767469, i64 2051518780, i64 2631065433, i64 1441952575, i64 404016761, i64 1942435775, i64 1408749034, i64 1610459739, i64 3745345300, i64 2017778566, i64 3400528769, i64 3110650942, i64 941896748, i64 3265478751, i64 371049330, i64 3168937228, i64 675039627, i64 4279080257, i64 967311729, i64 135050206, i64 3635733660, i64 1683407248, i64 2076935265, i64 3576870512, i64 1215061108, i64 3501741890], align 16
@_ZL3Td1 = internal constant [256 x i64] [i64 1347548327, i64 1400783205, i64 3273267108, i64 2520393566, i64 3409685355, i64 4045380933, i64 2880240216, i64 2471224067, i64 1428173050, i64 4138563181, i64 2441661558, i64 636813900, i64 4233094615, i64 3620022987, i64 2149987652, i64 2411029155, i64 1239331162, i64 1730525723, i64 2554718734, i64 3781033664, i64 46346101, i64 310463728, i64 2743944855, i64 3328955385, i64 3875770207, i64 2501218972, i64 3955191162, i64 3667219033, i64 768917123, i64 3545789473, i64 692707433, i64 1150208456, i64 1786102409, i64 2029293177, i64 1805211710, i64 3710368113, i64 3065962831, i64 401639597, i64 1724457132, i64 3028143674, i64 409198410, i64 2196052529, i64 1620529459, i64 1164071807, i64 3769721975, i64 2226875310, i64 486441376, i64 2499348523, i64 1483753576, i64 428819965, i64 2274680428, i64 3075636216, i64 598438867, i64 3799141122, i64 1474502543, i64 711349675, i64 129166120, i64 53458370, i64 2592523643, i64 2782082824, i64 4063242375, i64 2988687269, i64 3120694122, i64 1559041666, i64 730517276, i64 2460449204, i64 4042459122, i64 2706270690, i64 3446004468, i64 3573941694, i64 533804130, i64 2328143614, i64 2637442643, i64 2695033685, i64 839224033, i64 1973745387, i64 957055980, i64 2856345839, i64 106852767, i64 1371368976, i64 4181598602, i64 1033297158, i64 2933734917, i64 1179510461, i64 3046200461, i64 91341917, i64 1862534868, i64 4284502037, i64 605657339, i64 2547432937, i64 3431546947, i64 2003294622, i64 3182487618, i64 2282195339, i64 954669403, i64 3682191598, i64 1201765386, i64 3917234703, i64 3388507166, i64 0, i64 2198438022, i64 1211247597, i64 2887651696, i64 1315723890, i64 4227665663, i64 1443857720, i64 507358933, i64 657861945, i64 1678381017, i64 560487590, i64 3516619604, i64 975451694, i64 2970356327, i64 261314535, i64 3535072918, i64 2652609425, i64 1333838021, i64 2724322336, i64 1767536459, i64 370938394, i64 182621114, i64 3854606378, i64 1128014560, i64 487725847, i64 185469197, i64 2918353863, i64 3106780840, i64 3356761769, i64 2237133081, i64 1286567175, i64 3152976349, i64 4255350624, i64 2683765030, i64 3160175349, i64 3309594171, i64 878443390, i64 1988838185, i64 3704300486, i64 1756818940, i64 1673061617, i64 3403100636, i64 272786309, i64 1075025698, i64 545572369, i64 2105887268, i64 4174560061, i64 296679730, i64 1841768865, i64 1260232239, i64 4091327024, i64 3960309330, i64 3497509347, i64 1814803222, i64 2578018489, i64 4195456072, i64 575138148, i64 3299409036, i64 446754879, i64 3629546796, i64 4011996048, i64 3347532110, i64 3252238545, i64 4270639778, i64 915985419, i64 3483825537, i64 681933534, i64 651868046, i64 2755636671, i64 3828103837, i64 223377554, i64 2607439820, i64 1649704518, i64 3270937875, i64 3901806776, i64 1580087799, i64 4118987695, i64 3198115200, i64 2087309459, i64 2842678573, i64 3016697106, i64 1003007129, i64 2802849917, i64 1860738147, i64 2077965243, i64 164439672, i64 4100872472, i64 32283319, i64 2827177882, i64 1709610350, i64 2125135846, i64 136428751, i64 3874428392, i64 3652904859, i64 3460984630, i64 3572145929, i64 3593056380, i64 2939266226, i64 824852259, i64 818324884, i64 3224740454, i64 930369212, i64 2801566410, i64 2967507152, i64 355706840, i64 1257309336, i64 4148292826, i64 243256656, i64 790073846, i64 2373340630, i64 1296297904, i64 1422699085, i64 3756299780, i64 3818836405, i64 457992840, i64 3099667487, i64 2135319889, i64 77422314, i64 1560382517, i64 1945798516, i64 788204353, i64 1521706781, i64 1385356242, i64 870912086, i64 325965383, i64 2358957921, i64 2050466060, i64 2388260884, i64 2313884476, i64 4006521127, i64 901210569, i64 3990953189, i64 1014646705, i64 1503449823, i64 1062597235, i64 2031621326, i64 3212035895, i64 3931371469, i64 1533017514, i64 350174575, i64 2256028891, i64 2177544179, i64 1052338372, i64 741876788, i64 1606591296, i64 1914052035, i64 213705253, i64 2334669897, i64 1107234197, i64 1899603969, i64 3725069491, i64 2631447780, i64 2422494913, i64 1635502980, i64 1893020342, i64 1950903388, i64 1120974935], align 16
@_ZL3Td2 = internal constant [256 x i64] [i64 2807058932, i64 1699970625, i64 2764249623, i64 1586903591, i64 1808481195, i64 1173430173, i64 1487645946, i64 59984867, i64 4199882800, i64 1844882806, i64 1989249228, i64 1277555970, i64 3623636965, i64 3419915562, i64 1149249077, i64 2744104290, i64 1514790577, i64 459744698, i64 244860394, i64 3235995134, i64 1963115311, i64 4027744588, i64 2544078150, i64 4190530515, i64 1608975247, i64 2627016082, i64 2062270317, i64 1507497298, i64 2200818878, i64 567498868, i64 1764313568, i64 3359936201, i64 2305455554, i64 2037970062, i64 1047239000, i64 1910319033, i64 1337376481, i64 2904027272, i64 2892417312, i64 984907214, i64 1243112415, i64 830661914, i64 861968209, i64 2135253587, i64 2011214180, i64 2927934315, i64 2686254721, i64 731183368, i64 1750626376, i64 4246310725, i64 1820824798, i64 4172763771, i64 3542330227, i64 48394827, i64 2404901663, i64 2871682645, i64 671593195, i64 3254988725, i64 2073724613, i64 145085239, i64 2280796200, i64 2779915199, i64 1790575107, i64 2187128086, i64 472615631, i64 3029510009, i64 4075877127, i64 3802222185, i64 4107101658, i64 3201631749, i64 1646252340, i64 4270507174, i64 1402811438, i64 1436590835, i64 3778151818, i64 3950355702, i64 3963161475, i64 4020912224, i64 2667994737, i64 273792366, i64 2331590177, i64 104699613, i64 95345982, i64 3175501286, i64 2377486676, i64 1560637892, i64 3564045318, i64 369057872, i64 4213447064, i64 3919042237, i64 1137477952, i64 2658625497, i64 1119727848, i64 2340947849, i64 1530455833, i64 4007360968, i64 172466556, i64 266959938, i64 516552836, i64 0, i64 2256734592, i64 3980931627, i64 1890328081, i64 1917742170, i64 4294704398, i64 945164165, i64 3575528878, i64 958871085, i64 3647212047, i64 2787207260, i64 1423022939, i64 775562294, i64 1739656202, i64 3876557655, i64 2530391278, i64 2443058075, i64 3310321856, i64 547512796, i64 1265195639, i64 437656594, i64 3121275539, i64 719700128, i64 3762502690, i64 387781147, i64 218828297, i64 3350065803, i64 2830708150, i64 2848461854, i64 428169201, i64 122466165, i64 3720081049, i64 1627235199, i64 648017665, i64 4122762354, i64 1002783846, i64 2117360635, i64 695634755, i64 3336358691, i64 4234721005, i64 4049844452, i64 3704280881, i64 2232435299, i64 574624663, i64 287343814, i64 612205898, i64 1039717051, i64 840019705, i64 2708326185, i64 793451934, i64 821288114, i64 1391201670, i64 3822090177, i64 376187827, i64 3113855344, i64 1224348052, i64 1679968233, i64 2361698556, i64 1058709744, i64 752375421, i64 2431590963, i64 1321699145, i64 3519142200, i64 2734591178, i64 188127444, i64 2177869557, i64 3727205754, i64 2384911031, i64 3215212461, i64 2648976442, i64 2450346104, i64 3432737375, i64 1180849278, i64 331544205, i64 3102249176, i64 4150144569, i64 2952102595, i64 2159976285, i64 2474404304, i64 766078933, i64 313773861, i64 2570832044, i64 2108100632, i64 1668212892, i64 3145456443, i64 2013908262, i64 418672217, i64 3070356634, i64 2594734927, i64 1852171925, i64 3867060991, i64 3473416636, i64 3907448597, i64 2614737639, i64 919489135, i64 164948639, i64 2094410160, i64 2997825956, i64 590424639, i64 2486224549, i64 1723872674, i64 3157750862, i64 3399941250, i64 3501252752, i64 3625268135, i64 2555048196, i64 3673637356, i64 1343127501, i64 4130281361, i64 3599595085, i64 2957853679, i64 1297403050, i64 81781910, i64 3051593425, i64 2283490410, i64 532201772, i64 1367295589, i64 3926170974, i64 895287692, i64 1953757831, i64 1093597963, i64 492483431, i64 3528626907, i64 1446242576, i64 1192455638, i64 1636604631, i64 209336225, i64 344873464, i64 1015671571, i64 669961897, i64 3375740769, i64 3857572124, i64 2973530695, i64 3747192018, i64 1933530610, i64 3464042516, i64 935293895, i64 3454686199, i64 2858115069, i64 1863638845, i64 3683022916, i64 4085369519, i64 3292445032, i64 875313188, i64 1080017571, i64 3279033885, i64 621591778, i64 1233856572, i64 2504130317, i64 24197544, i64 3017672716, i64 3835484340, i64 3247465558, i64 2220981195, i64 3060847922, i64 1551124588, i64 1463996600], align 16
@_ZL3Td3 = internal constant [256 x i64] [i64 4104605777, i64 1097159550, i64 396673818, i64 660510266, i64 2875968315, i64 2638606623, i64 4200115116, i64 3808662347, i64 821712160, i64 1986918061, i64 3430322568, i64 38544885, i64 3856137295, i64 718002117, i64 893681702, i64 1654886325, i64 2975484382, i64 3122358053, i64 3926825029, i64 4274053469, i64 796197571, i64 1290801793, i64 1184342925, i64 3556361835, i64 2405426947, i64 2459735317, i64 1836772287, i64 1381620373, i64 3196267988, i64 1948373848, i64 3764988233, i64 3385345166, i64 3263785589, i64 2390325492, i64 1480485785, i64 3111247143, i64 3780097726, i64 2293045232, i64 548169417, i64 3459953789, i64 3746175075, i64 439452389, i64 1362321559, i64 1400849762, i64 1685577905, i64 1806599355, i64 2174754046, i64 137073913, i64 1214797936, i64 1174215055, i64 3731654548, i64 2079897426, i64 1943217067, i64 1258480242, i64 529487843, i64 1437280870, i64 3945269170, i64 3049390895, i64 3313212038, i64 923313619, i64 679998000, i64 3215307299, i64 57326082, i64 377642221, i64 3474729866, i64 2041877159, i64 133361907, i64 1776460110, i64 3673476453, i64 96392454, i64 878845905, i64 2801699524, i64 777231668, i64 4082475170, i64 2330014213, i64 4142626212, i64 2213296395, i64 1626319424, i64 1906247262, i64 1846563261, i64 562755902, i64 3708173718, i64 1040559837, i64 3871163981, i64 1418573201, i64 3294430577, i64 114585348, i64 1343618912, i64 2566595609, i64 3186202582, i64 1078185097, i64 3651041127, i64 3896688048, i64 2307622919, i64 425408743, i64 3371096953, i64 2081048481, i64 1108339068, i64 2216610296, i64 0, i64 2156299017, i64 736970802, i64 292596766, i64 1517440620, i64 251657213, i64 2235061775, i64 2933202493, i64 758720310, i64 265905162, i64 1554391400, i64 1532285339, i64 908999204, i64 174567692, i64 1474760595, i64 4002861748, i64 2610011675, i64 3234156416, i64 3693126241, i64 2001430874, i64 303699484, i64 2478443234, i64 2687165888, i64 585122620, i64 454499602, i64 151849742, i64 2345119218, i64 3064510765, i64 514443284, i64 4044981591, i64 1963412655, i64 2581445614, i64 2137062819, i64 19308535, i64 1928707164, i64 1715193156, i64 4219352155, i64 1126790795, i64 600235211, i64 3992742070, i64 3841024952, i64 836553431, i64 1669664834, i64 2535604243, i64 3323011204, i64 1243905413, i64 3141400786, i64 4180808110, i64 698445255, i64 2653899549, i64 2989552604, i64 2253581325, i64 3252932727, i64 3004591147, i64 1891211689, i64 2487810577, i64 3915653703, i64 4237083816, i64 4030667424, i64 2100090966, i64 865136418, i64 1229899655, i64 953270745, i64 3399679628, i64 3557504664, i64 4118925222, i64 2061379749, i64 3079546586, i64 2915017791, i64 983426092, i64 2022837584, i64 1607244650, i64 2118541908, i64 2366882550, i64 3635996816, i64 972512814, i64 3283088770, i64 1568718495, i64 3499326569, i64 3576539503, i64 621982671, i64 2895723464, i64 410887952, i64 2623762152, i64 1002142683, i64 645401037, i64 1494807662, i64 2595684844, i64 1335535747, i64 2507040230, i64 4293295786, i64 3167684641, i64 367585007, i64 3885750714, i64 1865862730, i64 2668221674, i64 2960971305, i64 2763173681, i64 1059270954, i64 2777952454, i64 2724642869, i64 1320957812, i64 2194319100, i64 2429595872, i64 2815956275, i64 77089521, i64 3973773121, i64 3444575871, i64 2448830231, i64 1305906550, i64 4021308739, i64 2857194700, i64 2516901860, i64 3518358430, i64 1787304780, i64 740276417, i64 1699839814, i64 1592394909, i64 2352307457, i64 2272556026, i64 188821243, i64 1729977011, i64 3687994002, i64 274084841, i64 3594982253, i64 3613494426, i64 2701949495, i64 4162096729, i64 322734571, i64 2837966542, i64 1640576439, i64 484830689, i64 1202797690, i64 3537852828, i64 4067639125, i64 349075736, i64 3342319475, i64 4157467219, i64 4255800159, i64 1030690015, i64 1155237496, i64 2951971274, i64 1757691577, i64 607398968, i64 2738905026, i64 499347990, i64 3794078908, i64 1011452712, i64 227885567, i64 2818666809, i64 213114376, i64 3034881240, i64 1455525988, i64 3414450555, i64 850817237, i64 1817998408, i64 3092726480], align 16
@.str.3 = private unnamed_addr constant [32 x i8] c"AES Decrypt: Invalid Parameters\00", align 1
@_ZL3Te0 = internal constant [256 x i64] [i64 3328402341, i64 4168907908, i64 4000806809, i64 4135287693, i64 4294111757, i64 3597364157, i64 3731845041, i64 2445657428, i64 1613770832, i64 33620227, i64 3462883241, i64 1445669757, i64 3892248089, i64 3050821474, i64 1303096294, i64 3967186586, i64 2412431941, i64 528646813, i64 2311702848, i64 4202528135, i64 4026202645, i64 2992200171, i64 2387036105, i64 4226871307, i64 1101901292, i64 3017069671, i64 1604494077, i64 1169141738, i64 597466303, i64 1403299063, i64 3832705686, i64 2613100635, i64 1974974402, i64 3791519004, i64 1033081774, i64 1277568618, i64 1815492186, i64 2118074177, i64 4126668546, i64 2211236943, i64 1748251740, i64 1369810420, i64 3521504564, i64 4193382664, i64 3799085459, i64 2883115123, i64 1647391059, i64 706024767, i64 134480908, i64 2512897874, i64 1176707941, i64 2646852446, i64 806885416, i64 932615841, i64 168101135, i64 798661301, i64 235341577, i64 605164086, i64 461406363, i64 3756188221, i64 3454790438, i64 1311188841, i64 2142417613, i64 3933566367, i64 302582043, i64 495158174, i64 1479289972, i64 874125870, i64 907746093, i64 3698224818, i64 3025820398, i64 1537253627, i64 2756858614, i64 1983593293, i64 3084310113, i64 2108928974, i64 1378429307, i64 3722699582, i64 1580150641, i64 327451799, i64 2790478837, i64 3117535592, i64 0, i64 3253595436, i64 1075847264, i64 3825007647, i64 2041688520, i64 3059440621, i64 3563743934, i64 2378943302, i64 1740553945, i64 1916352843, i64 2487896798, i64 2555137236, i64 2958579944, i64 2244988746, i64 3151024235, i64 3320835882, i64 1336584933, i64 3992714006, i64 2252555205, i64 2588757463, i64 1714631509, i64 293963156, i64 2319795663, i64 3925473552, i64 67240454, i64 4269768577, i64 2689618160, i64 2017213508, i64 631218106, i64 1269344483, i64 2723238387, i64 1571005438, i64 2151694528, i64 93294474, i64 1066570413, i64 563977660, i64 1882732616, i64 4059428100, i64 1673313503, i64 2008463041, i64 2950355573, i64 1109467491, i64 537923632, i64 3858759450, i64 4260623118, i64 3218264685, i64 2177748300, i64 403442708, i64 638784309, i64 3287084079, i64 3193921505, i64 899127202, i64 2286175436, i64 773265209, i64 2479146071, i64 1437050866, i64 4236148354, i64 2050833735, i64 3362022572, i64 3126681063, i64 840505643, i64 3866325909, i64 3227541664, i64 427917720, i64 2655997905, i64 2749160575, i64 1143087718, i64 1412049534, i64 999329963, i64 193497219, i64 2353415882, i64 3354324521, i64 1807268051, i64 672404540, i64 2816401017, i64 3160301282, i64 369822493, i64 2916866934, i64 3688947771, i64 1681011286, i64 1949973070, i64 336202270, i64 2454276571, i64 201721354, i64 1210328172, i64 3093060836, i64 2680341085, i64 3184776046, i64 1135389935, i64 3294782118, i64 965841320, i64 831886756, i64 3554993207, i64 4068047243, i64 3588745010, i64 2345191491, i64 1849112409, i64 3664604599, i64 26054028, i64 2983581028, i64 2622377682, i64 1235855840, i64 3630984372, i64 2891339514, i64 4092916743, i64 3488279077, i64 3395642799, i64 4101667470, i64 1202630377, i64 268961816, i64 1874508501, i64 4034427016, i64 1243948399, i64 1546530418, i64 941366308, i64 1470539505, i64 1941222599, i64 2546386513, i64 3421038627, i64 2715671932, i64 3899946140, i64 1042226977, i64 2521517021, i64 1639824860, i64 227249030, i64 260737669, i64 3765465232, i64 2084453954, i64 1907733956, i64 3429263018, i64 2420656344, i64 100860677, i64 4160157185, i64 470683154, i64 3261161891, i64 1781871967, i64 2924959737, i64 1773779408, i64 394692241, i64 2579611992, i64 974986535, i64 664706745, i64 3655459128, i64 3958962195, i64 731420851, i64 571543859, i64 3530123707, i64 2849626480, i64 126783113, i64 865375399, i64 765172662, i64 1008606754, i64 361203602, i64 3387549984, i64 2278477385, i64 2857719295, i64 1344809080, i64 2782912378, i64 59542671, i64 1503764984, i64 160008576, i64 437062935, i64 1707065306, i64 3622233649, i64 2218934982, i64 3496503480, i64 2185314755, i64 697932208, i64 1512910199, i64 504303377, i64 2075177163, i64 2824099068, i64 1841019862, i64 739644986], align 16
@_ZL3Te1 = internal constant [256 x i64] [i64 2781242211, i64 2230877308, i64 2582542199, i64 2381740923, i64 234877682, i64 3184946027, i64 2984144751, i64 1418839493, i64 1348481072, i64 50462977, i64 2848876391, i64 2102799147, i64 434634494, i64 1656084439, i64 3863849899, i64 2599188086, i64 1167051466, i64 2636087938, i64 1082771913, i64 2281340285, i64 368048890, i64 3954334041, i64 3381544775, i64 201060592, i64 3963727277, i64 1739838676, i64 4250903202, i64 3930435503, i64 3206782108, i64 4149453988, i64 2531553906, i64 1536934080, i64 3262494647, i64 484572669, i64 2923271059, i64 1783375398, i64 1517041206, i64 1098792767, i64 49674231, i64 1334037708, i64 1550332980, i64 4098991525, i64 886171109, i64 150598129, i64 2481090929, i64 1940642008, i64 1398944049, i64 1059722517, i64 201851908, i64 1385547719, i64 1699095331, i64 1587397571, i64 674240536, i64 2704774806, i64 252314885, i64 3039795866, i64 151914247, i64 908333586, i64 2602270848, i64 1038082786, i64 651029483, i64 1766729511, i64 3447698098, i64 2682942837, i64 454166793, i64 2652734339, i64 1951935532, i64 775166490, i64 758520603, i64 3000790638, i64 4004797018, i64 4217086112, i64 4137964114, i64 1299594043, i64 1639438038, i64 3464344499, i64 2068982057, i64 1054729187, i64 1901997871, i64 2534638724, i64 4121318227, i64 1757008337, i64 0, i64 750906861, i64 1614815264, i64 535035132, i64 3363418545, i64 3988151131, i64 3201591914, i64 1183697867, i64 3647454910, i64 1265776953, i64 3734260298, i64 3566750796, i64 3903871064, i64 1250283471, i64 1807470800, i64 717615087, i64 3847203498, i64 384695291, i64 3313910595, i64 3617213773, i64 1432761139, i64 2484176261, i64 3481945413, i64 283769337, i64 100925954, i64 2180939647, i64 4037038160, i64 1148730428, i64 3123027871, i64 3813386408, i64 4087501137, i64 4267549603, i64 3229630528, i64 2315620239, i64 2906624658, i64 3156319645, i64 1215313976, i64 82966005, i64 3747855548, i64 3245848246, i64 1974459098, i64 1665278241, i64 807407632, i64 451280895, i64 251524083, i64 1841287890, i64 1283575245, i64 337120268, i64 891687699, i64 801369324, i64 3787349855, i64 2721421207, i64 3431482436, i64 959321879, i64 1469301956, i64 4065699751, i64 2197585534, i64 1199193405, i64 2898814052, i64 3887750493, i64 724703513, i64 2514908019, i64 2696962144, i64 2551808385, i64 3516813135, i64 2141445340, i64 1715741218, i64 2119445034, i64 2872807568, i64 2198571144, i64 3398190662, i64 700968686, i64 3547052216, i64 1009259540, i64 2041044702, i64 3803995742, i64 487983883, i64 1991105499, i64 1004265696, i64 1449407026, i64 1316239930, i64 504629770, i64 3683797321, i64 168560134, i64 1816667172, i64 3837287516, i64 1570751170, i64 1857934291, i64 4014189740, i64 2797888098, i64 2822345105, i64 2754712981, i64 936633572, i64 2347923833, i64 852879335, i64 1133234376, i64 1500395319, i64 3084545389, i64 2348912013, i64 1689376213, i64 3533459022, i64 3762923945, i64 3034082412, i64 4205598294, i64 133428468, i64 634383082, i64 2949277029, i64 2398386810, i64 3913789102, i64 403703816, i64 3580869306, i64 2297460856, i64 1867130149, i64 1918643758, i64 607656988, i64 4049053350, i64 3346248884, i64 1368901318, i64 600565992, i64 2090982877, i64 2632479860, i64 557719327, i64 3717614411, i64 3697393085, i64 2249034635, i64 2232388234, i64 2430627952, i64 1115438654, i64 3295786421, i64 2865522278, i64 3633334344, i64 84280067, i64 33027830, i64 303828494, i64 2747425121, i64 1600795957, i64 4188952407, i64 3496589753, i64 2434238086, i64 1486471617, i64 658119965, i64 3106381470, i64 953803233, i64 334231800, i64 3005978776, i64 857870609, i64 3151128937, i64 1890179545, i64 2298973838, i64 2805175444, i64 3056442267, i64 574365214, i64 2450884487, i64 550103529, i64 1233637070, i64 4289353045, i64 2018519080, i64 2057691103, i64 2399374476, i64 4166623649, i64 2148108681, i64 387583245, i64 3664101311, i64 836232934, i64 3330556482, i64 3100665960, i64 3280093505, i64 2955516313, i64 2002398509, i64 287182607, i64 3413881008, i64 4238890068, i64 3597515707, i64 975967766], align 16
@_ZL3Te2 = internal constant [256 x i64] [i64 1671808611, i64 2089089148, i64 2006576759, i64 2072901243, i64 4061003762, i64 1807603307, i64 1873927791, i64 3310653893, i64 810573872, i64 16974337, i64 1739181671, i64 729634347, i64 4263110654, i64 3613570519, i64 2883997099, i64 1989864566, i64 3393556426, i64 2191335298, i64 3376449993, i64 2106063485, i64 4195741690, i64 1508618841, i64 1204391495, i64 4027317232, i64 2917941677, i64 3563566036, i64 2734514082, i64 2951366063, i64 2629772188, i64 2767672228, i64 1922491506, i64 3227229120, i64 3082974647, i64 4246528509, i64 2477669779, i64 644500518, i64 911895606, i64 1061256767, i64 4144166391, i64 3427763148, i64 878471220, i64 2784252325, i64 3845444069, i64 4043897329, i64 1905517169, i64 3631459288, i64 827548209, i64 356461077, i64 67897348, i64 3344078279, i64 593839651, i64 3277757891, i64 405286936, i64 2527147926, i64 84871685, i64 2595565466, i64 118033927, i64 305538066, i64 2157648768, i64 3795705826, i64 3945188843, i64 661212711, i64 2999812018, i64 1973414517, i64 152769033, i64 2208177539, i64 745822252, i64 439235610, i64 455947803, i64 1857215598, i64 1525593178, i64 2700827552, i64 1391895634, i64 994932283, i64 3596728278, i64 3016654259, i64 695947817, i64 3812548067, i64 795958831, i64 2224493444, i64 1408607827, i64 3513301457, i64 0, i64 3979133421, i64 543178784, i64 4229948412, i64 2982705585, i64 1542305371, i64 1790891114, i64 3410398667, i64 3201918910, i64 961245753, i64 1256100938, i64 1289001036, i64 1491644504, i64 3477767631, i64 3496721360, i64 4012557807, i64 2867154858, i64 4212583931, i64 1137018435, i64 1305975373, i64 861234739, i64 2241073541, i64 1171229253, i64 4178635257, i64 33948674, i64 2139225727, i64 1357946960, i64 1011120188, i64 2679776671, i64 2833468328, i64 1374921297, i64 2751356323, i64 1086357568, i64 2408187279, i64 2460827538, i64 2646352285, i64 944271416, i64 4110742005, i64 3168756668, i64 3066132406, i64 3665145818, i64 560153121, i64 271589392, i64 4279952895, i64 4077846003, i64 3530407890, i64 3444343245, i64 202643468, i64 322250259, i64 3962553324, i64 1608629855, i64 2543990167, i64 1154254916, i64 389623319, i64 3294073796, i64 2817676711, i64 2122513534, i64 1028094525, i64 1689045092, i64 1575467613, i64 422261273, i64 1939203699, i64 1621147744, i64 2174228865, i64 1339137615, i64 3699352540, i64 577127458, i64 712922154, i64 2427141008, i64 2290289544, i64 1187679302, i64 3995715566, i64 3100863416, i64 339486740, i64 3732514782, i64 1591917662, i64 186455563, i64 3681988059, i64 3762019296, i64 844522546, i64 978220090, i64 169743370, i64 1239126601, i64 101321734, i64 611076132, i64 1558493276, i64 3260915650, i64 3547250131, i64 2901361580, i64 1655096418, i64 2443721105, i64 2510565781, i64 3828863972, i64 2039214713, i64 3878868455, i64 3359869896, i64 928607799, i64 1840765549, i64 2374762893, i64 3580146133, i64 1322425422, i64 2850048425, i64 1823791212, i64 1459268694, i64 4094161908, i64 3928346602, i64 1706019429, i64 2056189050, i64 2934523822, i64 135794696, i64 3134549946, i64 2022240376, i64 628050469, i64 779246638, i64 472135708, i64 2800834470, i64 3032970164, i64 3327236038, i64 3894660072, i64 3715932637, i64 1956440180, i64 522272287, i64 1272813131, i64 3185336765, i64 2340818315, i64 2323976074, i64 1888542832, i64 1044544574, i64 3049550261, i64 1722469478, i64 1222152264, i64 50660867, i64 4127324150, i64 236067854, i64 1638122081, i64 895445557, i64 1475980887, i64 3117443513, i64 2257655686, i64 3243809217, i64 489110045, i64 2662934430, i64 3778599393, i64 4162055160, i64 2561878936, i64 288563729, i64 1773916777, i64 3648039385, i64 2391345038, i64 2493985684, i64 2612407707, i64 505560094, i64 2274497927, i64 3911240169, i64 3460925390, i64 1442818645, i64 678973480, i64 3749357023, i64 2358182796, i64 2717407649, i64 2306869641, i64 219617805, i64 3218761151, i64 3862026214, i64 1120306242, i64 1756942440, i64 1103331905, i64 2578459033, i64 762796589, i64 252780047, i64 2966125488, i64 1425844308, i64 3151392187, i64 372911126], align 16
@_ZL3Te3 = internal constant [256 x i64] [i64 1667474886, i64 2088535288, i64 2004326894, i64 2071694838, i64 4075949567, i64 1802223062, i64 1869591006, i64 3318043793, i64 808472672, i64 16843522, i64 1734846926, i64 724270422, i64 4278065639, i64 3621216949, i64 2880169549, i64 1987484396, i64 3402253711, i64 2189597983, i64 3385409673, i64 2105378810, i64 4210693615, i64 1499065266, i64 1195886990, i64 4042263547, i64 2913856577, i64 3570689971, i64 2728590687, i64 2947541573, i64 2627518243, i64 2762274643, i64 1920112356, i64 3233831835, i64 3082273397, i64 4261223649, i64 2475929149, i64 640051788, i64 909531756, i64 1061110142, i64 4160160501, i64 3435941763, i64 875846760, i64 2779116625, i64 3857003729, i64 4059105529, i64 1903268834, i64 3638064043, i64 825316194, i64 353713962, i64 67374088, i64 3351728789, i64 589522246, i64 3284360861, i64 404236336, i64 2526454071, i64 84217610, i64 2593830191, i64 117901582, i64 303183396, i64 2155911963, i64 3806477791, i64 3958056653, i64 656894286, i64 2998062463, i64 1970642922, i64 151591698, i64 2206440989, i64 741110872, i64 437923380, i64 454765878, i64 1852748508, i64 1515908788, i64 2694904667, i64 1381168804, i64 993742198, i64 3604373943, i64 3014905469, i64 690584402, i64 3823320797, i64 791638366, i64 2223281939, i64 1398011302, i64 3520161977, i64 0, i64 3991743681, i64 538992704, i64 4244381667, i64 2981218425, i64 1532751286, i64 1785380564, i64 3419096717, i64 3200178535, i64 960056178, i64 1246420628, i64 1280103576, i64 1482221744, i64 3486468741, i64 3503319995, i64 4025428677, i64 2863326543, i64 4227536621, i64 1128514950, i64 1296947098, i64 859002214, i64 2240123921, i64 1162203018, i64 4193849577, i64 33687044, i64 2139062782, i64 1347481760, i64 1010582648, i64 2678045221, i64 2829640523, i64 1364325282, i64 2745433693, i64 1077985408, i64 2408548869, i64 2459086143, i64 2644360225, i64 943212656, i64 4126475505, i64 3166494563, i64 3065430391, i64 3671750063, i64 555836226, i64 269496352, i64 4294908645, i64 4092792573, i64 3537006015, i64 3452783745, i64 202118168, i64 320025894, i64 3974901699, i64 1600119230, i64 2543297077, i64 1145359496, i64 387397934, i64 3301201811, i64 2812801621, i64 2122220284, i64 1027426170, i64 1684319432, i64 1566435258, i64 421079858, i64 1936954854, i64 1616945344, i64 2172753945, i64 1330631070, i64 3705438115, i64 572679748, i64 707427924, i64 2425400123, i64 2290647819, i64 1179044492, i64 4008585671, i64 3099120491, i64 336870440, i64 3739122087, i64 1583276732, i64 185277718, i64 3688593069, i64 3772791771, i64 842159716, i64 976899700, i64 168435220, i64 1229577106, i64 101059084, i64 606366792, i64 1549591736, i64 3267517855, i64 3553849021, i64 2897014595, i64 1650632388, i64 2442242105, i64 2509612081, i64 3840161747, i64 2038008818, i64 3890688725, i64 3368567691, i64 926374254, i64 1835907034, i64 2374863873, i64 3587531953, i64 1313788572, i64 2846482505, i64 1819063512, i64 1448540844, i64 4109633523, i64 3941213647, i64 1701162954, i64 2054852340, i64 2930698567, i64 134748176, i64 3132806511, i64 2021165296, i64 623210314, i64 774795868, i64 471606328, i64 2795958615, i64 3031746419, i64 3334885783, i64 3907527627, i64 3722280097, i64 1953799400, i64 522133822, i64 1263263126, i64 3183336545, i64 2341176845, i64 2324333839, i64 1886425312, i64 1044267644, i64 3048588401, i64 1718004428, i64 1212733584, i64 50529542, i64 4143317495, i64 235803164, i64 1633788866, i64 892690282, i64 1465383342, i64 3115962473, i64 2256965911, i64 3250673817, i64 488449850, i64 2661202215, i64 3789633753, i64 4177007595, i64 2560144171, i64 286339874, i64 1768537042, i64 3654906025, i64 2391705863, i64 2492770099, i64 2610673197, i64 505291324, i64 2273808917, i64 3924369609, i64 3469625735, i64 1431699370, i64 673740880, i64 3755965093, i64 2358021891, i64 2711746649, i64 2307489801, i64 218961690, i64 3217021541, i64 3873845719, i64 1111672452, i64 1751693520, i64 1094828930, i64 2576986153, i64 757954394, i64 252645662, i64 2964376443, i64 1414855848, i64 3149649517, i64 370555436], align 16
@.str.4 = private unnamed_addr constant [32 x i8] c"AES_Decrypt: Invalid Parameters\00", align 1
@_ZL3Td4 = internal constant [256 x i64] [i64 1381126738, i64 151587081, i64 1785358954, i64 3587560917, i64 808464432, i64 909522486, i64 2779096485, i64 943208504, i64 3217014719, i64 1077952576, i64 2745410467, i64 2661195422, i64 2172748161, i64 4092851187, i64 3621246935, i64 4227595259, i64 2088533116, i64 3823363043, i64 960051513, i64 2189591170, i64 2610666395, i64 791621423, i64 4294967295, i64 2273806215, i64 875836468, i64 2391707278, i64 1128481603, i64 1145324612, i64 3301229764, i64 3739147998, i64 3924421097, i64 3419130827, i64 1414812756, i64 2071690107, i64 2492765332, i64 842150450, i64 2795939494, i64 3267543746, i64 589505315, i64 1027423549, i64 4008636142, i64 1280068684, i64 2509608341, i64 185273099, i64 1111638594, i64 4210752250, i64 3284386755, i64 1313754702, i64 134744072, i64 774778414, i64 2711724449, i64 1717986918, i64 673720360, i64 3654932953, i64 606348324, i64 2998055602, i64 1987475062, i64 1532713819, i64 2728567458, i64 1229539657, i64 1835887981, i64 2341178251, i64 3520188881, i64 623191333, i64 1920103026, i64 4177066232, i64 4143380214, i64 1684300900, i64 2256963206, i64 1751672936, i64 2560137368, i64 370546198, i64 3570717908, i64 2762253476, i64 1549556828, i64 3435973836, i64 1566399837, i64 1701143909, i64 3065427638, i64 2459079314, i64 1819044972, i64 1886417008, i64 1212696648, i64 1347440720, i64 4261281277, i64 3991793133, i64 3115956665, i64 3671775962, i64 1583242846, i64 353703189, i64 1179010630, i64 1465341783, i64 2812782503, i64 2374864269, i64 2644352413, i64 2223277188, i64 2425393296, i64 3638089944, i64 2880154539, i64 0, i64 2358021260, i64 3166485692, i64 3553874899, i64 168430090, i64 4160223223, i64 3840206052, i64 1482184792, i64 84215045, i64 3099113656, i64 3014898611, i64 1162167621, i64 101058054, i64 3503345872, i64 741092396, i64 505290270, i64 2408550287, i64 3402287818, i64 1061109567, i64 252645135, i64 33686018, i64 3250700737, i64 2947526575, i64 3183328701, i64 50529027, i64 16843009, i64 320017171, i64 2324335242, i64 1802201963, i64 976894522, i64 2442236305, i64 286331153, i64 1094795585, i64 1330597711, i64 1734829927, i64 3705461980, i64 3941264106, i64 2543294359, i64 4076008178, i64 3486502863, i64 3469659854, i64 4042322160, i64 3031741620, i64 3873892070, i64 1936946035, i64 2526451350, i64 2896997548, i64 1953789044, i64 572662306, i64 3890735079, i64 2913840557, i64 892679477, i64 2240120197, i64 3806520034, i64 4193909241, i64 926365495, i64 3907578088, i64 471604252, i64 1970632053, i64 3755991007, i64 1852730990, i64 1195853639, i64 4059165169, i64 437918234, i64 1903260017, i64 488447261, i64 690563369, i64 3318072773, i64 2307492233, i64 1869573999, i64 3082270647, i64 1650614882, i64 235802126, i64 2863311530, i64 404232216, i64 3200171710, i64 454761243, i64 4244438268, i64 1448498774, i64 1044266558, i64 1263225675, i64 3334915782, i64 3537031890, i64 2038004089, i64 538976288, i64 2593823386, i64 3688618971, i64 3233857728, i64 4278124286, i64 2021161080, i64 3452816845, i64 1515870810, i64 4109694196, i64 522133279, i64 3722304989, i64 2829625512, i64 858993459, i64 2290649224, i64 117901063, i64 3351758791, i64 825307441, i64 2981212593, i64 303174162, i64 269488144, i64 1499027801, i64 656877351, i64 2155905152, i64 3974950124, i64 1600085855, i64 1616928864, i64 1364283729, i64 2139062143, i64 2846468521, i64 421075225, i64 3048584629, i64 1246382666, i64 218959117, i64 757935405, i64 3857049061, i64 2054847098, i64 2678038431, i64 2475922323, i64 3385444809, i64 2627509404, i64 4025479151, i64 2694881440, i64 3772834016, i64 993737531, i64 1296911693, i64 2930683566, i64 707406378, i64 4126537205, i64 2964369584, i64 3368601800, i64 3958107115, i64 3149642683, i64 1010580540, i64 2206434179, i64 1397969747, i64 2576980377, i64 1633771873, i64 387389207, i64 724249387, i64 67372036, i64 2122219134, i64 3132799674, i64 2004318071, i64 3604403926, i64 640034342, i64 3789677025, i64 1768515945, i64 336860180, i64 1667457891, i64 1431655765, i64 555819297, i64 202116108, i64 2105376125], align 16
@_ZTVN10__cxxabiv120__si_class_type_infoE = external global i8*
@_ZTS3Aes = constant [5 x i8] c"3Aes\00"
@_ZTI7Element = external constant i8*
@_ZTI3Aes = constant { i8*, i8*, i8* } { i8* bitcast (i8** getelementptr inbounds (i8*, i8** @_ZTVN10__cxxabiv120__si_class_type_infoE, i64 2) to i8*), i8* getelementptr inbounds ([5 x i8], [5 x i8]* @_ZTS3Aes, i32 0, i32 0), i8* bitcast (i8** @_ZTI7Element to i8*) }
@.str.5 = private unnamed_addr constant [28 x i8] c"i >= 0 && i < anno_size - 7\00", align 1
@.str.6 = private unnamed_addr constant [35 x i8] c"/usr/local/include/click/packet.hh\00", align 1
@__PRETTY_FUNCTION__._ZNK6Packet8anno_u64Ei = private unnamed_addr constant [37 x i8] c"uint64_t Packet::anno_u64(int) const\00", align 1
@.str.7 = private unnamed_addr constant [9 x i8] c"IPsecAES\00", align 1
@_ZN7Element9PORTS_1_1E = external constant [0 x i8], align 1
@.str.8 = private unnamed_addr constant [15 x i8] c"invalid number\00", align 1
@.str.9 = private unnamed_addr constant [18 x i8] c"_r.memo->refcount\00", align 1
@.str.10 = private unnamed_addr constant [35 x i8] c"/usr/local/include/click/string.hh\00", align 1
@__PRETTY_FUNCTION__._ZNK6String5derefEv = private unnamed_addr constant [27 x i8] c"void String::deref() const\00", align 1

@_ZN3AesC1Ev = alias void (%class.Aes*), void (%class.Aes*)* @_ZN3AesC2Ev
@_ZN3AesD1Ev = alias void (%class.Aes*), void (%class.Aes*)* @_ZN3AesD2Ev
@_ZN3AesC1Ei = alias void (%class.Aes*, i32), void (%class.Aes*, i32)* @_ZN3AesC2Ei

; Function Attrs: noinline optnone uwtable
define void @_ZN3AesC2Ev(%class.Aes*) unnamed_addr #0 align 2 {
  %2 = alloca %class.Aes*, align 8
  store %class.Aes* %0, %class.Aes** %2, align 8
  %3 = load %class.Aes*, %class.Aes** %2, align 8
  %4 = bitcast %class.Aes* %3 to %class.Element*
  call void @_ZN7ElementC2Ev(%class.Element* %4)
  %5 = bitcast %class.Aes* %3 to i32 (...)***
  store i32 (...)** bitcast (i8** getelementptr inbounds ({ [29 x i8*] }, { [29 x i8*] }* @_ZTV3Aes, i32 0, inrange i32 0, i32 2) to i32 (...)**), i32 (...)*** %5, align 8
  %6 = getelementptr inbounds %class.Aes, %class.Aes* %3, i32 0, i32 1
  store i32 0, i32* %6, align 4
  %7 = getelementptr inbounds %class.Aes, %class.Aes* %3, i32 0, i32 3
  ret void
}

declare void @_ZN7ElementC2Ev(%class.Element*) unnamed_addr #1

; Function Attrs: noinline nounwind optnone uwtable
define void @_ZN3AesD2Ev(%class.Aes*) unnamed_addr #2 align 2 {
  %2 = alloca %class.Aes*, align 8
  store %class.Aes* %0, %class.Aes** %2, align 8
  %3 = load %class.Aes*, %class.Aes** %2, align 8
  %4 = bitcast %class.Aes* %3 to %class.Element*
  call void @_ZN7ElementD2Ev(%class.Element* %4) #8
  ret void
}

; Function Attrs: nounwind
declare void @_ZN7ElementD2Ev(%class.Element*) unnamed_addr #3

; Function Attrs: noinline nounwind optnone uwtable
define void @_ZN3AesD0Ev(%class.Aes*) unnamed_addr #2 align 2 {
  %2 = alloca %class.Aes*, align 8
  store %class.Aes* %0, %class.Aes** %2, align 8
  %3 = load %class.Aes*, %class.Aes** %2, align 8
  call void @_ZN3AesD1Ev(%class.Aes* %3) #8
  %4 = bitcast %class.Aes* %3 to i8*
  call void @_ZdlPv(i8* %4) #9
  ret void
}

; Function Attrs: nobuiltin nounwind
declare void @_ZdlPv(i8*) #4

; Function Attrs: noinline optnone uwtable
define void @_ZN3AesC2Ei(%class.Aes*, i32) unnamed_addr #0 align 2 {
  %3 = alloca %class.Aes*, align 8
  %4 = alloca i32, align 4
  store %class.Aes* %0, %class.Aes** %3, align 8
  store i32 %1, i32* %4, align 4
  %5 = load %class.Aes*, %class.Aes** %3, align 8
  %6 = bitcast %class.Aes* %5 to %class.Element*
  call void @_ZN7ElementC2Ev(%class.Element* %6)
  %7 = bitcast %class.Aes* %5 to i32 (...)***
  store i32 (...)** bitcast (i8** getelementptr inbounds ({ [29 x i8*] }, { [29 x i8*] }* @_ZTV3Aes, i32 0, inrange i32 0, i32 2) to i32 (...)**), i32 (...)*** %7, align 8
  %8 = getelementptr inbounds %class.Aes, %class.Aes* %5, i32 0, i32 3
  %9 = load i32, i32* %4, align 4
  %10 = getelementptr inbounds %class.Aes, %class.Aes* %5, i32 0, i32 1
  store i32 %9, i32* %10, align 4
  ret void
}

; Function Attrs: noinline optnone uwtable
define i32 @_ZN3Aes9configureER6VectorI6StringEP12ErrorHandler(%class.Aes*, %class.Vector* dereferenceable(16), %class.ErrorHandler*) unnamed_addr #0 align 2 personality i8* bitcast (i32 (...)* @__gxx_personality_v0 to i8*) {
  %4 = alloca i32, align 4
  %5 = alloca %class.Aes*, align 8
  %6 = alloca %class.Vector*, align 8
  %7 = alloca %class.ErrorHandler*, align 8
  %8 = alloca i32, align 4
  %9 = alloca %class.Args, align 8
  %10 = alloca i8*
  %11 = alloca i32
  store %class.Aes* %0, %class.Aes** %5, align 8
  store %class.Vector* %1, %class.Vector** %6, align 8
  store %class.ErrorHandler* %2, %class.ErrorHandler** %7, align 8
  %12 = load %class.Aes*, %class.Aes** %5, align 8
  %13 = getelementptr inbounds %class.Aes, %class.Aes* %12, i32 0, i32 2
  store i32 12, i32* %13, align 8
  %14 = load %class.Vector*, %class.Vector** %6, align 8
  %15 = bitcast %class.Aes* %12 to %class.Element*
  %16 = load %class.ErrorHandler*, %class.ErrorHandler** %7, align 8
  call void @_ZN4ArgsC1ERK6VectorI6StringEPK7ElementP12ErrorHandler(%class.Args* %9, %class.Vector* dereferenceable(16) %14, %class.Element* %15, %class.ErrorHandler* %16)
  %17 = invoke dereferenceable(112) %class.Args* @_ZN4Args7read_mpIiEERS_PKcRT_(%class.Args* %9, i8* getelementptr inbounds ([8 x i8], [8 x i8]* @.str, i32 0, i32 0), i32* dereferenceable(4) %8)
          to label %18 unwind label %23

; <label>:18:                                     ; preds = %3
  %19 = invoke i32 @_ZN4Args8completeEv(%class.Args* %17)
          to label %20 unwind label %23

; <label>:20:                                     ; preds = %18
  %21 = icmp slt i32 %19, 0
  call void @_ZN4ArgsD1Ev(%class.Args* %9) #8
  br i1 %21, label %22, label %27

; <label>:22:                                     ; preds = %20
  store i32 -1, i32* %4, align 4
  br label %30

; <label>:23:                                     ; preds = %18, %3
  %24 = landingpad { i8*, i32 }
          cleanup
  %25 = extractvalue { i8*, i32 } %24, 0
  store i8* %25, i8** %10, align 8
  %26 = extractvalue { i8*, i32 } %24, 1
  store i32 %26, i32* %11, align 4
  call void @_ZN4ArgsD1Ev(%class.Args* %9) #8
  br label %32

; <label>:27:                                     ; preds = %20
  %28 = load i32, i32* %8, align 4
  %29 = getelementptr inbounds %class.Aes, %class.Aes* %12, i32 0, i32 1
  store i32 %28, i32* %29, align 4
  store i32 0, i32* %4, align 4
  br label %30

; <label>:30:                                     ; preds = %27, %22
  %31 = load i32, i32* %4, align 4
  ret i32 %31

; <label>:32:                                     ; preds = %23
  %33 = load i8*, i8** %10, align 8
  %34 = load i32, i32* %11, align 4
  %35 = insertvalue { i8*, i32 } undef, i8* %33, 0
  %36 = insertvalue { i8*, i32 } %35, i32 %34, 1
  resume { i8*, i32 } %36
}

declare void @_ZN4ArgsC1ERK6VectorI6StringEPK7ElementP12ErrorHandler(%class.Args*, %class.Vector* dereferenceable(16), %class.Element*, %class.ErrorHandler*) unnamed_addr #1

; Function Attrs: noinline optnone uwtable
define linkonce_odr dereferenceable(112) %class.Args* @_ZN4Args7read_mpIiEERS_PKcRT_(%class.Args*, i8*, i32* dereferenceable(4)) #0 comdat align 2 {
  %4 = alloca %class.Args*, align 8
  %5 = alloca i8*, align 8
  %6 = alloca i32*, align 8
  store %class.Args* %0, %class.Args** %4, align 8
  store i8* %1, i8** %5, align 8
  store i32* %2, i32** %6, align 8
  %7 = load %class.Args*, %class.Args** %4, align 8
  %8 = load i8*, i8** %5, align 8
  %9 = load i32*, i32** %6, align 8
  %10 = call dereferenceable(112) %class.Args* @_ZN4Args4readIiEERS_PKciRT_(%class.Args* %7, i8* %8, i32 3, i32* dereferenceable(4) %9)
  ret %class.Args* %10
}

declare i32 @__gxx_personality_v0(...)

declare i32 @_ZN4Args8completeEv(%class.Args*) #1

; Function Attrs: nounwind
declare void @_ZN4ArgsD1Ev(%class.Args*) unnamed_addr #3

; Function Attrs: noinline nounwind optnone uwtable
define i32 @_ZN3Aes10initializeEP12ErrorHandler(%class.Aes*, %class.ErrorHandler*) unnamed_addr #2 align 2 {
  %3 = alloca %class.Aes*, align 8
  %4 = alloca %class.ErrorHandler*, align 8
  store %class.Aes* %0, %class.Aes** %3, align 8
  store %class.ErrorHandler* %1, %class.ErrorHandler** %4, align 8
  %5 = load %class.Aes*, %class.Aes** %3, align 8
  ret i32 0
}

; Function Attrs: noinline optnone uwtable
define %class.Packet* @_ZN3Aes13simple_actionEP6Packet(%class.Aes*, %class.Packet*) unnamed_addr #0 align 2 {
  %3 = alloca %class.Packet*, align 8
  %4 = alloca %class.Aes*, align 8
  %5 = alloca %class.Packet*, align 8
  %6 = alloca %class.WritablePacket*, align 8
  %7 = alloca [8 x i8], align 1
  %8 = alloca %struct.esp_new*, align 8
  %9 = alloca %class.SADataTuple*, align 8
  %10 = alloca [8 x i8], align 1
  %11 = alloca i8*, align 8
  %12 = alloca i8*, align 8
  %13 = alloca i32, align 4
  %14 = alloca i32, align 4
  store %class.Aes* %0, %class.Aes** %4, align 8
  store %class.Packet* %1, %class.Packet** %5, align 8
  %15 = load %class.Aes*, %class.Aes** %4, align 8
  %16 = load %class.Packet*, %class.Packet** %5, align 8
  %17 = call %class.WritablePacket* @_ZN6Packet9uniqueifyEv(%class.Packet* %16)
  store %class.WritablePacket* %17, %class.WritablePacket** %6, align 8
  %18 = load %class.WritablePacket*, %class.WritablePacket** %6, align 8
  %19 = call i8* @_ZNK14WritablePacket4dataEv(%class.WritablePacket* %18)
  %20 = bitcast i8* %19 to %struct.esp_new*
  store %struct.esp_new* %20, %struct.esp_new** %8, align 8
  %21 = load %struct.esp_new*, %struct.esp_new** %8, align 8
  %22 = getelementptr inbounds %struct.esp_new, %struct.esp_new* %21, i32 0, i32 2
  %23 = getelementptr inbounds [8 x i8], [8 x i8]* %22, i32 0, i32 0
  store i8* %23, i8** %11, align 8
  %24 = load %class.WritablePacket*, %class.WritablePacket** %6, align 8
  %25 = call i8* @_ZNK14WritablePacket4dataEv(%class.WritablePacket* %24)
  %26 = getelementptr inbounds i8, i8* %25, i64 16
  store i8* %26, i8** %12, align 8
  %27 = load %class.WritablePacket*, %class.WritablePacket** %6, align 8
  %28 = bitcast %class.WritablePacket* %27 to %class.Packet*
  %29 = call i32 @_ZNK6Packet6lengthEv(%class.Packet* %28)
  %30 = zext i32 %29 to i64
  %31 = sub i64 %30, 16
  %32 = getelementptr inbounds %class.Aes, %class.Aes* %15, i32 0, i32 2
  %33 = load i32, i32* %32, align 8
  %34 = sext i32 %33 to i64
  %35 = sub i64 %31, %34
  %36 = trunc i64 %35 to i32
  store i32 %36, i32* %13, align 4
  %37 = load i32, i32* %13, align 4
  %38 = srem i32 %37, 16
  %39 = icmp ne i32 %38, 0
  br i1 %39, label %40, label %43

; <label>:40:                                     ; preds = %2
  %41 = load i32, i32* %13, align 4
  %42 = add nsw i32 %41, 8
  store i32 %42, i32* %13, align 4
  br label %43

; <label>:43:                                     ; preds = %40, %2
  %44 = load i32, i32* %13, align 4
  store i32 %44, i32* %14, align 4
  %45 = load %class.WritablePacket*, %class.WritablePacket** %6, align 8
  %46 = bitcast %class.WritablePacket* %45 to %class.Packet*
  %47 = call i64 @_ZNK6Packet8anno_u64Ei(%class.Packet* %46, i32 40)
  %48 = inttoptr i64 %47 to %class.SADataTuple*
  store %class.SADataTuple* %48, %class.SADataTuple** %9, align 8
  %49 = getelementptr inbounds %class.Aes, %class.Aes* %15, i32 0, i32 1
  %50 = load i32, i32* %49, align 4
  %51 = icmp eq i32 %50, 0
  br i1 %51, label %52, label %66

; <label>:52:                                     ; preds = %43
  %53 = getelementptr inbounds [8 x i8], [8 x i8]* %10, i32 0, i32 0
  %54 = load i8*, i8** %11, align 8
  call void @llvm.memcpy.p0i8.p0i8.i64(i8* %53, i8* %54, i64 8, i32 1, i1 false)
  %55 = load %class.SADataTuple*, %class.SADataTuple** %9, align 8
  %56 = icmp eq %class.SADataTuple* %55, null
  br i1 %56, label %57, label %60

; <label>:57:                                     ; preds = %52
  call void (i8*, ...) @click_chatter(i8* getelementptr inbounds ([58 x i8], [58 x i8]* @.str.1, i32 0, i32 0))
  %58 = load %class.WritablePacket*, %class.WritablePacket** %6, align 8
  %59 = bitcast %class.WritablePacket* %58 to %class.Packet*
  call void @_ZN6Packet4killEv(%class.Packet* %59)
  store %class.Packet* null, %class.Packet** %3, align 8
  br label %158

; <label>:60:                                     ; preds = %52
  %61 = load %class.SADataTuple*, %class.SADataTuple** %9, align 8
  %62 = getelementptr inbounds %class.SADataTuple, %class.SADataTuple* %61, i32 0, i32 0
  %63 = bitcast [16 x i8]* %62 to i8*
  %64 = getelementptr inbounds %class.Aes, %class.Aes* %15, i32 0, i32 3
  %65 = call i32 @_ZN3Aes19AES_set_decrypt_keyEPKhiP10aes_key_st(%class.Aes* %15, i8* %63, i32 128, %struct.aes_key_st* %64)
  br label %78

; <label>:66:                                     ; preds = %43
  %67 = load %class.SADataTuple*, %class.SADataTuple** %9, align 8
  %68 = icmp eq %class.SADataTuple* %67, null
  br i1 %68, label %69, label %72

; <label>:69:                                     ; preds = %66
  call void (i8*, ...) @click_chatter(i8* getelementptr inbounds ([83 x i8], [83 x i8]* @.str.2, i32 0, i32 0))
  %70 = load %class.WritablePacket*, %class.WritablePacket** %6, align 8
  %71 = bitcast %class.WritablePacket* %70 to %class.Packet*
  call void @_ZN6Packet4killEv(%class.Packet* %71)
  store %class.Packet* null, %class.Packet** %3, align 8
  br label %158

; <label>:72:                                     ; preds = %66
  %73 = load %class.SADataTuple*, %class.SADataTuple** %9, align 8
  %74 = getelementptr inbounds %class.SADataTuple, %class.SADataTuple* %73, i32 0, i32 0
  %75 = bitcast [16 x i8]* %74 to i8*
  %76 = getelementptr inbounds %class.Aes, %class.Aes* %15, i32 0, i32 3
  %77 = call i32 @_ZN3Aes19AES_set_encrypt_keyEPKhiP10aes_key_st(%class.Aes* %15, i8* %75, i32 128, %struct.aes_key_st* %76)
  br label %78

; <label>:78:                                     ; preds = %72, %60
  br label %79

; <label>:79:                                     ; preds = %143, %78
  %80 = load i32, i32* %13, align 4
  %81 = icmp sgt i32 %80, 0
  br i1 %81, label %82, label %148

; <label>:82:                                     ; preds = %79
  %83 = getelementptr inbounds %class.Aes, %class.Aes* %15, i32 0, i32 1
  %84 = load i32, i32* %83, align 4
  %85 = icmp eq i32 %84, 0
  br i1 %85, label %86, label %116

; <label>:86:                                     ; preds = %82
  %87 = getelementptr inbounds [8 x i8], [8 x i8]* %7, i32 0, i32 0
  %88 = load i8*, i8** %12, align 8
  call void @llvm.memcpy.p0i8.p0i8.i64(i8* %87, i8* %88, i64 8, i32 1, i1 false)
  %89 = load i8*, i8** %12, align 8
  %90 = load i8*, i8** %12, align 8
  %91 = getelementptr inbounds %class.Aes, %class.Aes* %15, i32 0, i32 3
  call void @_ZN3Aes11AES_decryptEPKhPhPK10aes_key_st(%class.Aes* %15, i8* %89, i8* %90, %struct.aes_key_st* %91)
  store i32 0, i32* %14, align 4
  br label %92

; <label>:92:                                     ; preds = %110, %86
  %93 = load i32, i32* %14, align 4
  %94 = icmp slt i32 %93, 8
  br i1 %94, label %95, label %113

; <label>:95:                                     ; preds = %92
  %96 = load i8*, i8** %11, align 8
  %97 = load i32, i32* %14, align 4
  %98 = sext i32 %97 to i64
  %99 = getelementptr inbounds i8, i8* %96, i64 %98
  %100 = load i8, i8* %99, align 1
  %101 = zext i8 %100 to i32
  %102 = load i8*, i8** %12, align 8
  %103 = load i32, i32* %14, align 4
  %104 = sext i32 %103 to i64
  %105 = getelementptr inbounds i8, i8* %102, i64 %104
  %106 = load i8, i8* %105, align 1
  %107 = zext i8 %106 to i32
  %108 = xor i32 %107, %101
  %109 = trunc i32 %108 to i8
  store i8 %109, i8* %105, align 1
  br label %110

; <label>:110:                                    ; preds = %95
  %111 = load i32, i32* %14, align 4
  %112 = add nsw i32 %111, 1
  store i32 %112, i32* %14, align 4
  br label %92

; <label>:113:                                    ; preds = %92
  %114 = load i8*, i8** %11, align 8
  %115 = getelementptr inbounds [8 x i8], [8 x i8]* %7, i32 0, i32 0
  call void @llvm.memcpy.p0i8.p0i8.i64(i8* %114, i8* %115, i64 8, i32 1, i1 false)
  br label %143

; <label>:116:                                    ; preds = %82
  store i32 0, i32* %14, align 4
  br label %117

; <label>:117:                                    ; preds = %135, %116
  %118 = load i32, i32* %14, align 4
  %119 = icmp slt i32 %118, 8
  br i1 %119, label %120, label %138

; <label>:120:                                    ; preds = %117
  %121 = load i8*, i8** %11, align 8
  %122 = load i32, i32* %14, align 4
  %123 = sext i32 %122 to i64
  %124 = getelementptr inbounds i8, i8* %121, i64 %123
  %125 = load i8, i8* %124, align 1
  %126 = zext i8 %125 to i32
  %127 = load i8*, i8** %12, align 8
  %128 = load i32, i32* %14, align 4
  %129 = sext i32 %128 to i64
  %130 = getelementptr inbounds i8, i8* %127, i64 %129
  %131 = load i8, i8* %130, align 1
  %132 = zext i8 %131 to i32
  %133 = xor i32 %132, %126
  %134 = trunc i32 %133 to i8
  store i8 %134, i8* %130, align 1
  br label %135

; <label>:135:                                    ; preds = %120
  %136 = load i32, i32* %14, align 4
  %137 = add nsw i32 %136, 1
  store i32 %137, i32* %14, align 4
  br label %117

; <label>:138:                                    ; preds = %117
  %139 = load i8*, i8** %12, align 8
  %140 = load i8*, i8** %12, align 8
  %141 = getelementptr inbounds %class.Aes, %class.Aes* %15, i32 0, i32 3
  call void @_ZN3Aes11AES_encryptEPKhPhPK10aes_key_st(%class.Aes* %15, i8* %139, i8* %140, %struct.aes_key_st* %141)
  %142 = load i8*, i8** %12, align 8
  store i8* %142, i8** %11, align 8
  br label %143

; <label>:143:                                    ; preds = %138, %113
  %144 = load i8*, i8** %12, align 8
  %145 = getelementptr inbounds i8, i8* %144, i64 16
  store i8* %145, i8** %12, align 8
  %146 = load i32, i32* %13, align 4
  %147 = sub nsw i32 %146, 16
  store i32 %147, i32* %13, align 4
  br label %79

; <label>:148:                                    ; preds = %79
  %149 = getelementptr inbounds %class.Aes, %class.Aes* %15, i32 0, i32 1
  %150 = load i32, i32* %149, align 4
  %151 = icmp eq i32 %150, 0
  br i1 %151, label %152, label %155

; <label>:152:                                    ; preds = %148
  %153 = load i8*, i8** %11, align 8
  %154 = getelementptr inbounds [8 x i8], [8 x i8]* %10, i32 0, i32 0
  call void @llvm.memcpy.p0i8.p0i8.i64(i8* %153, i8* %154, i64 8, i32 1, i1 false)
  br label %155

; <label>:155:                                    ; preds = %152, %148
  %156 = load %class.WritablePacket*, %class.WritablePacket** %6, align 8
  %157 = bitcast %class.WritablePacket* %156 to %class.Packet*
  store %class.Packet* %157, %class.Packet** %3, align 8
  br label %158

; <label>:158:                                    ; preds = %155, %69, %57
  %159 = load %class.Packet*, %class.Packet** %3, align 8
  ret %class.Packet* %159
}

; Function Attrs: noinline optnone uwtable
define linkonce_odr %class.WritablePacket* @_ZN6Packet9uniqueifyEv(%class.Packet*) #0 comdat align 2 {
  %2 = alloca %class.WritablePacket*, align 8
  %3 = alloca %class.Packet*, align 8
  store %class.Packet* %0, %class.Packet** %3, align 8
  %4 = load %class.Packet*, %class.Packet** %3, align 8
  %5 = call zeroext i1 @_ZNK6Packet6sharedEv(%class.Packet* %4)
  br i1 %5, label %8, label %6

; <label>:6:                                      ; preds = %1
  %7 = bitcast %class.Packet* %4 to %class.WritablePacket*
  store %class.WritablePacket* %7, %class.WritablePacket** %2, align 8
  br label %10

; <label>:8:                                      ; preds = %1
  %9 = call %class.WritablePacket* @_ZN6Packet19expensive_uniqueifyEiib(%class.Packet* %4, i32 0, i32 0, i1 zeroext true)
  store %class.WritablePacket* %9, %class.WritablePacket** %2, align 8
  br label %10

; <label>:10:                                     ; preds = %8, %6
  %11 = load %class.WritablePacket*, %class.WritablePacket** %2, align 8
  ret %class.WritablePacket* %11
}

; Function Attrs: noinline optnone uwtable
define linkonce_odr i8* @_ZNK14WritablePacket4dataEv(%class.WritablePacket*) #0 comdat align 2 {
  %2 = alloca %class.WritablePacket*, align 8
  store %class.WritablePacket* %0, %class.WritablePacket** %2, align 8
  %3 = load %class.WritablePacket*, %class.WritablePacket** %2, align 8
  %4 = bitcast %class.WritablePacket* %3 to %class.Packet*
  %5 = call i8* @_ZNK6Packet4dataEv(%class.Packet* %4)
  ret i8* %5
}

; Function Attrs: noinline nounwind optnone uwtable
define linkonce_odr i32 @_ZNK6Packet6lengthEv(%class.Packet*) #2 comdat align 2 {
  %2 = alloca %class.Packet*, align 8
  store %class.Packet* %0, %class.Packet** %2, align 8
  %3 = load %class.Packet*, %class.Packet** %2, align 8
  %4 = getelementptr inbounds %class.Packet, %class.Packet* %3, i32 0, i32 4
  %5 = load i8*, i8** %4, align 8
  %6 = getelementptr inbounds %class.Packet, %class.Packet* %3, i32 0, i32 3
  %7 = load i8*, i8** %6, align 8
  %8 = ptrtoint i8* %5 to i64
  %9 = ptrtoint i8* %7 to i64
  %10 = sub i64 %8, %9
  %11 = trunc i64 %10 to i32
  ret i32 %11
}

; Function Attrs: noinline optnone uwtable
define linkonce_odr i64 @_ZNK6Packet8anno_u64Ei(%class.Packet*, i32) #0 comdat align 2 {
  %3 = alloca %class.Packet*, align 8
  %4 = alloca i32, align 4
  store %class.Packet* %0, %class.Packet** %3, align 8
  store i32 %1, i32* %4, align 4
  %5 = load %class.Packet*, %class.Packet** %3, align 8
  %6 = load i32, i32* %4, align 4
  %7 = icmp sge i32 %6, 0
  br i1 %7, label %8, label %11

; <label>:8:                                      ; preds = %2
  %9 = load i32, i32* %4, align 4
  %10 = icmp slt i32 %9, 41
  br label %11

; <label>:11:                                     ; preds = %8, %2
  %12 = phi i1 [ false, %2 ], [ %10, %8 ]
  br i1 %12, label %13, label %14

; <label>:13:                                     ; preds = %11
  br label %16

; <label>:14:                                     ; preds = %11
  call void @__assert_fail(i8* getelementptr inbounds ([28 x i8], [28 x i8]* @.str.5, i32 0, i32 0), i8* getelementptr inbounds ([35 x i8], [35 x i8]* @.str.6, i32 0, i32 0), i32 592, i8* getelementptr inbounds ([37 x i8], [37 x i8]* @__PRETTY_FUNCTION__._ZNK6Packet8anno_u64Ei, i32 0, i32 0)) #10
  unreachable
                                                  ; No predecessors!
  br label %16

; <label>:16:                                     ; preds = %15, %13
  %17 = call %"union.Packet::Anno"* @_ZNK6Packet5xannoEv(%class.Packet* %5)
  %18 = bitcast %"union.Packet::Anno"* %17 to [48 x i8]*
  %19 = getelementptr inbounds [48 x i8], [48 x i8]* %18, i32 0, i32 0
  %20 = load i32, i32* %4, align 4
  %21 = sext i32 %20 to i64
  %22 = getelementptr inbounds i8, i8* %19, i64 %21
  %23 = bitcast i8* %22 to i64*
  %24 = load i64, i64* %23, align 8
  ret i64 %24
}

; Function Attrs: argmemonly nounwind
declare void @llvm.memcpy.p0i8.p0i8.i64(i8* nocapture writeonly, i8* nocapture readonly, i64, i32, i1) #5

declare void @click_chatter(i8*, ...) #1

; Function Attrs: noinline optnone uwtable
define linkonce_odr void @_ZN6Packet4killEv(%class.Packet*) #0 comdat align 2 {
  %2 = alloca %class.Packet*, align 8
  store %class.Packet* %0, %class.Packet** %2, align 8
  %3 = load %class.Packet*, %class.Packet** %2, align 8
  %4 = getelementptr inbounds %class.Packet, %class.Packet* %3, i32 0, i32 0
  %5 = call zeroext i1 @_ZN15atomic_uint32_t12dec_and_testEv(%class.atomic_uint32_t* %4)
  br i1 %5, label %6, label %8

; <label>:6:                                      ; preds = %1
  %7 = bitcast %class.Packet* %3 to %class.WritablePacket*
  call void @_ZN14WritablePacket7recycleEPS_(%class.WritablePacket* %7)
  br label %8

; <label>:8:                                      ; preds = %6, %1
  ret void
}

; Function Attrs: noinline nounwind optnone uwtable
define i32 @_ZN3Aes19AES_set_decrypt_keyEPKhiP10aes_key_st(%class.Aes*, i8*, i32, %struct.aes_key_st*) #2 align 2 {
  %5 = alloca i32, align 4
  %6 = alloca %class.Aes*, align 8
  %7 = alloca i8*, align 8
  %8 = alloca i32, align 4
  %9 = alloca %struct.aes_key_st*, align 8
  %10 = alloca i64*, align 8
  %11 = alloca i32, align 4
  %12 = alloca i32, align 4
  %13 = alloca i32, align 4
  %14 = alloca i64, align 8
  store %class.Aes* %0, %class.Aes** %6, align 8
  store i8* %1, i8** %7, align 8
  store i32 %2, i32* %8, align 4
  store %struct.aes_key_st* %3, %struct.aes_key_st** %9, align 8
  %15 = load %class.Aes*, %class.Aes** %6, align 8
  %16 = load i8*, i8** %7, align 8
  %17 = load i32, i32* %8, align 4
  %18 = load %struct.aes_key_st*, %struct.aes_key_st** %9, align 8
  %19 = call i32 @_ZN3Aes19AES_set_encrypt_keyEPKhiP10aes_key_st(%class.Aes* %15, i8* %16, i32 %17, %struct.aes_key_st* %18)
  store i32 %19, i32* %13, align 4
  %20 = load i32, i32* %13, align 4
  %21 = icmp slt i32 %20, 0
  br i1 %21, label %22, label %24

; <label>:22:                                     ; preds = %4
  %23 = load i32, i32* %13, align 4
  store i32 %23, i32* %5, align 4
  br label %316

; <label>:24:                                     ; preds = %4
  %25 = load %struct.aes_key_st*, %struct.aes_key_st** %9, align 8
  %26 = getelementptr inbounds %struct.aes_key_st, %struct.aes_key_st* %25, i32 0, i32 0
  %27 = getelementptr inbounds [60 x i64], [60 x i64]* %26, i32 0, i32 0
  store i64* %27, i64** %10, align 8
  store i32 0, i32* %11, align 4
  %28 = load %struct.aes_key_st*, %struct.aes_key_st** %9, align 8
  %29 = getelementptr inbounds %struct.aes_key_st, %struct.aes_key_st* %28, i32 0, i32 1
  %30 = load i32, i32* %29, align 8
  %31 = mul nsw i32 4, %30
  store i32 %31, i32* %12, align 4
  br label %32

; <label>:32:                                     ; preds = %125, %24
  %33 = load i32, i32* %11, align 4
  %34 = load i32, i32* %12, align 4
  %35 = icmp slt i32 %33, %34
  br i1 %35, label %36, label %130

; <label>:36:                                     ; preds = %32
  %37 = load i64*, i64** %10, align 8
  %38 = load i32, i32* %11, align 4
  %39 = sext i32 %38 to i64
  %40 = getelementptr inbounds i64, i64* %37, i64 %39
  %41 = load i64, i64* %40, align 8
  store i64 %41, i64* %14, align 8
  %42 = load i64*, i64** %10, align 8
  %43 = load i32, i32* %12, align 4
  %44 = sext i32 %43 to i64
  %45 = getelementptr inbounds i64, i64* %42, i64 %44
  %46 = load i64, i64* %45, align 8
  %47 = load i64*, i64** %10, align 8
  %48 = load i32, i32* %11, align 4
  %49 = sext i32 %48 to i64
  %50 = getelementptr inbounds i64, i64* %47, i64 %49
  store i64 %46, i64* %50, align 8
  %51 = load i64, i64* %14, align 8
  %52 = load i64*, i64** %10, align 8
  %53 = load i32, i32* %12, align 4
  %54 = sext i32 %53 to i64
  %55 = getelementptr inbounds i64, i64* %52, i64 %54
  store i64 %51, i64* %55, align 8
  %56 = load i64*, i64** %10, align 8
  %57 = load i32, i32* %11, align 4
  %58 = add nsw i32 %57, 1
  %59 = sext i32 %58 to i64
  %60 = getelementptr inbounds i64, i64* %56, i64 %59
  %61 = load i64, i64* %60, align 8
  store i64 %61, i64* %14, align 8
  %62 = load i64*, i64** %10, align 8
  %63 = load i32, i32* %12, align 4
  %64 = add nsw i32 %63, 1
  %65 = sext i32 %64 to i64
  %66 = getelementptr inbounds i64, i64* %62, i64 %65
  %67 = load i64, i64* %66, align 8
  %68 = load i64*, i64** %10, align 8
  %69 = load i32, i32* %11, align 4
  %70 = add nsw i32 %69, 1
  %71 = sext i32 %70 to i64
  %72 = getelementptr inbounds i64, i64* %68, i64 %71
  store i64 %67, i64* %72, align 8
  %73 = load i64, i64* %14, align 8
  %74 = load i64*, i64** %10, align 8
  %75 = load i32, i32* %12, align 4
  %76 = add nsw i32 %75, 1
  %77 = sext i32 %76 to i64
  %78 = getelementptr inbounds i64, i64* %74, i64 %77
  store i64 %73, i64* %78, align 8
  %79 = load i64*, i64** %10, align 8
  %80 = load i32, i32* %11, align 4
  %81 = add nsw i32 %80, 2
  %82 = sext i32 %81 to i64
  %83 = getelementptr inbounds i64, i64* %79, i64 %82
  %84 = load i64, i64* %83, align 8
  store i64 %84, i64* %14, align 8
  %85 = load i64*, i64** %10, align 8
  %86 = load i32, i32* %12, align 4
  %87 = add nsw i32 %86, 2
  %88 = sext i32 %87 to i64
  %89 = getelementptr inbounds i64, i64* %85, i64 %88
  %90 = load i64, i64* %89, align 8
  %91 = load i64*, i64** %10, align 8
  %92 = load i32, i32* %11, align 4
  %93 = add nsw i32 %92, 2
  %94 = sext i32 %93 to i64
  %95 = getelementptr inbounds i64, i64* %91, i64 %94
  store i64 %90, i64* %95, align 8
  %96 = load i64, i64* %14, align 8
  %97 = load i64*, i64** %10, align 8
  %98 = load i32, i32* %12, align 4
  %99 = add nsw i32 %98, 2
  %100 = sext i32 %99 to i64
  %101 = getelementptr inbounds i64, i64* %97, i64 %100
  store i64 %96, i64* %101, align 8
  %102 = load i64*, i64** %10, align 8
  %103 = load i32, i32* %11, align 4
  %104 = add nsw i32 %103, 3
  %105 = sext i32 %104 to i64
  %106 = getelementptr inbounds i64, i64* %102, i64 %105
  %107 = load i64, i64* %106, align 8
  store i64 %107, i64* %14, align 8
  %108 = load i64*, i64** %10, align 8
  %109 = load i32, i32* %12, align 4
  %110 = add nsw i32 %109, 3
  %111 = sext i32 %110 to i64
  %112 = getelementptr inbounds i64, i64* %108, i64 %111
  %113 = load i64, i64* %112, align 8
  %114 = load i64*, i64** %10, align 8
  %115 = load i32, i32* %11, align 4
  %116 = add nsw i32 %115, 3
  %117 = sext i32 %116 to i64
  %118 = getelementptr inbounds i64, i64* %114, i64 %117
  store i64 %113, i64* %118, align 8
  %119 = load i64, i64* %14, align 8
  %120 = load i64*, i64** %10, align 8
  %121 = load i32, i32* %12, align 4
  %122 = add nsw i32 %121, 3
  %123 = sext i32 %122 to i64
  %124 = getelementptr inbounds i64, i64* %120, i64 %123
  store i64 %119, i64* %124, align 8
  br label %125

; <label>:125:                                    ; preds = %36
  %126 = load i32, i32* %11, align 4
  %127 = add nsw i32 %126, 4
  store i32 %127, i32* %11, align 4
  %128 = load i32, i32* %12, align 4
  %129 = sub nsw i32 %128, 4
  store i32 %129, i32* %12, align 4
  br label %32

; <label>:130:                                    ; preds = %32
  store i32 1, i32* %11, align 4
  br label %131

; <label>:131:                                    ; preds = %312, %130
  %132 = load i32, i32* %11, align 4
  %133 = load %struct.aes_key_st*, %struct.aes_key_st** %9, align 8
  %134 = getelementptr inbounds %struct.aes_key_st, %struct.aes_key_st* %133, i32 0, i32 1
  %135 = load i32, i32* %134, align 8
  %136 = icmp slt i32 %132, %135
  br i1 %136, label %137, label %315

; <label>:137:                                    ; preds = %131
  %138 = load i64*, i64** %10, align 8
  %139 = getelementptr inbounds i64, i64* %138, i64 4
  store i64* %139, i64** %10, align 8
  %140 = load i64*, i64** %10, align 8
  %141 = getelementptr inbounds i64, i64* %140, i64 0
  %142 = load i64, i64* %141, align 8
  %143 = lshr i64 %142, 24
  %144 = getelementptr inbounds [256 x i64], [256 x i64]* @_ZL3Te4, i64 0, i64 %143
  %145 = load i64, i64* %144, align 8
  %146 = and i64 %145, 255
  %147 = getelementptr inbounds [256 x i64], [256 x i64]* @_ZL3Td0, i64 0, i64 %146
  %148 = load i64, i64* %147, align 8
  %149 = load i64*, i64** %10, align 8
  %150 = getelementptr inbounds i64, i64* %149, i64 0
  %151 = load i64, i64* %150, align 8
  %152 = lshr i64 %151, 16
  %153 = and i64 %152, 255
  %154 = getelementptr inbounds [256 x i64], [256 x i64]* @_ZL3Te4, i64 0, i64 %153
  %155 = load i64, i64* %154, align 8
  %156 = and i64 %155, 255
  %157 = getelementptr inbounds [256 x i64], [256 x i64]* @_ZL3Td1, i64 0, i64 %156
  %158 = load i64, i64* %157, align 8
  %159 = xor i64 %148, %158
  %160 = load i64*, i64** %10, align 8
  %161 = getelementptr inbounds i64, i64* %160, i64 0
  %162 = load i64, i64* %161, align 8
  %163 = lshr i64 %162, 8
  %164 = and i64 %163, 255
  %165 = getelementptr inbounds [256 x i64], [256 x i64]* @_ZL3Te4, i64 0, i64 %164
  %166 = load i64, i64* %165, align 8
  %167 = and i64 %166, 255
  %168 = getelementptr inbounds [256 x i64], [256 x i64]* @_ZL3Td2, i64 0, i64 %167
  %169 = load i64, i64* %168, align 8
  %170 = xor i64 %159, %169
  %171 = load i64*, i64** %10, align 8
  %172 = getelementptr inbounds i64, i64* %171, i64 0
  %173 = load i64, i64* %172, align 8
  %174 = and i64 %173, 255
  %175 = getelementptr inbounds [256 x i64], [256 x i64]* @_ZL3Te4, i64 0, i64 %174
  %176 = load i64, i64* %175, align 8
  %177 = and i64 %176, 255
  %178 = getelementptr inbounds [256 x i64], [256 x i64]* @_ZL3Td3, i64 0, i64 %177
  %179 = load i64, i64* %178, align 8
  %180 = xor i64 %170, %179
  %181 = load i64*, i64** %10, align 8
  %182 = getelementptr inbounds i64, i64* %181, i64 0
  store i64 %180, i64* %182, align 8
  %183 = load i64*, i64** %10, align 8
  %184 = getelementptr inbounds i64, i64* %183, i64 1
  %185 = load i64, i64* %184, align 8
  %186 = lshr i64 %185, 24
  %187 = getelementptr inbounds [256 x i64], [256 x i64]* @_ZL3Te4, i64 0, i64 %186
  %188 = load i64, i64* %187, align 8
  %189 = and i64 %188, 255
  %190 = getelementptr inbounds [256 x i64], [256 x i64]* @_ZL3Td0, i64 0, i64 %189
  %191 = load i64, i64* %190, align 8
  %192 = load i64*, i64** %10, align 8
  %193 = getelementptr inbounds i64, i64* %192, i64 1
  %194 = load i64, i64* %193, align 8
  %195 = lshr i64 %194, 16
  %196 = and i64 %195, 255
  %197 = getelementptr inbounds [256 x i64], [256 x i64]* @_ZL3Te4, i64 0, i64 %196
  %198 = load i64, i64* %197, align 8
  %199 = and i64 %198, 255
  %200 = getelementptr inbounds [256 x i64], [256 x i64]* @_ZL3Td1, i64 0, i64 %199
  %201 = load i64, i64* %200, align 8
  %202 = xor i64 %191, %201
  %203 = load i64*, i64** %10, align 8
  %204 = getelementptr inbounds i64, i64* %203, i64 1
  %205 = load i64, i64* %204, align 8
  %206 = lshr i64 %205, 8
  %207 = and i64 %206, 255
  %208 = getelementptr inbounds [256 x i64], [256 x i64]* @_ZL3Te4, i64 0, i64 %207
  %209 = load i64, i64* %208, align 8
  %210 = and i64 %209, 255
  %211 = getelementptr inbounds [256 x i64], [256 x i64]* @_ZL3Td2, i64 0, i64 %210
  %212 = load i64, i64* %211, align 8
  %213 = xor i64 %202, %212
  %214 = load i64*, i64** %10, align 8
  %215 = getelementptr inbounds i64, i64* %214, i64 1
  %216 = load i64, i64* %215, align 8
  %217 = and i64 %216, 255
  %218 = getelementptr inbounds [256 x i64], [256 x i64]* @_ZL3Te4, i64 0, i64 %217
  %219 = load i64, i64* %218, align 8
  %220 = and i64 %219, 255
  %221 = getelementptr inbounds [256 x i64], [256 x i64]* @_ZL3Td3, i64 0, i64 %220
  %222 = load i64, i64* %221, align 8
  %223 = xor i64 %213, %222
  %224 = load i64*, i64** %10, align 8
  %225 = getelementptr inbounds i64, i64* %224, i64 1
  store i64 %223, i64* %225, align 8
  %226 = load i64*, i64** %10, align 8
  %227 = getelementptr inbounds i64, i64* %226, i64 2
  %228 = load i64, i64* %227, align 8
  %229 = lshr i64 %228, 24
  %230 = getelementptr inbounds [256 x i64], [256 x i64]* @_ZL3Te4, i64 0, i64 %229
  %231 = load i64, i64* %230, align 8
  %232 = and i64 %231, 255
  %233 = getelementptr inbounds [256 x i64], [256 x i64]* @_ZL3Td0, i64 0, i64 %232
  %234 = load i64, i64* %233, align 8
  %235 = load i64*, i64** %10, align 8
  %236 = getelementptr inbounds i64, i64* %235, i64 2
  %237 = load i64, i64* %236, align 8
  %238 = lshr i64 %237, 16
  %239 = and i64 %238, 255
  %240 = getelementptr inbounds [256 x i64], [256 x i64]* @_ZL3Te4, i64 0, i64 %239
  %241 = load i64, i64* %240, align 8
  %242 = and i64 %241, 255
  %243 = getelementptr inbounds [256 x i64], [256 x i64]* @_ZL3Td1, i64 0, i64 %242
  %244 = load i64, i64* %243, align 8
  %245 = xor i64 %234, %244
  %246 = load i64*, i64** %10, align 8
  %247 = getelementptr inbounds i64, i64* %246, i64 2
  %248 = load i64, i64* %247, align 8
  %249 = lshr i64 %248, 8
  %250 = and i64 %249, 255
  %251 = getelementptr inbounds [256 x i64], [256 x i64]* @_ZL3Te4, i64 0, i64 %250
  %252 = load i64, i64* %251, align 8
  %253 = and i64 %252, 255
  %254 = getelementptr inbounds [256 x i64], [256 x i64]* @_ZL3Td2, i64 0, i64 %253
  %255 = load i64, i64* %254, align 8
  %256 = xor i64 %245, %255
  %257 = load i64*, i64** %10, align 8
  %258 = getelementptr inbounds i64, i64* %257, i64 2
  %259 = load i64, i64* %258, align 8
  %260 = and i64 %259, 255
  %261 = getelementptr inbounds [256 x i64], [256 x i64]* @_ZL3Te4, i64 0, i64 %260
  %262 = load i64, i64* %261, align 8
  %263 = and i64 %262, 255
  %264 = getelementptr inbounds [256 x i64], [256 x i64]* @_ZL3Td3, i64 0, i64 %263
  %265 = load i64, i64* %264, align 8
  %266 = xor i64 %256, %265
  %267 = load i64*, i64** %10, align 8
  %268 = getelementptr inbounds i64, i64* %267, i64 2
  store i64 %266, i64* %268, align 8
  %269 = load i64*, i64** %10, align 8
  %270 = getelementptr inbounds i64, i64* %269, i64 3
  %271 = load i64, i64* %270, align 8
  %272 = lshr i64 %271, 24
  %273 = getelementptr inbounds [256 x i64], [256 x i64]* @_ZL3Te4, i64 0, i64 %272
  %274 = load i64, i64* %273, align 8
  %275 = and i64 %274, 255
  %276 = getelementptr inbounds [256 x i64], [256 x i64]* @_ZL3Td0, i64 0, i64 %275
  %277 = load i64, i64* %276, align 8
  %278 = load i64*, i64** %10, align 8
  %279 = getelementptr inbounds i64, i64* %278, i64 3
  %280 = load i64, i64* %279, align 8
  %281 = lshr i64 %280, 16
  %282 = and i64 %281, 255
  %283 = getelementptr inbounds [256 x i64], [256 x i64]* @_ZL3Te4, i64 0, i64 %282
  %284 = load i64, i64* %283, align 8
  %285 = and i64 %284, 255
  %286 = getelementptr inbounds [256 x i64], [256 x i64]* @_ZL3Td1, i64 0, i64 %285
  %287 = load i64, i64* %286, align 8
  %288 = xor i64 %277, %287
  %289 = load i64*, i64** %10, align 8
  %290 = getelementptr inbounds i64, i64* %289, i64 3
  %291 = load i64, i64* %290, align 8
  %292 = lshr i64 %291, 8
  %293 = and i64 %292, 255
  %294 = getelementptr inbounds [256 x i64], [256 x i64]* @_ZL3Te4, i64 0, i64 %293
  %295 = load i64, i64* %294, align 8
  %296 = and i64 %295, 255
  %297 = getelementptr inbounds [256 x i64], [256 x i64]* @_ZL3Td2, i64 0, i64 %296
  %298 = load i64, i64* %297, align 8
  %299 = xor i64 %288, %298
  %300 = load i64*, i64** %10, align 8
  %301 = getelementptr inbounds i64, i64* %300, i64 3
  %302 = load i64, i64* %301, align 8
  %303 = and i64 %302, 255
  %304 = getelementptr inbounds [256 x i64], [256 x i64]* @_ZL3Te4, i64 0, i64 %303
  %305 = load i64, i64* %304, align 8
  %306 = and i64 %305, 255
  %307 = getelementptr inbounds [256 x i64], [256 x i64]* @_ZL3Td3, i64 0, i64 %306
  %308 = load i64, i64* %307, align 8
  %309 = xor i64 %299, %308
  %310 = load i64*, i64** %10, align 8
  %311 = getelementptr inbounds i64, i64* %310, i64 3
  store i64 %309, i64* %311, align 8
  br label %312

; <label>:312:                                    ; preds = %137
  %313 = load i32, i32* %11, align 4
  %314 = add nsw i32 %313, 1
  store i32 %314, i32* %11, align 4
  br label %131

; <label>:315:                                    ; preds = %131
  store i32 0, i32* %5, align 4
  br label %316

; <label>:316:                                    ; preds = %315, %22
  %317 = load i32, i32* %5, align 4
  ret i32 %317
}

; Function Attrs: noinline nounwind optnone uwtable
define i32 @_ZN3Aes19AES_set_encrypt_keyEPKhiP10aes_key_st(%class.Aes*, i8*, i32, %struct.aes_key_st*) #2 align 2 {
  %5 = alloca i32, align 4
  %6 = alloca %class.Aes*, align 8
  %7 = alloca i8*, align 8
  %8 = alloca i32, align 4
  %9 = alloca %struct.aes_key_st*, align 8
  %10 = alloca i64*, align 8
  %11 = alloca i32, align 4
  %12 = alloca i64, align 8
  store %class.Aes* %0, %class.Aes** %6, align 8
  store i8* %1, i8** %7, align 8
  store i32 %2, i32* %8, align 4
  store %struct.aes_key_st* %3, %struct.aes_key_st** %9, align 8
  %13 = load %class.Aes*, %class.Aes** %6, align 8
  store i32 0, i32* %11, align 4
  %14 = load i8*, i8** %7, align 8
  %15 = icmp ne i8* %14, null
  br i1 %15, label %16, label %19

; <label>:16:                                     ; preds = %4
  %17 = load %struct.aes_key_st*, %struct.aes_key_st** %9, align 8
  %18 = icmp ne %struct.aes_key_st* %17, null
  br i1 %18, label %20, label %19

; <label>:19:                                     ; preds = %16, %4
  store i32 -1, i32* %5, align 4
  br label %583

; <label>:20:                                     ; preds = %16
  %21 = load i32, i32* %8, align 4
  %22 = icmp ne i32 %21, 128
  br i1 %22, label %23, label %30

; <label>:23:                                     ; preds = %20
  %24 = load i32, i32* %8, align 4
  %25 = icmp ne i32 %24, 192
  br i1 %25, label %26, label %30

; <label>:26:                                     ; preds = %23
  %27 = load i32, i32* %8, align 4
  %28 = icmp ne i32 %27, 256
  br i1 %28, label %29, label %30

; <label>:29:                                     ; preds = %26
  store i32 -2, i32* %5, align 4
  br label %583

; <label>:30:                                     ; preds = %26, %23, %20
  %31 = load %struct.aes_key_st*, %struct.aes_key_st** %9, align 8
  %32 = getelementptr inbounds %struct.aes_key_st, %struct.aes_key_st* %31, i32 0, i32 0
  %33 = getelementptr inbounds [60 x i64], [60 x i64]* %32, i32 0, i32 0
  store i64* %33, i64** %10, align 8
  %34 = load i32, i32* %8, align 4
  %35 = icmp eq i32 %34, 128
  br i1 %35, label %36, label %39

; <label>:36:                                     ; preds = %30
  %37 = load %struct.aes_key_st*, %struct.aes_key_st** %9, align 8
  %38 = getelementptr inbounds %struct.aes_key_st, %struct.aes_key_st* %37, i32 0, i32 1
  store i32 10, i32* %38, align 8
  br label %49

; <label>:39:                                     ; preds = %30
  %40 = load i32, i32* %8, align 4
  %41 = icmp eq i32 %40, 192
  br i1 %41, label %42, label %45

; <label>:42:                                     ; preds = %39
  %43 = load %struct.aes_key_st*, %struct.aes_key_st** %9, align 8
  %44 = getelementptr inbounds %struct.aes_key_st, %struct.aes_key_st* %43, i32 0, i32 1
  store i32 12, i32* %44, align 8
  br label %48

; <label>:45:                                     ; preds = %39
  %46 = load %struct.aes_key_st*, %struct.aes_key_st** %9, align 8
  %47 = getelementptr inbounds %struct.aes_key_st, %struct.aes_key_st* %46, i32 0, i32 1
  store i32 14, i32* %47, align 8
  br label %48

; <label>:48:                                     ; preds = %45, %42
  br label %49

; <label>:49:                                     ; preds = %48, %36
  %50 = load i8*, i8** %7, align 8
  %51 = getelementptr inbounds i8, i8* %50, i64 0
  %52 = load i8, i8* %51, align 1
  %53 = zext i8 %52 to i64
  %54 = shl i64 %53, 24
  %55 = load i8*, i8** %7, align 8
  %56 = getelementptr inbounds i8, i8* %55, i64 1
  %57 = load i8, i8* %56, align 1
  %58 = zext i8 %57 to i64
  %59 = shl i64 %58, 16
  %60 = xor i64 %54, %59
  %61 = load i8*, i8** %7, align 8
  %62 = getelementptr inbounds i8, i8* %61, i64 2
  %63 = load i8, i8* %62, align 1
  %64 = zext i8 %63 to i64
  %65 = shl i64 %64, 8
  %66 = xor i64 %60, %65
  %67 = load i8*, i8** %7, align 8
  %68 = getelementptr inbounds i8, i8* %67, i64 3
  %69 = load i8, i8* %68, align 1
  %70 = zext i8 %69 to i64
  %71 = xor i64 %66, %70
  %72 = load i64*, i64** %10, align 8
  %73 = getelementptr inbounds i64, i64* %72, i64 0
  store i64 %71, i64* %73, align 8
  %74 = load i8*, i8** %7, align 8
  %75 = getelementptr inbounds i8, i8* %74, i64 4
  %76 = getelementptr inbounds i8, i8* %75, i64 0
  %77 = load i8, i8* %76, align 1
  %78 = zext i8 %77 to i64
  %79 = shl i64 %78, 24
  %80 = load i8*, i8** %7, align 8
  %81 = getelementptr inbounds i8, i8* %80, i64 4
  %82 = getelementptr inbounds i8, i8* %81, i64 1
  %83 = load i8, i8* %82, align 1
  %84 = zext i8 %83 to i64
  %85 = shl i64 %84, 16
  %86 = xor i64 %79, %85
  %87 = load i8*, i8** %7, align 8
  %88 = getelementptr inbounds i8, i8* %87, i64 4
  %89 = getelementptr inbounds i8, i8* %88, i64 2
  %90 = load i8, i8* %89, align 1
  %91 = zext i8 %90 to i64
  %92 = shl i64 %91, 8
  %93 = xor i64 %86, %92
  %94 = load i8*, i8** %7, align 8
  %95 = getelementptr inbounds i8, i8* %94, i64 4
  %96 = getelementptr inbounds i8, i8* %95, i64 3
  %97 = load i8, i8* %96, align 1
  %98 = zext i8 %97 to i64
  %99 = xor i64 %93, %98
  %100 = load i64*, i64** %10, align 8
  %101 = getelementptr inbounds i64, i64* %100, i64 1
  store i64 %99, i64* %101, align 8
  %102 = load i8*, i8** %7, align 8
  %103 = getelementptr inbounds i8, i8* %102, i64 8
  %104 = getelementptr inbounds i8, i8* %103, i64 0
  %105 = load i8, i8* %104, align 1
  %106 = zext i8 %105 to i64
  %107 = shl i64 %106, 24
  %108 = load i8*, i8** %7, align 8
  %109 = getelementptr inbounds i8, i8* %108, i64 8
  %110 = getelementptr inbounds i8, i8* %109, i64 1
  %111 = load i8, i8* %110, align 1
  %112 = zext i8 %111 to i64
  %113 = shl i64 %112, 16
  %114 = xor i64 %107, %113
  %115 = load i8*, i8** %7, align 8
  %116 = getelementptr inbounds i8, i8* %115, i64 8
  %117 = getelementptr inbounds i8, i8* %116, i64 2
  %118 = load i8, i8* %117, align 1
  %119 = zext i8 %118 to i64
  %120 = shl i64 %119, 8
  %121 = xor i64 %114, %120
  %122 = load i8*, i8** %7, align 8
  %123 = getelementptr inbounds i8, i8* %122, i64 8
  %124 = getelementptr inbounds i8, i8* %123, i64 3
  %125 = load i8, i8* %124, align 1
  %126 = zext i8 %125 to i64
  %127 = xor i64 %121, %126
  %128 = load i64*, i64** %10, align 8
  %129 = getelementptr inbounds i64, i64* %128, i64 2
  store i64 %127, i64* %129, align 8
  %130 = load i8*, i8** %7, align 8
  %131 = getelementptr inbounds i8, i8* %130, i64 12
  %132 = getelementptr inbounds i8, i8* %131, i64 0
  %133 = load i8, i8* %132, align 1
  %134 = zext i8 %133 to i64
  %135 = shl i64 %134, 24
  %136 = load i8*, i8** %7, align 8
  %137 = getelementptr inbounds i8, i8* %136, i64 12
  %138 = getelementptr inbounds i8, i8* %137, i64 1
  %139 = load i8, i8* %138, align 1
  %140 = zext i8 %139 to i64
  %141 = shl i64 %140, 16
  %142 = xor i64 %135, %141
  %143 = load i8*, i8** %7, align 8
  %144 = getelementptr inbounds i8, i8* %143, i64 12
  %145 = getelementptr inbounds i8, i8* %144, i64 2
  %146 = load i8, i8* %145, align 1
  %147 = zext i8 %146 to i64
  %148 = shl i64 %147, 8
  %149 = xor i64 %142, %148
  %150 = load i8*, i8** %7, align 8
  %151 = getelementptr inbounds i8, i8* %150, i64 12
  %152 = getelementptr inbounds i8, i8* %151, i64 3
  %153 = load i8, i8* %152, align 1
  %154 = zext i8 %153 to i64
  %155 = xor i64 %149, %154
  %156 = load i64*, i64** %10, align 8
  %157 = getelementptr inbounds i64, i64* %156, i64 3
  store i64 %155, i64* %157, align 8
  %158 = load i32, i32* %8, align 4
  %159 = icmp eq i32 %158, 128
  br i1 %159, label %160, label %235

; <label>:160:                                    ; preds = %49
  br label %161

; <label>:161:                                    ; preds = %160, %232
  %162 = load i64*, i64** %10, align 8
  %163 = getelementptr inbounds i64, i64* %162, i64 3
  %164 = load i64, i64* %163, align 8
  store i64 %164, i64* %12, align 8
  %165 = load i64*, i64** %10, align 8
  %166 = getelementptr inbounds i64, i64* %165, i64 0
  %167 = load i64, i64* %166, align 8
  %168 = load i64, i64* %12, align 8
  %169 = lshr i64 %168, 16
  %170 = and i64 %169, 255
  %171 = getelementptr inbounds [256 x i64], [256 x i64]* @_ZL3Te4, i64 0, i64 %170
  %172 = load i64, i64* %171, align 8
  %173 = and i64 %172, 4278190080
  %174 = xor i64 %167, %173
  %175 = load i64, i64* %12, align 8
  %176 = lshr i64 %175, 8
  %177 = and i64 %176, 255
  %178 = getelementptr inbounds [256 x i64], [256 x i64]* @_ZL3Te4, i64 0, i64 %177
  %179 = load i64, i64* %178, align 8
  %180 = and i64 %179, 16711680
  %181 = xor i64 %174, %180
  %182 = load i64, i64* %12, align 8
  %183 = and i64 %182, 255
  %184 = getelementptr inbounds [256 x i64], [256 x i64]* @_ZL3Te4, i64 0, i64 %183
  %185 = load i64, i64* %184, align 8
  %186 = and i64 %185, 65280
  %187 = xor i64 %181, %186
  %188 = load i64, i64* %12, align 8
  %189 = lshr i64 %188, 24
  %190 = getelementptr inbounds [256 x i64], [256 x i64]* @_ZL3Te4, i64 0, i64 %189
  %191 = load i64, i64* %190, align 8
  %192 = and i64 %191, 255
  %193 = xor i64 %187, %192
  %194 = load i32, i32* %11, align 4
  %195 = sext i32 %194 to i64
  %196 = getelementptr inbounds [10 x i64], [10 x i64]* @_ZL4rcon, i64 0, i64 %195
  %197 = load i64, i64* %196, align 8
  %198 = xor i64 %193, %197
  %199 = load i64*, i64** %10, align 8
  %200 = getelementptr inbounds i64, i64* %199, i64 4
  store i64 %198, i64* %200, align 8
  %201 = load i64*, i64** %10, align 8
  %202 = getelementptr inbounds i64, i64* %201, i64 1
  %203 = load i64, i64* %202, align 8
  %204 = load i64*, i64** %10, align 8
  %205 = getelementptr inbounds i64, i64* %204, i64 4
  %206 = load i64, i64* %205, align 8
  %207 = xor i64 %203, %206
  %208 = load i64*, i64** %10, align 8
  %209 = getelementptr inbounds i64, i64* %208, i64 5
  store i64 %207, i64* %209, align 8
  %210 = load i64*, i64** %10, align 8
  %211 = getelementptr inbounds i64, i64* %210, i64 2
  %212 = load i64, i64* %211, align 8
  %213 = load i64*, i64** %10, align 8
  %214 = getelementptr inbounds i64, i64* %213, i64 5
  %215 = load i64, i64* %214, align 8
  %216 = xor i64 %212, %215
  %217 = load i64*, i64** %10, align 8
  %218 = getelementptr inbounds i64, i64* %217, i64 6
  store i64 %216, i64* %218, align 8
  %219 = load i64*, i64** %10, align 8
  %220 = getelementptr inbounds i64, i64* %219, i64 3
  %221 = load i64, i64* %220, align 8
  %222 = load i64*, i64** %10, align 8
  %223 = getelementptr inbounds i64, i64* %222, i64 6
  %224 = load i64, i64* %223, align 8
  %225 = xor i64 %221, %224
  %226 = load i64*, i64** %10, align 8
  %227 = getelementptr inbounds i64, i64* %226, i64 7
  store i64 %225, i64* %227, align 8
  %228 = load i32, i32* %11, align 4
  %229 = add nsw i32 %228, 1
  store i32 %229, i32* %11, align 4
  %230 = icmp eq i32 %229, 10
  br i1 %230, label %231, label %232

; <label>:231:                                    ; preds = %161
  store i32 0, i32* %5, align 4
  br label %583

; <label>:232:                                    ; preds = %161
  %233 = load i64*, i64** %10, align 8
  %234 = getelementptr inbounds i64, i64* %233, i64 4
  store i64* %234, i64** %10, align 8
  br label %161

; <label>:235:                                    ; preds = %49
  %236 = load i8*, i8** %7, align 8
  %237 = getelementptr inbounds i8, i8* %236, i64 16
  %238 = getelementptr inbounds i8, i8* %237, i64 0
  %239 = load i8, i8* %238, align 1
  %240 = zext i8 %239 to i64
  %241 = shl i64 %240, 24
  %242 = load i8*, i8** %7, align 8
  %243 = getelementptr inbounds i8, i8* %242, i64 16
  %244 = getelementptr inbounds i8, i8* %243, i64 1
  %245 = load i8, i8* %244, align 1
  %246 = zext i8 %245 to i64
  %247 = shl i64 %246, 16
  %248 = xor i64 %241, %247
  %249 = load i8*, i8** %7, align 8
  %250 = getelementptr inbounds i8, i8* %249, i64 16
  %251 = getelementptr inbounds i8, i8* %250, i64 2
  %252 = load i8, i8* %251, align 1
  %253 = zext i8 %252 to i64
  %254 = shl i64 %253, 8
  %255 = xor i64 %248, %254
  %256 = load i8*, i8** %7, align 8
  %257 = getelementptr inbounds i8, i8* %256, i64 16
  %258 = getelementptr inbounds i8, i8* %257, i64 3
  %259 = load i8, i8* %258, align 1
  %260 = zext i8 %259 to i64
  %261 = xor i64 %255, %260
  %262 = load i64*, i64** %10, align 8
  %263 = getelementptr inbounds i64, i64* %262, i64 4
  store i64 %261, i64* %263, align 8
  %264 = load i8*, i8** %7, align 8
  %265 = getelementptr inbounds i8, i8* %264, i64 20
  %266 = getelementptr inbounds i8, i8* %265, i64 0
  %267 = load i8, i8* %266, align 1
  %268 = zext i8 %267 to i64
  %269 = shl i64 %268, 24
  %270 = load i8*, i8** %7, align 8
  %271 = getelementptr inbounds i8, i8* %270, i64 20
  %272 = getelementptr inbounds i8, i8* %271, i64 1
  %273 = load i8, i8* %272, align 1
  %274 = zext i8 %273 to i64
  %275 = shl i64 %274, 16
  %276 = xor i64 %269, %275
  %277 = load i8*, i8** %7, align 8
  %278 = getelementptr inbounds i8, i8* %277, i64 20
  %279 = getelementptr inbounds i8, i8* %278, i64 2
  %280 = load i8, i8* %279, align 1
  %281 = zext i8 %280 to i64
  %282 = shl i64 %281, 8
  %283 = xor i64 %276, %282
  %284 = load i8*, i8** %7, align 8
  %285 = getelementptr inbounds i8, i8* %284, i64 20
  %286 = getelementptr inbounds i8, i8* %285, i64 3
  %287 = load i8, i8* %286, align 1
  %288 = zext i8 %287 to i64
  %289 = xor i64 %283, %288
  %290 = load i64*, i64** %10, align 8
  %291 = getelementptr inbounds i64, i64* %290, i64 5
  store i64 %289, i64* %291, align 8
  %292 = load i32, i32* %8, align 4
  %293 = icmp eq i32 %292, 192
  br i1 %293, label %294, label %387

; <label>:294:                                    ; preds = %235
  br label %295

; <label>:295:                                    ; preds = %294, %366
  %296 = load i64*, i64** %10, align 8
  %297 = getelementptr inbounds i64, i64* %296, i64 5
  %298 = load i64, i64* %297, align 8
  store i64 %298, i64* %12, align 8
  %299 = load i64*, i64** %10, align 8
  %300 = getelementptr inbounds i64, i64* %299, i64 0
  %301 = load i64, i64* %300, align 8
  %302 = load i64, i64* %12, align 8
  %303 = lshr i64 %302, 16
  %304 = and i64 %303, 255
  %305 = getelementptr inbounds [256 x i64], [256 x i64]* @_ZL3Te4, i64 0, i64 %304
  %306 = load i64, i64* %305, align 8
  %307 = and i64 %306, 4278190080
  %308 = xor i64 %301, %307
  %309 = load i64, i64* %12, align 8
  %310 = lshr i64 %309, 8
  %311 = and i64 %310, 255
  %312 = getelementptr inbounds [256 x i64], [256 x i64]* @_ZL3Te4, i64 0, i64 %311
  %313 = load i64, i64* %312, align 8
  %314 = and i64 %313, 16711680
  %315 = xor i64 %308, %314
  %316 = load i64, i64* %12, align 8
  %317 = and i64 %316, 255
  %318 = getelementptr inbounds [256 x i64], [256 x i64]* @_ZL3Te4, i64 0, i64 %317
  %319 = load i64, i64* %318, align 8
  %320 = and i64 %319, 65280
  %321 = xor i64 %315, %320
  %322 = load i64, i64* %12, align 8
  %323 = lshr i64 %322, 24
  %324 = getelementptr inbounds [256 x i64], [256 x i64]* @_ZL3Te4, i64 0, i64 %323
  %325 = load i64, i64* %324, align 8
  %326 = and i64 %325, 255
  %327 = xor i64 %321, %326
  %328 = load i32, i32* %11, align 4
  %329 = sext i32 %328 to i64
  %330 = getelementptr inbounds [10 x i64], [10 x i64]* @_ZL4rcon, i64 0, i64 %329
  %331 = load i64, i64* %330, align 8
  %332 = xor i64 %327, %331
  %333 = load i64*, i64** %10, align 8
  %334 = getelementptr inbounds i64, i64* %333, i64 6
  store i64 %332, i64* %334, align 8
  %335 = load i64*, i64** %10, align 8
  %336 = getelementptr inbounds i64, i64* %335, i64 1
  %337 = load i64, i64* %336, align 8
  %338 = load i64*, i64** %10, align 8
  %339 = getelementptr inbounds i64, i64* %338, i64 6
  %340 = load i64, i64* %339, align 8
  %341 = xor i64 %337, %340
  %342 = load i64*, i64** %10, align 8
  %343 = getelementptr inbounds i64, i64* %342, i64 7
  store i64 %341, i64* %343, align 8
  %344 = load i64*, i64** %10, align 8
  %345 = getelementptr inbounds i64, i64* %344, i64 2
  %346 = load i64, i64* %345, align 8
  %347 = load i64*, i64** %10, align 8
  %348 = getelementptr inbounds i64, i64* %347, i64 7
  %349 = load i64, i64* %348, align 8
  %350 = xor i64 %346, %349
  %351 = load i64*, i64** %10, align 8
  %352 = getelementptr inbounds i64, i64* %351, i64 8
  store i64 %350, i64* %352, align 8
  %353 = load i64*, i64** %10, align 8
  %354 = getelementptr inbounds i64, i64* %353, i64 3
  %355 = load i64, i64* %354, align 8
  %356 = load i64*, i64** %10, align 8
  %357 = getelementptr inbounds i64, i64* %356, i64 8
  %358 = load i64, i64* %357, align 8
  %359 = xor i64 %355, %358
  %360 = load i64*, i64** %10, align 8
  %361 = getelementptr inbounds i64, i64* %360, i64 9
  store i64 %359, i64* %361, align 8
  %362 = load i32, i32* %11, align 4
  %363 = add nsw i32 %362, 1
  store i32 %363, i32* %11, align 4
  %364 = icmp eq i32 %363, 8
  br i1 %364, label %365, label %366

; <label>:365:                                    ; preds = %295
  store i32 0, i32* %5, align 4
  br label %583

; <label>:366:                                    ; preds = %295
  %367 = load i64*, i64** %10, align 8
  %368 = getelementptr inbounds i64, i64* %367, i64 4
  %369 = load i64, i64* %368, align 8
  %370 = load i64*, i64** %10, align 8
  %371 = getelementptr inbounds i64, i64* %370, i64 9
  %372 = load i64, i64* %371, align 8
  %373 = xor i64 %369, %372
  %374 = load i64*, i64** %10, align 8
  %375 = getelementptr inbounds i64, i64* %374, i64 10
  store i64 %373, i64* %375, align 8
  %376 = load i64*, i64** %10, align 8
  %377 = getelementptr inbounds i64, i64* %376, i64 5
  %378 = load i64, i64* %377, align 8
  %379 = load i64*, i64** %10, align 8
  %380 = getelementptr inbounds i64, i64* %379, i64 10
  %381 = load i64, i64* %380, align 8
  %382 = xor i64 %378, %381
  %383 = load i64*, i64** %10, align 8
  %384 = getelementptr inbounds i64, i64* %383, i64 11
  store i64 %382, i64* %384, align 8
  %385 = load i64*, i64** %10, align 8
  %386 = getelementptr inbounds i64, i64* %385, i64 6
  store i64* %386, i64** %10, align 8
  br label %295

; <label>:387:                                    ; preds = %235
  %388 = load i8*, i8** %7, align 8
  %389 = getelementptr inbounds i8, i8* %388, i64 24
  %390 = getelementptr inbounds i8, i8* %389, i64 0
  %391 = load i8, i8* %390, align 1
  %392 = zext i8 %391 to i64
  %393 = shl i64 %392, 24
  %394 = load i8*, i8** %7, align 8
  %395 = getelementptr inbounds i8, i8* %394, i64 24
  %396 = getelementptr inbounds i8, i8* %395, i64 1
  %397 = load i8, i8* %396, align 1
  %398 = zext i8 %397 to i64
  %399 = shl i64 %398, 16
  %400 = xor i64 %393, %399
  %401 = load i8*, i8** %7, align 8
  %402 = getelementptr inbounds i8, i8* %401, i64 24
  %403 = getelementptr inbounds i8, i8* %402, i64 2
  %404 = load i8, i8* %403, align 1
  %405 = zext i8 %404 to i64
  %406 = shl i64 %405, 8
  %407 = xor i64 %400, %406
  %408 = load i8*, i8** %7, align 8
  %409 = getelementptr inbounds i8, i8* %408, i64 24
  %410 = getelementptr inbounds i8, i8* %409, i64 3
  %411 = load i8, i8* %410, align 1
  %412 = zext i8 %411 to i64
  %413 = xor i64 %407, %412
  %414 = load i64*, i64** %10, align 8
  %415 = getelementptr inbounds i64, i64* %414, i64 6
  store i64 %413, i64* %415, align 8
  %416 = load i8*, i8** %7, align 8
  %417 = getelementptr inbounds i8, i8* %416, i64 28
  %418 = getelementptr inbounds i8, i8* %417, i64 0
  %419 = load i8, i8* %418, align 1
  %420 = zext i8 %419 to i64
  %421 = shl i64 %420, 24
  %422 = load i8*, i8** %7, align 8
  %423 = getelementptr inbounds i8, i8* %422, i64 28
  %424 = getelementptr inbounds i8, i8* %423, i64 1
  %425 = load i8, i8* %424, align 1
  %426 = zext i8 %425 to i64
  %427 = shl i64 %426, 16
  %428 = xor i64 %421, %427
  %429 = load i8*, i8** %7, align 8
  %430 = getelementptr inbounds i8, i8* %429, i64 28
  %431 = getelementptr inbounds i8, i8* %430, i64 2
  %432 = load i8, i8* %431, align 1
  %433 = zext i8 %432 to i64
  %434 = shl i64 %433, 8
  %435 = xor i64 %428, %434
  %436 = load i8*, i8** %7, align 8
  %437 = getelementptr inbounds i8, i8* %436, i64 28
  %438 = getelementptr inbounds i8, i8* %437, i64 3
  %439 = load i8, i8* %438, align 1
  %440 = zext i8 %439 to i64
  %441 = xor i64 %435, %440
  %442 = load i64*, i64** %10, align 8
  %443 = getelementptr inbounds i64, i64* %442, i64 7
  store i64 %441, i64* %443, align 8
  %444 = load i32, i32* %8, align 4
  %445 = icmp eq i32 %444, 256
  br i1 %445, label %446, label %582

; <label>:446:                                    ; preds = %387
  br label %447

; <label>:447:                                    ; preds = %446, %518
  %448 = load i64*, i64** %10, align 8
  %449 = getelementptr inbounds i64, i64* %448, i64 7
  %450 = load i64, i64* %449, align 8
  store i64 %450, i64* %12, align 8
  %451 = load i64*, i64** %10, align 8
  %452 = getelementptr inbounds i64, i64* %451, i64 0
  %453 = load i64, i64* %452, align 8
  %454 = load i64, i64* %12, align 8
  %455 = lshr i64 %454, 16
  %456 = and i64 %455, 255
  %457 = getelementptr inbounds [256 x i64], [256 x i64]* @_ZL3Te4, i64 0, i64 %456
  %458 = load i64, i64* %457, align 8
  %459 = and i64 %458, 4278190080
  %460 = xor i64 %453, %459
  %461 = load i64, i64* %12, align 8
  %462 = lshr i64 %461, 8
  %463 = and i64 %462, 255
  %464 = getelementptr inbounds [256 x i64], [256 x i64]* @_ZL3Te4, i64 0, i64 %463
  %465 = load i64, i64* %464, align 8
  %466 = and i64 %465, 16711680
  %467 = xor i64 %460, %466
  %468 = load i64, i64* %12, align 8
  %469 = and i64 %468, 255
  %470 = getelementptr inbounds [256 x i64], [256 x i64]* @_ZL3Te4, i64 0, i64 %469
  %471 = load i64, i64* %470, align 8
  %472 = and i64 %471, 65280
  %473 = xor i64 %467, %472
  %474 = load i64, i64* %12, align 8
  %475 = lshr i64 %474, 24
  %476 = getelementptr inbounds [256 x i64], [256 x i64]* @_ZL3Te4, i64 0, i64 %475
  %477 = load i64, i64* %476, align 8
  %478 = and i64 %477, 255
  %479 = xor i64 %473, %478
  %480 = load i32, i32* %11, align 4
  %481 = sext i32 %480 to i64
  %482 = getelementptr inbounds [10 x i64], [10 x i64]* @_ZL4rcon, i64 0, i64 %481
  %483 = load i64, i64* %482, align 8
  %484 = xor i64 %479, %483
  %485 = load i64*, i64** %10, align 8
  %486 = getelementptr inbounds i64, i64* %485, i64 8
  store i64 %484, i64* %486, align 8
  %487 = load i64*, i64** %10, align 8
  %488 = getelementptr inbounds i64, i64* %487, i64 1
  %489 = load i64, i64* %488, align 8
  %490 = load i64*, i64** %10, align 8
  %491 = getelementptr inbounds i64, i64* %490, i64 8
  %492 = load i64, i64* %491, align 8
  %493 = xor i64 %489, %492
  %494 = load i64*, i64** %10, align 8
  %495 = getelementptr inbounds i64, i64* %494, i64 9
  store i64 %493, i64* %495, align 8
  %496 = load i64*, i64** %10, align 8
  %497 = getelementptr inbounds i64, i64* %496, i64 2
  %498 = load i64, i64* %497, align 8
  %499 = load i64*, i64** %10, align 8
  %500 = getelementptr inbounds i64, i64* %499, i64 9
  %501 = load i64, i64* %500, align 8
  %502 = xor i64 %498, %501
  %503 = load i64*, i64** %10, align 8
  %504 = getelementptr inbounds i64, i64* %503, i64 10
  store i64 %502, i64* %504, align 8
  %505 = load i64*, i64** %10, align 8
  %506 = getelementptr inbounds i64, i64* %505, i64 3
  %507 = load i64, i64* %506, align 8
  %508 = load i64*, i64** %10, align 8
  %509 = getelementptr inbounds i64, i64* %508, i64 10
  %510 = load i64, i64* %509, align 8
  %511 = xor i64 %507, %510
  %512 = load i64*, i64** %10, align 8
  %513 = getelementptr inbounds i64, i64* %512, i64 11
  store i64 %511, i64* %513, align 8
  %514 = load i32, i32* %11, align 4
  %515 = add nsw i32 %514, 1
  store i32 %515, i32* %11, align 4
  %516 = icmp eq i32 %515, 7
  br i1 %516, label %517, label %518

; <label>:517:                                    ; preds = %447
  store i32 0, i32* %5, align 4
  br label %583

; <label>:518:                                    ; preds = %447
  %519 = load i64*, i64** %10, align 8
  %520 = getelementptr inbounds i64, i64* %519, i64 11
  %521 = load i64, i64* %520, align 8
  store i64 %521, i64* %12, align 8
  %522 = load i64*, i64** %10, align 8
  %523 = getelementptr inbounds i64, i64* %522, i64 4
  %524 = load i64, i64* %523, align 8
  %525 = load i64, i64* %12, align 8
  %526 = lshr i64 %525, 24
  %527 = getelementptr inbounds [256 x i64], [256 x i64]* @_ZL3Te4, i64 0, i64 %526
  %528 = load i64, i64* %527, align 8
  %529 = and i64 %528, 4278190080
  %530 = xor i64 %524, %529
  %531 = load i64, i64* %12, align 8
  %532 = lshr i64 %531, 16
  %533 = and i64 %532, 255
  %534 = getelementptr inbounds [256 x i64], [256 x i64]* @_ZL3Te4, i64 0, i64 %533
  %535 = load i64, i64* %534, align 8
  %536 = and i64 %535, 16711680
  %537 = xor i64 %530, %536
  %538 = load i64, i64* %12, align 8
  %539 = lshr i64 %538, 8
  %540 = and i64 %539, 255
  %541 = getelementptr inbounds [256 x i64], [256 x i64]* @_ZL3Te4, i64 0, i64 %540
  %542 = load i64, i64* %541, align 8
  %543 = and i64 %542, 65280
  %544 = xor i64 %537, %543
  %545 = load i64, i64* %12, align 8
  %546 = and i64 %545, 255
  %547 = getelementptr inbounds [256 x i64], [256 x i64]* @_ZL3Te4, i64 0, i64 %546
  %548 = load i64, i64* %547, align 8
  %549 = and i64 %548, 255
  %550 = xor i64 %544, %549
  %551 = load i64*, i64** %10, align 8
  %552 = getelementptr inbounds i64, i64* %551, i64 12
  store i64 %550, i64* %552, align 8
  %553 = load i64*, i64** %10, align 8
  %554 = getelementptr inbounds i64, i64* %553, i64 5
  %555 = load i64, i64* %554, align 8
  %556 = load i64*, i64** %10, align 8
  %557 = getelementptr inbounds i64, i64* %556, i64 12
  %558 = load i64, i64* %557, align 8
  %559 = xor i64 %555, %558
  %560 = load i64*, i64** %10, align 8
  %561 = getelementptr inbounds i64, i64* %560, i64 13
  store i64 %559, i64* %561, align 8
  %562 = load i64*, i64** %10, align 8
  %563 = getelementptr inbounds i64, i64* %562, i64 6
  %564 = load i64, i64* %563, align 8
  %565 = load i64*, i64** %10, align 8
  %566 = getelementptr inbounds i64, i64* %565, i64 13
  %567 = load i64, i64* %566, align 8
  %568 = xor i64 %564, %567
  %569 = load i64*, i64** %10, align 8
  %570 = getelementptr inbounds i64, i64* %569, i64 14
  store i64 %568, i64* %570, align 8
  %571 = load i64*, i64** %10, align 8
  %572 = getelementptr inbounds i64, i64* %571, i64 7
  %573 = load i64, i64* %572, align 8
  %574 = load i64*, i64** %10, align 8
  %575 = getelementptr inbounds i64, i64* %574, i64 14
  %576 = load i64, i64* %575, align 8
  %577 = xor i64 %573, %576
  %578 = load i64*, i64** %10, align 8
  %579 = getelementptr inbounds i64, i64* %578, i64 15
  store i64 %577, i64* %579, align 8
  %580 = load i64*, i64** %10, align 8
  %581 = getelementptr inbounds i64, i64* %580, i64 8
  store i64* %581, i64** %10, align 8
  br label %447

; <label>:582:                                    ; preds = %387
  store i32 0, i32* %5, align 4
  br label %583

; <label>:583:                                    ; preds = %582, %517, %365, %231, %29, %19
  %584 = load i32, i32* %5, align 4
  ret i32 %584
}

; Function Attrs: noinline optnone uwtable
define void @_ZN3Aes11AES_decryptEPKhPhPK10aes_key_st(%class.Aes*, i8*, i8*, %struct.aes_key_st*) #0 align 2 {
  %5 = alloca %class.Aes*, align 8
  %6 = alloca i8*, align 8
  %7 = alloca i8*, align 8
  %8 = alloca %struct.aes_key_st*, align 8
  %9 = alloca i64*, align 8
  %10 = alloca i64, align 8
  %11 = alloca i64, align 8
  %12 = alloca i64, align 8
  %13 = alloca i64, align 8
  %14 = alloca i64, align 8
  %15 = alloca i64, align 8
  %16 = alloca i64, align 8
  %17 = alloca i64, align 8
  store %class.Aes* %0, %class.Aes** %5, align 8
  store i8* %1, i8** %6, align 8
  store i8* %2, i8** %7, align 8
  store %struct.aes_key_st* %3, %struct.aes_key_st** %8, align 8
  %18 = load %class.Aes*, %class.Aes** %5, align 8
  %19 = load i8*, i8** %6, align 8
  %20 = icmp ne i8* %19, null
  br i1 %20, label %21, label %27

; <label>:21:                                     ; preds = %4
  %22 = load i8*, i8** %7, align 8
  %23 = icmp ne i8* %22, null
  br i1 %23, label %24, label %27

; <label>:24:                                     ; preds = %21
  %25 = load %struct.aes_key_st*, %struct.aes_key_st** %8, align 8
  %26 = icmp ne %struct.aes_key_st* %25, null
  br i1 %26, label %28, label %27

; <label>:27:                                     ; preds = %24, %21, %4
  call void (i8*, ...) @click_chatter(i8* getelementptr inbounds ([32 x i8], [32 x i8]* @.str.4, i32 0, i32 0))
  br label %28

; <label>:28:                                     ; preds = %27, %24
  %29 = load %struct.aes_key_st*, %struct.aes_key_st** %8, align 8
  %30 = getelementptr inbounds %struct.aes_key_st, %struct.aes_key_st* %29, i32 0, i32 0
  %31 = getelementptr inbounds [60 x i64], [60 x i64]* %30, i32 0, i32 0
  store i64* %31, i64** %9, align 8
  %32 = load i8*, i8** %6, align 8
  %33 = getelementptr inbounds i8, i8* %32, i64 0
  %34 = load i8, i8* %33, align 1
  %35 = zext i8 %34 to i64
  %36 = shl i64 %35, 24
  %37 = load i8*, i8** %6, align 8
  %38 = getelementptr inbounds i8, i8* %37, i64 1
  %39 = load i8, i8* %38, align 1
  %40 = zext i8 %39 to i64
  %41 = shl i64 %40, 16
  %42 = xor i64 %36, %41
  %43 = load i8*, i8** %6, align 8
  %44 = getelementptr inbounds i8, i8* %43, i64 2
  %45 = load i8, i8* %44, align 1
  %46 = zext i8 %45 to i64
  %47 = shl i64 %46, 8
  %48 = xor i64 %42, %47
  %49 = load i8*, i8** %6, align 8
  %50 = getelementptr inbounds i8, i8* %49, i64 3
  %51 = load i8, i8* %50, align 1
  %52 = zext i8 %51 to i64
  %53 = xor i64 %48, %52
  %54 = load i64*, i64** %9, align 8
  %55 = getelementptr inbounds i64, i64* %54, i64 0
  %56 = load i64, i64* %55, align 8
  %57 = xor i64 %53, %56
  store i64 %57, i64* %10, align 8
  %58 = load i8*, i8** %6, align 8
  %59 = getelementptr inbounds i8, i8* %58, i64 4
  %60 = getelementptr inbounds i8, i8* %59, i64 0
  %61 = load i8, i8* %60, align 1
  %62 = zext i8 %61 to i64
  %63 = shl i64 %62, 24
  %64 = load i8*, i8** %6, align 8
  %65 = getelementptr inbounds i8, i8* %64, i64 4
  %66 = getelementptr inbounds i8, i8* %65, i64 1
  %67 = load i8, i8* %66, align 1
  %68 = zext i8 %67 to i64
  %69 = shl i64 %68, 16
  %70 = xor i64 %63, %69
  %71 = load i8*, i8** %6, align 8
  %72 = getelementptr inbounds i8, i8* %71, i64 4
  %73 = getelementptr inbounds i8, i8* %72, i64 2
  %74 = load i8, i8* %73, align 1
  %75 = zext i8 %74 to i64
  %76 = shl i64 %75, 8
  %77 = xor i64 %70, %76
  %78 = load i8*, i8** %6, align 8
  %79 = getelementptr inbounds i8, i8* %78, i64 4
  %80 = getelementptr inbounds i8, i8* %79, i64 3
  %81 = load i8, i8* %80, align 1
  %82 = zext i8 %81 to i64
  %83 = xor i64 %77, %82
  %84 = load i64*, i64** %9, align 8
  %85 = getelementptr inbounds i64, i64* %84, i64 1
  %86 = load i64, i64* %85, align 8
  %87 = xor i64 %83, %86
  store i64 %87, i64* %11, align 8
  %88 = load i8*, i8** %6, align 8
  %89 = getelementptr inbounds i8, i8* %88, i64 8
  %90 = getelementptr inbounds i8, i8* %89, i64 0
  %91 = load i8, i8* %90, align 1
  %92 = zext i8 %91 to i64
  %93 = shl i64 %92, 24
  %94 = load i8*, i8** %6, align 8
  %95 = getelementptr inbounds i8, i8* %94, i64 8
  %96 = getelementptr inbounds i8, i8* %95, i64 1
  %97 = load i8, i8* %96, align 1
  %98 = zext i8 %97 to i64
  %99 = shl i64 %98, 16
  %100 = xor i64 %93, %99
  %101 = load i8*, i8** %6, align 8
  %102 = getelementptr inbounds i8, i8* %101, i64 8
  %103 = getelementptr inbounds i8, i8* %102, i64 2
  %104 = load i8, i8* %103, align 1
  %105 = zext i8 %104 to i64
  %106 = shl i64 %105, 8
  %107 = xor i64 %100, %106
  %108 = load i8*, i8** %6, align 8
  %109 = getelementptr inbounds i8, i8* %108, i64 8
  %110 = getelementptr inbounds i8, i8* %109, i64 3
  %111 = load i8, i8* %110, align 1
  %112 = zext i8 %111 to i64
  %113 = xor i64 %107, %112
  %114 = load i64*, i64** %9, align 8
  %115 = getelementptr inbounds i64, i64* %114, i64 2
  %116 = load i64, i64* %115, align 8
  %117 = xor i64 %113, %116
  store i64 %117, i64* %12, align 8
  %118 = load i8*, i8** %6, align 8
  %119 = getelementptr inbounds i8, i8* %118, i64 12
  %120 = getelementptr inbounds i8, i8* %119, i64 0
  %121 = load i8, i8* %120, align 1
  %122 = zext i8 %121 to i64
  %123 = shl i64 %122, 24
  %124 = load i8*, i8** %6, align 8
  %125 = getelementptr inbounds i8, i8* %124, i64 12
  %126 = getelementptr inbounds i8, i8* %125, i64 1
  %127 = load i8, i8* %126, align 1
  %128 = zext i8 %127 to i64
  %129 = shl i64 %128, 16
  %130 = xor i64 %123, %129
  %131 = load i8*, i8** %6, align 8
  %132 = getelementptr inbounds i8, i8* %131, i64 12
  %133 = getelementptr inbounds i8, i8* %132, i64 2
  %134 = load i8, i8* %133, align 1
  %135 = zext i8 %134 to i64
  %136 = shl i64 %135, 8
  %137 = xor i64 %130, %136
  %138 = load i8*, i8** %6, align 8
  %139 = getelementptr inbounds i8, i8* %138, i64 12
  %140 = getelementptr inbounds i8, i8* %139, i64 3
  %141 = load i8, i8* %140, align 1
  %142 = zext i8 %141 to i64
  %143 = xor i64 %137, %142
  %144 = load i64*, i64** %9, align 8
  %145 = getelementptr inbounds i64, i64* %144, i64 3
  %146 = load i64, i64* %145, align 8
  %147 = xor i64 %143, %146
  store i64 %147, i64* %13, align 8
  %148 = load i64, i64* %10, align 8
  %149 = lshr i64 %148, 24
  %150 = getelementptr inbounds [256 x i64], [256 x i64]* @_ZL3Td0, i64 0, i64 %149
  %151 = load i64, i64* %150, align 8
  %152 = load i64, i64* %13, align 8
  %153 = lshr i64 %152, 16
  %154 = and i64 %153, 255
  %155 = getelementptr inbounds [256 x i64], [256 x i64]* @_ZL3Td1, i64 0, i64 %154
  %156 = load i64, i64* %155, align 8
  %157 = xor i64 %151, %156
  %158 = load i64, i64* %12, align 8
  %159 = lshr i64 %158, 8
  %160 = and i64 %159, 255
  %161 = getelementptr inbounds [256 x i64], [256 x i64]* @_ZL3Td2, i64 0, i64 %160
  %162 = load i64, i64* %161, align 8
  %163 = xor i64 %157, %162
  %164 = load i64, i64* %11, align 8
  %165 = and i64 %164, 255
  %166 = getelementptr inbounds [256 x i64], [256 x i64]* @_ZL3Td3, i64 0, i64 %165
  %167 = load i64, i64* %166, align 8
  %168 = xor i64 %163, %167
  %169 = load i64*, i64** %9, align 8
  %170 = getelementptr inbounds i64, i64* %169, i64 4
  %171 = load i64, i64* %170, align 8
  %172 = xor i64 %168, %171
  store i64 %172, i64* %14, align 8
  %173 = load i64, i64* %11, align 8
  %174 = lshr i64 %173, 24
  %175 = getelementptr inbounds [256 x i64], [256 x i64]* @_ZL3Td0, i64 0, i64 %174
  %176 = load i64, i64* %175, align 8
  %177 = load i64, i64* %10, align 8
  %178 = lshr i64 %177, 16
  %179 = and i64 %178, 255
  %180 = getelementptr inbounds [256 x i64], [256 x i64]* @_ZL3Td1, i64 0, i64 %179
  %181 = load i64, i64* %180, align 8
  %182 = xor i64 %176, %181
  %183 = load i64, i64* %13, align 8
  %184 = lshr i64 %183, 8
  %185 = and i64 %184, 255
  %186 = getelementptr inbounds [256 x i64], [256 x i64]* @_ZL3Td2, i64 0, i64 %185
  %187 = load i64, i64* %186, align 8
  %188 = xor i64 %182, %187
  %189 = load i64, i64* %12, align 8
  %190 = and i64 %189, 255
  %191 = getelementptr inbounds [256 x i64], [256 x i64]* @_ZL3Td3, i64 0, i64 %190
  %192 = load i64, i64* %191, align 8
  %193 = xor i64 %188, %192
  %194 = load i64*, i64** %9, align 8
  %195 = getelementptr inbounds i64, i64* %194, i64 5
  %196 = load i64, i64* %195, align 8
  %197 = xor i64 %193, %196
  store i64 %197, i64* %15, align 8
  %198 = load i64, i64* %12, align 8
  %199 = lshr i64 %198, 24
  %200 = getelementptr inbounds [256 x i64], [256 x i64]* @_ZL3Td0, i64 0, i64 %199
  %201 = load i64, i64* %200, align 8
  %202 = load i64, i64* %11, align 8
  %203 = lshr i64 %202, 16
  %204 = and i64 %203, 255
  %205 = getelementptr inbounds [256 x i64], [256 x i64]* @_ZL3Td1, i64 0, i64 %204
  %206 = load i64, i64* %205, align 8
  %207 = xor i64 %201, %206
  %208 = load i64, i64* %10, align 8
  %209 = lshr i64 %208, 8
  %210 = and i64 %209, 255
  %211 = getelementptr inbounds [256 x i64], [256 x i64]* @_ZL3Td2, i64 0, i64 %210
  %212 = load i64, i64* %211, align 8
  %213 = xor i64 %207, %212
  %214 = load i64, i64* %13, align 8
  %215 = and i64 %214, 255
  %216 = getelementptr inbounds [256 x i64], [256 x i64]* @_ZL3Td3, i64 0, i64 %215
  %217 = load i64, i64* %216, align 8
  %218 = xor i64 %213, %217
  %219 = load i64*, i64** %9, align 8
  %220 = getelementptr inbounds i64, i64* %219, i64 6
  %221 = load i64, i64* %220, align 8
  %222 = xor i64 %218, %221
  store i64 %222, i64* %16, align 8
  %223 = load i64, i64* %13, align 8
  %224 = lshr i64 %223, 24
  %225 = getelementptr inbounds [256 x i64], [256 x i64]* @_ZL3Td0, i64 0, i64 %224
  %226 = load i64, i64* %225, align 8
  %227 = load i64, i64* %12, align 8
  %228 = lshr i64 %227, 16
  %229 = and i64 %228, 255
  %230 = getelementptr inbounds [256 x i64], [256 x i64]* @_ZL3Td1, i64 0, i64 %229
  %231 = load i64, i64* %230, align 8
  %232 = xor i64 %226, %231
  %233 = load i64, i64* %11, align 8
  %234 = lshr i64 %233, 8
  %235 = and i64 %234, 255
  %236 = getelementptr inbounds [256 x i64], [256 x i64]* @_ZL3Td2, i64 0, i64 %235
  %237 = load i64, i64* %236, align 8
  %238 = xor i64 %232, %237
  %239 = load i64, i64* %10, align 8
  %240 = and i64 %239, 255
  %241 = getelementptr inbounds [256 x i64], [256 x i64]* @_ZL3Td3, i64 0, i64 %240
  %242 = load i64, i64* %241, align 8
  %243 = xor i64 %238, %242
  %244 = load i64*, i64** %9, align 8
  %245 = getelementptr inbounds i64, i64* %244, i64 7
  %246 = load i64, i64* %245, align 8
  %247 = xor i64 %243, %246
  store i64 %247, i64* %17, align 8
  %248 = load i64, i64* %14, align 8
  %249 = lshr i64 %248, 24
  %250 = getelementptr inbounds [256 x i64], [256 x i64]* @_ZL3Td0, i64 0, i64 %249
  %251 = load i64, i64* %250, align 8
  %252 = load i64, i64* %17, align 8
  %253 = lshr i64 %252, 16
  %254 = and i64 %253, 255
  %255 = getelementptr inbounds [256 x i64], [256 x i64]* @_ZL3Td1, i64 0, i64 %254
  %256 = load i64, i64* %255, align 8
  %257 = xor i64 %251, %256
  %258 = load i64, i64* %16, align 8
  %259 = lshr i64 %258, 8
  %260 = and i64 %259, 255
  %261 = getelementptr inbounds [256 x i64], [256 x i64]* @_ZL3Td2, i64 0, i64 %260
  %262 = load i64, i64* %261, align 8
  %263 = xor i64 %257, %262
  %264 = load i64, i64* %15, align 8
  %265 = and i64 %264, 255
  %266 = getelementptr inbounds [256 x i64], [256 x i64]* @_ZL3Td3, i64 0, i64 %265
  %267 = load i64, i64* %266, align 8
  %268 = xor i64 %263, %267
  %269 = load i64*, i64** %9, align 8
  %270 = getelementptr inbounds i64, i64* %269, i64 8
  %271 = load i64, i64* %270, align 8
  %272 = xor i64 %268, %271
  store i64 %272, i64* %10, align 8
  %273 = load i64, i64* %15, align 8
  %274 = lshr i64 %273, 24
  %275 = getelementptr inbounds [256 x i64], [256 x i64]* @_ZL3Td0, i64 0, i64 %274
  %276 = load i64, i64* %275, align 8
  %277 = load i64, i64* %14, align 8
  %278 = lshr i64 %277, 16
  %279 = and i64 %278, 255
  %280 = getelementptr inbounds [256 x i64], [256 x i64]* @_ZL3Td1, i64 0, i64 %279
  %281 = load i64, i64* %280, align 8
  %282 = xor i64 %276, %281
  %283 = load i64, i64* %17, align 8
  %284 = lshr i64 %283, 8
  %285 = and i64 %284, 255
  %286 = getelementptr inbounds [256 x i64], [256 x i64]* @_ZL3Td2, i64 0, i64 %285
  %287 = load i64, i64* %286, align 8
  %288 = xor i64 %282, %287
  %289 = load i64, i64* %16, align 8
  %290 = and i64 %289, 255
  %291 = getelementptr inbounds [256 x i64], [256 x i64]* @_ZL3Td3, i64 0, i64 %290
  %292 = load i64, i64* %291, align 8
  %293 = xor i64 %288, %292
  %294 = load i64*, i64** %9, align 8
  %295 = getelementptr inbounds i64, i64* %294, i64 9
  %296 = load i64, i64* %295, align 8
  %297 = xor i64 %293, %296
  store i64 %297, i64* %11, align 8
  %298 = load i64, i64* %16, align 8
  %299 = lshr i64 %298, 24
  %300 = getelementptr inbounds [256 x i64], [256 x i64]* @_ZL3Td0, i64 0, i64 %299
  %301 = load i64, i64* %300, align 8
  %302 = load i64, i64* %15, align 8
  %303 = lshr i64 %302, 16
  %304 = and i64 %303, 255
  %305 = getelementptr inbounds [256 x i64], [256 x i64]* @_ZL3Td1, i64 0, i64 %304
  %306 = load i64, i64* %305, align 8
  %307 = xor i64 %301, %306
  %308 = load i64, i64* %14, align 8
  %309 = lshr i64 %308, 8
  %310 = and i64 %309, 255
  %311 = getelementptr inbounds [256 x i64], [256 x i64]* @_ZL3Td2, i64 0, i64 %310
  %312 = load i64, i64* %311, align 8
  %313 = xor i64 %307, %312
  %314 = load i64, i64* %17, align 8
  %315 = and i64 %314, 255
  %316 = getelementptr inbounds [256 x i64], [256 x i64]* @_ZL3Td3, i64 0, i64 %315
  %317 = load i64, i64* %316, align 8
  %318 = xor i64 %313, %317
  %319 = load i64*, i64** %9, align 8
  %320 = getelementptr inbounds i64, i64* %319, i64 10
  %321 = load i64, i64* %320, align 8
  %322 = xor i64 %318, %321
  store i64 %322, i64* %12, align 8
  %323 = load i64, i64* %17, align 8
  %324 = lshr i64 %323, 24
  %325 = getelementptr inbounds [256 x i64], [256 x i64]* @_ZL3Td0, i64 0, i64 %324
  %326 = load i64, i64* %325, align 8
  %327 = load i64, i64* %16, align 8
  %328 = lshr i64 %327, 16
  %329 = and i64 %328, 255
  %330 = getelementptr inbounds [256 x i64], [256 x i64]* @_ZL3Td1, i64 0, i64 %329
  %331 = load i64, i64* %330, align 8
  %332 = xor i64 %326, %331
  %333 = load i64, i64* %15, align 8
  %334 = lshr i64 %333, 8
  %335 = and i64 %334, 255
  %336 = getelementptr inbounds [256 x i64], [256 x i64]* @_ZL3Td2, i64 0, i64 %335
  %337 = load i64, i64* %336, align 8
  %338 = xor i64 %332, %337
  %339 = load i64, i64* %14, align 8
  %340 = and i64 %339, 255
  %341 = getelementptr inbounds [256 x i64], [256 x i64]* @_ZL3Td3, i64 0, i64 %340
  %342 = load i64, i64* %341, align 8
  %343 = xor i64 %338, %342
  %344 = load i64*, i64** %9, align 8
  %345 = getelementptr inbounds i64, i64* %344, i64 11
  %346 = load i64, i64* %345, align 8
  %347 = xor i64 %343, %346
  store i64 %347, i64* %13, align 8
  %348 = load i64, i64* %10, align 8
  %349 = lshr i64 %348, 24
  %350 = getelementptr inbounds [256 x i64], [256 x i64]* @_ZL3Td0, i64 0, i64 %349
  %351 = load i64, i64* %350, align 8
  %352 = load i64, i64* %13, align 8
  %353 = lshr i64 %352, 16
  %354 = and i64 %353, 255
  %355 = getelementptr inbounds [256 x i64], [256 x i64]* @_ZL3Td1, i64 0, i64 %354
  %356 = load i64, i64* %355, align 8
  %357 = xor i64 %351, %356
  %358 = load i64, i64* %12, align 8
  %359 = lshr i64 %358, 8
  %360 = and i64 %359, 255
  %361 = getelementptr inbounds [256 x i64], [256 x i64]* @_ZL3Td2, i64 0, i64 %360
  %362 = load i64, i64* %361, align 8
  %363 = xor i64 %357, %362
  %364 = load i64, i64* %11, align 8
  %365 = and i64 %364, 255
  %366 = getelementptr inbounds [256 x i64], [256 x i64]* @_ZL3Td3, i64 0, i64 %365
  %367 = load i64, i64* %366, align 8
  %368 = xor i64 %363, %367
  %369 = load i64*, i64** %9, align 8
  %370 = getelementptr inbounds i64, i64* %369, i64 12
  %371 = load i64, i64* %370, align 8
  %372 = xor i64 %368, %371
  store i64 %372, i64* %14, align 8
  %373 = load i64, i64* %11, align 8
  %374 = lshr i64 %373, 24
  %375 = getelementptr inbounds [256 x i64], [256 x i64]* @_ZL3Td0, i64 0, i64 %374
  %376 = load i64, i64* %375, align 8
  %377 = load i64, i64* %10, align 8
  %378 = lshr i64 %377, 16
  %379 = and i64 %378, 255
  %380 = getelementptr inbounds [256 x i64], [256 x i64]* @_ZL3Td1, i64 0, i64 %379
  %381 = load i64, i64* %380, align 8
  %382 = xor i64 %376, %381
  %383 = load i64, i64* %13, align 8
  %384 = lshr i64 %383, 8
  %385 = and i64 %384, 255
  %386 = getelementptr inbounds [256 x i64], [256 x i64]* @_ZL3Td2, i64 0, i64 %385
  %387 = load i64, i64* %386, align 8
  %388 = xor i64 %382, %387
  %389 = load i64, i64* %12, align 8
  %390 = and i64 %389, 255
  %391 = getelementptr inbounds [256 x i64], [256 x i64]* @_ZL3Td3, i64 0, i64 %390
  %392 = load i64, i64* %391, align 8
  %393 = xor i64 %388, %392
  %394 = load i64*, i64** %9, align 8
  %395 = getelementptr inbounds i64, i64* %394, i64 13
  %396 = load i64, i64* %395, align 8
  %397 = xor i64 %393, %396
  store i64 %397, i64* %15, align 8
  %398 = load i64, i64* %12, align 8
  %399 = lshr i64 %398, 24
  %400 = getelementptr inbounds [256 x i64], [256 x i64]* @_ZL3Td0, i64 0, i64 %399
  %401 = load i64, i64* %400, align 8
  %402 = load i64, i64* %11, align 8
  %403 = lshr i64 %402, 16
  %404 = and i64 %403, 255
  %405 = getelementptr inbounds [256 x i64], [256 x i64]* @_ZL3Td1, i64 0, i64 %404
  %406 = load i64, i64* %405, align 8
  %407 = xor i64 %401, %406
  %408 = load i64, i64* %10, align 8
  %409 = lshr i64 %408, 8
  %410 = and i64 %409, 255
  %411 = getelementptr inbounds [256 x i64], [256 x i64]* @_ZL3Td2, i64 0, i64 %410
  %412 = load i64, i64* %411, align 8
  %413 = xor i64 %407, %412
  %414 = load i64, i64* %13, align 8
  %415 = and i64 %414, 255
  %416 = getelementptr inbounds [256 x i64], [256 x i64]* @_ZL3Td3, i64 0, i64 %415
  %417 = load i64, i64* %416, align 8
  %418 = xor i64 %413, %417
  %419 = load i64*, i64** %9, align 8
  %420 = getelementptr inbounds i64, i64* %419, i64 14
  %421 = load i64, i64* %420, align 8
  %422 = xor i64 %418, %421
  store i64 %422, i64* %16, align 8
  %423 = load i64, i64* %13, align 8
  %424 = lshr i64 %423, 24
  %425 = getelementptr inbounds [256 x i64], [256 x i64]* @_ZL3Td0, i64 0, i64 %424
  %426 = load i64, i64* %425, align 8
  %427 = load i64, i64* %12, align 8
  %428 = lshr i64 %427, 16
  %429 = and i64 %428, 255
  %430 = getelementptr inbounds [256 x i64], [256 x i64]* @_ZL3Td1, i64 0, i64 %429
  %431 = load i64, i64* %430, align 8
  %432 = xor i64 %426, %431
  %433 = load i64, i64* %11, align 8
  %434 = lshr i64 %433, 8
  %435 = and i64 %434, 255
  %436 = getelementptr inbounds [256 x i64], [256 x i64]* @_ZL3Td2, i64 0, i64 %435
  %437 = load i64, i64* %436, align 8
  %438 = xor i64 %432, %437
  %439 = load i64, i64* %10, align 8
  %440 = and i64 %439, 255
  %441 = getelementptr inbounds [256 x i64], [256 x i64]* @_ZL3Td3, i64 0, i64 %440
  %442 = load i64, i64* %441, align 8
  %443 = xor i64 %438, %442
  %444 = load i64*, i64** %9, align 8
  %445 = getelementptr inbounds i64, i64* %444, i64 15
  %446 = load i64, i64* %445, align 8
  %447 = xor i64 %443, %446
  store i64 %447, i64* %17, align 8
  %448 = load i64, i64* %14, align 8
  %449 = lshr i64 %448, 24
  %450 = getelementptr inbounds [256 x i64], [256 x i64]* @_ZL3Td0, i64 0, i64 %449
  %451 = load i64, i64* %450, align 8
  %452 = load i64, i64* %17, align 8
  %453 = lshr i64 %452, 16
  %454 = and i64 %453, 255
  %455 = getelementptr inbounds [256 x i64], [256 x i64]* @_ZL3Td1, i64 0, i64 %454
  %456 = load i64, i64* %455, align 8
  %457 = xor i64 %451, %456
  %458 = load i64, i64* %16, align 8
  %459 = lshr i64 %458, 8
  %460 = and i64 %459, 255
  %461 = getelementptr inbounds [256 x i64], [256 x i64]* @_ZL3Td2, i64 0, i64 %460
  %462 = load i64, i64* %461, align 8
  %463 = xor i64 %457, %462
  %464 = load i64, i64* %15, align 8
  %465 = and i64 %464, 255
  %466 = getelementptr inbounds [256 x i64], [256 x i64]* @_ZL3Td3, i64 0, i64 %465
  %467 = load i64, i64* %466, align 8
  %468 = xor i64 %463, %467
  %469 = load i64*, i64** %9, align 8
  %470 = getelementptr inbounds i64, i64* %469, i64 16
  %471 = load i64, i64* %470, align 8
  %472 = xor i64 %468, %471
  store i64 %472, i64* %10, align 8
  %473 = load i64, i64* %15, align 8
  %474 = lshr i64 %473, 24
  %475 = getelementptr inbounds [256 x i64], [256 x i64]* @_ZL3Td0, i64 0, i64 %474
  %476 = load i64, i64* %475, align 8
  %477 = load i64, i64* %14, align 8
  %478 = lshr i64 %477, 16
  %479 = and i64 %478, 255
  %480 = getelementptr inbounds [256 x i64], [256 x i64]* @_ZL3Td1, i64 0, i64 %479
  %481 = load i64, i64* %480, align 8
  %482 = xor i64 %476, %481
  %483 = load i64, i64* %17, align 8
  %484 = lshr i64 %483, 8
  %485 = and i64 %484, 255
  %486 = getelementptr inbounds [256 x i64], [256 x i64]* @_ZL3Td2, i64 0, i64 %485
  %487 = load i64, i64* %486, align 8
  %488 = xor i64 %482, %487
  %489 = load i64, i64* %16, align 8
  %490 = and i64 %489, 255
  %491 = getelementptr inbounds [256 x i64], [256 x i64]* @_ZL3Td3, i64 0, i64 %490
  %492 = load i64, i64* %491, align 8
  %493 = xor i64 %488, %492
  %494 = load i64*, i64** %9, align 8
  %495 = getelementptr inbounds i64, i64* %494, i64 17
  %496 = load i64, i64* %495, align 8
  %497 = xor i64 %493, %496
  store i64 %497, i64* %11, align 8
  %498 = load i64, i64* %16, align 8
  %499 = lshr i64 %498, 24
  %500 = getelementptr inbounds [256 x i64], [256 x i64]* @_ZL3Td0, i64 0, i64 %499
  %501 = load i64, i64* %500, align 8
  %502 = load i64, i64* %15, align 8
  %503 = lshr i64 %502, 16
  %504 = and i64 %503, 255
  %505 = getelementptr inbounds [256 x i64], [256 x i64]* @_ZL3Td1, i64 0, i64 %504
  %506 = load i64, i64* %505, align 8
  %507 = xor i64 %501, %506
  %508 = load i64, i64* %14, align 8
  %509 = lshr i64 %508, 8
  %510 = and i64 %509, 255
  %511 = getelementptr inbounds [256 x i64], [256 x i64]* @_ZL3Td2, i64 0, i64 %510
  %512 = load i64, i64* %511, align 8
  %513 = xor i64 %507, %512
  %514 = load i64, i64* %17, align 8
  %515 = and i64 %514, 255
  %516 = getelementptr inbounds [256 x i64], [256 x i64]* @_ZL3Td3, i64 0, i64 %515
  %517 = load i64, i64* %516, align 8
  %518 = xor i64 %513, %517
  %519 = load i64*, i64** %9, align 8
  %520 = getelementptr inbounds i64, i64* %519, i64 18
  %521 = load i64, i64* %520, align 8
  %522 = xor i64 %518, %521
  store i64 %522, i64* %12, align 8
  %523 = load i64, i64* %17, align 8
  %524 = lshr i64 %523, 24
  %525 = getelementptr inbounds [256 x i64], [256 x i64]* @_ZL3Td0, i64 0, i64 %524
  %526 = load i64, i64* %525, align 8
  %527 = load i64, i64* %16, align 8
  %528 = lshr i64 %527, 16
  %529 = and i64 %528, 255
  %530 = getelementptr inbounds [256 x i64], [256 x i64]* @_ZL3Td1, i64 0, i64 %529
  %531 = load i64, i64* %530, align 8
  %532 = xor i64 %526, %531
  %533 = load i64, i64* %15, align 8
  %534 = lshr i64 %533, 8
  %535 = and i64 %534, 255
  %536 = getelementptr inbounds [256 x i64], [256 x i64]* @_ZL3Td2, i64 0, i64 %535
  %537 = load i64, i64* %536, align 8
  %538 = xor i64 %532, %537
  %539 = load i64, i64* %14, align 8
  %540 = and i64 %539, 255
  %541 = getelementptr inbounds [256 x i64], [256 x i64]* @_ZL3Td3, i64 0, i64 %540
  %542 = load i64, i64* %541, align 8
  %543 = xor i64 %538, %542
  %544 = load i64*, i64** %9, align 8
  %545 = getelementptr inbounds i64, i64* %544, i64 19
  %546 = load i64, i64* %545, align 8
  %547 = xor i64 %543, %546
  store i64 %547, i64* %13, align 8
  %548 = load i64, i64* %10, align 8
  %549 = lshr i64 %548, 24
  %550 = getelementptr inbounds [256 x i64], [256 x i64]* @_ZL3Td0, i64 0, i64 %549
  %551 = load i64, i64* %550, align 8
  %552 = load i64, i64* %13, align 8
  %553 = lshr i64 %552, 16
  %554 = and i64 %553, 255
  %555 = getelementptr inbounds [256 x i64], [256 x i64]* @_ZL3Td1, i64 0, i64 %554
  %556 = load i64, i64* %555, align 8
  %557 = xor i64 %551, %556
  %558 = load i64, i64* %12, align 8
  %559 = lshr i64 %558, 8
  %560 = and i64 %559, 255
  %561 = getelementptr inbounds [256 x i64], [256 x i64]* @_ZL3Td2, i64 0, i64 %560
  %562 = load i64, i64* %561, align 8
  %563 = xor i64 %557, %562
  %564 = load i64, i64* %11, align 8
  %565 = and i64 %564, 255
  %566 = getelementptr inbounds [256 x i64], [256 x i64]* @_ZL3Td3, i64 0, i64 %565
  %567 = load i64, i64* %566, align 8
  %568 = xor i64 %563, %567
  %569 = load i64*, i64** %9, align 8
  %570 = getelementptr inbounds i64, i64* %569, i64 20
  %571 = load i64, i64* %570, align 8
  %572 = xor i64 %568, %571
  store i64 %572, i64* %14, align 8
  %573 = load i64, i64* %11, align 8
  %574 = lshr i64 %573, 24
  %575 = getelementptr inbounds [256 x i64], [256 x i64]* @_ZL3Td0, i64 0, i64 %574
  %576 = load i64, i64* %575, align 8
  %577 = load i64, i64* %10, align 8
  %578 = lshr i64 %577, 16
  %579 = and i64 %578, 255
  %580 = getelementptr inbounds [256 x i64], [256 x i64]* @_ZL3Td1, i64 0, i64 %579
  %581 = load i64, i64* %580, align 8
  %582 = xor i64 %576, %581
  %583 = load i64, i64* %13, align 8
  %584 = lshr i64 %583, 8
  %585 = and i64 %584, 255
  %586 = getelementptr inbounds [256 x i64], [256 x i64]* @_ZL3Td2, i64 0, i64 %585
  %587 = load i64, i64* %586, align 8
  %588 = xor i64 %582, %587
  %589 = load i64, i64* %12, align 8
  %590 = and i64 %589, 255
  %591 = getelementptr inbounds [256 x i64], [256 x i64]* @_ZL3Td3, i64 0, i64 %590
  %592 = load i64, i64* %591, align 8
  %593 = xor i64 %588, %592
  %594 = load i64*, i64** %9, align 8
  %595 = getelementptr inbounds i64, i64* %594, i64 21
  %596 = load i64, i64* %595, align 8
  %597 = xor i64 %593, %596
  store i64 %597, i64* %15, align 8
  %598 = load i64, i64* %12, align 8
  %599 = lshr i64 %598, 24
  %600 = getelementptr inbounds [256 x i64], [256 x i64]* @_ZL3Td0, i64 0, i64 %599
  %601 = load i64, i64* %600, align 8
  %602 = load i64, i64* %11, align 8
  %603 = lshr i64 %602, 16
  %604 = and i64 %603, 255
  %605 = getelementptr inbounds [256 x i64], [256 x i64]* @_ZL3Td1, i64 0, i64 %604
  %606 = load i64, i64* %605, align 8
  %607 = xor i64 %601, %606
  %608 = load i64, i64* %10, align 8
  %609 = lshr i64 %608, 8
  %610 = and i64 %609, 255
  %611 = getelementptr inbounds [256 x i64], [256 x i64]* @_ZL3Td2, i64 0, i64 %610
  %612 = load i64, i64* %611, align 8
  %613 = xor i64 %607, %612
  %614 = load i64, i64* %13, align 8
  %615 = and i64 %614, 255
  %616 = getelementptr inbounds [256 x i64], [256 x i64]* @_ZL3Td3, i64 0, i64 %615
  %617 = load i64, i64* %616, align 8
  %618 = xor i64 %613, %617
  %619 = load i64*, i64** %9, align 8
  %620 = getelementptr inbounds i64, i64* %619, i64 22
  %621 = load i64, i64* %620, align 8
  %622 = xor i64 %618, %621
  store i64 %622, i64* %16, align 8
  %623 = load i64, i64* %13, align 8
  %624 = lshr i64 %623, 24
  %625 = getelementptr inbounds [256 x i64], [256 x i64]* @_ZL3Td0, i64 0, i64 %624
  %626 = load i64, i64* %625, align 8
  %627 = load i64, i64* %12, align 8
  %628 = lshr i64 %627, 16
  %629 = and i64 %628, 255
  %630 = getelementptr inbounds [256 x i64], [256 x i64]* @_ZL3Td1, i64 0, i64 %629
  %631 = load i64, i64* %630, align 8
  %632 = xor i64 %626, %631
  %633 = load i64, i64* %11, align 8
  %634 = lshr i64 %633, 8
  %635 = and i64 %634, 255
  %636 = getelementptr inbounds [256 x i64], [256 x i64]* @_ZL3Td2, i64 0, i64 %635
  %637 = load i64, i64* %636, align 8
  %638 = xor i64 %632, %637
  %639 = load i64, i64* %10, align 8
  %640 = and i64 %639, 255
  %641 = getelementptr inbounds [256 x i64], [256 x i64]* @_ZL3Td3, i64 0, i64 %640
  %642 = load i64, i64* %641, align 8
  %643 = xor i64 %638, %642
  %644 = load i64*, i64** %9, align 8
  %645 = getelementptr inbounds i64, i64* %644, i64 23
  %646 = load i64, i64* %645, align 8
  %647 = xor i64 %643, %646
  store i64 %647, i64* %17, align 8
  %648 = load i64, i64* %14, align 8
  %649 = lshr i64 %648, 24
  %650 = getelementptr inbounds [256 x i64], [256 x i64]* @_ZL3Td0, i64 0, i64 %649
  %651 = load i64, i64* %650, align 8
  %652 = load i64, i64* %17, align 8
  %653 = lshr i64 %652, 16
  %654 = and i64 %653, 255
  %655 = getelementptr inbounds [256 x i64], [256 x i64]* @_ZL3Td1, i64 0, i64 %654
  %656 = load i64, i64* %655, align 8
  %657 = xor i64 %651, %656
  %658 = load i64, i64* %16, align 8
  %659 = lshr i64 %658, 8
  %660 = and i64 %659, 255
  %661 = getelementptr inbounds [256 x i64], [256 x i64]* @_ZL3Td2, i64 0, i64 %660
  %662 = load i64, i64* %661, align 8
  %663 = xor i64 %657, %662
  %664 = load i64, i64* %15, align 8
  %665 = and i64 %664, 255
  %666 = getelementptr inbounds [256 x i64], [256 x i64]* @_ZL3Td3, i64 0, i64 %665
  %667 = load i64, i64* %666, align 8
  %668 = xor i64 %663, %667
  %669 = load i64*, i64** %9, align 8
  %670 = getelementptr inbounds i64, i64* %669, i64 24
  %671 = load i64, i64* %670, align 8
  %672 = xor i64 %668, %671
  store i64 %672, i64* %10, align 8
  %673 = load i64, i64* %15, align 8
  %674 = lshr i64 %673, 24
  %675 = getelementptr inbounds [256 x i64], [256 x i64]* @_ZL3Td0, i64 0, i64 %674
  %676 = load i64, i64* %675, align 8
  %677 = load i64, i64* %14, align 8
  %678 = lshr i64 %677, 16
  %679 = and i64 %678, 255
  %680 = getelementptr inbounds [256 x i64], [256 x i64]* @_ZL3Td1, i64 0, i64 %679
  %681 = load i64, i64* %680, align 8
  %682 = xor i64 %676, %681
  %683 = load i64, i64* %17, align 8
  %684 = lshr i64 %683, 8
  %685 = and i64 %684, 255
  %686 = getelementptr inbounds [256 x i64], [256 x i64]* @_ZL3Td2, i64 0, i64 %685
  %687 = load i64, i64* %686, align 8
  %688 = xor i64 %682, %687
  %689 = load i64, i64* %16, align 8
  %690 = and i64 %689, 255
  %691 = getelementptr inbounds [256 x i64], [256 x i64]* @_ZL3Td3, i64 0, i64 %690
  %692 = load i64, i64* %691, align 8
  %693 = xor i64 %688, %692
  %694 = load i64*, i64** %9, align 8
  %695 = getelementptr inbounds i64, i64* %694, i64 25
  %696 = load i64, i64* %695, align 8
  %697 = xor i64 %693, %696
  store i64 %697, i64* %11, align 8
  %698 = load i64, i64* %16, align 8
  %699 = lshr i64 %698, 24
  %700 = getelementptr inbounds [256 x i64], [256 x i64]* @_ZL3Td0, i64 0, i64 %699
  %701 = load i64, i64* %700, align 8
  %702 = load i64, i64* %15, align 8
  %703 = lshr i64 %702, 16
  %704 = and i64 %703, 255
  %705 = getelementptr inbounds [256 x i64], [256 x i64]* @_ZL3Td1, i64 0, i64 %704
  %706 = load i64, i64* %705, align 8
  %707 = xor i64 %701, %706
  %708 = load i64, i64* %14, align 8
  %709 = lshr i64 %708, 8
  %710 = and i64 %709, 255
  %711 = getelementptr inbounds [256 x i64], [256 x i64]* @_ZL3Td2, i64 0, i64 %710
  %712 = load i64, i64* %711, align 8
  %713 = xor i64 %707, %712
  %714 = load i64, i64* %17, align 8
  %715 = and i64 %714, 255
  %716 = getelementptr inbounds [256 x i64], [256 x i64]* @_ZL3Td3, i64 0, i64 %715
  %717 = load i64, i64* %716, align 8
  %718 = xor i64 %713, %717
  %719 = load i64*, i64** %9, align 8
  %720 = getelementptr inbounds i64, i64* %719, i64 26
  %721 = load i64, i64* %720, align 8
  %722 = xor i64 %718, %721
  store i64 %722, i64* %12, align 8
  %723 = load i64, i64* %17, align 8
  %724 = lshr i64 %723, 24
  %725 = getelementptr inbounds [256 x i64], [256 x i64]* @_ZL3Td0, i64 0, i64 %724
  %726 = load i64, i64* %725, align 8
  %727 = load i64, i64* %16, align 8
  %728 = lshr i64 %727, 16
  %729 = and i64 %728, 255
  %730 = getelementptr inbounds [256 x i64], [256 x i64]* @_ZL3Td1, i64 0, i64 %729
  %731 = load i64, i64* %730, align 8
  %732 = xor i64 %726, %731
  %733 = load i64, i64* %15, align 8
  %734 = lshr i64 %733, 8
  %735 = and i64 %734, 255
  %736 = getelementptr inbounds [256 x i64], [256 x i64]* @_ZL3Td2, i64 0, i64 %735
  %737 = load i64, i64* %736, align 8
  %738 = xor i64 %732, %737
  %739 = load i64, i64* %14, align 8
  %740 = and i64 %739, 255
  %741 = getelementptr inbounds [256 x i64], [256 x i64]* @_ZL3Td3, i64 0, i64 %740
  %742 = load i64, i64* %741, align 8
  %743 = xor i64 %738, %742
  %744 = load i64*, i64** %9, align 8
  %745 = getelementptr inbounds i64, i64* %744, i64 27
  %746 = load i64, i64* %745, align 8
  %747 = xor i64 %743, %746
  store i64 %747, i64* %13, align 8
  %748 = load i64, i64* %10, align 8
  %749 = lshr i64 %748, 24
  %750 = getelementptr inbounds [256 x i64], [256 x i64]* @_ZL3Td0, i64 0, i64 %749
  %751 = load i64, i64* %750, align 8
  %752 = load i64, i64* %13, align 8
  %753 = lshr i64 %752, 16
  %754 = and i64 %753, 255
  %755 = getelementptr inbounds [256 x i64], [256 x i64]* @_ZL3Td1, i64 0, i64 %754
  %756 = load i64, i64* %755, align 8
  %757 = xor i64 %751, %756
  %758 = load i64, i64* %12, align 8
  %759 = lshr i64 %758, 8
  %760 = and i64 %759, 255
  %761 = getelementptr inbounds [256 x i64], [256 x i64]* @_ZL3Td2, i64 0, i64 %760
  %762 = load i64, i64* %761, align 8
  %763 = xor i64 %757, %762
  %764 = load i64, i64* %11, align 8
  %765 = and i64 %764, 255
  %766 = getelementptr inbounds [256 x i64], [256 x i64]* @_ZL3Td3, i64 0, i64 %765
  %767 = load i64, i64* %766, align 8
  %768 = xor i64 %763, %767
  %769 = load i64*, i64** %9, align 8
  %770 = getelementptr inbounds i64, i64* %769, i64 28
  %771 = load i64, i64* %770, align 8
  %772 = xor i64 %768, %771
  store i64 %772, i64* %14, align 8
  %773 = load i64, i64* %11, align 8
  %774 = lshr i64 %773, 24
  %775 = getelementptr inbounds [256 x i64], [256 x i64]* @_ZL3Td0, i64 0, i64 %774
  %776 = load i64, i64* %775, align 8
  %777 = load i64, i64* %10, align 8
  %778 = lshr i64 %777, 16
  %779 = and i64 %778, 255
  %780 = getelementptr inbounds [256 x i64], [256 x i64]* @_ZL3Td1, i64 0, i64 %779
  %781 = load i64, i64* %780, align 8
  %782 = xor i64 %776, %781
  %783 = load i64, i64* %13, align 8
  %784 = lshr i64 %783, 8
  %785 = and i64 %784, 255
  %786 = getelementptr inbounds [256 x i64], [256 x i64]* @_ZL3Td2, i64 0, i64 %785
  %787 = load i64, i64* %786, align 8
  %788 = xor i64 %782, %787
  %789 = load i64, i64* %12, align 8
  %790 = and i64 %789, 255
  %791 = getelementptr inbounds [256 x i64], [256 x i64]* @_ZL3Td3, i64 0, i64 %790
  %792 = load i64, i64* %791, align 8
  %793 = xor i64 %788, %792
  %794 = load i64*, i64** %9, align 8
  %795 = getelementptr inbounds i64, i64* %794, i64 29
  %796 = load i64, i64* %795, align 8
  %797 = xor i64 %793, %796
  store i64 %797, i64* %15, align 8
  %798 = load i64, i64* %12, align 8
  %799 = lshr i64 %798, 24
  %800 = getelementptr inbounds [256 x i64], [256 x i64]* @_ZL3Td0, i64 0, i64 %799
  %801 = load i64, i64* %800, align 8
  %802 = load i64, i64* %11, align 8
  %803 = lshr i64 %802, 16
  %804 = and i64 %803, 255
  %805 = getelementptr inbounds [256 x i64], [256 x i64]* @_ZL3Td1, i64 0, i64 %804
  %806 = load i64, i64* %805, align 8
  %807 = xor i64 %801, %806
  %808 = load i64, i64* %10, align 8
  %809 = lshr i64 %808, 8
  %810 = and i64 %809, 255
  %811 = getelementptr inbounds [256 x i64], [256 x i64]* @_ZL3Td2, i64 0, i64 %810
  %812 = load i64, i64* %811, align 8
  %813 = xor i64 %807, %812
  %814 = load i64, i64* %13, align 8
  %815 = and i64 %814, 255
  %816 = getelementptr inbounds [256 x i64], [256 x i64]* @_ZL3Td3, i64 0, i64 %815
  %817 = load i64, i64* %816, align 8
  %818 = xor i64 %813, %817
  %819 = load i64*, i64** %9, align 8
  %820 = getelementptr inbounds i64, i64* %819, i64 30
  %821 = load i64, i64* %820, align 8
  %822 = xor i64 %818, %821
  store i64 %822, i64* %16, align 8
  %823 = load i64, i64* %13, align 8
  %824 = lshr i64 %823, 24
  %825 = getelementptr inbounds [256 x i64], [256 x i64]* @_ZL3Td0, i64 0, i64 %824
  %826 = load i64, i64* %825, align 8
  %827 = load i64, i64* %12, align 8
  %828 = lshr i64 %827, 16
  %829 = and i64 %828, 255
  %830 = getelementptr inbounds [256 x i64], [256 x i64]* @_ZL3Td1, i64 0, i64 %829
  %831 = load i64, i64* %830, align 8
  %832 = xor i64 %826, %831
  %833 = load i64, i64* %11, align 8
  %834 = lshr i64 %833, 8
  %835 = and i64 %834, 255
  %836 = getelementptr inbounds [256 x i64], [256 x i64]* @_ZL3Td2, i64 0, i64 %835
  %837 = load i64, i64* %836, align 8
  %838 = xor i64 %832, %837
  %839 = load i64, i64* %10, align 8
  %840 = and i64 %839, 255
  %841 = getelementptr inbounds [256 x i64], [256 x i64]* @_ZL3Td3, i64 0, i64 %840
  %842 = load i64, i64* %841, align 8
  %843 = xor i64 %838, %842
  %844 = load i64*, i64** %9, align 8
  %845 = getelementptr inbounds i64, i64* %844, i64 31
  %846 = load i64, i64* %845, align 8
  %847 = xor i64 %843, %846
  store i64 %847, i64* %17, align 8
  %848 = load i64, i64* %14, align 8
  %849 = lshr i64 %848, 24
  %850 = getelementptr inbounds [256 x i64], [256 x i64]* @_ZL3Td0, i64 0, i64 %849
  %851 = load i64, i64* %850, align 8
  %852 = load i64, i64* %17, align 8
  %853 = lshr i64 %852, 16
  %854 = and i64 %853, 255
  %855 = getelementptr inbounds [256 x i64], [256 x i64]* @_ZL3Td1, i64 0, i64 %854
  %856 = load i64, i64* %855, align 8
  %857 = xor i64 %851, %856
  %858 = load i64, i64* %16, align 8
  %859 = lshr i64 %858, 8
  %860 = and i64 %859, 255
  %861 = getelementptr inbounds [256 x i64], [256 x i64]* @_ZL3Td2, i64 0, i64 %860
  %862 = load i64, i64* %861, align 8
  %863 = xor i64 %857, %862
  %864 = load i64, i64* %15, align 8
  %865 = and i64 %864, 255
  %866 = getelementptr inbounds [256 x i64], [256 x i64]* @_ZL3Td3, i64 0, i64 %865
  %867 = load i64, i64* %866, align 8
  %868 = xor i64 %863, %867
  %869 = load i64*, i64** %9, align 8
  %870 = getelementptr inbounds i64, i64* %869, i64 32
  %871 = load i64, i64* %870, align 8
  %872 = xor i64 %868, %871
  store i64 %872, i64* %10, align 8
  %873 = load i64, i64* %15, align 8
  %874 = lshr i64 %873, 24
  %875 = getelementptr inbounds [256 x i64], [256 x i64]* @_ZL3Td0, i64 0, i64 %874
  %876 = load i64, i64* %875, align 8
  %877 = load i64, i64* %14, align 8
  %878 = lshr i64 %877, 16
  %879 = and i64 %878, 255
  %880 = getelementptr inbounds [256 x i64], [256 x i64]* @_ZL3Td1, i64 0, i64 %879
  %881 = load i64, i64* %880, align 8
  %882 = xor i64 %876, %881
  %883 = load i64, i64* %17, align 8
  %884 = lshr i64 %883, 8
  %885 = and i64 %884, 255
  %886 = getelementptr inbounds [256 x i64], [256 x i64]* @_ZL3Td2, i64 0, i64 %885
  %887 = load i64, i64* %886, align 8
  %888 = xor i64 %882, %887
  %889 = load i64, i64* %16, align 8
  %890 = and i64 %889, 255
  %891 = getelementptr inbounds [256 x i64], [256 x i64]* @_ZL3Td3, i64 0, i64 %890
  %892 = load i64, i64* %891, align 8
  %893 = xor i64 %888, %892
  %894 = load i64*, i64** %9, align 8
  %895 = getelementptr inbounds i64, i64* %894, i64 33
  %896 = load i64, i64* %895, align 8
  %897 = xor i64 %893, %896
  store i64 %897, i64* %11, align 8
  %898 = load i64, i64* %16, align 8
  %899 = lshr i64 %898, 24
  %900 = getelementptr inbounds [256 x i64], [256 x i64]* @_ZL3Td0, i64 0, i64 %899
  %901 = load i64, i64* %900, align 8
  %902 = load i64, i64* %15, align 8
  %903 = lshr i64 %902, 16
  %904 = and i64 %903, 255
  %905 = getelementptr inbounds [256 x i64], [256 x i64]* @_ZL3Td1, i64 0, i64 %904
  %906 = load i64, i64* %905, align 8
  %907 = xor i64 %901, %906
  %908 = load i64, i64* %14, align 8
  %909 = lshr i64 %908, 8
  %910 = and i64 %909, 255
  %911 = getelementptr inbounds [256 x i64], [256 x i64]* @_ZL3Td2, i64 0, i64 %910
  %912 = load i64, i64* %911, align 8
  %913 = xor i64 %907, %912
  %914 = load i64, i64* %17, align 8
  %915 = and i64 %914, 255
  %916 = getelementptr inbounds [256 x i64], [256 x i64]* @_ZL3Td3, i64 0, i64 %915
  %917 = load i64, i64* %916, align 8
  %918 = xor i64 %913, %917
  %919 = load i64*, i64** %9, align 8
  %920 = getelementptr inbounds i64, i64* %919, i64 34
  %921 = load i64, i64* %920, align 8
  %922 = xor i64 %918, %921
  store i64 %922, i64* %12, align 8
  %923 = load i64, i64* %17, align 8
  %924 = lshr i64 %923, 24
  %925 = getelementptr inbounds [256 x i64], [256 x i64]* @_ZL3Td0, i64 0, i64 %924
  %926 = load i64, i64* %925, align 8
  %927 = load i64, i64* %16, align 8
  %928 = lshr i64 %927, 16
  %929 = and i64 %928, 255
  %930 = getelementptr inbounds [256 x i64], [256 x i64]* @_ZL3Td1, i64 0, i64 %929
  %931 = load i64, i64* %930, align 8
  %932 = xor i64 %926, %931
  %933 = load i64, i64* %15, align 8
  %934 = lshr i64 %933, 8
  %935 = and i64 %934, 255
  %936 = getelementptr inbounds [256 x i64], [256 x i64]* @_ZL3Td2, i64 0, i64 %935
  %937 = load i64, i64* %936, align 8
  %938 = xor i64 %932, %937
  %939 = load i64, i64* %14, align 8
  %940 = and i64 %939, 255
  %941 = getelementptr inbounds [256 x i64], [256 x i64]* @_ZL3Td3, i64 0, i64 %940
  %942 = load i64, i64* %941, align 8
  %943 = xor i64 %938, %942
  %944 = load i64*, i64** %9, align 8
  %945 = getelementptr inbounds i64, i64* %944, i64 35
  %946 = load i64, i64* %945, align 8
  %947 = xor i64 %943, %946
  store i64 %947, i64* %13, align 8
  %948 = load i64, i64* %10, align 8
  %949 = lshr i64 %948, 24
  %950 = getelementptr inbounds [256 x i64], [256 x i64]* @_ZL3Td0, i64 0, i64 %949
  %951 = load i64, i64* %950, align 8
  %952 = load i64, i64* %13, align 8
  %953 = lshr i64 %952, 16
  %954 = and i64 %953, 255
  %955 = getelementptr inbounds [256 x i64], [256 x i64]* @_ZL3Td1, i64 0, i64 %954
  %956 = load i64, i64* %955, align 8
  %957 = xor i64 %951, %956
  %958 = load i64, i64* %12, align 8
  %959 = lshr i64 %958, 8
  %960 = and i64 %959, 255
  %961 = getelementptr inbounds [256 x i64], [256 x i64]* @_ZL3Td2, i64 0, i64 %960
  %962 = load i64, i64* %961, align 8
  %963 = xor i64 %957, %962
  %964 = load i64, i64* %11, align 8
  %965 = and i64 %964, 255
  %966 = getelementptr inbounds [256 x i64], [256 x i64]* @_ZL3Td3, i64 0, i64 %965
  %967 = load i64, i64* %966, align 8
  %968 = xor i64 %963, %967
  %969 = load i64*, i64** %9, align 8
  %970 = getelementptr inbounds i64, i64* %969, i64 36
  %971 = load i64, i64* %970, align 8
  %972 = xor i64 %968, %971
  store i64 %972, i64* %14, align 8
  %973 = load i64, i64* %11, align 8
  %974 = lshr i64 %973, 24
  %975 = getelementptr inbounds [256 x i64], [256 x i64]* @_ZL3Td0, i64 0, i64 %974
  %976 = load i64, i64* %975, align 8
  %977 = load i64, i64* %10, align 8
  %978 = lshr i64 %977, 16
  %979 = and i64 %978, 255
  %980 = getelementptr inbounds [256 x i64], [256 x i64]* @_ZL3Td1, i64 0, i64 %979
  %981 = load i64, i64* %980, align 8
  %982 = xor i64 %976, %981
  %983 = load i64, i64* %13, align 8
  %984 = lshr i64 %983, 8
  %985 = and i64 %984, 255
  %986 = getelementptr inbounds [256 x i64], [256 x i64]* @_ZL3Td2, i64 0, i64 %985
  %987 = load i64, i64* %986, align 8
  %988 = xor i64 %982, %987
  %989 = load i64, i64* %12, align 8
  %990 = and i64 %989, 255
  %991 = getelementptr inbounds [256 x i64], [256 x i64]* @_ZL3Td3, i64 0, i64 %990
  %992 = load i64, i64* %991, align 8
  %993 = xor i64 %988, %992
  %994 = load i64*, i64** %9, align 8
  %995 = getelementptr inbounds i64, i64* %994, i64 37
  %996 = load i64, i64* %995, align 8
  %997 = xor i64 %993, %996
  store i64 %997, i64* %15, align 8
  %998 = load i64, i64* %12, align 8
  %999 = lshr i64 %998, 24
  %1000 = getelementptr inbounds [256 x i64], [256 x i64]* @_ZL3Td0, i64 0, i64 %999
  %1001 = load i64, i64* %1000, align 8
  %1002 = load i64, i64* %11, align 8
  %1003 = lshr i64 %1002, 16
  %1004 = and i64 %1003, 255
  %1005 = getelementptr inbounds [256 x i64], [256 x i64]* @_ZL3Td1, i64 0, i64 %1004
  %1006 = load i64, i64* %1005, align 8
  %1007 = xor i64 %1001, %1006
  %1008 = load i64, i64* %10, align 8
  %1009 = lshr i64 %1008, 8
  %1010 = and i64 %1009, 255
  %1011 = getelementptr inbounds [256 x i64], [256 x i64]* @_ZL3Td2, i64 0, i64 %1010
  %1012 = load i64, i64* %1011, align 8
  %1013 = xor i64 %1007, %1012
  %1014 = load i64, i64* %13, align 8
  %1015 = and i64 %1014, 255
  %1016 = getelementptr inbounds [256 x i64], [256 x i64]* @_ZL3Td3, i64 0, i64 %1015
  %1017 = load i64, i64* %1016, align 8
  %1018 = xor i64 %1013, %1017
  %1019 = load i64*, i64** %9, align 8
  %1020 = getelementptr inbounds i64, i64* %1019, i64 38
  %1021 = load i64, i64* %1020, align 8
  %1022 = xor i64 %1018, %1021
  store i64 %1022, i64* %16, align 8
  %1023 = load i64, i64* %13, align 8
  %1024 = lshr i64 %1023, 24
  %1025 = getelementptr inbounds [256 x i64], [256 x i64]* @_ZL3Td0, i64 0, i64 %1024
  %1026 = load i64, i64* %1025, align 8
  %1027 = load i64, i64* %12, align 8
  %1028 = lshr i64 %1027, 16
  %1029 = and i64 %1028, 255
  %1030 = getelementptr inbounds [256 x i64], [256 x i64]* @_ZL3Td1, i64 0, i64 %1029
  %1031 = load i64, i64* %1030, align 8
  %1032 = xor i64 %1026, %1031
  %1033 = load i64, i64* %11, align 8
  %1034 = lshr i64 %1033, 8
  %1035 = and i64 %1034, 255
  %1036 = getelementptr inbounds [256 x i64], [256 x i64]* @_ZL3Td2, i64 0, i64 %1035
  %1037 = load i64, i64* %1036, align 8
  %1038 = xor i64 %1032, %1037
  %1039 = load i64, i64* %10, align 8
  %1040 = and i64 %1039, 255
  %1041 = getelementptr inbounds [256 x i64], [256 x i64]* @_ZL3Td3, i64 0, i64 %1040
  %1042 = load i64, i64* %1041, align 8
  %1043 = xor i64 %1038, %1042
  %1044 = load i64*, i64** %9, align 8
  %1045 = getelementptr inbounds i64, i64* %1044, i64 39
  %1046 = load i64, i64* %1045, align 8
  %1047 = xor i64 %1043, %1046
  store i64 %1047, i64* %17, align 8
  %1048 = load %struct.aes_key_st*, %struct.aes_key_st** %8, align 8
  %1049 = getelementptr inbounds %struct.aes_key_st, %struct.aes_key_st* %1048, i32 0, i32 1
  %1050 = load i32, i32* %1049, align 8
  %1051 = icmp sgt i32 %1050, 10
  br i1 %1051, label %1052, label %1459

; <label>:1052:                                   ; preds = %28
  %1053 = load i64, i64* %14, align 8
  %1054 = lshr i64 %1053, 24
  %1055 = getelementptr inbounds [256 x i64], [256 x i64]* @_ZL3Td0, i64 0, i64 %1054
  %1056 = load i64, i64* %1055, align 8
  %1057 = load i64, i64* %17, align 8
  %1058 = lshr i64 %1057, 16
  %1059 = and i64 %1058, 255
  %1060 = getelementptr inbounds [256 x i64], [256 x i64]* @_ZL3Td1, i64 0, i64 %1059
  %1061 = load i64, i64* %1060, align 8
  %1062 = xor i64 %1056, %1061
  %1063 = load i64, i64* %16, align 8
  %1064 = lshr i64 %1063, 8
  %1065 = and i64 %1064, 255
  %1066 = getelementptr inbounds [256 x i64], [256 x i64]* @_ZL3Td2, i64 0, i64 %1065
  %1067 = load i64, i64* %1066, align 8
  %1068 = xor i64 %1062, %1067
  %1069 = load i64, i64* %15, align 8
  %1070 = and i64 %1069, 255
  %1071 = getelementptr inbounds [256 x i64], [256 x i64]* @_ZL3Td3, i64 0, i64 %1070
  %1072 = load i64, i64* %1071, align 8
  %1073 = xor i64 %1068, %1072
  %1074 = load i64*, i64** %9, align 8
  %1075 = getelementptr inbounds i64, i64* %1074, i64 40
  %1076 = load i64, i64* %1075, align 8
  %1077 = xor i64 %1073, %1076
  store i64 %1077, i64* %10, align 8
  %1078 = load i64, i64* %15, align 8
  %1079 = lshr i64 %1078, 24
  %1080 = getelementptr inbounds [256 x i64], [256 x i64]* @_ZL3Td0, i64 0, i64 %1079
  %1081 = load i64, i64* %1080, align 8
  %1082 = load i64, i64* %14, align 8
  %1083 = lshr i64 %1082, 16
  %1084 = and i64 %1083, 255
  %1085 = getelementptr inbounds [256 x i64], [256 x i64]* @_ZL3Td1, i64 0, i64 %1084
  %1086 = load i64, i64* %1085, align 8
  %1087 = xor i64 %1081, %1086
  %1088 = load i64, i64* %17, align 8
  %1089 = lshr i64 %1088, 8
  %1090 = and i64 %1089, 255
  %1091 = getelementptr inbounds [256 x i64], [256 x i64]* @_ZL3Td2, i64 0, i64 %1090
  %1092 = load i64, i64* %1091, align 8
  %1093 = xor i64 %1087, %1092
  %1094 = load i64, i64* %16, align 8
  %1095 = and i64 %1094, 255
  %1096 = getelementptr inbounds [256 x i64], [256 x i64]* @_ZL3Td3, i64 0, i64 %1095
  %1097 = load i64, i64* %1096, align 8
  %1098 = xor i64 %1093, %1097
  %1099 = load i64*, i64** %9, align 8
  %1100 = getelementptr inbounds i64, i64* %1099, i64 41
  %1101 = load i64, i64* %1100, align 8
  %1102 = xor i64 %1098, %1101
  store i64 %1102, i64* %11, align 8
  %1103 = load i64, i64* %16, align 8
  %1104 = lshr i64 %1103, 24
  %1105 = getelementptr inbounds [256 x i64], [256 x i64]* @_ZL3Td0, i64 0, i64 %1104
  %1106 = load i64, i64* %1105, align 8
  %1107 = load i64, i64* %15, align 8
  %1108 = lshr i64 %1107, 16
  %1109 = and i64 %1108, 255
  %1110 = getelementptr inbounds [256 x i64], [256 x i64]* @_ZL3Td1, i64 0, i64 %1109
  %1111 = load i64, i64* %1110, align 8
  %1112 = xor i64 %1106, %1111
  %1113 = load i64, i64* %14, align 8
  %1114 = lshr i64 %1113, 8
  %1115 = and i64 %1114, 255
  %1116 = getelementptr inbounds [256 x i64], [256 x i64]* @_ZL3Td2, i64 0, i64 %1115
  %1117 = load i64, i64* %1116, align 8
  %1118 = xor i64 %1112, %1117
  %1119 = load i64, i64* %17, align 8
  %1120 = and i64 %1119, 255
  %1121 = getelementptr inbounds [256 x i64], [256 x i64]* @_ZL3Td3, i64 0, i64 %1120
  %1122 = load i64, i64* %1121, align 8
  %1123 = xor i64 %1118, %1122
  %1124 = load i64*, i64** %9, align 8
  %1125 = getelementptr inbounds i64, i64* %1124, i64 42
  %1126 = load i64, i64* %1125, align 8
  %1127 = xor i64 %1123, %1126
  store i64 %1127, i64* %12, align 8
  %1128 = load i64, i64* %17, align 8
  %1129 = lshr i64 %1128, 24
  %1130 = getelementptr inbounds [256 x i64], [256 x i64]* @_ZL3Td0, i64 0, i64 %1129
  %1131 = load i64, i64* %1130, align 8
  %1132 = load i64, i64* %16, align 8
  %1133 = lshr i64 %1132, 16
  %1134 = and i64 %1133, 255
  %1135 = getelementptr inbounds [256 x i64], [256 x i64]* @_ZL3Td1, i64 0, i64 %1134
  %1136 = load i64, i64* %1135, align 8
  %1137 = xor i64 %1131, %1136
  %1138 = load i64, i64* %15, align 8
  %1139 = lshr i64 %1138, 8
  %1140 = and i64 %1139, 255
  %1141 = getelementptr inbounds [256 x i64], [256 x i64]* @_ZL3Td2, i64 0, i64 %1140
  %1142 = load i64, i64* %1141, align 8
  %1143 = xor i64 %1137, %1142
  %1144 = load i64, i64* %14, align 8
  %1145 = and i64 %1144, 255
  %1146 = getelementptr inbounds [256 x i64], [256 x i64]* @_ZL3Td3, i64 0, i64 %1145
  %1147 = load i64, i64* %1146, align 8
  %1148 = xor i64 %1143, %1147
  %1149 = load i64*, i64** %9, align 8
  %1150 = getelementptr inbounds i64, i64* %1149, i64 43
  %1151 = load i64, i64* %1150, align 8
  %1152 = xor i64 %1148, %1151
  store i64 %1152, i64* %13, align 8
  %1153 = load i64, i64* %10, align 8
  %1154 = lshr i64 %1153, 24
  %1155 = getelementptr inbounds [256 x i64], [256 x i64]* @_ZL3Td0, i64 0, i64 %1154
  %1156 = load i64, i64* %1155, align 8
  %1157 = load i64, i64* %13, align 8
  %1158 = lshr i64 %1157, 16
  %1159 = and i64 %1158, 255
  %1160 = getelementptr inbounds [256 x i64], [256 x i64]* @_ZL3Td1, i64 0, i64 %1159
  %1161 = load i64, i64* %1160, align 8
  %1162 = xor i64 %1156, %1161
  %1163 = load i64, i64* %12, align 8
  %1164 = lshr i64 %1163, 8
  %1165 = and i64 %1164, 255
  %1166 = getelementptr inbounds [256 x i64], [256 x i64]* @_ZL3Td2, i64 0, i64 %1165
  %1167 = load i64, i64* %1166, align 8
  %1168 = xor i64 %1162, %1167
  %1169 = load i64, i64* %11, align 8
  %1170 = and i64 %1169, 255
  %1171 = getelementptr inbounds [256 x i64], [256 x i64]* @_ZL3Td3, i64 0, i64 %1170
  %1172 = load i64, i64* %1171, align 8
  %1173 = xor i64 %1168, %1172
  %1174 = load i64*, i64** %9, align 8
  %1175 = getelementptr inbounds i64, i64* %1174, i64 44
  %1176 = load i64, i64* %1175, align 8
  %1177 = xor i64 %1173, %1176
  store i64 %1177, i64* %14, align 8
  %1178 = load i64, i64* %11, align 8
  %1179 = lshr i64 %1178, 24
  %1180 = getelementptr inbounds [256 x i64], [256 x i64]* @_ZL3Td0, i64 0, i64 %1179
  %1181 = load i64, i64* %1180, align 8
  %1182 = load i64, i64* %10, align 8
  %1183 = lshr i64 %1182, 16
  %1184 = and i64 %1183, 255
  %1185 = getelementptr inbounds [256 x i64], [256 x i64]* @_ZL3Td1, i64 0, i64 %1184
  %1186 = load i64, i64* %1185, align 8
  %1187 = xor i64 %1181, %1186
  %1188 = load i64, i64* %13, align 8
  %1189 = lshr i64 %1188, 8
  %1190 = and i64 %1189, 255
  %1191 = getelementptr inbounds [256 x i64], [256 x i64]* @_ZL3Td2, i64 0, i64 %1190
  %1192 = load i64, i64* %1191, align 8
  %1193 = xor i64 %1187, %1192
  %1194 = load i64, i64* %12, align 8
  %1195 = and i64 %1194, 255
  %1196 = getelementptr inbounds [256 x i64], [256 x i64]* @_ZL3Td3, i64 0, i64 %1195
  %1197 = load i64, i64* %1196, align 8
  %1198 = xor i64 %1193, %1197
  %1199 = load i64*, i64** %9, align 8
  %1200 = getelementptr inbounds i64, i64* %1199, i64 45
  %1201 = load i64, i64* %1200, align 8
  %1202 = xor i64 %1198, %1201
  store i64 %1202, i64* %15, align 8
  %1203 = load i64, i64* %12, align 8
  %1204 = lshr i64 %1203, 24
  %1205 = getelementptr inbounds [256 x i64], [256 x i64]* @_ZL3Td0, i64 0, i64 %1204
  %1206 = load i64, i64* %1205, align 8
  %1207 = load i64, i64* %11, align 8
  %1208 = lshr i64 %1207, 16
  %1209 = and i64 %1208, 255
  %1210 = getelementptr inbounds [256 x i64], [256 x i64]* @_ZL3Td1, i64 0, i64 %1209
  %1211 = load i64, i64* %1210, align 8
  %1212 = xor i64 %1206, %1211
  %1213 = load i64, i64* %10, align 8
  %1214 = lshr i64 %1213, 8
  %1215 = and i64 %1214, 255
  %1216 = getelementptr inbounds [256 x i64], [256 x i64]* @_ZL3Td2, i64 0, i64 %1215
  %1217 = load i64, i64* %1216, align 8
  %1218 = xor i64 %1212, %1217
  %1219 = load i64, i64* %13, align 8
  %1220 = and i64 %1219, 255
  %1221 = getelementptr inbounds [256 x i64], [256 x i64]* @_ZL3Td3, i64 0, i64 %1220
  %1222 = load i64, i64* %1221, align 8
  %1223 = xor i64 %1218, %1222
  %1224 = load i64*, i64** %9, align 8
  %1225 = getelementptr inbounds i64, i64* %1224, i64 46
  %1226 = load i64, i64* %1225, align 8
  %1227 = xor i64 %1223, %1226
  store i64 %1227, i64* %16, align 8
  %1228 = load i64, i64* %13, align 8
  %1229 = lshr i64 %1228, 24
  %1230 = getelementptr inbounds [256 x i64], [256 x i64]* @_ZL3Td0, i64 0, i64 %1229
  %1231 = load i64, i64* %1230, align 8
  %1232 = load i64, i64* %12, align 8
  %1233 = lshr i64 %1232, 16
  %1234 = and i64 %1233, 255
  %1235 = getelementptr inbounds [256 x i64], [256 x i64]* @_ZL3Td1, i64 0, i64 %1234
  %1236 = load i64, i64* %1235, align 8
  %1237 = xor i64 %1231, %1236
  %1238 = load i64, i64* %11, align 8
  %1239 = lshr i64 %1238, 8
  %1240 = and i64 %1239, 255
  %1241 = getelementptr inbounds [256 x i64], [256 x i64]* @_ZL3Td2, i64 0, i64 %1240
  %1242 = load i64, i64* %1241, align 8
  %1243 = xor i64 %1237, %1242
  %1244 = load i64, i64* %10, align 8
  %1245 = and i64 %1244, 255
  %1246 = getelementptr inbounds [256 x i64], [256 x i64]* @_ZL3Td3, i64 0, i64 %1245
  %1247 = load i64, i64* %1246, align 8
  %1248 = xor i64 %1243, %1247
  %1249 = load i64*, i64** %9, align 8
  %1250 = getelementptr inbounds i64, i64* %1249, i64 47
  %1251 = load i64, i64* %1250, align 8
  %1252 = xor i64 %1248, %1251
  store i64 %1252, i64* %17, align 8
  %1253 = load %struct.aes_key_st*, %struct.aes_key_st** %8, align 8
  %1254 = getelementptr inbounds %struct.aes_key_st, %struct.aes_key_st* %1253, i32 0, i32 1
  %1255 = load i32, i32* %1254, align 8
  %1256 = icmp sgt i32 %1255, 12
  br i1 %1256, label %1257, label %1458

; <label>:1257:                                   ; preds = %1052
  %1258 = load i64, i64* %14, align 8
  %1259 = lshr i64 %1258, 24
  %1260 = getelementptr inbounds [256 x i64], [256 x i64]* @_ZL3Td0, i64 0, i64 %1259
  %1261 = load i64, i64* %1260, align 8
  %1262 = load i64, i64* %17, align 8
  %1263 = lshr i64 %1262, 16
  %1264 = and i64 %1263, 255
  %1265 = getelementptr inbounds [256 x i64], [256 x i64]* @_ZL3Td1, i64 0, i64 %1264
  %1266 = load i64, i64* %1265, align 8
  %1267 = xor i64 %1261, %1266
  %1268 = load i64, i64* %16, align 8
  %1269 = lshr i64 %1268, 8
  %1270 = and i64 %1269, 255
  %1271 = getelementptr inbounds [256 x i64], [256 x i64]* @_ZL3Td2, i64 0, i64 %1270
  %1272 = load i64, i64* %1271, align 8
  %1273 = xor i64 %1267, %1272
  %1274 = load i64, i64* %15, align 8
  %1275 = and i64 %1274, 255
  %1276 = getelementptr inbounds [256 x i64], [256 x i64]* @_ZL3Td3, i64 0, i64 %1275
  %1277 = load i64, i64* %1276, align 8
  %1278 = xor i64 %1273, %1277
  %1279 = load i64*, i64** %9, align 8
  %1280 = getelementptr inbounds i64, i64* %1279, i64 48
  %1281 = load i64, i64* %1280, align 8
  %1282 = xor i64 %1278, %1281
  store i64 %1282, i64* %10, align 8
  %1283 = load i64, i64* %15, align 8
  %1284 = lshr i64 %1283, 24
  %1285 = getelementptr inbounds [256 x i64], [256 x i64]* @_ZL3Td0, i64 0, i64 %1284
  %1286 = load i64, i64* %1285, align 8
  %1287 = load i64, i64* %14, align 8
  %1288 = lshr i64 %1287, 16
  %1289 = and i64 %1288, 255
  %1290 = getelementptr inbounds [256 x i64], [256 x i64]* @_ZL3Td1, i64 0, i64 %1289
  %1291 = load i64, i64* %1290, align 8
  %1292 = xor i64 %1286, %1291
  %1293 = load i64, i64* %17, align 8
  %1294 = lshr i64 %1293, 8
  %1295 = and i64 %1294, 255
  %1296 = getelementptr inbounds [256 x i64], [256 x i64]* @_ZL3Td2, i64 0, i64 %1295
  %1297 = load i64, i64* %1296, align 8
  %1298 = xor i64 %1292, %1297
  %1299 = load i64, i64* %16, align 8
  %1300 = and i64 %1299, 255
  %1301 = getelementptr inbounds [256 x i64], [256 x i64]* @_ZL3Td3, i64 0, i64 %1300
  %1302 = load i64, i64* %1301, align 8
  %1303 = xor i64 %1298, %1302
  %1304 = load i64*, i64** %9, align 8
  %1305 = getelementptr inbounds i64, i64* %1304, i64 49
  %1306 = load i64, i64* %1305, align 8
  %1307 = xor i64 %1303, %1306
  store i64 %1307, i64* %11, align 8
  %1308 = load i64, i64* %16, align 8
  %1309 = lshr i64 %1308, 24
  %1310 = getelementptr inbounds [256 x i64], [256 x i64]* @_ZL3Td0, i64 0, i64 %1309
  %1311 = load i64, i64* %1310, align 8
  %1312 = load i64, i64* %15, align 8
  %1313 = lshr i64 %1312, 16
  %1314 = and i64 %1313, 255
  %1315 = getelementptr inbounds [256 x i64], [256 x i64]* @_ZL3Td1, i64 0, i64 %1314
  %1316 = load i64, i64* %1315, align 8
  %1317 = xor i64 %1311, %1316
  %1318 = load i64, i64* %14, align 8
  %1319 = lshr i64 %1318, 8
  %1320 = and i64 %1319, 255
  %1321 = getelementptr inbounds [256 x i64], [256 x i64]* @_ZL3Td2, i64 0, i64 %1320
  %1322 = load i64, i64* %1321, align 8
  %1323 = xor i64 %1317, %1322
  %1324 = load i64, i64* %17, align 8
  %1325 = and i64 %1324, 255
  %1326 = getelementptr inbounds [256 x i64], [256 x i64]* @_ZL3Td3, i64 0, i64 %1325
  %1327 = load i64, i64* %1326, align 8
  %1328 = xor i64 %1323, %1327
  %1329 = load i64*, i64** %9, align 8
  %1330 = getelementptr inbounds i64, i64* %1329, i64 50
  %1331 = load i64, i64* %1330, align 8
  %1332 = xor i64 %1328, %1331
  store i64 %1332, i64* %12, align 8
  %1333 = load i64, i64* %17, align 8
  %1334 = lshr i64 %1333, 24
  %1335 = getelementptr inbounds [256 x i64], [256 x i64]* @_ZL3Td0, i64 0, i64 %1334
  %1336 = load i64, i64* %1335, align 8
  %1337 = load i64, i64* %16, align 8
  %1338 = lshr i64 %1337, 16
  %1339 = and i64 %1338, 255
  %1340 = getelementptr inbounds [256 x i64], [256 x i64]* @_ZL3Td1, i64 0, i64 %1339
  %1341 = load i64, i64* %1340, align 8
  %1342 = xor i64 %1336, %1341
  %1343 = load i64, i64* %15, align 8
  %1344 = lshr i64 %1343, 8
  %1345 = and i64 %1344, 255
  %1346 = getelementptr inbounds [256 x i64], [256 x i64]* @_ZL3Td2, i64 0, i64 %1345
  %1347 = load i64, i64* %1346, align 8
  %1348 = xor i64 %1342, %1347
  %1349 = load i64, i64* %14, align 8
  %1350 = and i64 %1349, 255
  %1351 = getelementptr inbounds [256 x i64], [256 x i64]* @_ZL3Td3, i64 0, i64 %1350
  %1352 = load i64, i64* %1351, align 8
  %1353 = xor i64 %1348, %1352
  %1354 = load i64*, i64** %9, align 8
  %1355 = getelementptr inbounds i64, i64* %1354, i64 51
  %1356 = load i64, i64* %1355, align 8
  %1357 = xor i64 %1353, %1356
  store i64 %1357, i64* %13, align 8
  %1358 = load i64, i64* %10, align 8
  %1359 = lshr i64 %1358, 24
  %1360 = getelementptr inbounds [256 x i64], [256 x i64]* @_ZL3Td0, i64 0, i64 %1359
  %1361 = load i64, i64* %1360, align 8
  %1362 = load i64, i64* %13, align 8
  %1363 = lshr i64 %1362, 16
  %1364 = and i64 %1363, 255
  %1365 = getelementptr inbounds [256 x i64], [256 x i64]* @_ZL3Td1, i64 0, i64 %1364
  %1366 = load i64, i64* %1365, align 8
  %1367 = xor i64 %1361, %1366
  %1368 = load i64, i64* %12, align 8
  %1369 = lshr i64 %1368, 8
  %1370 = and i64 %1369, 255
  %1371 = getelementptr inbounds [256 x i64], [256 x i64]* @_ZL3Td2, i64 0, i64 %1370
  %1372 = load i64, i64* %1371, align 8
  %1373 = xor i64 %1367, %1372
  %1374 = load i64, i64* %11, align 8
  %1375 = and i64 %1374, 255
  %1376 = getelementptr inbounds [256 x i64], [256 x i64]* @_ZL3Td3, i64 0, i64 %1375
  %1377 = load i64, i64* %1376, align 8
  %1378 = xor i64 %1373, %1377
  %1379 = load i64*, i64** %9, align 8
  %1380 = getelementptr inbounds i64, i64* %1379, i64 52
  %1381 = load i64, i64* %1380, align 8
  %1382 = xor i64 %1378, %1381
  store i64 %1382, i64* %14, align 8
  %1383 = load i64, i64* %11, align 8
  %1384 = lshr i64 %1383, 24
  %1385 = getelementptr inbounds [256 x i64], [256 x i64]* @_ZL3Td0, i64 0, i64 %1384
  %1386 = load i64, i64* %1385, align 8
  %1387 = load i64, i64* %10, align 8
  %1388 = lshr i64 %1387, 16
  %1389 = and i64 %1388, 255
  %1390 = getelementptr inbounds [256 x i64], [256 x i64]* @_ZL3Td1, i64 0, i64 %1389
  %1391 = load i64, i64* %1390, align 8
  %1392 = xor i64 %1386, %1391
  %1393 = load i64, i64* %13, align 8
  %1394 = lshr i64 %1393, 8
  %1395 = and i64 %1394, 255
  %1396 = getelementptr inbounds [256 x i64], [256 x i64]* @_ZL3Td2, i64 0, i64 %1395
  %1397 = load i64, i64* %1396, align 8
  %1398 = xor i64 %1392, %1397
  %1399 = load i64, i64* %12, align 8
  %1400 = and i64 %1399, 255
  %1401 = getelementptr inbounds [256 x i64], [256 x i64]* @_ZL3Td3, i64 0, i64 %1400
  %1402 = load i64, i64* %1401, align 8
  %1403 = xor i64 %1398, %1402
  %1404 = load i64*, i64** %9, align 8
  %1405 = getelementptr inbounds i64, i64* %1404, i64 53
  %1406 = load i64, i64* %1405, align 8
  %1407 = xor i64 %1403, %1406
  store i64 %1407, i64* %15, align 8
  %1408 = load i64, i64* %12, align 8
  %1409 = lshr i64 %1408, 24
  %1410 = getelementptr inbounds [256 x i64], [256 x i64]* @_ZL3Td0, i64 0, i64 %1409
  %1411 = load i64, i64* %1410, align 8
  %1412 = load i64, i64* %11, align 8
  %1413 = lshr i64 %1412, 16
  %1414 = and i64 %1413, 255
  %1415 = getelementptr inbounds [256 x i64], [256 x i64]* @_ZL3Td1, i64 0, i64 %1414
  %1416 = load i64, i64* %1415, align 8
  %1417 = xor i64 %1411, %1416
  %1418 = load i64, i64* %10, align 8
  %1419 = lshr i64 %1418, 8
  %1420 = and i64 %1419, 255
  %1421 = getelementptr inbounds [256 x i64], [256 x i64]* @_ZL3Td2, i64 0, i64 %1420
  %1422 = load i64, i64* %1421, align 8
  %1423 = xor i64 %1417, %1422
  %1424 = load i64, i64* %13, align 8
  %1425 = and i64 %1424, 255
  %1426 = getelementptr inbounds [256 x i64], [256 x i64]* @_ZL3Td3, i64 0, i64 %1425
  %1427 = load i64, i64* %1426, align 8
  %1428 = xor i64 %1423, %1427
  %1429 = load i64*, i64** %9, align 8
  %1430 = getelementptr inbounds i64, i64* %1429, i64 54
  %1431 = load i64, i64* %1430, align 8
  %1432 = xor i64 %1428, %1431
  store i64 %1432, i64* %16, align 8
  %1433 = load i64, i64* %13, align 8
  %1434 = lshr i64 %1433, 24
  %1435 = getelementptr inbounds [256 x i64], [256 x i64]* @_ZL3Td0, i64 0, i64 %1434
  %1436 = load i64, i64* %1435, align 8
  %1437 = load i64, i64* %12, align 8
  %1438 = lshr i64 %1437, 16
  %1439 = and i64 %1438, 255
  %1440 = getelementptr inbounds [256 x i64], [256 x i64]* @_ZL3Td1, i64 0, i64 %1439
  %1441 = load i64, i64* %1440, align 8
  %1442 = xor i64 %1436, %1441
  %1443 = load i64, i64* %11, align 8
  %1444 = lshr i64 %1443, 8
  %1445 = and i64 %1444, 255
  %1446 = getelementptr inbounds [256 x i64], [256 x i64]* @_ZL3Td2, i64 0, i64 %1445
  %1447 = load i64, i64* %1446, align 8
  %1448 = xor i64 %1442, %1447
  %1449 = load i64, i64* %10, align 8
  %1450 = and i64 %1449, 255
  %1451 = getelementptr inbounds [256 x i64], [256 x i64]* @_ZL3Td3, i64 0, i64 %1450
  %1452 = load i64, i64* %1451, align 8
  %1453 = xor i64 %1448, %1452
  %1454 = load i64*, i64** %9, align 8
  %1455 = getelementptr inbounds i64, i64* %1454, i64 55
  %1456 = load i64, i64* %1455, align 8
  %1457 = xor i64 %1453, %1456
  store i64 %1457, i64* %17, align 8
  br label %1458

; <label>:1458:                                   ; preds = %1257, %1052
  br label %1459

; <label>:1459:                                   ; preds = %1458, %28
  %1460 = load %struct.aes_key_st*, %struct.aes_key_st** %8, align 8
  %1461 = getelementptr inbounds %struct.aes_key_st, %struct.aes_key_st* %1460, i32 0, i32 1
  %1462 = load i32, i32* %1461, align 8
  %1463 = shl i32 %1462, 2
  %1464 = load i64*, i64** %9, align 8
  %1465 = sext i32 %1463 to i64
  %1466 = getelementptr inbounds i64, i64* %1464, i64 %1465
  store i64* %1466, i64** %9, align 8
  %1467 = load i64, i64* %14, align 8
  %1468 = lshr i64 %1467, 24
  %1469 = getelementptr inbounds [256 x i64], [256 x i64]* @_ZL3Td4, i64 0, i64 %1468
  %1470 = load i64, i64* %1469, align 8
  %1471 = and i64 %1470, 4278190080
  %1472 = load i64, i64* %17, align 8
  %1473 = lshr i64 %1472, 16
  %1474 = and i64 %1473, 255
  %1475 = getelementptr inbounds [256 x i64], [256 x i64]* @_ZL3Td4, i64 0, i64 %1474
  %1476 = load i64, i64* %1475, align 8
  %1477 = and i64 %1476, 16711680
  %1478 = xor i64 %1471, %1477
  %1479 = load i64, i64* %16, align 8
  %1480 = lshr i64 %1479, 8
  %1481 = and i64 %1480, 255
  %1482 = getelementptr inbounds [256 x i64], [256 x i64]* @_ZL3Td4, i64 0, i64 %1481
  %1483 = load i64, i64* %1482, align 8
  %1484 = and i64 %1483, 65280
  %1485 = xor i64 %1478, %1484
  %1486 = load i64, i64* %15, align 8
  %1487 = and i64 %1486, 255
  %1488 = getelementptr inbounds [256 x i64], [256 x i64]* @_ZL3Td4, i64 0, i64 %1487
  %1489 = load i64, i64* %1488, align 8
  %1490 = and i64 %1489, 255
  %1491 = xor i64 %1485, %1490
  %1492 = load i64*, i64** %9, align 8
  %1493 = getelementptr inbounds i64, i64* %1492, i64 0
  %1494 = load i64, i64* %1493, align 8
  %1495 = xor i64 %1491, %1494
  store i64 %1495, i64* %10, align 8
  %1496 = load i64, i64* %10, align 8
  %1497 = lshr i64 %1496, 24
  %1498 = trunc i64 %1497 to i8
  %1499 = load i8*, i8** %7, align 8
  %1500 = getelementptr inbounds i8, i8* %1499, i64 0
  store i8 %1498, i8* %1500, align 1
  %1501 = load i64, i64* %10, align 8
  %1502 = lshr i64 %1501, 16
  %1503 = trunc i64 %1502 to i8
  %1504 = load i8*, i8** %7, align 8
  %1505 = getelementptr inbounds i8, i8* %1504, i64 1
  store i8 %1503, i8* %1505, align 1
  %1506 = load i64, i64* %10, align 8
  %1507 = lshr i64 %1506, 8
  %1508 = trunc i64 %1507 to i8
  %1509 = load i8*, i8** %7, align 8
  %1510 = getelementptr inbounds i8, i8* %1509, i64 2
  store i8 %1508, i8* %1510, align 1
  %1511 = load i64, i64* %10, align 8
  %1512 = trunc i64 %1511 to i8
  %1513 = load i8*, i8** %7, align 8
  %1514 = getelementptr inbounds i8, i8* %1513, i64 3
  store i8 %1512, i8* %1514, align 1
  %1515 = load i64, i64* %15, align 8
  %1516 = lshr i64 %1515, 24
  %1517 = getelementptr inbounds [256 x i64], [256 x i64]* @_ZL3Td4, i64 0, i64 %1516
  %1518 = load i64, i64* %1517, align 8
  %1519 = and i64 %1518, 4278190080
  %1520 = load i64, i64* %14, align 8
  %1521 = lshr i64 %1520, 16
  %1522 = and i64 %1521, 255
  %1523 = getelementptr inbounds [256 x i64], [256 x i64]* @_ZL3Td4, i64 0, i64 %1522
  %1524 = load i64, i64* %1523, align 8
  %1525 = and i64 %1524, 16711680
  %1526 = xor i64 %1519, %1525
  %1527 = load i64, i64* %17, align 8
  %1528 = lshr i64 %1527, 8
  %1529 = and i64 %1528, 255
  %1530 = getelementptr inbounds [256 x i64], [256 x i64]* @_ZL3Td4, i64 0, i64 %1529
  %1531 = load i64, i64* %1530, align 8
  %1532 = and i64 %1531, 65280
  %1533 = xor i64 %1526, %1532
  %1534 = load i64, i64* %16, align 8
  %1535 = and i64 %1534, 255
  %1536 = getelementptr inbounds [256 x i64], [256 x i64]* @_ZL3Td4, i64 0, i64 %1535
  %1537 = load i64, i64* %1536, align 8
  %1538 = and i64 %1537, 255
  %1539 = xor i64 %1533, %1538
  %1540 = load i64*, i64** %9, align 8
  %1541 = getelementptr inbounds i64, i64* %1540, i64 1
  %1542 = load i64, i64* %1541, align 8
  %1543 = xor i64 %1539, %1542
  store i64 %1543, i64* %11, align 8
  %1544 = load i64, i64* %11, align 8
  %1545 = lshr i64 %1544, 24
  %1546 = trunc i64 %1545 to i8
  %1547 = load i8*, i8** %7, align 8
  %1548 = getelementptr inbounds i8, i8* %1547, i64 4
  %1549 = getelementptr inbounds i8, i8* %1548, i64 0
  store i8 %1546, i8* %1549, align 1
  %1550 = load i64, i64* %11, align 8
  %1551 = lshr i64 %1550, 16
  %1552 = trunc i64 %1551 to i8
  %1553 = load i8*, i8** %7, align 8
  %1554 = getelementptr inbounds i8, i8* %1553, i64 4
  %1555 = getelementptr inbounds i8, i8* %1554, i64 1
  store i8 %1552, i8* %1555, align 1
  %1556 = load i64, i64* %11, align 8
  %1557 = lshr i64 %1556, 8
  %1558 = trunc i64 %1557 to i8
  %1559 = load i8*, i8** %7, align 8
  %1560 = getelementptr inbounds i8, i8* %1559, i64 4
  %1561 = getelementptr inbounds i8, i8* %1560, i64 2
  store i8 %1558, i8* %1561, align 1
  %1562 = load i64, i64* %11, align 8
  %1563 = trunc i64 %1562 to i8
  %1564 = load i8*, i8** %7, align 8
  %1565 = getelementptr inbounds i8, i8* %1564, i64 4
  %1566 = getelementptr inbounds i8, i8* %1565, i64 3
  store i8 %1563, i8* %1566, align 1
  %1567 = load i64, i64* %16, align 8
  %1568 = lshr i64 %1567, 24
  %1569 = getelementptr inbounds [256 x i64], [256 x i64]* @_ZL3Td4, i64 0, i64 %1568
  %1570 = load i64, i64* %1569, align 8
  %1571 = and i64 %1570, 4278190080
  %1572 = load i64, i64* %15, align 8
  %1573 = lshr i64 %1572, 16
  %1574 = and i64 %1573, 255
  %1575 = getelementptr inbounds [256 x i64], [256 x i64]* @_ZL3Td4, i64 0, i64 %1574
  %1576 = load i64, i64* %1575, align 8
  %1577 = and i64 %1576, 16711680
  %1578 = xor i64 %1571, %1577
  %1579 = load i64, i64* %14, align 8
  %1580 = lshr i64 %1579, 8
  %1581 = and i64 %1580, 255
  %1582 = getelementptr inbounds [256 x i64], [256 x i64]* @_ZL3Td4, i64 0, i64 %1581
  %1583 = load i64, i64* %1582, align 8
  %1584 = and i64 %1583, 65280
  %1585 = xor i64 %1578, %1584
  %1586 = load i64, i64* %17, align 8
  %1587 = and i64 %1586, 255
  %1588 = getelementptr inbounds [256 x i64], [256 x i64]* @_ZL3Td4, i64 0, i64 %1587
  %1589 = load i64, i64* %1588, align 8
  %1590 = and i64 %1589, 255
  %1591 = xor i64 %1585, %1590
  %1592 = load i64*, i64** %9, align 8
  %1593 = getelementptr inbounds i64, i64* %1592, i64 2
  %1594 = load i64, i64* %1593, align 8
  %1595 = xor i64 %1591, %1594
  store i64 %1595, i64* %12, align 8
  %1596 = load i64, i64* %12, align 8
  %1597 = lshr i64 %1596, 24
  %1598 = trunc i64 %1597 to i8
  %1599 = load i8*, i8** %7, align 8
  %1600 = getelementptr inbounds i8, i8* %1599, i64 8
  %1601 = getelementptr inbounds i8, i8* %1600, i64 0
  store i8 %1598, i8* %1601, align 1
  %1602 = load i64, i64* %12, align 8
  %1603 = lshr i64 %1602, 16
  %1604 = trunc i64 %1603 to i8
  %1605 = load i8*, i8** %7, align 8
  %1606 = getelementptr inbounds i8, i8* %1605, i64 8
  %1607 = getelementptr inbounds i8, i8* %1606, i64 1
  store i8 %1604, i8* %1607, align 1
  %1608 = load i64, i64* %12, align 8
  %1609 = lshr i64 %1608, 8
  %1610 = trunc i64 %1609 to i8
  %1611 = load i8*, i8** %7, align 8
  %1612 = getelementptr inbounds i8, i8* %1611, i64 8
  %1613 = getelementptr inbounds i8, i8* %1612, i64 2
  store i8 %1610, i8* %1613, align 1
  %1614 = load i64, i64* %12, align 8
  %1615 = trunc i64 %1614 to i8
  %1616 = load i8*, i8** %7, align 8
  %1617 = getelementptr inbounds i8, i8* %1616, i64 8
  %1618 = getelementptr inbounds i8, i8* %1617, i64 3
  store i8 %1615, i8* %1618, align 1
  %1619 = load i64, i64* %17, align 8
  %1620 = lshr i64 %1619, 24
  %1621 = getelementptr inbounds [256 x i64], [256 x i64]* @_ZL3Td4, i64 0, i64 %1620
  %1622 = load i64, i64* %1621, align 8
  %1623 = and i64 %1622, 4278190080
  %1624 = load i64, i64* %16, align 8
  %1625 = lshr i64 %1624, 16
  %1626 = and i64 %1625, 255
  %1627 = getelementptr inbounds [256 x i64], [256 x i64]* @_ZL3Td4, i64 0, i64 %1626
  %1628 = load i64, i64* %1627, align 8
  %1629 = and i64 %1628, 16711680
  %1630 = xor i64 %1623, %1629
  %1631 = load i64, i64* %15, align 8
  %1632 = lshr i64 %1631, 8
  %1633 = and i64 %1632, 255
  %1634 = getelementptr inbounds [256 x i64], [256 x i64]* @_ZL3Td4, i64 0, i64 %1633
  %1635 = load i64, i64* %1634, align 8
  %1636 = and i64 %1635, 65280
  %1637 = xor i64 %1630, %1636
  %1638 = load i64, i64* %14, align 8
  %1639 = and i64 %1638, 255
  %1640 = getelementptr inbounds [256 x i64], [256 x i64]* @_ZL3Td4, i64 0, i64 %1639
  %1641 = load i64, i64* %1640, align 8
  %1642 = and i64 %1641, 255
  %1643 = xor i64 %1637, %1642
  %1644 = load i64*, i64** %9, align 8
  %1645 = getelementptr inbounds i64, i64* %1644, i64 3
  %1646 = load i64, i64* %1645, align 8
  %1647 = xor i64 %1643, %1646
  store i64 %1647, i64* %13, align 8
  %1648 = load i64, i64* %13, align 8
  %1649 = lshr i64 %1648, 24
  %1650 = trunc i64 %1649 to i8
  %1651 = load i8*, i8** %7, align 8
  %1652 = getelementptr inbounds i8, i8* %1651, i64 12
  %1653 = getelementptr inbounds i8, i8* %1652, i64 0
  store i8 %1650, i8* %1653, align 1
  %1654 = load i64, i64* %13, align 8
  %1655 = lshr i64 %1654, 16
  %1656 = trunc i64 %1655 to i8
  %1657 = load i8*, i8** %7, align 8
  %1658 = getelementptr inbounds i8, i8* %1657, i64 12
  %1659 = getelementptr inbounds i8, i8* %1658, i64 1
  store i8 %1656, i8* %1659, align 1
  %1660 = load i64, i64* %13, align 8
  %1661 = lshr i64 %1660, 8
  %1662 = trunc i64 %1661 to i8
  %1663 = load i8*, i8** %7, align 8
  %1664 = getelementptr inbounds i8, i8* %1663, i64 12
  %1665 = getelementptr inbounds i8, i8* %1664, i64 2
  store i8 %1662, i8* %1665, align 1
  %1666 = load i64, i64* %13, align 8
  %1667 = trunc i64 %1666 to i8
  %1668 = load i8*, i8** %7, align 8
  %1669 = getelementptr inbounds i8, i8* %1668, i64 12
  %1670 = getelementptr inbounds i8, i8* %1669, i64 3
  store i8 %1667, i8* %1670, align 1
  ret void
}

; Function Attrs: noinline optnone uwtable
define void @_ZN3Aes11AES_encryptEPKhPhPK10aes_key_st(%class.Aes*, i8*, i8*, %struct.aes_key_st*) #0 align 2 {
  %5 = alloca %class.Aes*, align 8
  %6 = alloca i8*, align 8
  %7 = alloca i8*, align 8
  %8 = alloca %struct.aes_key_st*, align 8
  %9 = alloca i64*, align 8
  %10 = alloca i64, align 8
  %11 = alloca i64, align 8
  %12 = alloca i64, align 8
  %13 = alloca i64, align 8
  %14 = alloca i64, align 8
  %15 = alloca i64, align 8
  %16 = alloca i64, align 8
  %17 = alloca i64, align 8
  store %class.Aes* %0, %class.Aes** %5, align 8
  store i8* %1, i8** %6, align 8
  store i8* %2, i8** %7, align 8
  store %struct.aes_key_st* %3, %struct.aes_key_st** %8, align 8
  %18 = load %class.Aes*, %class.Aes** %5, align 8
  %19 = load i8*, i8** %6, align 8
  %20 = icmp ne i8* %19, null
  br i1 %20, label %21, label %27

; <label>:21:                                     ; preds = %4
  %22 = load i8*, i8** %7, align 8
  %23 = icmp ne i8* %22, null
  br i1 %23, label %24, label %27

; <label>:24:                                     ; preds = %21
  %25 = load %struct.aes_key_st*, %struct.aes_key_st** %8, align 8
  %26 = icmp ne %struct.aes_key_st* %25, null
  br i1 %26, label %28, label %27

; <label>:27:                                     ; preds = %24, %21, %4
  call void (i8*, ...) @click_chatter(i8* getelementptr inbounds ([32 x i8], [32 x i8]* @.str.3, i32 0, i32 0))
  br label %28

; <label>:28:                                     ; preds = %27, %24
  %29 = load %struct.aes_key_st*, %struct.aes_key_st** %8, align 8
  %30 = getelementptr inbounds %struct.aes_key_st, %struct.aes_key_st* %29, i32 0, i32 0
  %31 = getelementptr inbounds [60 x i64], [60 x i64]* %30, i32 0, i32 0
  store i64* %31, i64** %9, align 8
  %32 = load i8*, i8** %6, align 8
  %33 = getelementptr inbounds i8, i8* %32, i64 0
  %34 = load i8, i8* %33, align 1
  %35 = zext i8 %34 to i64
  %36 = shl i64 %35, 24
  %37 = load i8*, i8** %6, align 8
  %38 = getelementptr inbounds i8, i8* %37, i64 1
  %39 = load i8, i8* %38, align 1
  %40 = zext i8 %39 to i64
  %41 = shl i64 %40, 16
  %42 = xor i64 %36, %41
  %43 = load i8*, i8** %6, align 8
  %44 = getelementptr inbounds i8, i8* %43, i64 2
  %45 = load i8, i8* %44, align 1
  %46 = zext i8 %45 to i64
  %47 = shl i64 %46, 8
  %48 = xor i64 %42, %47
  %49 = load i8*, i8** %6, align 8
  %50 = getelementptr inbounds i8, i8* %49, i64 3
  %51 = load i8, i8* %50, align 1
  %52 = zext i8 %51 to i64
  %53 = xor i64 %48, %52
  %54 = load i64*, i64** %9, align 8
  %55 = getelementptr inbounds i64, i64* %54, i64 0
  %56 = load i64, i64* %55, align 8
  %57 = xor i64 %53, %56
  store i64 %57, i64* %10, align 8
  %58 = load i8*, i8** %6, align 8
  %59 = getelementptr inbounds i8, i8* %58, i64 4
  %60 = getelementptr inbounds i8, i8* %59, i64 0
  %61 = load i8, i8* %60, align 1
  %62 = zext i8 %61 to i64
  %63 = shl i64 %62, 24
  %64 = load i8*, i8** %6, align 8
  %65 = getelementptr inbounds i8, i8* %64, i64 4
  %66 = getelementptr inbounds i8, i8* %65, i64 1
  %67 = load i8, i8* %66, align 1
  %68 = zext i8 %67 to i64
  %69 = shl i64 %68, 16
  %70 = xor i64 %63, %69
  %71 = load i8*, i8** %6, align 8
  %72 = getelementptr inbounds i8, i8* %71, i64 4
  %73 = getelementptr inbounds i8, i8* %72, i64 2
  %74 = load i8, i8* %73, align 1
  %75 = zext i8 %74 to i64
  %76 = shl i64 %75, 8
  %77 = xor i64 %70, %76
  %78 = load i8*, i8** %6, align 8
  %79 = getelementptr inbounds i8, i8* %78, i64 4
  %80 = getelementptr inbounds i8, i8* %79, i64 3
  %81 = load i8, i8* %80, align 1
  %82 = zext i8 %81 to i64
  %83 = xor i64 %77, %82
  %84 = load i64*, i64** %9, align 8
  %85 = getelementptr inbounds i64, i64* %84, i64 1
  %86 = load i64, i64* %85, align 8
  %87 = xor i64 %83, %86
  store i64 %87, i64* %11, align 8
  %88 = load i8*, i8** %6, align 8
  %89 = getelementptr inbounds i8, i8* %88, i64 8
  %90 = getelementptr inbounds i8, i8* %89, i64 0
  %91 = load i8, i8* %90, align 1
  %92 = zext i8 %91 to i64
  %93 = shl i64 %92, 24
  %94 = load i8*, i8** %6, align 8
  %95 = getelementptr inbounds i8, i8* %94, i64 8
  %96 = getelementptr inbounds i8, i8* %95, i64 1
  %97 = load i8, i8* %96, align 1
  %98 = zext i8 %97 to i64
  %99 = shl i64 %98, 16
  %100 = xor i64 %93, %99
  %101 = load i8*, i8** %6, align 8
  %102 = getelementptr inbounds i8, i8* %101, i64 8
  %103 = getelementptr inbounds i8, i8* %102, i64 2
  %104 = load i8, i8* %103, align 1
  %105 = zext i8 %104 to i64
  %106 = shl i64 %105, 8
  %107 = xor i64 %100, %106
  %108 = load i8*, i8** %6, align 8
  %109 = getelementptr inbounds i8, i8* %108, i64 8
  %110 = getelementptr inbounds i8, i8* %109, i64 3
  %111 = load i8, i8* %110, align 1
  %112 = zext i8 %111 to i64
  %113 = xor i64 %107, %112
  %114 = load i64*, i64** %9, align 8
  %115 = getelementptr inbounds i64, i64* %114, i64 2
  %116 = load i64, i64* %115, align 8
  %117 = xor i64 %113, %116
  store i64 %117, i64* %12, align 8
  %118 = load i8*, i8** %6, align 8
  %119 = getelementptr inbounds i8, i8* %118, i64 12
  %120 = getelementptr inbounds i8, i8* %119, i64 0
  %121 = load i8, i8* %120, align 1
  %122 = zext i8 %121 to i64
  %123 = shl i64 %122, 24
  %124 = load i8*, i8** %6, align 8
  %125 = getelementptr inbounds i8, i8* %124, i64 12
  %126 = getelementptr inbounds i8, i8* %125, i64 1
  %127 = load i8, i8* %126, align 1
  %128 = zext i8 %127 to i64
  %129 = shl i64 %128, 16
  %130 = xor i64 %123, %129
  %131 = load i8*, i8** %6, align 8
  %132 = getelementptr inbounds i8, i8* %131, i64 12
  %133 = getelementptr inbounds i8, i8* %132, i64 2
  %134 = load i8, i8* %133, align 1
  %135 = zext i8 %134 to i64
  %136 = shl i64 %135, 8
  %137 = xor i64 %130, %136
  %138 = load i8*, i8** %6, align 8
  %139 = getelementptr inbounds i8, i8* %138, i64 12
  %140 = getelementptr inbounds i8, i8* %139, i64 3
  %141 = load i8, i8* %140, align 1
  %142 = zext i8 %141 to i64
  %143 = xor i64 %137, %142
  %144 = load i64*, i64** %9, align 8
  %145 = getelementptr inbounds i64, i64* %144, i64 3
  %146 = load i64, i64* %145, align 8
  %147 = xor i64 %143, %146
  store i64 %147, i64* %13, align 8
  %148 = load i64, i64* %10, align 8
  %149 = lshr i64 %148, 24
  %150 = getelementptr inbounds [256 x i64], [256 x i64]* @_ZL3Te0, i64 0, i64 %149
  %151 = load i64, i64* %150, align 8
  %152 = load i64, i64* %11, align 8
  %153 = lshr i64 %152, 16
  %154 = and i64 %153, 255
  %155 = getelementptr inbounds [256 x i64], [256 x i64]* @_ZL3Te1, i64 0, i64 %154
  %156 = load i64, i64* %155, align 8
  %157 = xor i64 %151, %156
  %158 = load i64, i64* %12, align 8
  %159 = lshr i64 %158, 8
  %160 = and i64 %159, 255
  %161 = getelementptr inbounds [256 x i64], [256 x i64]* @_ZL3Te2, i64 0, i64 %160
  %162 = load i64, i64* %161, align 8
  %163 = xor i64 %157, %162
  %164 = load i64, i64* %13, align 8
  %165 = and i64 %164, 255
  %166 = getelementptr inbounds [256 x i64], [256 x i64]* @_ZL3Te3, i64 0, i64 %165
  %167 = load i64, i64* %166, align 8
  %168 = xor i64 %163, %167
  %169 = load i64*, i64** %9, align 8
  %170 = getelementptr inbounds i64, i64* %169, i64 4
  %171 = load i64, i64* %170, align 8
  %172 = xor i64 %168, %171
  store i64 %172, i64* %14, align 8
  %173 = load i64, i64* %11, align 8
  %174 = lshr i64 %173, 24
  %175 = getelementptr inbounds [256 x i64], [256 x i64]* @_ZL3Te0, i64 0, i64 %174
  %176 = load i64, i64* %175, align 8
  %177 = load i64, i64* %12, align 8
  %178 = lshr i64 %177, 16
  %179 = and i64 %178, 255
  %180 = getelementptr inbounds [256 x i64], [256 x i64]* @_ZL3Te1, i64 0, i64 %179
  %181 = load i64, i64* %180, align 8
  %182 = xor i64 %176, %181
  %183 = load i64, i64* %13, align 8
  %184 = lshr i64 %183, 8
  %185 = and i64 %184, 255
  %186 = getelementptr inbounds [256 x i64], [256 x i64]* @_ZL3Te2, i64 0, i64 %185
  %187 = load i64, i64* %186, align 8
  %188 = xor i64 %182, %187
  %189 = load i64, i64* %10, align 8
  %190 = and i64 %189, 255
  %191 = getelementptr inbounds [256 x i64], [256 x i64]* @_ZL3Te3, i64 0, i64 %190
  %192 = load i64, i64* %191, align 8
  %193 = xor i64 %188, %192
  %194 = load i64*, i64** %9, align 8
  %195 = getelementptr inbounds i64, i64* %194, i64 5
  %196 = load i64, i64* %195, align 8
  %197 = xor i64 %193, %196
  store i64 %197, i64* %15, align 8
  %198 = load i64, i64* %12, align 8
  %199 = lshr i64 %198, 24
  %200 = getelementptr inbounds [256 x i64], [256 x i64]* @_ZL3Te0, i64 0, i64 %199
  %201 = load i64, i64* %200, align 8
  %202 = load i64, i64* %13, align 8
  %203 = lshr i64 %202, 16
  %204 = and i64 %203, 255
  %205 = getelementptr inbounds [256 x i64], [256 x i64]* @_ZL3Te1, i64 0, i64 %204
  %206 = load i64, i64* %205, align 8
  %207 = xor i64 %201, %206
  %208 = load i64, i64* %10, align 8
  %209 = lshr i64 %208, 8
  %210 = and i64 %209, 255
  %211 = getelementptr inbounds [256 x i64], [256 x i64]* @_ZL3Te2, i64 0, i64 %210
  %212 = load i64, i64* %211, align 8
  %213 = xor i64 %207, %212
  %214 = load i64, i64* %11, align 8
  %215 = and i64 %214, 255
  %216 = getelementptr inbounds [256 x i64], [256 x i64]* @_ZL3Te3, i64 0, i64 %215
  %217 = load i64, i64* %216, align 8
  %218 = xor i64 %213, %217
  %219 = load i64*, i64** %9, align 8
  %220 = getelementptr inbounds i64, i64* %219, i64 6
  %221 = load i64, i64* %220, align 8
  %222 = xor i64 %218, %221
  store i64 %222, i64* %16, align 8
  %223 = load i64, i64* %13, align 8
  %224 = lshr i64 %223, 24
  %225 = getelementptr inbounds [256 x i64], [256 x i64]* @_ZL3Te0, i64 0, i64 %224
  %226 = load i64, i64* %225, align 8
  %227 = load i64, i64* %10, align 8
  %228 = lshr i64 %227, 16
  %229 = and i64 %228, 255
  %230 = getelementptr inbounds [256 x i64], [256 x i64]* @_ZL3Te1, i64 0, i64 %229
  %231 = load i64, i64* %230, align 8
  %232 = xor i64 %226, %231
  %233 = load i64, i64* %11, align 8
  %234 = lshr i64 %233, 8
  %235 = and i64 %234, 255
  %236 = getelementptr inbounds [256 x i64], [256 x i64]* @_ZL3Te2, i64 0, i64 %235
  %237 = load i64, i64* %236, align 8
  %238 = xor i64 %232, %237
  %239 = load i64, i64* %12, align 8
  %240 = and i64 %239, 255
  %241 = getelementptr inbounds [256 x i64], [256 x i64]* @_ZL3Te3, i64 0, i64 %240
  %242 = load i64, i64* %241, align 8
  %243 = xor i64 %238, %242
  %244 = load i64*, i64** %9, align 8
  %245 = getelementptr inbounds i64, i64* %244, i64 7
  %246 = load i64, i64* %245, align 8
  %247 = xor i64 %243, %246
  store i64 %247, i64* %17, align 8
  %248 = load i64, i64* %14, align 8
  %249 = lshr i64 %248, 24
  %250 = getelementptr inbounds [256 x i64], [256 x i64]* @_ZL3Te0, i64 0, i64 %249
  %251 = load i64, i64* %250, align 8
  %252 = load i64, i64* %15, align 8
  %253 = lshr i64 %252, 16
  %254 = and i64 %253, 255
  %255 = getelementptr inbounds [256 x i64], [256 x i64]* @_ZL3Te1, i64 0, i64 %254
  %256 = load i64, i64* %255, align 8
  %257 = xor i64 %251, %256
  %258 = load i64, i64* %16, align 8
  %259 = lshr i64 %258, 8
  %260 = and i64 %259, 255
  %261 = getelementptr inbounds [256 x i64], [256 x i64]* @_ZL3Te2, i64 0, i64 %260
  %262 = load i64, i64* %261, align 8
  %263 = xor i64 %257, %262
  %264 = load i64, i64* %17, align 8
  %265 = and i64 %264, 255
  %266 = getelementptr inbounds [256 x i64], [256 x i64]* @_ZL3Te3, i64 0, i64 %265
  %267 = load i64, i64* %266, align 8
  %268 = xor i64 %263, %267
  %269 = load i64*, i64** %9, align 8
  %270 = getelementptr inbounds i64, i64* %269, i64 8
  %271 = load i64, i64* %270, align 8
  %272 = xor i64 %268, %271
  store i64 %272, i64* %10, align 8
  %273 = load i64, i64* %15, align 8
  %274 = lshr i64 %273, 24
  %275 = getelementptr inbounds [256 x i64], [256 x i64]* @_ZL3Te0, i64 0, i64 %274
  %276 = load i64, i64* %275, align 8
  %277 = load i64, i64* %16, align 8
  %278 = lshr i64 %277, 16
  %279 = and i64 %278, 255
  %280 = getelementptr inbounds [256 x i64], [256 x i64]* @_ZL3Te1, i64 0, i64 %279
  %281 = load i64, i64* %280, align 8
  %282 = xor i64 %276, %281
  %283 = load i64, i64* %17, align 8
  %284 = lshr i64 %283, 8
  %285 = and i64 %284, 255
  %286 = getelementptr inbounds [256 x i64], [256 x i64]* @_ZL3Te2, i64 0, i64 %285
  %287 = load i64, i64* %286, align 8
  %288 = xor i64 %282, %287
  %289 = load i64, i64* %14, align 8
  %290 = and i64 %289, 255
  %291 = getelementptr inbounds [256 x i64], [256 x i64]* @_ZL3Te3, i64 0, i64 %290
  %292 = load i64, i64* %291, align 8
  %293 = xor i64 %288, %292
  %294 = load i64*, i64** %9, align 8
  %295 = getelementptr inbounds i64, i64* %294, i64 9
  %296 = load i64, i64* %295, align 8
  %297 = xor i64 %293, %296
  store i64 %297, i64* %11, align 8
  %298 = load i64, i64* %16, align 8
  %299 = lshr i64 %298, 24
  %300 = getelementptr inbounds [256 x i64], [256 x i64]* @_ZL3Te0, i64 0, i64 %299
  %301 = load i64, i64* %300, align 8
  %302 = load i64, i64* %17, align 8
  %303 = lshr i64 %302, 16
  %304 = and i64 %303, 255
  %305 = getelementptr inbounds [256 x i64], [256 x i64]* @_ZL3Te1, i64 0, i64 %304
  %306 = load i64, i64* %305, align 8
  %307 = xor i64 %301, %306
  %308 = load i64, i64* %14, align 8
  %309 = lshr i64 %308, 8
  %310 = and i64 %309, 255
  %311 = getelementptr inbounds [256 x i64], [256 x i64]* @_ZL3Te2, i64 0, i64 %310
  %312 = load i64, i64* %311, align 8
  %313 = xor i64 %307, %312
  %314 = load i64, i64* %15, align 8
  %315 = and i64 %314, 255
  %316 = getelementptr inbounds [256 x i64], [256 x i64]* @_ZL3Te3, i64 0, i64 %315
  %317 = load i64, i64* %316, align 8
  %318 = xor i64 %313, %317
  %319 = load i64*, i64** %9, align 8
  %320 = getelementptr inbounds i64, i64* %319, i64 10
  %321 = load i64, i64* %320, align 8
  %322 = xor i64 %318, %321
  store i64 %322, i64* %12, align 8
  %323 = load i64, i64* %17, align 8
  %324 = lshr i64 %323, 24
  %325 = getelementptr inbounds [256 x i64], [256 x i64]* @_ZL3Te0, i64 0, i64 %324
  %326 = load i64, i64* %325, align 8
  %327 = load i64, i64* %14, align 8
  %328 = lshr i64 %327, 16
  %329 = and i64 %328, 255
  %330 = getelementptr inbounds [256 x i64], [256 x i64]* @_ZL3Te1, i64 0, i64 %329
  %331 = load i64, i64* %330, align 8
  %332 = xor i64 %326, %331
  %333 = load i64, i64* %15, align 8
  %334 = lshr i64 %333, 8
  %335 = and i64 %334, 255
  %336 = getelementptr inbounds [256 x i64], [256 x i64]* @_ZL3Te2, i64 0, i64 %335
  %337 = load i64, i64* %336, align 8
  %338 = xor i64 %332, %337
  %339 = load i64, i64* %16, align 8
  %340 = and i64 %339, 255
  %341 = getelementptr inbounds [256 x i64], [256 x i64]* @_ZL3Te3, i64 0, i64 %340
  %342 = load i64, i64* %341, align 8
  %343 = xor i64 %338, %342
  %344 = load i64*, i64** %9, align 8
  %345 = getelementptr inbounds i64, i64* %344, i64 11
  %346 = load i64, i64* %345, align 8
  %347 = xor i64 %343, %346
  store i64 %347, i64* %13, align 8
  %348 = load i64, i64* %10, align 8
  %349 = lshr i64 %348, 24
  %350 = getelementptr inbounds [256 x i64], [256 x i64]* @_ZL3Te0, i64 0, i64 %349
  %351 = load i64, i64* %350, align 8
  %352 = load i64, i64* %11, align 8
  %353 = lshr i64 %352, 16
  %354 = and i64 %353, 255
  %355 = getelementptr inbounds [256 x i64], [256 x i64]* @_ZL3Te1, i64 0, i64 %354
  %356 = load i64, i64* %355, align 8
  %357 = xor i64 %351, %356
  %358 = load i64, i64* %12, align 8
  %359 = lshr i64 %358, 8
  %360 = and i64 %359, 255
  %361 = getelementptr inbounds [256 x i64], [256 x i64]* @_ZL3Te2, i64 0, i64 %360
  %362 = load i64, i64* %361, align 8
  %363 = xor i64 %357, %362
  %364 = load i64, i64* %13, align 8
  %365 = and i64 %364, 255
  %366 = getelementptr inbounds [256 x i64], [256 x i64]* @_ZL3Te3, i64 0, i64 %365
  %367 = load i64, i64* %366, align 8
  %368 = xor i64 %363, %367
  %369 = load i64*, i64** %9, align 8
  %370 = getelementptr inbounds i64, i64* %369, i64 12
  %371 = load i64, i64* %370, align 8
  %372 = xor i64 %368, %371
  store i64 %372, i64* %14, align 8
  %373 = load i64, i64* %11, align 8
  %374 = lshr i64 %373, 24
  %375 = getelementptr inbounds [256 x i64], [256 x i64]* @_ZL3Te0, i64 0, i64 %374
  %376 = load i64, i64* %375, align 8
  %377 = load i64, i64* %12, align 8
  %378 = lshr i64 %377, 16
  %379 = and i64 %378, 255
  %380 = getelementptr inbounds [256 x i64], [256 x i64]* @_ZL3Te1, i64 0, i64 %379
  %381 = load i64, i64* %380, align 8
  %382 = xor i64 %376, %381
  %383 = load i64, i64* %13, align 8
  %384 = lshr i64 %383, 8
  %385 = and i64 %384, 255
  %386 = getelementptr inbounds [256 x i64], [256 x i64]* @_ZL3Te2, i64 0, i64 %385
  %387 = load i64, i64* %386, align 8
  %388 = xor i64 %382, %387
  %389 = load i64, i64* %10, align 8
  %390 = and i64 %389, 255
  %391 = getelementptr inbounds [256 x i64], [256 x i64]* @_ZL3Te3, i64 0, i64 %390
  %392 = load i64, i64* %391, align 8
  %393 = xor i64 %388, %392
  %394 = load i64*, i64** %9, align 8
  %395 = getelementptr inbounds i64, i64* %394, i64 13
  %396 = load i64, i64* %395, align 8
  %397 = xor i64 %393, %396
  store i64 %397, i64* %15, align 8
  %398 = load i64, i64* %12, align 8
  %399 = lshr i64 %398, 24
  %400 = getelementptr inbounds [256 x i64], [256 x i64]* @_ZL3Te0, i64 0, i64 %399
  %401 = load i64, i64* %400, align 8
  %402 = load i64, i64* %13, align 8
  %403 = lshr i64 %402, 16
  %404 = and i64 %403, 255
  %405 = getelementptr inbounds [256 x i64], [256 x i64]* @_ZL3Te1, i64 0, i64 %404
  %406 = load i64, i64* %405, align 8
  %407 = xor i64 %401, %406
  %408 = load i64, i64* %10, align 8
  %409 = lshr i64 %408, 8
  %410 = and i64 %409, 255
  %411 = getelementptr inbounds [256 x i64], [256 x i64]* @_ZL3Te2, i64 0, i64 %410
  %412 = load i64, i64* %411, align 8
  %413 = xor i64 %407, %412
  %414 = load i64, i64* %11, align 8
  %415 = and i64 %414, 255
  %416 = getelementptr inbounds [256 x i64], [256 x i64]* @_ZL3Te3, i64 0, i64 %415
  %417 = load i64, i64* %416, align 8
  %418 = xor i64 %413, %417
  %419 = load i64*, i64** %9, align 8
  %420 = getelementptr inbounds i64, i64* %419, i64 14
  %421 = load i64, i64* %420, align 8
  %422 = xor i64 %418, %421
  store i64 %422, i64* %16, align 8
  %423 = load i64, i64* %13, align 8
  %424 = lshr i64 %423, 24
  %425 = getelementptr inbounds [256 x i64], [256 x i64]* @_ZL3Te0, i64 0, i64 %424
  %426 = load i64, i64* %425, align 8
  %427 = load i64, i64* %10, align 8
  %428 = lshr i64 %427, 16
  %429 = and i64 %428, 255
  %430 = getelementptr inbounds [256 x i64], [256 x i64]* @_ZL3Te1, i64 0, i64 %429
  %431 = load i64, i64* %430, align 8
  %432 = xor i64 %426, %431
  %433 = load i64, i64* %11, align 8
  %434 = lshr i64 %433, 8
  %435 = and i64 %434, 255
  %436 = getelementptr inbounds [256 x i64], [256 x i64]* @_ZL3Te2, i64 0, i64 %435
  %437 = load i64, i64* %436, align 8
  %438 = xor i64 %432, %437
  %439 = load i64, i64* %12, align 8
  %440 = and i64 %439, 255
  %441 = getelementptr inbounds [256 x i64], [256 x i64]* @_ZL3Te3, i64 0, i64 %440
  %442 = load i64, i64* %441, align 8
  %443 = xor i64 %438, %442
  %444 = load i64*, i64** %9, align 8
  %445 = getelementptr inbounds i64, i64* %444, i64 15
  %446 = load i64, i64* %445, align 8
  %447 = xor i64 %443, %446
  store i64 %447, i64* %17, align 8
  %448 = load i64, i64* %14, align 8
  %449 = lshr i64 %448, 24
  %450 = getelementptr inbounds [256 x i64], [256 x i64]* @_ZL3Te0, i64 0, i64 %449
  %451 = load i64, i64* %450, align 8
  %452 = load i64, i64* %15, align 8
  %453 = lshr i64 %452, 16
  %454 = and i64 %453, 255
  %455 = getelementptr inbounds [256 x i64], [256 x i64]* @_ZL3Te1, i64 0, i64 %454
  %456 = load i64, i64* %455, align 8
  %457 = xor i64 %451, %456
  %458 = load i64, i64* %16, align 8
  %459 = lshr i64 %458, 8
  %460 = and i64 %459, 255
  %461 = getelementptr inbounds [256 x i64], [256 x i64]* @_ZL3Te2, i64 0, i64 %460
  %462 = load i64, i64* %461, align 8
  %463 = xor i64 %457, %462
  %464 = load i64, i64* %17, align 8
  %465 = and i64 %464, 255
  %466 = getelementptr inbounds [256 x i64], [256 x i64]* @_ZL3Te3, i64 0, i64 %465
  %467 = load i64, i64* %466, align 8
  %468 = xor i64 %463, %467
  %469 = load i64*, i64** %9, align 8
  %470 = getelementptr inbounds i64, i64* %469, i64 16
  %471 = load i64, i64* %470, align 8
  %472 = xor i64 %468, %471
  store i64 %472, i64* %10, align 8
  %473 = load i64, i64* %15, align 8
  %474 = lshr i64 %473, 24
  %475 = getelementptr inbounds [256 x i64], [256 x i64]* @_ZL3Te0, i64 0, i64 %474
  %476 = load i64, i64* %475, align 8
  %477 = load i64, i64* %16, align 8
  %478 = lshr i64 %477, 16
  %479 = and i64 %478, 255
  %480 = getelementptr inbounds [256 x i64], [256 x i64]* @_ZL3Te1, i64 0, i64 %479
  %481 = load i64, i64* %480, align 8
  %482 = xor i64 %476, %481
  %483 = load i64, i64* %17, align 8
  %484 = lshr i64 %483, 8
  %485 = and i64 %484, 255
  %486 = getelementptr inbounds [256 x i64], [256 x i64]* @_ZL3Te2, i64 0, i64 %485
  %487 = load i64, i64* %486, align 8
  %488 = xor i64 %482, %487
  %489 = load i64, i64* %14, align 8
  %490 = and i64 %489, 255
  %491 = getelementptr inbounds [256 x i64], [256 x i64]* @_ZL3Te3, i64 0, i64 %490
  %492 = load i64, i64* %491, align 8
  %493 = xor i64 %488, %492
  %494 = load i64*, i64** %9, align 8
  %495 = getelementptr inbounds i64, i64* %494, i64 17
  %496 = load i64, i64* %495, align 8
  %497 = xor i64 %493, %496
  store i64 %497, i64* %11, align 8
  %498 = load i64, i64* %16, align 8
  %499 = lshr i64 %498, 24
  %500 = getelementptr inbounds [256 x i64], [256 x i64]* @_ZL3Te0, i64 0, i64 %499
  %501 = load i64, i64* %500, align 8
  %502 = load i64, i64* %17, align 8
  %503 = lshr i64 %502, 16
  %504 = and i64 %503, 255
  %505 = getelementptr inbounds [256 x i64], [256 x i64]* @_ZL3Te1, i64 0, i64 %504
  %506 = load i64, i64* %505, align 8
  %507 = xor i64 %501, %506
  %508 = load i64, i64* %14, align 8
  %509 = lshr i64 %508, 8
  %510 = and i64 %509, 255
  %511 = getelementptr inbounds [256 x i64], [256 x i64]* @_ZL3Te2, i64 0, i64 %510
  %512 = load i64, i64* %511, align 8
  %513 = xor i64 %507, %512
  %514 = load i64, i64* %15, align 8
  %515 = and i64 %514, 255
  %516 = getelementptr inbounds [256 x i64], [256 x i64]* @_ZL3Te3, i64 0, i64 %515
  %517 = load i64, i64* %516, align 8
  %518 = xor i64 %513, %517
  %519 = load i64*, i64** %9, align 8
  %520 = getelementptr inbounds i64, i64* %519, i64 18
  %521 = load i64, i64* %520, align 8
  %522 = xor i64 %518, %521
  store i64 %522, i64* %12, align 8
  %523 = load i64, i64* %17, align 8
  %524 = lshr i64 %523, 24
  %525 = getelementptr inbounds [256 x i64], [256 x i64]* @_ZL3Te0, i64 0, i64 %524
  %526 = load i64, i64* %525, align 8
  %527 = load i64, i64* %14, align 8
  %528 = lshr i64 %527, 16
  %529 = and i64 %528, 255
  %530 = getelementptr inbounds [256 x i64], [256 x i64]* @_ZL3Te1, i64 0, i64 %529
  %531 = load i64, i64* %530, align 8
  %532 = xor i64 %526, %531
  %533 = load i64, i64* %15, align 8
  %534 = lshr i64 %533, 8
  %535 = and i64 %534, 255
  %536 = getelementptr inbounds [256 x i64], [256 x i64]* @_ZL3Te2, i64 0, i64 %535
  %537 = load i64, i64* %536, align 8
  %538 = xor i64 %532, %537
  %539 = load i64, i64* %16, align 8
  %540 = and i64 %539, 255
  %541 = getelementptr inbounds [256 x i64], [256 x i64]* @_ZL3Te3, i64 0, i64 %540
  %542 = load i64, i64* %541, align 8
  %543 = xor i64 %538, %542
  %544 = load i64*, i64** %9, align 8
  %545 = getelementptr inbounds i64, i64* %544, i64 19
  %546 = load i64, i64* %545, align 8
  %547 = xor i64 %543, %546
  store i64 %547, i64* %13, align 8
  %548 = load i64, i64* %10, align 8
  %549 = lshr i64 %548, 24
  %550 = getelementptr inbounds [256 x i64], [256 x i64]* @_ZL3Te0, i64 0, i64 %549
  %551 = load i64, i64* %550, align 8
  %552 = load i64, i64* %11, align 8
  %553 = lshr i64 %552, 16
  %554 = and i64 %553, 255
  %555 = getelementptr inbounds [256 x i64], [256 x i64]* @_ZL3Te1, i64 0, i64 %554
  %556 = load i64, i64* %555, align 8
  %557 = xor i64 %551, %556
  %558 = load i64, i64* %12, align 8
  %559 = lshr i64 %558, 8
  %560 = and i64 %559, 255
  %561 = getelementptr inbounds [256 x i64], [256 x i64]* @_ZL3Te2, i64 0, i64 %560
  %562 = load i64, i64* %561, align 8
  %563 = xor i64 %557, %562
  %564 = load i64, i64* %13, align 8
  %565 = and i64 %564, 255
  %566 = getelementptr inbounds [256 x i64], [256 x i64]* @_ZL3Te3, i64 0, i64 %565
  %567 = load i64, i64* %566, align 8
  %568 = xor i64 %563, %567
  %569 = load i64*, i64** %9, align 8
  %570 = getelementptr inbounds i64, i64* %569, i64 20
  %571 = load i64, i64* %570, align 8
  %572 = xor i64 %568, %571
  store i64 %572, i64* %14, align 8
  %573 = load i64, i64* %11, align 8
  %574 = lshr i64 %573, 24
  %575 = getelementptr inbounds [256 x i64], [256 x i64]* @_ZL3Te0, i64 0, i64 %574
  %576 = load i64, i64* %575, align 8
  %577 = load i64, i64* %12, align 8
  %578 = lshr i64 %577, 16
  %579 = and i64 %578, 255
  %580 = getelementptr inbounds [256 x i64], [256 x i64]* @_ZL3Te1, i64 0, i64 %579
  %581 = load i64, i64* %580, align 8
  %582 = xor i64 %576, %581
  %583 = load i64, i64* %13, align 8
  %584 = lshr i64 %583, 8
  %585 = and i64 %584, 255
  %586 = getelementptr inbounds [256 x i64], [256 x i64]* @_ZL3Te2, i64 0, i64 %585
  %587 = load i64, i64* %586, align 8
  %588 = xor i64 %582, %587
  %589 = load i64, i64* %10, align 8
  %590 = and i64 %589, 255
  %591 = getelementptr inbounds [256 x i64], [256 x i64]* @_ZL3Te3, i64 0, i64 %590
  %592 = load i64, i64* %591, align 8
  %593 = xor i64 %588, %592
  %594 = load i64*, i64** %9, align 8
  %595 = getelementptr inbounds i64, i64* %594, i64 21
  %596 = load i64, i64* %595, align 8
  %597 = xor i64 %593, %596
  store i64 %597, i64* %15, align 8
  %598 = load i64, i64* %12, align 8
  %599 = lshr i64 %598, 24
  %600 = getelementptr inbounds [256 x i64], [256 x i64]* @_ZL3Te0, i64 0, i64 %599
  %601 = load i64, i64* %600, align 8
  %602 = load i64, i64* %13, align 8
  %603 = lshr i64 %602, 16
  %604 = and i64 %603, 255
  %605 = getelementptr inbounds [256 x i64], [256 x i64]* @_ZL3Te1, i64 0, i64 %604
  %606 = load i64, i64* %605, align 8
  %607 = xor i64 %601, %606
  %608 = load i64, i64* %10, align 8
  %609 = lshr i64 %608, 8
  %610 = and i64 %609, 255
  %611 = getelementptr inbounds [256 x i64], [256 x i64]* @_ZL3Te2, i64 0, i64 %610
  %612 = load i64, i64* %611, align 8
  %613 = xor i64 %607, %612
  %614 = load i64, i64* %11, align 8
  %615 = and i64 %614, 255
  %616 = getelementptr inbounds [256 x i64], [256 x i64]* @_ZL3Te3, i64 0, i64 %615
  %617 = load i64, i64* %616, align 8
  %618 = xor i64 %613, %617
  %619 = load i64*, i64** %9, align 8
  %620 = getelementptr inbounds i64, i64* %619, i64 22
  %621 = load i64, i64* %620, align 8
  %622 = xor i64 %618, %621
  store i64 %622, i64* %16, align 8
  %623 = load i64, i64* %13, align 8
  %624 = lshr i64 %623, 24
  %625 = getelementptr inbounds [256 x i64], [256 x i64]* @_ZL3Te0, i64 0, i64 %624
  %626 = load i64, i64* %625, align 8
  %627 = load i64, i64* %10, align 8
  %628 = lshr i64 %627, 16
  %629 = and i64 %628, 255
  %630 = getelementptr inbounds [256 x i64], [256 x i64]* @_ZL3Te1, i64 0, i64 %629
  %631 = load i64, i64* %630, align 8
  %632 = xor i64 %626, %631
  %633 = load i64, i64* %11, align 8
  %634 = lshr i64 %633, 8
  %635 = and i64 %634, 255
  %636 = getelementptr inbounds [256 x i64], [256 x i64]* @_ZL3Te2, i64 0, i64 %635
  %637 = load i64, i64* %636, align 8
  %638 = xor i64 %632, %637
  %639 = load i64, i64* %12, align 8
  %640 = and i64 %639, 255
  %641 = getelementptr inbounds [256 x i64], [256 x i64]* @_ZL3Te3, i64 0, i64 %640
  %642 = load i64, i64* %641, align 8
  %643 = xor i64 %638, %642
  %644 = load i64*, i64** %9, align 8
  %645 = getelementptr inbounds i64, i64* %644, i64 23
  %646 = load i64, i64* %645, align 8
  %647 = xor i64 %643, %646
  store i64 %647, i64* %17, align 8
  %648 = load i64, i64* %14, align 8
  %649 = lshr i64 %648, 24
  %650 = getelementptr inbounds [256 x i64], [256 x i64]* @_ZL3Te0, i64 0, i64 %649
  %651 = load i64, i64* %650, align 8
  %652 = load i64, i64* %15, align 8
  %653 = lshr i64 %652, 16
  %654 = and i64 %653, 255
  %655 = getelementptr inbounds [256 x i64], [256 x i64]* @_ZL3Te1, i64 0, i64 %654
  %656 = load i64, i64* %655, align 8
  %657 = xor i64 %651, %656
  %658 = load i64, i64* %16, align 8
  %659 = lshr i64 %658, 8
  %660 = and i64 %659, 255
  %661 = getelementptr inbounds [256 x i64], [256 x i64]* @_ZL3Te2, i64 0, i64 %660
  %662 = load i64, i64* %661, align 8
  %663 = xor i64 %657, %662
  %664 = load i64, i64* %17, align 8
  %665 = and i64 %664, 255
  %666 = getelementptr inbounds [256 x i64], [256 x i64]* @_ZL3Te3, i64 0, i64 %665
  %667 = load i64, i64* %666, align 8
  %668 = xor i64 %663, %667
  %669 = load i64*, i64** %9, align 8
  %670 = getelementptr inbounds i64, i64* %669, i64 24
  %671 = load i64, i64* %670, align 8
  %672 = xor i64 %668, %671
  store i64 %672, i64* %10, align 8
  %673 = load i64, i64* %15, align 8
  %674 = lshr i64 %673, 24
  %675 = getelementptr inbounds [256 x i64], [256 x i64]* @_ZL3Te0, i64 0, i64 %674
  %676 = load i64, i64* %675, align 8
  %677 = load i64, i64* %16, align 8
  %678 = lshr i64 %677, 16
  %679 = and i64 %678, 255
  %680 = getelementptr inbounds [256 x i64], [256 x i64]* @_ZL3Te1, i64 0, i64 %679
  %681 = load i64, i64* %680, align 8
  %682 = xor i64 %676, %681
  %683 = load i64, i64* %17, align 8
  %684 = lshr i64 %683, 8
  %685 = and i64 %684, 255
  %686 = getelementptr inbounds [256 x i64], [256 x i64]* @_ZL3Te2, i64 0, i64 %685
  %687 = load i64, i64* %686, align 8
  %688 = xor i64 %682, %687
  %689 = load i64, i64* %14, align 8
  %690 = and i64 %689, 255
  %691 = getelementptr inbounds [256 x i64], [256 x i64]* @_ZL3Te3, i64 0, i64 %690
  %692 = load i64, i64* %691, align 8
  %693 = xor i64 %688, %692
  %694 = load i64*, i64** %9, align 8
  %695 = getelementptr inbounds i64, i64* %694, i64 25
  %696 = load i64, i64* %695, align 8
  %697 = xor i64 %693, %696
  store i64 %697, i64* %11, align 8
  %698 = load i64, i64* %16, align 8
  %699 = lshr i64 %698, 24
  %700 = getelementptr inbounds [256 x i64], [256 x i64]* @_ZL3Te0, i64 0, i64 %699
  %701 = load i64, i64* %700, align 8
  %702 = load i64, i64* %17, align 8
  %703 = lshr i64 %702, 16
  %704 = and i64 %703, 255
  %705 = getelementptr inbounds [256 x i64], [256 x i64]* @_ZL3Te1, i64 0, i64 %704
  %706 = load i64, i64* %705, align 8
  %707 = xor i64 %701, %706
  %708 = load i64, i64* %14, align 8
  %709 = lshr i64 %708, 8
  %710 = and i64 %709, 255
  %711 = getelementptr inbounds [256 x i64], [256 x i64]* @_ZL3Te2, i64 0, i64 %710
  %712 = load i64, i64* %711, align 8
  %713 = xor i64 %707, %712
  %714 = load i64, i64* %15, align 8
  %715 = and i64 %714, 255
  %716 = getelementptr inbounds [256 x i64], [256 x i64]* @_ZL3Te3, i64 0, i64 %715
  %717 = load i64, i64* %716, align 8
  %718 = xor i64 %713, %717
  %719 = load i64*, i64** %9, align 8
  %720 = getelementptr inbounds i64, i64* %719, i64 26
  %721 = load i64, i64* %720, align 8
  %722 = xor i64 %718, %721
  store i64 %722, i64* %12, align 8
  %723 = load i64, i64* %17, align 8
  %724 = lshr i64 %723, 24
  %725 = getelementptr inbounds [256 x i64], [256 x i64]* @_ZL3Te0, i64 0, i64 %724
  %726 = load i64, i64* %725, align 8
  %727 = load i64, i64* %14, align 8
  %728 = lshr i64 %727, 16
  %729 = and i64 %728, 255
  %730 = getelementptr inbounds [256 x i64], [256 x i64]* @_ZL3Te1, i64 0, i64 %729
  %731 = load i64, i64* %730, align 8
  %732 = xor i64 %726, %731
  %733 = load i64, i64* %15, align 8
  %734 = lshr i64 %733, 8
  %735 = and i64 %734, 255
  %736 = getelementptr inbounds [256 x i64], [256 x i64]* @_ZL3Te2, i64 0, i64 %735
  %737 = load i64, i64* %736, align 8
  %738 = xor i64 %732, %737
  %739 = load i64, i64* %16, align 8
  %740 = and i64 %739, 255
  %741 = getelementptr inbounds [256 x i64], [256 x i64]* @_ZL3Te3, i64 0, i64 %740
  %742 = load i64, i64* %741, align 8
  %743 = xor i64 %738, %742
  %744 = load i64*, i64** %9, align 8
  %745 = getelementptr inbounds i64, i64* %744, i64 27
  %746 = load i64, i64* %745, align 8
  %747 = xor i64 %743, %746
  store i64 %747, i64* %13, align 8
  %748 = load i64, i64* %10, align 8
  %749 = lshr i64 %748, 24
  %750 = getelementptr inbounds [256 x i64], [256 x i64]* @_ZL3Te0, i64 0, i64 %749
  %751 = load i64, i64* %750, align 8
  %752 = load i64, i64* %11, align 8
  %753 = lshr i64 %752, 16
  %754 = and i64 %753, 255
  %755 = getelementptr inbounds [256 x i64], [256 x i64]* @_ZL3Te1, i64 0, i64 %754
  %756 = load i64, i64* %755, align 8
  %757 = xor i64 %751, %756
  %758 = load i64, i64* %12, align 8
  %759 = lshr i64 %758, 8
  %760 = and i64 %759, 255
  %761 = getelementptr inbounds [256 x i64], [256 x i64]* @_ZL3Te2, i64 0, i64 %760
  %762 = load i64, i64* %761, align 8
  %763 = xor i64 %757, %762
  %764 = load i64, i64* %13, align 8
  %765 = and i64 %764, 255
  %766 = getelementptr inbounds [256 x i64], [256 x i64]* @_ZL3Te3, i64 0, i64 %765
  %767 = load i64, i64* %766, align 8
  %768 = xor i64 %763, %767
  %769 = load i64*, i64** %9, align 8
  %770 = getelementptr inbounds i64, i64* %769, i64 28
  %771 = load i64, i64* %770, align 8
  %772 = xor i64 %768, %771
  store i64 %772, i64* %14, align 8
  %773 = load i64, i64* %11, align 8
  %774 = lshr i64 %773, 24
  %775 = getelementptr inbounds [256 x i64], [256 x i64]* @_ZL3Te0, i64 0, i64 %774
  %776 = load i64, i64* %775, align 8
  %777 = load i64, i64* %12, align 8
  %778 = lshr i64 %777, 16
  %779 = and i64 %778, 255
  %780 = getelementptr inbounds [256 x i64], [256 x i64]* @_ZL3Te1, i64 0, i64 %779
  %781 = load i64, i64* %780, align 8
  %782 = xor i64 %776, %781
  %783 = load i64, i64* %13, align 8
  %784 = lshr i64 %783, 8
  %785 = and i64 %784, 255
  %786 = getelementptr inbounds [256 x i64], [256 x i64]* @_ZL3Te2, i64 0, i64 %785
  %787 = load i64, i64* %786, align 8
  %788 = xor i64 %782, %787
  %789 = load i64, i64* %10, align 8
  %790 = and i64 %789, 255
  %791 = getelementptr inbounds [256 x i64], [256 x i64]* @_ZL3Te3, i64 0, i64 %790
  %792 = load i64, i64* %791, align 8
  %793 = xor i64 %788, %792
  %794 = load i64*, i64** %9, align 8
  %795 = getelementptr inbounds i64, i64* %794, i64 29
  %796 = load i64, i64* %795, align 8
  %797 = xor i64 %793, %796
  store i64 %797, i64* %15, align 8
  %798 = load i64, i64* %12, align 8
  %799 = lshr i64 %798, 24
  %800 = getelementptr inbounds [256 x i64], [256 x i64]* @_ZL3Te0, i64 0, i64 %799
  %801 = load i64, i64* %800, align 8
  %802 = load i64, i64* %13, align 8
  %803 = lshr i64 %802, 16
  %804 = and i64 %803, 255
  %805 = getelementptr inbounds [256 x i64], [256 x i64]* @_ZL3Te1, i64 0, i64 %804
  %806 = load i64, i64* %805, align 8
  %807 = xor i64 %801, %806
  %808 = load i64, i64* %10, align 8
  %809 = lshr i64 %808, 8
  %810 = and i64 %809, 255
  %811 = getelementptr inbounds [256 x i64], [256 x i64]* @_ZL3Te2, i64 0, i64 %810
  %812 = load i64, i64* %811, align 8
  %813 = xor i64 %807, %812
  %814 = load i64, i64* %11, align 8
  %815 = and i64 %814, 255
  %816 = getelementptr inbounds [256 x i64], [256 x i64]* @_ZL3Te3, i64 0, i64 %815
  %817 = load i64, i64* %816, align 8
  %818 = xor i64 %813, %817
  %819 = load i64*, i64** %9, align 8
  %820 = getelementptr inbounds i64, i64* %819, i64 30
  %821 = load i64, i64* %820, align 8
  %822 = xor i64 %818, %821
  store i64 %822, i64* %16, align 8
  %823 = load i64, i64* %13, align 8
  %824 = lshr i64 %823, 24
  %825 = getelementptr inbounds [256 x i64], [256 x i64]* @_ZL3Te0, i64 0, i64 %824
  %826 = load i64, i64* %825, align 8
  %827 = load i64, i64* %10, align 8
  %828 = lshr i64 %827, 16
  %829 = and i64 %828, 255
  %830 = getelementptr inbounds [256 x i64], [256 x i64]* @_ZL3Te1, i64 0, i64 %829
  %831 = load i64, i64* %830, align 8
  %832 = xor i64 %826, %831
  %833 = load i64, i64* %11, align 8
  %834 = lshr i64 %833, 8
  %835 = and i64 %834, 255
  %836 = getelementptr inbounds [256 x i64], [256 x i64]* @_ZL3Te2, i64 0, i64 %835
  %837 = load i64, i64* %836, align 8
  %838 = xor i64 %832, %837
  %839 = load i64, i64* %12, align 8
  %840 = and i64 %839, 255
  %841 = getelementptr inbounds [256 x i64], [256 x i64]* @_ZL3Te3, i64 0, i64 %840
  %842 = load i64, i64* %841, align 8
  %843 = xor i64 %838, %842
  %844 = load i64*, i64** %9, align 8
  %845 = getelementptr inbounds i64, i64* %844, i64 31
  %846 = load i64, i64* %845, align 8
  %847 = xor i64 %843, %846
  store i64 %847, i64* %17, align 8
  %848 = load i64, i64* %14, align 8
  %849 = lshr i64 %848, 24
  %850 = getelementptr inbounds [256 x i64], [256 x i64]* @_ZL3Te0, i64 0, i64 %849
  %851 = load i64, i64* %850, align 8
  %852 = load i64, i64* %15, align 8
  %853 = lshr i64 %852, 16
  %854 = and i64 %853, 255
  %855 = getelementptr inbounds [256 x i64], [256 x i64]* @_ZL3Te1, i64 0, i64 %854
  %856 = load i64, i64* %855, align 8
  %857 = xor i64 %851, %856
  %858 = load i64, i64* %16, align 8
  %859 = lshr i64 %858, 8
  %860 = and i64 %859, 255
  %861 = getelementptr inbounds [256 x i64], [256 x i64]* @_ZL3Te2, i64 0, i64 %860
  %862 = load i64, i64* %861, align 8
  %863 = xor i64 %857, %862
  %864 = load i64, i64* %17, align 8
  %865 = and i64 %864, 255
  %866 = getelementptr inbounds [256 x i64], [256 x i64]* @_ZL3Te3, i64 0, i64 %865
  %867 = load i64, i64* %866, align 8
  %868 = xor i64 %863, %867
  %869 = load i64*, i64** %9, align 8
  %870 = getelementptr inbounds i64, i64* %869, i64 32
  %871 = load i64, i64* %870, align 8
  %872 = xor i64 %868, %871
  store i64 %872, i64* %10, align 8
  %873 = load i64, i64* %15, align 8
  %874 = lshr i64 %873, 24
  %875 = getelementptr inbounds [256 x i64], [256 x i64]* @_ZL3Te0, i64 0, i64 %874
  %876 = load i64, i64* %875, align 8
  %877 = load i64, i64* %16, align 8
  %878 = lshr i64 %877, 16
  %879 = and i64 %878, 255
  %880 = getelementptr inbounds [256 x i64], [256 x i64]* @_ZL3Te1, i64 0, i64 %879
  %881 = load i64, i64* %880, align 8
  %882 = xor i64 %876, %881
  %883 = load i64, i64* %17, align 8
  %884 = lshr i64 %883, 8
  %885 = and i64 %884, 255
  %886 = getelementptr inbounds [256 x i64], [256 x i64]* @_ZL3Te2, i64 0, i64 %885
  %887 = load i64, i64* %886, align 8
  %888 = xor i64 %882, %887
  %889 = load i64, i64* %14, align 8
  %890 = and i64 %889, 255
  %891 = getelementptr inbounds [256 x i64], [256 x i64]* @_ZL3Te3, i64 0, i64 %890
  %892 = load i64, i64* %891, align 8
  %893 = xor i64 %888, %892
  %894 = load i64*, i64** %9, align 8
  %895 = getelementptr inbounds i64, i64* %894, i64 33
  %896 = load i64, i64* %895, align 8
  %897 = xor i64 %893, %896
  store i64 %897, i64* %11, align 8
  %898 = load i64, i64* %16, align 8
  %899 = lshr i64 %898, 24
  %900 = getelementptr inbounds [256 x i64], [256 x i64]* @_ZL3Te0, i64 0, i64 %899
  %901 = load i64, i64* %900, align 8
  %902 = load i64, i64* %17, align 8
  %903 = lshr i64 %902, 16
  %904 = and i64 %903, 255
  %905 = getelementptr inbounds [256 x i64], [256 x i64]* @_ZL3Te1, i64 0, i64 %904
  %906 = load i64, i64* %905, align 8
  %907 = xor i64 %901, %906
  %908 = load i64, i64* %14, align 8
  %909 = lshr i64 %908, 8
  %910 = and i64 %909, 255
  %911 = getelementptr inbounds [256 x i64], [256 x i64]* @_ZL3Te2, i64 0, i64 %910
  %912 = load i64, i64* %911, align 8
  %913 = xor i64 %907, %912
  %914 = load i64, i64* %15, align 8
  %915 = and i64 %914, 255
  %916 = getelementptr inbounds [256 x i64], [256 x i64]* @_ZL3Te3, i64 0, i64 %915
  %917 = load i64, i64* %916, align 8
  %918 = xor i64 %913, %917
  %919 = load i64*, i64** %9, align 8
  %920 = getelementptr inbounds i64, i64* %919, i64 34
  %921 = load i64, i64* %920, align 8
  %922 = xor i64 %918, %921
  store i64 %922, i64* %12, align 8
  %923 = load i64, i64* %17, align 8
  %924 = lshr i64 %923, 24
  %925 = getelementptr inbounds [256 x i64], [256 x i64]* @_ZL3Te0, i64 0, i64 %924
  %926 = load i64, i64* %925, align 8
  %927 = load i64, i64* %14, align 8
  %928 = lshr i64 %927, 16
  %929 = and i64 %928, 255
  %930 = getelementptr inbounds [256 x i64], [256 x i64]* @_ZL3Te1, i64 0, i64 %929
  %931 = load i64, i64* %930, align 8
  %932 = xor i64 %926, %931
  %933 = load i64, i64* %15, align 8
  %934 = lshr i64 %933, 8
  %935 = and i64 %934, 255
  %936 = getelementptr inbounds [256 x i64], [256 x i64]* @_ZL3Te2, i64 0, i64 %935
  %937 = load i64, i64* %936, align 8
  %938 = xor i64 %932, %937
  %939 = load i64, i64* %16, align 8
  %940 = and i64 %939, 255
  %941 = getelementptr inbounds [256 x i64], [256 x i64]* @_ZL3Te3, i64 0, i64 %940
  %942 = load i64, i64* %941, align 8
  %943 = xor i64 %938, %942
  %944 = load i64*, i64** %9, align 8
  %945 = getelementptr inbounds i64, i64* %944, i64 35
  %946 = load i64, i64* %945, align 8
  %947 = xor i64 %943, %946
  store i64 %947, i64* %13, align 8
  %948 = load i64, i64* %10, align 8
  %949 = lshr i64 %948, 24
  %950 = getelementptr inbounds [256 x i64], [256 x i64]* @_ZL3Te0, i64 0, i64 %949
  %951 = load i64, i64* %950, align 8
  %952 = load i64, i64* %11, align 8
  %953 = lshr i64 %952, 16
  %954 = and i64 %953, 255
  %955 = getelementptr inbounds [256 x i64], [256 x i64]* @_ZL3Te1, i64 0, i64 %954
  %956 = load i64, i64* %955, align 8
  %957 = xor i64 %951, %956
  %958 = load i64, i64* %12, align 8
  %959 = lshr i64 %958, 8
  %960 = and i64 %959, 255
  %961 = getelementptr inbounds [256 x i64], [256 x i64]* @_ZL3Te2, i64 0, i64 %960
  %962 = load i64, i64* %961, align 8
  %963 = xor i64 %957, %962
  %964 = load i64, i64* %13, align 8
  %965 = and i64 %964, 255
  %966 = getelementptr inbounds [256 x i64], [256 x i64]* @_ZL3Te3, i64 0, i64 %965
  %967 = load i64, i64* %966, align 8
  %968 = xor i64 %963, %967
  %969 = load i64*, i64** %9, align 8
  %970 = getelementptr inbounds i64, i64* %969, i64 36
  %971 = load i64, i64* %970, align 8
  %972 = xor i64 %968, %971
  store i64 %972, i64* %14, align 8
  %973 = load i64, i64* %11, align 8
  %974 = lshr i64 %973, 24
  %975 = getelementptr inbounds [256 x i64], [256 x i64]* @_ZL3Te0, i64 0, i64 %974
  %976 = load i64, i64* %975, align 8
  %977 = load i64, i64* %12, align 8
  %978 = lshr i64 %977, 16
  %979 = and i64 %978, 255
  %980 = getelementptr inbounds [256 x i64], [256 x i64]* @_ZL3Te1, i64 0, i64 %979
  %981 = load i64, i64* %980, align 8
  %982 = xor i64 %976, %981
  %983 = load i64, i64* %13, align 8
  %984 = lshr i64 %983, 8
  %985 = and i64 %984, 255
  %986 = getelementptr inbounds [256 x i64], [256 x i64]* @_ZL3Te2, i64 0, i64 %985
  %987 = load i64, i64* %986, align 8
  %988 = xor i64 %982, %987
  %989 = load i64, i64* %10, align 8
  %990 = and i64 %989, 255
  %991 = getelementptr inbounds [256 x i64], [256 x i64]* @_ZL3Te3, i64 0, i64 %990
  %992 = load i64, i64* %991, align 8
  %993 = xor i64 %988, %992
  %994 = load i64*, i64** %9, align 8
  %995 = getelementptr inbounds i64, i64* %994, i64 37
  %996 = load i64, i64* %995, align 8
  %997 = xor i64 %993, %996
  store i64 %997, i64* %15, align 8
  %998 = load i64, i64* %12, align 8
  %999 = lshr i64 %998, 24
  %1000 = getelementptr inbounds [256 x i64], [256 x i64]* @_ZL3Te0, i64 0, i64 %999
  %1001 = load i64, i64* %1000, align 8
  %1002 = load i64, i64* %13, align 8
  %1003 = lshr i64 %1002, 16
  %1004 = and i64 %1003, 255
  %1005 = getelementptr inbounds [256 x i64], [256 x i64]* @_ZL3Te1, i64 0, i64 %1004
  %1006 = load i64, i64* %1005, align 8
  %1007 = xor i64 %1001, %1006
  %1008 = load i64, i64* %10, align 8
  %1009 = lshr i64 %1008, 8
  %1010 = and i64 %1009, 255
  %1011 = getelementptr inbounds [256 x i64], [256 x i64]* @_ZL3Te2, i64 0, i64 %1010
  %1012 = load i64, i64* %1011, align 8
  %1013 = xor i64 %1007, %1012
  %1014 = load i64, i64* %11, align 8
  %1015 = and i64 %1014, 255
  %1016 = getelementptr inbounds [256 x i64], [256 x i64]* @_ZL3Te3, i64 0, i64 %1015
  %1017 = load i64, i64* %1016, align 8
  %1018 = xor i64 %1013, %1017
  %1019 = load i64*, i64** %9, align 8
  %1020 = getelementptr inbounds i64, i64* %1019, i64 38
  %1021 = load i64, i64* %1020, align 8
  %1022 = xor i64 %1018, %1021
  store i64 %1022, i64* %16, align 8
  %1023 = load i64, i64* %13, align 8
  %1024 = lshr i64 %1023, 24
  %1025 = getelementptr inbounds [256 x i64], [256 x i64]* @_ZL3Te0, i64 0, i64 %1024
  %1026 = load i64, i64* %1025, align 8
  %1027 = load i64, i64* %10, align 8
  %1028 = lshr i64 %1027, 16
  %1029 = and i64 %1028, 255
  %1030 = getelementptr inbounds [256 x i64], [256 x i64]* @_ZL3Te1, i64 0, i64 %1029
  %1031 = load i64, i64* %1030, align 8
  %1032 = xor i64 %1026, %1031
  %1033 = load i64, i64* %11, align 8
  %1034 = lshr i64 %1033, 8
  %1035 = and i64 %1034, 255
  %1036 = getelementptr inbounds [256 x i64], [256 x i64]* @_ZL3Te2, i64 0, i64 %1035
  %1037 = load i64, i64* %1036, align 8
  %1038 = xor i64 %1032, %1037
  %1039 = load i64, i64* %12, align 8
  %1040 = and i64 %1039, 255
  %1041 = getelementptr inbounds [256 x i64], [256 x i64]* @_ZL3Te3, i64 0, i64 %1040
  %1042 = load i64, i64* %1041, align 8
  %1043 = xor i64 %1038, %1042
  %1044 = load i64*, i64** %9, align 8
  %1045 = getelementptr inbounds i64, i64* %1044, i64 39
  %1046 = load i64, i64* %1045, align 8
  %1047 = xor i64 %1043, %1046
  store i64 %1047, i64* %17, align 8
  %1048 = load %struct.aes_key_st*, %struct.aes_key_st** %8, align 8
  %1049 = getelementptr inbounds %struct.aes_key_st, %struct.aes_key_st* %1048, i32 0, i32 1
  %1050 = load i32, i32* %1049, align 8
  %1051 = icmp sgt i32 %1050, 10
  br i1 %1051, label %1052, label %1459

; <label>:1052:                                   ; preds = %28
  %1053 = load i64, i64* %14, align 8
  %1054 = lshr i64 %1053, 24
  %1055 = getelementptr inbounds [256 x i64], [256 x i64]* @_ZL3Te0, i64 0, i64 %1054
  %1056 = load i64, i64* %1055, align 8
  %1057 = load i64, i64* %15, align 8
  %1058 = lshr i64 %1057, 16
  %1059 = and i64 %1058, 255
  %1060 = getelementptr inbounds [256 x i64], [256 x i64]* @_ZL3Te1, i64 0, i64 %1059
  %1061 = load i64, i64* %1060, align 8
  %1062 = xor i64 %1056, %1061
  %1063 = load i64, i64* %16, align 8
  %1064 = lshr i64 %1063, 8
  %1065 = and i64 %1064, 255
  %1066 = getelementptr inbounds [256 x i64], [256 x i64]* @_ZL3Te2, i64 0, i64 %1065
  %1067 = load i64, i64* %1066, align 8
  %1068 = xor i64 %1062, %1067
  %1069 = load i64, i64* %17, align 8
  %1070 = and i64 %1069, 255
  %1071 = getelementptr inbounds [256 x i64], [256 x i64]* @_ZL3Te3, i64 0, i64 %1070
  %1072 = load i64, i64* %1071, align 8
  %1073 = xor i64 %1068, %1072
  %1074 = load i64*, i64** %9, align 8
  %1075 = getelementptr inbounds i64, i64* %1074, i64 40
  %1076 = load i64, i64* %1075, align 8
  %1077 = xor i64 %1073, %1076
  store i64 %1077, i64* %10, align 8
  %1078 = load i64, i64* %15, align 8
  %1079 = lshr i64 %1078, 24
  %1080 = getelementptr inbounds [256 x i64], [256 x i64]* @_ZL3Te0, i64 0, i64 %1079
  %1081 = load i64, i64* %1080, align 8
  %1082 = load i64, i64* %16, align 8
  %1083 = lshr i64 %1082, 16
  %1084 = and i64 %1083, 255
  %1085 = getelementptr inbounds [256 x i64], [256 x i64]* @_ZL3Te1, i64 0, i64 %1084
  %1086 = load i64, i64* %1085, align 8
  %1087 = xor i64 %1081, %1086
  %1088 = load i64, i64* %17, align 8
  %1089 = lshr i64 %1088, 8
  %1090 = and i64 %1089, 255
  %1091 = getelementptr inbounds [256 x i64], [256 x i64]* @_ZL3Te2, i64 0, i64 %1090
  %1092 = load i64, i64* %1091, align 8
  %1093 = xor i64 %1087, %1092
  %1094 = load i64, i64* %14, align 8
  %1095 = and i64 %1094, 255
  %1096 = getelementptr inbounds [256 x i64], [256 x i64]* @_ZL3Te3, i64 0, i64 %1095
  %1097 = load i64, i64* %1096, align 8
  %1098 = xor i64 %1093, %1097
  %1099 = load i64*, i64** %9, align 8
  %1100 = getelementptr inbounds i64, i64* %1099, i64 41
  %1101 = load i64, i64* %1100, align 8
  %1102 = xor i64 %1098, %1101
  store i64 %1102, i64* %11, align 8
  %1103 = load i64, i64* %16, align 8
  %1104 = lshr i64 %1103, 24
  %1105 = getelementptr inbounds [256 x i64], [256 x i64]* @_ZL3Te0, i64 0, i64 %1104
  %1106 = load i64, i64* %1105, align 8
  %1107 = load i64, i64* %17, align 8
  %1108 = lshr i64 %1107, 16
  %1109 = and i64 %1108, 255
  %1110 = getelementptr inbounds [256 x i64], [256 x i64]* @_ZL3Te1, i64 0, i64 %1109
  %1111 = load i64, i64* %1110, align 8
  %1112 = xor i64 %1106, %1111
  %1113 = load i64, i64* %14, align 8
  %1114 = lshr i64 %1113, 8
  %1115 = and i64 %1114, 255
  %1116 = getelementptr inbounds [256 x i64], [256 x i64]* @_ZL3Te2, i64 0, i64 %1115
  %1117 = load i64, i64* %1116, align 8
  %1118 = xor i64 %1112, %1117
  %1119 = load i64, i64* %15, align 8
  %1120 = and i64 %1119, 255
  %1121 = getelementptr inbounds [256 x i64], [256 x i64]* @_ZL3Te3, i64 0, i64 %1120
  %1122 = load i64, i64* %1121, align 8
  %1123 = xor i64 %1118, %1122
  %1124 = load i64*, i64** %9, align 8
  %1125 = getelementptr inbounds i64, i64* %1124, i64 42
  %1126 = load i64, i64* %1125, align 8
  %1127 = xor i64 %1123, %1126
  store i64 %1127, i64* %12, align 8
  %1128 = load i64, i64* %17, align 8
  %1129 = lshr i64 %1128, 24
  %1130 = getelementptr inbounds [256 x i64], [256 x i64]* @_ZL3Te0, i64 0, i64 %1129
  %1131 = load i64, i64* %1130, align 8
  %1132 = load i64, i64* %14, align 8
  %1133 = lshr i64 %1132, 16
  %1134 = and i64 %1133, 255
  %1135 = getelementptr inbounds [256 x i64], [256 x i64]* @_ZL3Te1, i64 0, i64 %1134
  %1136 = load i64, i64* %1135, align 8
  %1137 = xor i64 %1131, %1136
  %1138 = load i64, i64* %15, align 8
  %1139 = lshr i64 %1138, 8
  %1140 = and i64 %1139, 255
  %1141 = getelementptr inbounds [256 x i64], [256 x i64]* @_ZL3Te2, i64 0, i64 %1140
  %1142 = load i64, i64* %1141, align 8
  %1143 = xor i64 %1137, %1142
  %1144 = load i64, i64* %16, align 8
  %1145 = and i64 %1144, 255
  %1146 = getelementptr inbounds [256 x i64], [256 x i64]* @_ZL3Te3, i64 0, i64 %1145
  %1147 = load i64, i64* %1146, align 8
  %1148 = xor i64 %1143, %1147
  %1149 = load i64*, i64** %9, align 8
  %1150 = getelementptr inbounds i64, i64* %1149, i64 43
  %1151 = load i64, i64* %1150, align 8
  %1152 = xor i64 %1148, %1151
  store i64 %1152, i64* %13, align 8
  %1153 = load i64, i64* %10, align 8
  %1154 = lshr i64 %1153, 24
  %1155 = getelementptr inbounds [256 x i64], [256 x i64]* @_ZL3Te0, i64 0, i64 %1154
  %1156 = load i64, i64* %1155, align 8
  %1157 = load i64, i64* %11, align 8
  %1158 = lshr i64 %1157, 16
  %1159 = and i64 %1158, 255
  %1160 = getelementptr inbounds [256 x i64], [256 x i64]* @_ZL3Te1, i64 0, i64 %1159
  %1161 = load i64, i64* %1160, align 8
  %1162 = xor i64 %1156, %1161
  %1163 = load i64, i64* %12, align 8
  %1164 = lshr i64 %1163, 8
  %1165 = and i64 %1164, 255
  %1166 = getelementptr inbounds [256 x i64], [256 x i64]* @_ZL3Te2, i64 0, i64 %1165
  %1167 = load i64, i64* %1166, align 8
  %1168 = xor i64 %1162, %1167
  %1169 = load i64, i64* %13, align 8
  %1170 = and i64 %1169, 255
  %1171 = getelementptr inbounds [256 x i64], [256 x i64]* @_ZL3Te3, i64 0, i64 %1170
  %1172 = load i64, i64* %1171, align 8
  %1173 = xor i64 %1168, %1172
  %1174 = load i64*, i64** %9, align 8
  %1175 = getelementptr inbounds i64, i64* %1174, i64 44
  %1176 = load i64, i64* %1175, align 8
  %1177 = xor i64 %1173, %1176
  store i64 %1177, i64* %14, align 8
  %1178 = load i64, i64* %11, align 8
  %1179 = lshr i64 %1178, 24
  %1180 = getelementptr inbounds [256 x i64], [256 x i64]* @_ZL3Te0, i64 0, i64 %1179
  %1181 = load i64, i64* %1180, align 8
  %1182 = load i64, i64* %12, align 8
  %1183 = lshr i64 %1182, 16
  %1184 = and i64 %1183, 255
  %1185 = getelementptr inbounds [256 x i64], [256 x i64]* @_ZL3Te1, i64 0, i64 %1184
  %1186 = load i64, i64* %1185, align 8
  %1187 = xor i64 %1181, %1186
  %1188 = load i64, i64* %13, align 8
  %1189 = lshr i64 %1188, 8
  %1190 = and i64 %1189, 255
  %1191 = getelementptr inbounds [256 x i64], [256 x i64]* @_ZL3Te2, i64 0, i64 %1190
  %1192 = load i64, i64* %1191, align 8
  %1193 = xor i64 %1187, %1192
  %1194 = load i64, i64* %10, align 8
  %1195 = and i64 %1194, 255
  %1196 = getelementptr inbounds [256 x i64], [256 x i64]* @_ZL3Te3, i64 0, i64 %1195
  %1197 = load i64, i64* %1196, align 8
  %1198 = xor i64 %1193, %1197
  %1199 = load i64*, i64** %9, align 8
  %1200 = getelementptr inbounds i64, i64* %1199, i64 45
  %1201 = load i64, i64* %1200, align 8
  %1202 = xor i64 %1198, %1201
  store i64 %1202, i64* %15, align 8
  %1203 = load i64, i64* %12, align 8
  %1204 = lshr i64 %1203, 24
  %1205 = getelementptr inbounds [256 x i64], [256 x i64]* @_ZL3Te0, i64 0, i64 %1204
  %1206 = load i64, i64* %1205, align 8
  %1207 = load i64, i64* %13, align 8
  %1208 = lshr i64 %1207, 16
  %1209 = and i64 %1208, 255
  %1210 = getelementptr inbounds [256 x i64], [256 x i64]* @_ZL3Te1, i64 0, i64 %1209
  %1211 = load i64, i64* %1210, align 8
  %1212 = xor i64 %1206, %1211
  %1213 = load i64, i64* %10, align 8
  %1214 = lshr i64 %1213, 8
  %1215 = and i64 %1214, 255
  %1216 = getelementptr inbounds [256 x i64], [256 x i64]* @_ZL3Te2, i64 0, i64 %1215
  %1217 = load i64, i64* %1216, align 8
  %1218 = xor i64 %1212, %1217
  %1219 = load i64, i64* %11, align 8
  %1220 = and i64 %1219, 255
  %1221 = getelementptr inbounds [256 x i64], [256 x i64]* @_ZL3Te3, i64 0, i64 %1220
  %1222 = load i64, i64* %1221, align 8
  %1223 = xor i64 %1218, %1222
  %1224 = load i64*, i64** %9, align 8
  %1225 = getelementptr inbounds i64, i64* %1224, i64 46
  %1226 = load i64, i64* %1225, align 8
  %1227 = xor i64 %1223, %1226
  store i64 %1227, i64* %16, align 8
  %1228 = load i64, i64* %13, align 8
  %1229 = lshr i64 %1228, 24
  %1230 = getelementptr inbounds [256 x i64], [256 x i64]* @_ZL3Te0, i64 0, i64 %1229
  %1231 = load i64, i64* %1230, align 8
  %1232 = load i64, i64* %10, align 8
  %1233 = lshr i64 %1232, 16
  %1234 = and i64 %1233, 255
  %1235 = getelementptr inbounds [256 x i64], [256 x i64]* @_ZL3Te1, i64 0, i64 %1234
  %1236 = load i64, i64* %1235, align 8
  %1237 = xor i64 %1231, %1236
  %1238 = load i64, i64* %11, align 8
  %1239 = lshr i64 %1238, 8
  %1240 = and i64 %1239, 255
  %1241 = getelementptr inbounds [256 x i64], [256 x i64]* @_ZL3Te2, i64 0, i64 %1240
  %1242 = load i64, i64* %1241, align 8
  %1243 = xor i64 %1237, %1242
  %1244 = load i64, i64* %12, align 8
  %1245 = and i64 %1244, 255
  %1246 = getelementptr inbounds [256 x i64], [256 x i64]* @_ZL3Te3, i64 0, i64 %1245
  %1247 = load i64, i64* %1246, align 8
  %1248 = xor i64 %1243, %1247
  %1249 = load i64*, i64** %9, align 8
  %1250 = getelementptr inbounds i64, i64* %1249, i64 47
  %1251 = load i64, i64* %1250, align 8
  %1252 = xor i64 %1248, %1251
  store i64 %1252, i64* %17, align 8
  %1253 = load %struct.aes_key_st*, %struct.aes_key_st** %8, align 8
  %1254 = getelementptr inbounds %struct.aes_key_st, %struct.aes_key_st* %1253, i32 0, i32 1
  %1255 = load i32, i32* %1254, align 8
  %1256 = icmp sgt i32 %1255, 12
  br i1 %1256, label %1257, label %1458

; <label>:1257:                                   ; preds = %1052
  %1258 = load i64, i64* %14, align 8
  %1259 = lshr i64 %1258, 24
  %1260 = getelementptr inbounds [256 x i64], [256 x i64]* @_ZL3Te0, i64 0, i64 %1259
  %1261 = load i64, i64* %1260, align 8
  %1262 = load i64, i64* %15, align 8
  %1263 = lshr i64 %1262, 16
  %1264 = and i64 %1263, 255
  %1265 = getelementptr inbounds [256 x i64], [256 x i64]* @_ZL3Te1, i64 0, i64 %1264
  %1266 = load i64, i64* %1265, align 8
  %1267 = xor i64 %1261, %1266
  %1268 = load i64, i64* %16, align 8
  %1269 = lshr i64 %1268, 8
  %1270 = and i64 %1269, 255
  %1271 = getelementptr inbounds [256 x i64], [256 x i64]* @_ZL3Te2, i64 0, i64 %1270
  %1272 = load i64, i64* %1271, align 8
  %1273 = xor i64 %1267, %1272
  %1274 = load i64, i64* %17, align 8
  %1275 = and i64 %1274, 255
  %1276 = getelementptr inbounds [256 x i64], [256 x i64]* @_ZL3Te3, i64 0, i64 %1275
  %1277 = load i64, i64* %1276, align 8
  %1278 = xor i64 %1273, %1277
  %1279 = load i64*, i64** %9, align 8
  %1280 = getelementptr inbounds i64, i64* %1279, i64 48
  %1281 = load i64, i64* %1280, align 8
  %1282 = xor i64 %1278, %1281
  store i64 %1282, i64* %10, align 8
  %1283 = load i64, i64* %15, align 8
  %1284 = lshr i64 %1283, 24
  %1285 = getelementptr inbounds [256 x i64], [256 x i64]* @_ZL3Te0, i64 0, i64 %1284
  %1286 = load i64, i64* %1285, align 8
  %1287 = load i64, i64* %16, align 8
  %1288 = lshr i64 %1287, 16
  %1289 = and i64 %1288, 255
  %1290 = getelementptr inbounds [256 x i64], [256 x i64]* @_ZL3Te1, i64 0, i64 %1289
  %1291 = load i64, i64* %1290, align 8
  %1292 = xor i64 %1286, %1291
  %1293 = load i64, i64* %17, align 8
  %1294 = lshr i64 %1293, 8
  %1295 = and i64 %1294, 255
  %1296 = getelementptr inbounds [256 x i64], [256 x i64]* @_ZL3Te2, i64 0, i64 %1295
  %1297 = load i64, i64* %1296, align 8
  %1298 = xor i64 %1292, %1297
  %1299 = load i64, i64* %14, align 8
  %1300 = and i64 %1299, 255
  %1301 = getelementptr inbounds [256 x i64], [256 x i64]* @_ZL3Te3, i64 0, i64 %1300
  %1302 = load i64, i64* %1301, align 8
  %1303 = xor i64 %1298, %1302
  %1304 = load i64*, i64** %9, align 8
  %1305 = getelementptr inbounds i64, i64* %1304, i64 49
  %1306 = load i64, i64* %1305, align 8
  %1307 = xor i64 %1303, %1306
  store i64 %1307, i64* %11, align 8
  %1308 = load i64, i64* %16, align 8
  %1309 = lshr i64 %1308, 24
  %1310 = getelementptr inbounds [256 x i64], [256 x i64]* @_ZL3Te0, i64 0, i64 %1309
  %1311 = load i64, i64* %1310, align 8
  %1312 = load i64, i64* %17, align 8
  %1313 = lshr i64 %1312, 16
  %1314 = and i64 %1313, 255
  %1315 = getelementptr inbounds [256 x i64], [256 x i64]* @_ZL3Te1, i64 0, i64 %1314
  %1316 = load i64, i64* %1315, align 8
  %1317 = xor i64 %1311, %1316
  %1318 = load i64, i64* %14, align 8
  %1319 = lshr i64 %1318, 8
  %1320 = and i64 %1319, 255
  %1321 = getelementptr inbounds [256 x i64], [256 x i64]* @_ZL3Te2, i64 0, i64 %1320
  %1322 = load i64, i64* %1321, align 8
  %1323 = xor i64 %1317, %1322
  %1324 = load i64, i64* %15, align 8
  %1325 = and i64 %1324, 255
  %1326 = getelementptr inbounds [256 x i64], [256 x i64]* @_ZL3Te3, i64 0, i64 %1325
  %1327 = load i64, i64* %1326, align 8
  %1328 = xor i64 %1323, %1327
  %1329 = load i64*, i64** %9, align 8
  %1330 = getelementptr inbounds i64, i64* %1329, i64 50
  %1331 = load i64, i64* %1330, align 8
  %1332 = xor i64 %1328, %1331
  store i64 %1332, i64* %12, align 8
  %1333 = load i64, i64* %17, align 8
  %1334 = lshr i64 %1333, 24
  %1335 = getelementptr inbounds [256 x i64], [256 x i64]* @_ZL3Te0, i64 0, i64 %1334
  %1336 = load i64, i64* %1335, align 8
  %1337 = load i64, i64* %14, align 8
  %1338 = lshr i64 %1337, 16
  %1339 = and i64 %1338, 255
  %1340 = getelementptr inbounds [256 x i64], [256 x i64]* @_ZL3Te1, i64 0, i64 %1339
  %1341 = load i64, i64* %1340, align 8
  %1342 = xor i64 %1336, %1341
  %1343 = load i64, i64* %15, align 8
  %1344 = lshr i64 %1343, 8
  %1345 = and i64 %1344, 255
  %1346 = getelementptr inbounds [256 x i64], [256 x i64]* @_ZL3Te2, i64 0, i64 %1345
  %1347 = load i64, i64* %1346, align 8
  %1348 = xor i64 %1342, %1347
  %1349 = load i64, i64* %16, align 8
  %1350 = and i64 %1349, 255
  %1351 = getelementptr inbounds [256 x i64], [256 x i64]* @_ZL3Te3, i64 0, i64 %1350
  %1352 = load i64, i64* %1351, align 8
  %1353 = xor i64 %1348, %1352
  %1354 = load i64*, i64** %9, align 8
  %1355 = getelementptr inbounds i64, i64* %1354, i64 51
  %1356 = load i64, i64* %1355, align 8
  %1357 = xor i64 %1353, %1356
  store i64 %1357, i64* %13, align 8
  %1358 = load i64, i64* %10, align 8
  %1359 = lshr i64 %1358, 24
  %1360 = getelementptr inbounds [256 x i64], [256 x i64]* @_ZL3Te0, i64 0, i64 %1359
  %1361 = load i64, i64* %1360, align 8
  %1362 = load i64, i64* %11, align 8
  %1363 = lshr i64 %1362, 16
  %1364 = and i64 %1363, 255
  %1365 = getelementptr inbounds [256 x i64], [256 x i64]* @_ZL3Te1, i64 0, i64 %1364
  %1366 = load i64, i64* %1365, align 8
  %1367 = xor i64 %1361, %1366
  %1368 = load i64, i64* %12, align 8
  %1369 = lshr i64 %1368, 8
  %1370 = and i64 %1369, 255
  %1371 = getelementptr inbounds [256 x i64], [256 x i64]* @_ZL3Te2, i64 0, i64 %1370
  %1372 = load i64, i64* %1371, align 8
  %1373 = xor i64 %1367, %1372
  %1374 = load i64, i64* %13, align 8
  %1375 = and i64 %1374, 255
  %1376 = getelementptr inbounds [256 x i64], [256 x i64]* @_ZL3Te3, i64 0, i64 %1375
  %1377 = load i64, i64* %1376, align 8
  %1378 = xor i64 %1373, %1377
  %1379 = load i64*, i64** %9, align 8
  %1380 = getelementptr inbounds i64, i64* %1379, i64 52
  %1381 = load i64, i64* %1380, align 8
  %1382 = xor i64 %1378, %1381
  store i64 %1382, i64* %14, align 8
  %1383 = load i64, i64* %11, align 8
  %1384 = lshr i64 %1383, 24
  %1385 = getelementptr inbounds [256 x i64], [256 x i64]* @_ZL3Te0, i64 0, i64 %1384
  %1386 = load i64, i64* %1385, align 8
  %1387 = load i64, i64* %12, align 8
  %1388 = lshr i64 %1387, 16
  %1389 = and i64 %1388, 255
  %1390 = getelementptr inbounds [256 x i64], [256 x i64]* @_ZL3Te1, i64 0, i64 %1389
  %1391 = load i64, i64* %1390, align 8
  %1392 = xor i64 %1386, %1391
  %1393 = load i64, i64* %13, align 8
  %1394 = lshr i64 %1393, 8
  %1395 = and i64 %1394, 255
  %1396 = getelementptr inbounds [256 x i64], [256 x i64]* @_ZL3Te2, i64 0, i64 %1395
  %1397 = load i64, i64* %1396, align 8
  %1398 = xor i64 %1392, %1397
  %1399 = load i64, i64* %10, align 8
  %1400 = and i64 %1399, 255
  %1401 = getelementptr inbounds [256 x i64], [256 x i64]* @_ZL3Te3, i64 0, i64 %1400
  %1402 = load i64, i64* %1401, align 8
  %1403 = xor i64 %1398, %1402
  %1404 = load i64*, i64** %9, align 8
  %1405 = getelementptr inbounds i64, i64* %1404, i64 53
  %1406 = load i64, i64* %1405, align 8
  %1407 = xor i64 %1403, %1406
  store i64 %1407, i64* %15, align 8
  %1408 = load i64, i64* %12, align 8
  %1409 = lshr i64 %1408, 24
  %1410 = getelementptr inbounds [256 x i64], [256 x i64]* @_ZL3Te0, i64 0, i64 %1409
  %1411 = load i64, i64* %1410, align 8
  %1412 = load i64, i64* %13, align 8
  %1413 = lshr i64 %1412, 16
  %1414 = and i64 %1413, 255
  %1415 = getelementptr inbounds [256 x i64], [256 x i64]* @_ZL3Te1, i64 0, i64 %1414
  %1416 = load i64, i64* %1415, align 8
  %1417 = xor i64 %1411, %1416
  %1418 = load i64, i64* %10, align 8
  %1419 = lshr i64 %1418, 8
  %1420 = and i64 %1419, 255
  %1421 = getelementptr inbounds [256 x i64], [256 x i64]* @_ZL3Te2, i64 0, i64 %1420
  %1422 = load i64, i64* %1421, align 8
  %1423 = xor i64 %1417, %1422
  %1424 = load i64, i64* %11, align 8
  %1425 = and i64 %1424, 255
  %1426 = getelementptr inbounds [256 x i64], [256 x i64]* @_ZL3Te3, i64 0, i64 %1425
  %1427 = load i64, i64* %1426, align 8
  %1428 = xor i64 %1423, %1427
  %1429 = load i64*, i64** %9, align 8
  %1430 = getelementptr inbounds i64, i64* %1429, i64 54
  %1431 = load i64, i64* %1430, align 8
  %1432 = xor i64 %1428, %1431
  store i64 %1432, i64* %16, align 8
  %1433 = load i64, i64* %13, align 8
  %1434 = lshr i64 %1433, 24
  %1435 = getelementptr inbounds [256 x i64], [256 x i64]* @_ZL3Te0, i64 0, i64 %1434
  %1436 = load i64, i64* %1435, align 8
  %1437 = load i64, i64* %10, align 8
  %1438 = lshr i64 %1437, 16
  %1439 = and i64 %1438, 255
  %1440 = getelementptr inbounds [256 x i64], [256 x i64]* @_ZL3Te1, i64 0, i64 %1439
