; ModuleID = '../../click/elements/local/clara_avcounter.cc'
source_filename = "../../click/elements/local/clara_avcounter.cc"
target datalayout = "e-m:e-i64:64-f80:128-n8:16:32:64-S128"
target triple = "x86_64-pc-linux-gnu"

%class.ClaraAVCounter = type { %class.Element.base, i8, %struct.ClaraEAVCounter }
%class.Element.base = type <{ i32 (...)**, [2 x %"class.Element::Port"*], [4 x %"class.Element::Port"], [2 x i32], %class.Router*, i32 }>
%"class.Element::Port" = type <{ %class.Element*, i32, [4 x i8] }>
%class.Element = type <{ i32 (...)**, [2 x %"class.Element::Port"*], [4 x %"class.Element::Port"], [2 x i32], %class.Router*, i32, [4 x i8] }>
%class.Router = type { %class.Master*, %class.atomic_uint32_t, i32, i8, i32, %class.atomic_uint32_t, %class.Vector, %class.Vector.0, %class.Vector.0, %class.Vector.2, %class.Vector.5, %class.Vector.6, i32, %class.Vector.5, [2 x %class.Vector.5], %class.Vector.5, %class.Vector.8, %class.Vector.5, %class.Vector.0, %class.Vector.5, %class.Vector.5, %class.Vector.5, %class.Vector.5, %class.Handler**, i32, i32, %class.Vector.0, %class.Vector.12, %class.Element*, %class.String, %"struct.Router::notifier_signals_t"*, %class.HashMap_ArenaFactory*, %class.Router*, %class.ThreadSched*, %class.NameInfo*, %class.Vector.5, %class.Vector.0, %class.Router* }
%class.Master = type opaque
%class.atomic_uint32_t = type { i32 }
%class.Vector = type { %class.vector_memory }
%class.vector_memory = type { %struct.char_array*, i32, i32 }
%struct.char_array = type opaque
%class.Vector.2 = type { %class.vector_memory.3 }
%class.vector_memory.3 = type { %struct.char_array.4*, i32, i32 }
%struct.char_array.4 = type { [4 x i8] }
%class.Vector.6 = type { %class.vector_memory.7 }
%class.vector_memory.7 = type { %"struct.Router::element_landmark_t"*, i32, i32 }
%"struct.Router::element_landmark_t" = type { i32, %class.String }
%class.Vector.8 = type { %class.vector_memory.9 }
%class.vector_memory.9 = type { %struct.char_array.10*, i32, i32 }
%struct.char_array.10 = type { [16 x i8] }
%class.Handler = type <{ %class.String, %union.anon, %union.anon.11, i8*, i8*, i32, i32, i32, [4 x i8] }>
%union.anon = type { i32 (i32, %class.String*, %class.Element*, %class.Handler*, %class.ErrorHandler*)* }
%class.ErrorHandler = type <{ i32 (...)**, i32, [4 x i8] }>
%union.anon.11 = type { i32 (i32, %class.String*, %class.Element*, %class.Handler*, %class.ErrorHandler*)* }
%class.Vector.12 = type { %class.vector_memory }
%class.String = type { %"struct.String::rep_t" }
%"struct.String::rep_t" = type { i8*, i32, %"struct.String::memo_t"* }
%"struct.String::memo_t" = type { i32, i32, i32, [8 x i8] }
%"struct.Router::notifier_signals_t" = type { %class.String, i32, [128 x %class.atomic_uint32_t], %"struct.Router::notifier_signals_t"* }
%class.HashMap_ArenaFactory = type opaque
%class.ThreadSched = type { i32 (...)** }
%class.NameInfo = type opaque
%class.Vector.5 = type { %class.vector_memory.3 }
%class.Vector.0 = type { %class.vector_memory.1 }
%class.vector_memory.1 = type { %class.String*, i32, i32 }
%struct.ClaraEAVCounter = type { i32, i32, i32, i32, i32, i32 }
%class.Args = type { %class.ArgContext.base, i8, i8, i8, %class.Vector.0*, %class.Vector.5, %"struct.Args::Slot"*, [48 x i8] }
%class.ArgContext.base = type <{ %class.Element*, %class.ErrorHandler*, i8*, i8 }>
%"struct.Args::Slot" = type { i32 (...)**, %"struct.Args::Slot"* }
%class.Packet = type { %class.atomic_uint32_t, %class.Packet*, i8*, i8*, i8*, i8*, %"struct.Packet::AllAnno", void (i8*, i64, i8*)*, i8* }
%"struct.Packet::AllAnno" = type { %"union.Packet::Anno", i8*, i8*, i8*, i32, [8 x i8], %class.Packet*, %class.Packet* }
%"union.Packet::Anno" = type { [6 x i64] }
%class.StringAccum = type { %"struct.StringAccum::rep_t" }
%"struct.StringAccum::rep_t" = type { i8*, i32, i32 }
%class.WritablePacket = type { %class.Packet }
%struct.click_ip = type { i8, i8, i16, i16, i16, i8, i8, i16, %struct.in_addr, %struct.in_addr }
%struct.in_addr = type { i32 }
%class.Task = type { %struct.TaskLink.base, i32, i32, %"union.Task::Status", i1 (%class.Task*, i8*)*, i8*, %class.RouterThread*, %class.Element*, %"union.Task::Pending" }
%struct.TaskLink.base = type <{ %struct.TaskLink*, %struct.TaskLink*, i32 }>
%struct.TaskLink = type <{ %struct.TaskLink*, %struct.TaskLink*, i32, [4 x i8] }>
%"union.Task::Status" = type { i32 }
%class.RouterThread = type { %struct.TaskLink, i8, [7 x i8], %class.TimerSet, %class.SelectSet, [32 x i8], %class.Spinlock, %class.atomic_uint32_t, %class.atomic_uint32_t, %"union.Task::Pending", %"union.Task::Pending"*, %class.SpinlockIRQ, [31 x i8], %class.Master*, i32, i8, i32, i32, [40 x i8] }
%class.TimerSet = type <{ %class.Timestamp, i32, i32, i32, [4 x i8], %class.Vector.13, %class.Vector.14, %class.SimpleSpinlock, [7 x i8], %class.Timestamp, i32, [4 x i8] }>
%class.Vector.13 = type { %class.vector_memory.9 }
%class.Vector.14 = type { %class.vector_memory }
%class.SimpleSpinlock = type { i8 }
%class.Timestamp = type { %"union.Timestamp::rep_t" }
%"union.Timestamp::rep_t" = type { i64 }
%class.SelectSet = type { [2 x i32], i8, %class.Vector.15, %class.Vector.16 }
%class.Vector.15 = type { %class.vector_memory }
%class.Vector.16 = type { %class.vector_memory.17 }
%class.vector_memory.17 = type { %struct.char_array.18*, i32, i32 }
%struct.char_array.18 = type opaque
%class.Spinlock = type { i8 }
%class.SpinlockIRQ = type { i8 }
%"union.Task::Pending" = type { %class.Task* }
%class.Timer = type { i32, %class.Timestamp, %union.anon.19, i8*, %class.Element*, %class.RouterThread* }
%union.anon.19 = type { void (%class.Timer*, i8*)* }
%struct.DefaultArg = type { i8 }
%class.ArgContext = type <{ %class.Element*, %class.ErrorHandler*, i8*, i8, [7 x i8] }>

$_ZN4Args4readIbEERS_PKcRT_ = comdat any

$_ZNK6Packet18has_network_headerEv = comdat any

$_ZN11StringAccumC2Ev = comdat any

$_ZN6StringC2Ev = comdat any

$_ZNK7Element6routerEv = comdat any

$_ZN6Packet9uniqueifyEv = comdat any

$_ZNK14WritablePacket9ip_headerEv = comdat any

$_ZlsR11StringAccumPKc = comdat any

$_ZlsR11StringAccumi = comdat any

$_ZN6StringD2Ev = comdat any

$_ZN11StringAccumD2Ev = comdat any

$_ZNK14ClaraAVCounter10class_nameEv = comdat any

$_ZNK14ClaraAVCounter10port_countEv = comdat any

$_ZN11StringAccum5rep_tC2Ev = comdat any

$_ZN6String10empty_dataEv = comdat any

$_ZNK6String11assign_memoEPKciPNS_6memo_tE = comdat any

$_ZN15atomic_uint32_t3incERVj = comdat any

$_ZNK6Packet6sharedEv = comdat any

$_ZNK15atomic_uint32_tcvjEv = comdat any

$_ZNK15atomic_uint32_t5valueEv = comdat any

$_ZNK6Packet9ip_headerEv = comdat any

$_ZNK6Packet14network_headerEv = comdat any

$_ZN11StringAccum6appendEPKc = comdat any

$_ZN11StringAccum6appendEPKci = comdat any

$_ZNK6String5derefEv = comdat any

$__clang_call_terminate = comdat any

$_ZN15atomic_uint32_t12dec_and_testERVj = comdat any

$_ZN4Args4readIbEERS_PKciRT_ = comdat any

$_Z14args_base_readIbEvP4ArgsPKciRT_ = comdat any

$_ZN4Args9base_readIbEEvPKciRT_ = comdat any

$_ZNK6StringcvMS_KFivEEv = comdat any

$_ZN17Args_parse_helperI10DefaultArgIbELb0EE4slotIb4ArgsEEPT_RS5_RT0_ = comdat any

$_ZN17Args_parse_helperI10DefaultArgIbELb0EE5parseIb4ArgsEEbS1_RK6StringRT_RT0_ = comdat any

$_ZNK6String6lengthEv = comdat any

$_ZN4Args4slotIbEEPT_RS1_ = comdat any

@_ZTV14ClaraAVCounter = unnamed_addr constant { [29 x i8*] } { [29 x i8*] [i8* null, i8* bitcast ({ i8*, i8*, i8* }* @_ZTI14ClaraAVCounter to i8*), i8* bitcast (void (%class.ClaraAVCounter*)* @_ZN14ClaraAVCounterD1Ev to i8*), i8* bitcast (void (%class.ClaraAVCounter*)* @_ZN14ClaraAVCounterD0Ev to i8*), i8* bitcast (void (%class.Element*, i32, %class.Packet*)* @_ZN7Element4pushEiP6Packet to i8*), i8* bitcast (%class.Packet* (%class.Element*, i32)* @_ZN7Element4pullEi to i8*), i8* bitcast (%class.Packet* (%class.ClaraAVCounter*, %class.Packet*)* @_ZN14ClaraAVCounter13simple_actionEP6Packet to i8*), i8* bitcast (i1 (%class.Element*, %class.Task*)* @_ZN7Element8run_taskEP4Task to i8*), i8* bitcast (void (%class.Element*, %class.Timer*)* @_ZN7Element9run_timerEP5Timer to i8*), i8* bitcast (void (%class.Element*, i32, i32)* @_ZN7Element8selectedEii to i8*), i8* bitcast (void (%class.Element*, i32)* @_ZN7Element8selectedEi to i8*), i8* bitcast (i8* (%class.ClaraAVCounter*)* @_ZNK14ClaraAVCounter10class_nameEv to i8*), i8* bitcast (i8* (%class.ClaraAVCounter*)* @_ZNK14ClaraAVCounter10port_countEv to i8*), i8* bitcast (i8* (%class.Element*)* @_ZNK7Element10processingEv to i8*), i8* bitcast (i8* (%class.Element*)* @_ZNK7Element9flow_codeEv to i8*), i8* bitcast (i8* (%class.Element*)* @_ZNK7Element5flagsEv to i8*), i8* bitcast (i8* (%class.Element*, i8*)* @_ZN7Element4castEPKc to i8*), i8* bitcast (i8* (%class.Element*, i1, i32, i8*)* @_ZN7Element9port_castEbiPKc to i8*), i8* bitcast (i32 (%class.Element*)* @_ZNK7Element15configure_phaseEv to i8*), i8* bitcast (i32 (%class.ClaraAVCounter*, %class.Vector.0*, %class.ErrorHandler*)* @_ZN14ClaraAVCounter9configureER6VectorI6StringEP12ErrorHandler to i8*), i8* bitcast (void (%class.Element*)* @_ZN7Element12add_handlersEv to i8*), i8* bitcast (i32 (%class.Element*, %class.ErrorHandler*)* @_ZN7Element10initializeEP12ErrorHandler to i8*), i8* bitcast (void (%class.Element*, %class.Element*, %class.ErrorHandler*)* @_ZN7Element10take_stateEPS_P12ErrorHandler to i8*), i8* bitcast (%class.Element* (%class.Element*)* @_ZNK7Element15hotswap_elementEv to i8*), i8* bitcast (void (%class.Element*, i32)* @_ZN7Element7cleanupENS_12CleanupStageE to i8*), i8* bitcast (void (%class.String*, %class.Element*)* @_ZNK7Element11declarationEv to i8*), i8* bitcast (i1 (%class.Element*)* @_ZNK7Element20can_live_reconfigureEv to i8*), i8* bitcast (i32 (%class.Element*, %class.Vector.0*, %class.ErrorHandler*)* @_ZN7Element16live_reconfigureER6VectorI6StringEP12ErrorHandler to i8*), i8* bitcast (i32 (%class.Element*, i32, i8*)* @_ZN7Element5llrpcEjPv to i8*)] }, align 8
@.str = private unnamed_addr constant [7 x i8] c"ACTIVE\00", align 1
@.str.1 = private unnamed_addr constant [24 x i8] c"p->has_network_header()\00", align 1
@.str.2 = private unnamed_addr constant [46 x i8] c"../../click/elements/local/clara_avcounter.cc\00", align 1
@__PRETTY_FUNCTION__._ZN14ClaraAVCounter13simple_actionEP6Packet = private unnamed_addr constant [56 x i8] c"virtual Packet *ClaraAVCounter::simple_action(Packet *)\00", align 1
@.str.3 = private unnamed_addr constant [20 x i8] c"Clara AVCounter -> \00", align 1
@.str.4 = private unnamed_addr constant [17 x i8] c"Num of compute: \00", align 1
@.str.5 = private unnamed_addr constant [22 x i8] c", Num of ext memory: \00", align 1
@.str.6 = private unnamed_addr constant [2 x i8] c"\0A\00", align 1
@.str.7 = private unnamed_addr constant [3 x i8] c"%s\00", align 1
@_ZTVN10__cxxabiv120__si_class_type_infoE = external global i8*
@_ZTS14ClaraAVCounter = constant [17 x i8] c"14ClaraAVCounter\00"
@_ZTI7Element = external constant i8*
@_ZTI14ClaraAVCounter = constant { i8*, i8*, i8* } { i8* bitcast (i8** getelementptr inbounds (i8*, i8** @_ZTVN10__cxxabiv120__si_class_type_infoE, i64 2) to i8*), i8* getelementptr inbounds ([17 x i8], [17 x i8]* @_ZTS14ClaraAVCounter, i32 0, i32 0), i8* bitcast (i8** @_ZTI7Element to i8*) }
@_ZN6String9null_dataE = external constant i8, align 1
@.str.8 = private unnamed_addr constant [9 x i8] c"len >= 0\00", align 1
@.str.9 = private unnamed_addr constant [37 x i8] c"/usr/local/include/click/straccum.hh\00", align 1
@__PRETTY_FUNCTION__._ZN11StringAccum6appendEPKci = private unnamed_addr constant [44 x i8] c"void StringAccum::append(const char *, int)\00", align 1
@.str.10 = private unnamed_addr constant [18 x i8] c"_r.memo->refcount\00", align 1
@.str.11 = private unnamed_addr constant [35 x i8] c"/usr/local/include/click/string.hh\00", align 1
@__PRETTY_FUNCTION__._ZNK6String5derefEv = private unnamed_addr constant [27 x i8] c"void String::deref() const\00", align 1
@.str.12 = private unnamed_addr constant [15 x i8] c"ClaraAVCounter\00", align 1
@_ZN7Element9PORTS_1_1E = external constant [0 x i8], align 1

@_ZN14ClaraAVCounterC1Ev = alias void (%class.ClaraAVCounter*), void (%class.ClaraAVCounter*)* @_ZN14ClaraAVCounterC2Ev
@_ZN14ClaraAVCounterD1Ev = alias void (%class.ClaraAVCounter*), void (%class.ClaraAVCounter*)* @_ZN14ClaraAVCounterD2Ev

; Function Attrs: noinline optnone uwtable
define void @_ZN14ClaraAVCounterC2Ev(%class.ClaraAVCounter*) unnamed_addr #0 align 2 {
  %2 = alloca %class.ClaraAVCounter*, align 8
  store %class.ClaraAVCounter* %0, %class.ClaraAVCounter** %2, align 8
  %3 = load %class.ClaraAVCounter*, %class.ClaraAVCounter** %2, align 8
  %4 = bitcast %class.ClaraAVCounter* %3 to %class.Element*
  call void @_ZN7ElementC2Ev(%class.Element* %4)
  %5 = bitcast %class.ClaraAVCounter* %3 to i32 (...)***
  store i32 (...)** bitcast (i8** getelementptr inbounds ({ [29 x i8*] }, { [29 x i8*] }* @_ZTV14ClaraAVCounter, i32 0, inrange i32 0, i32 2) to i32 (...)**), i32 (...)*** %5, align 8
  %6 = getelementptr inbounds %class.ClaraAVCounter, %class.ClaraAVCounter* %3, i32 0, i32 1
  store i8 1, i8* %6, align 4
  %7 = getelementptr inbounds %class.ClaraAVCounter, %class.ClaraAVCounter* %3, i32 0, i32 2
  ret void
}

declare void @_ZN7ElementC2Ev(%class.Element*) unnamed_addr #1

; Function Attrs: noinline nounwind optnone uwtable
define void @_ZN14ClaraAVCounterD2Ev(%class.ClaraAVCounter*) unnamed_addr #2 align 2 {
  %2 = alloca %class.ClaraAVCounter*, align 8
  store %class.ClaraAVCounter* %0, %class.ClaraAVCounter** %2, align 8
  %3 = load %class.ClaraAVCounter*, %class.ClaraAVCounter** %2, align 8
  %4 = bitcast %class.ClaraAVCounter* %3 to %class.Element*
  call void @_ZN7ElementD2Ev(%class.Element* %4) #9
  ret void
}

; Function Attrs: nounwind
declare void @_ZN7ElementD2Ev(%class.Element*) unnamed_addr #3

; Function Attrs: noinline nounwind optnone uwtable
define void @_ZN14ClaraAVCounterD0Ev(%class.ClaraAVCounter*) unnamed_addr #2 align 2 {
  %2 = alloca %class.ClaraAVCounter*, align 8
  store %class.ClaraAVCounter* %0, %class.ClaraAVCounter** %2, align 8
  %3 = load %class.ClaraAVCounter*, %class.ClaraAVCounter** %2, align 8
  call void @_ZN14ClaraAVCounterD1Ev(%class.ClaraAVCounter* %3) #9
  %4 = bitcast %class.ClaraAVCounter* %3 to i8*
  call void @_ZdlPv(i8* %4) #10
  ret void
}

; Function Attrs: nobuiltin nounwind
declare void @_ZdlPv(i8*) #4

; Function Attrs: noinline optnone uwtable
define i32 @_ZN14ClaraAVCounter9configureER6VectorI6StringEP12ErrorHandler(%class.ClaraAVCounter*, %class.Vector.0* dereferenceable(16), %class.ErrorHandler*) unnamed_addr #0 align 2 personality i8* bitcast (i32 (...)* @__gxx_personality_v0 to i8*) {
  %4 = alloca %class.ClaraAVCounter*, align 8
  %5 = alloca %class.Vector.0*, align 8
  %6 = alloca %class.ErrorHandler*, align 8
  %7 = alloca %class.Args, align 8
  %8 = alloca i8*
  %9 = alloca i32
  store %class.ClaraAVCounter* %0, %class.ClaraAVCounter** %4, align 8
  store %class.Vector.0* %1, %class.Vector.0** %5, align 8
  store %class.ErrorHandler* %2, %class.ErrorHandler** %6, align 8
  %10 = load %class.ClaraAVCounter*, %class.ClaraAVCounter** %4, align 8
  %11 = load %class.Vector.0*, %class.Vector.0** %5, align 8
  %12 = bitcast %class.ClaraAVCounter* %10 to %class.Element*
  %13 = load %class.ErrorHandler*, %class.ErrorHandler** %6, align 8
  call void @_ZN4ArgsC1ERK6VectorI6StringEPK7ElementP12ErrorHandler(%class.Args* %7, %class.Vector.0* dereferenceable(16) %11, %class.Element* %12, %class.ErrorHandler* %13)
  %14 = getelementptr inbounds %class.ClaraAVCounter, %class.ClaraAVCounter* %10, i32 0, i32 1
  %15 = invoke dereferenceable(112) %class.Args* @_ZN4Args4readIbEERS_PKcRT_(%class.Args* %7, i8* getelementptr inbounds ([7 x i8], [7 x i8]* @.str, i32 0, i32 0), i8* dereferenceable(1) %14)
          to label %16 unwind label %19

; <label>:16:                                     ; preds = %3
  %17 = invoke i32 @_ZN4Args8completeEv(%class.Args* %15)
          to label %18 unwind label %19

; <label>:18:                                     ; preds = %16
  call void @_ZN4ArgsD1Ev(%class.Args* %7) #9
  ret i32 %17

; <label>:19:                                     ; preds = %16, %3
  %20 = landingpad { i8*, i32 }
          cleanup
  %21 = extractvalue { i8*, i32 } %20, 0
  store i8* %21, i8** %8, align 8
  %22 = extractvalue { i8*, i32 } %20, 1
  store i32 %22, i32* %9, align 4
  call void @_ZN4ArgsD1Ev(%class.Args* %7) #9
  br label %23

; <label>:23:                                     ; preds = %19
  %24 = load i8*, i8** %8, align 8
  %25 = load i32, i32* %9, align 4
  %26 = insertvalue { i8*, i32 } undef, i8* %24, 0
  %27 = insertvalue { i8*, i32 } %26, i32 %25, 1
  resume { i8*, i32 } %27
}

declare void @_ZN4ArgsC1ERK6VectorI6StringEPK7ElementP12ErrorHandler(%class.Args*, %class.Vector.0* dereferenceable(16), %class.Element*, %class.ErrorHandler*) unnamed_addr #1

; Function Attrs: noinline optnone uwtable
define linkonce_odr dereferenceable(112) %class.Args* @_ZN4Args4readIbEERS_PKcRT_(%class.Args*, i8*, i8* dereferenceable(1)) #0 comdat align 2 {
  %4 = alloca %class.Args*, align 8
  %5 = alloca i8*, align 8
  %6 = alloca i8*, align 8
  store %class.Args* %0, %class.Args** %4, align 8
  store i8* %1, i8** %5, align 8
  store i8* %2, i8** %6, align 8
  %7 = load %class.Args*, %class.Args** %4, align 8
  %8 = load i8*, i8** %5, align 8
  %9 = load i8*, i8** %6, align 8
  %10 = call dereferenceable(112) %class.Args* @_ZN4Args4readIbEERS_PKciRT_(%class.Args* %7, i8* %8, i32 0, i8* dereferenceable(1) %9)
  ret %class.Args* %10
}

declare i32 @__gxx_personality_v0(...)

declare i32 @_ZN4Args8completeEv(%class.Args*) #1

; Function Attrs: nounwind
declare void @_ZN4ArgsD1Ev(%class.Args*) unnamed_addr #3

; Function Attrs: noinline optnone uwtable
define %class.Packet* @_ZN14ClaraAVCounter13simple_actionEP6Packet(%class.ClaraAVCounter*, %class.Packet*) unnamed_addr #0 align 2 personality i8* bitcast (i32 (...)* @__gxx_personality_v0 to i8*) {
  %3 = alloca %class.Packet*, align 8
  %4 = alloca %class.ClaraAVCounter*, align 8
  %5 = alloca %class.Packet*, align 8
  %6 = alloca %class.StringAccum, align 8
  %7 = alloca %class.String, align 8
  %8 = alloca i8*
  %9 = alloca i32
  %10 = alloca i32, align 4
  %11 = alloca i32, align 4
  %12 = alloca %class.ErrorHandler*, align 8
  %13 = alloca %class.WritablePacket*, align 8
  %14 = alloca i32
  %15 = alloca %struct.click_ip*, align 8
  %16 = alloca i32, align 4
  store %class.ClaraAVCounter* %0, %class.ClaraAVCounter** %4, align 8
  store %class.Packet* %1, %class.Packet** %5, align 8
  %17 = load %class.ClaraAVCounter*, %class.ClaraAVCounter** %4, align 8
  %18 = load %class.Packet*, %class.Packet** %5, align 8
  %19 = call zeroext i1 @_ZNK6Packet18has_network_headerEv(%class.Packet* %18)
  br i1 %19, label %20, label %21

; <label>:20:                                     ; preds = %2
  br label %23

; <label>:21:                                     ; preds = %2
  call void @__assert_fail(i8* getelementptr inbounds ([24 x i8], [24 x i8]* @.str.1, i32 0, i32 0), i8* getelementptr inbounds ([46 x i8], [46 x i8]* @.str.2, i32 0, i32 0), i32 33, i8* getelementptr inbounds ([56 x i8], [56 x i8]* @__PRETTY_FUNCTION__._ZN14ClaraAVCounter13simple_actionEP6Packet, i32 0, i32 0)) #11
  unreachable
                                                  ; No predecessors!
  br label %23

; <label>:23:                                     ; preds = %22, %20
  %24 = getelementptr inbounds %class.ClaraAVCounter, %class.ClaraAVCounter* %17, i32 0, i32 1
  %25 = load i8, i8* %24, align 4
  %26 = trunc i8 %25 to i1
  br i1 %26, label %29, label %27

; <label>:27:                                     ; preds = %23
  %28 = load %class.Packet*, %class.Packet** %5, align 8
  store %class.Packet* %28, %class.Packet** %3, align 8
  br label %146

; <label>:29:                                     ; preds = %23
  call void @_ZN11StringAccumC2Ev(%class.StringAccum* %6)
  invoke void @_ZN6StringC2Ev(%class.String* %7)
          to label %30 unwind label %42

; <label>:30:                                     ; preds = %29
  store i32 0, i32* %10, align 4
  store i32 0, i32* %11, align 4
  %31 = bitcast %class.ClaraAVCounter* %17 to %class.Element*
  %32 = invoke %class.Router* @_ZNK7Element6routerEv(%class.Element* %31)
          to label %33 unwind label %46

; <label>:33:                                     ; preds = %30
  %34 = invoke %class.ErrorHandler* @_ZNK6Router15chatter_channelERK6String(%class.Router* %32, %class.String* dereferenceable(24) %7)
          to label %35 unwind label %46

; <label>:35:                                     ; preds = %33
  store %class.ErrorHandler* %34, %class.ErrorHandler** %12, align 8
  %36 = load %class.Packet*, %class.Packet** %5, align 8
  %37 = invoke %class.WritablePacket* @_ZN6Packet9uniqueifyEv(%class.Packet* %36)
          to label %38 unwind label %46

; <label>:38:                                     ; preds = %35
  store %class.WritablePacket* %37, %class.WritablePacket** %13, align 8
  %39 = load %class.WritablePacket*, %class.WritablePacket** %13, align 8
  %40 = icmp ne %class.WritablePacket* %39, null
  br i1 %40, label %50, label %41

; <label>:41:                                     ; preds = %38
  store %class.Packet* null, %class.Packet** %3, align 8
  store i32 1, i32* %14, align 4
  br label %144

; <label>:42:                                     ; preds = %29
  %43 = landingpad { i8*, i32 }
          cleanup
  %44 = extractvalue { i8*, i32 } %43, 0
  store i8* %44, i8** %8, align 8
  %45 = extractvalue { i8*, i32 } %43, 1
  store i32 %45, i32* %9, align 4
  br label %145

; <label>:46:                                     ; preds = %140, %137, %135, %132, %130, %127, %125, %93, %66, %53, %50, %35, %33, %30
  %47 = landingpad { i8*, i32 }
          cleanup
  %48 = extractvalue { i8*, i32 } %47, 0
  store i8* %48, i8** %8, align 8
  %49 = extractvalue { i8*, i32 } %47, 1
  store i32 %49, i32* %9, align 4
  call void @_ZN6StringD2Ev(%class.String* %7) #9
  br label %145

; <label>:50:                                     ; preds = %38
  %51 = load %class.WritablePacket*, %class.WritablePacket** %13, align 8
  %52 = invoke %struct.click_ip* @_ZNK14WritablePacket9ip_headerEv(%class.WritablePacket* %51)
          to label %53 unwind label %46

; <label>:53:                                     ; preds = %50
  store %struct.click_ip* %52, %struct.click_ip** %15, align 8
  %54 = load %struct.click_ip*, %struct.click_ip** %15, align 8
  %55 = getelementptr inbounds %struct.click_ip, %struct.click_ip* %54, i32 0, i32 6
  store i8 6, i8* %55, align 1
  %56 = invoke i32 @_Z13click_jiffiesv()
          to label %57 unwind label %46

; <label>:57:                                     ; preds = %53
  store i32 %56, i32* %16, align 4
  %58 = getelementptr inbounds %class.ClaraAVCounter, %class.ClaraAVCounter* %17, i32 0, i32 2
  %59 = getelementptr inbounds %struct.ClaraEAVCounter, %struct.ClaraEAVCounter* %58, i32 0, i32 2
  %60 = load i32, i32* %59, align 8
  %61 = icmp eq i32 %60, 0
  br i1 %61, label %62, label %66

; <label>:62:                                     ; preds = %57
  %63 = load i32, i32* %16, align 4
  %64 = getelementptr inbounds %class.ClaraAVCounter, %class.ClaraAVCounter* %17, i32 0, i32 2
  %65 = getelementptr inbounds %struct.ClaraEAVCounter, %struct.ClaraEAVCounter* %64, i32 0, i32 2
  store i32 %63, i32* %65, align 8
  br label %66

; <label>:66:                                     ; preds = %62, %57
  %67 = getelementptr inbounds %class.ClaraAVCounter, %class.ClaraAVCounter* %17, i32 0, i32 2
  %68 = getelementptr inbounds %struct.ClaraEAVCounter, %struct.ClaraEAVCounter* %67, i32 0, i32 5
  store i32 -1, i32* %68, align 4
  %69 = invoke i32 @_Z13click_jiffiesv()
          to label %70 unwind label %46

; <label>:70:                                     ; preds = %66
  store i32 %69, i32* %16, align 4
  %71 = load i32, i32* %16, align 4
  %72 = getelementptr inbounds %class.ClaraAVCounter, %class.ClaraAVCounter* %17, i32 0, i32 2
  %73 = getelementptr inbounds %struct.ClaraEAVCounter, %struct.ClaraEAVCounter* %72, i32 0, i32 5
  %74 = load i32, i32* %73, align 4
  %75 = getelementptr inbounds %class.ClaraAVCounter, %class.ClaraAVCounter* %17, i32 0, i32 2
  %76 = getelementptr inbounds %struct.ClaraEAVCounter, %struct.ClaraEAVCounter* %75, i32 0, i32 2
  %77 = load i32, i32* %76, align 8
  %78 = add i32 %74, %77
  %79 = icmp uge i32 %71, %78
  br i1 %79, label %80, label %93

; <label>:80:                                     ; preds = %70
  %81 = getelementptr inbounds %class.ClaraAVCounter, %class.ClaraAVCounter* %17, i32 0, i32 2
  %82 = getelementptr inbounds %struct.ClaraEAVCounter, %struct.ClaraEAVCounter* %81, i32 0, i32 0
  %83 = load i32, i32* %82, align 8
  %84 = add i32 %83, 1
  store i32 %84, i32* %82, align 8
  %85 = load %struct.click_ip*, %struct.click_ip** %15, align 8
  %86 = getelementptr inbounds %struct.click_ip, %struct.click_ip* %85, i32 0, i32 2
  %87 = load i16, i16* %86, align 2
  %88 = zext i16 %87 to i32
  %89 = getelementptr inbounds %class.ClaraAVCounter, %class.ClaraAVCounter* %17, i32 0, i32 2
  %90 = getelementptr inbounds %struct.ClaraEAVCounter, %struct.ClaraEAVCounter* %89, i32 0, i32 1
  %91 = load i32, i32* %90, align 4
  %92 = add i32 %91, %88
  store i32 %92, i32* %90, align 4
  br label %93

; <label>:93:                                     ; preds = %80, %70
  %94 = load i32, i32* %16, align 4
  %95 = getelementptr inbounds %class.ClaraAVCounter, %class.ClaraAVCounter* %17, i32 0, i32 2
  %96 = getelementptr inbounds %struct.ClaraEAVCounter, %struct.ClaraEAVCounter* %95, i32 0, i32 3
  store i32 %94, i32* %96, align 4
  %97 = getelementptr inbounds %class.ClaraAVCounter, %class.ClaraAVCounter* %17, i32 0, i32 2
  %98 = getelementptr inbounds %struct.ClaraEAVCounter, %struct.ClaraEAVCounter* %97, i32 0, i32 1
  %99 = load i32, i32* %98, align 4
  %100 = getelementptr inbounds %class.ClaraAVCounter, %class.ClaraAVCounter* %17, i32 0, i32 2
  %101 = getelementptr inbounds %struct.ClaraEAVCounter, %struct.ClaraEAVCounter* %100, i32 0, i32 3
  %102 = load i32, i32* %101, align 4
  %103 = getelementptr inbounds %class.ClaraAVCounter, %class.ClaraAVCounter* %17, i32 0, i32 2
  %104 = getelementptr inbounds %struct.ClaraEAVCounter, %struct.ClaraEAVCounter* %103, i32 0, i32 2
  %105 = load i32, i32* %104, align 8
  %106 = sub i32 %102, %105
  %107 = mul i32 %99, %106
  %108 = getelementptr inbounds %class.ClaraAVCounter, %class.ClaraAVCounter* %17, i32 0, i32 2
  %109 = getelementptr inbounds %struct.ClaraEAVCounter, %struct.ClaraEAVCounter* %108, i32 0, i32 4
  store i32 %107, i32* %109, align 8
  %110 = getelementptr inbounds %class.ClaraAVCounter, %class.ClaraAVCounter* %17, i32 0, i32 2
  %111 = getelementptr inbounds %struct.ClaraEAVCounter, %struct.ClaraEAVCounter* %110, i32 0, i32 4
  %112 = load i32, i32* %111, align 8
  %113 = load %struct.click_ip*, %struct.click_ip** %15, align 8
  %114 = getelementptr inbounds %struct.click_ip, %struct.click_ip* %113, i32 0, i32 8
  %115 = getelementptr inbounds %struct.in_addr, %struct.in_addr* %114, i32 0, i32 0
  %116 = load i32, i32* %115, align 4
  %117 = add i32 %116, %112
  store i32 %117, i32* %115, align 4
  %118 = getelementptr inbounds %class.ClaraAVCounter, %class.ClaraAVCounter* %17, i32 0, i32 2
  %119 = getelementptr inbounds %struct.ClaraEAVCounter, %struct.ClaraEAVCounter* %118, i32 0, i32 2
  store i32 0, i32* %119, align 8
  %120 = load i32, i32* %10, align 4
  %121 = add nsw i32 %120, 40
  store i32 %121, i32* %10, align 4
  %122 = load i32, i32* %11, align 4
  %123 = add nsw i32 %122, 2
  store i32 %123, i32* %11, align 4
  %124 = invoke dereferenceable(16) %class.StringAccum* @_ZlsR11StringAccumPKc(%class.StringAccum* dereferenceable(16) %6, i8* getelementptr inbounds ([20 x i8], [20 x i8]* @.str.3, i32 0, i32 0))
          to label %125 unwind label %46

; <label>:125:                                    ; preds = %93
  %126 = invoke dereferenceable(16) %class.StringAccum* @_ZlsR11StringAccumPKc(%class.StringAccum* dereferenceable(16) %124, i8* getelementptr inbounds ([17 x i8], [17 x i8]* @.str.4, i32 0, i32 0))
          to label %127 unwind label %46

; <label>:127:                                    ; preds = %125
  %128 = load i32, i32* %10, align 4
  %129 = invoke dereferenceable(16) %class.StringAccum* @_ZlsR11StringAccumi(%class.StringAccum* dereferenceable(16) %126, i32 %128)
          to label %130 unwind label %46

; <label>:130:                                    ; preds = %127
  %131 = invoke dereferenceable(16) %class.StringAccum* @_ZlsR11StringAccumPKc(%class.StringAccum* dereferenceable(16) %129, i8* getelementptr inbounds ([22 x i8], [22 x i8]* @.str.5, i32 0, i32 0))
          to label %132 unwind label %46

; <label>:132:                                    ; preds = %130
  %133 = load i32, i32* %11, align 4
  %134 = invoke dereferenceable(16) %class.StringAccum* @_ZlsR11StringAccumi(%class.StringAccum* dereferenceable(16) %131, i32 %133)
          to label %135 unwind label %46

; <label>:135:                                    ; preds = %132
  %136 = invoke dereferenceable(16) %class.StringAccum* @_ZlsR11StringAccumPKc(%class.StringAccum* dereferenceable(16) %134, i8* getelementptr inbounds ([2 x i8], [2 x i8]* @.str.6, i32 0, i32 0))
          to label %137 unwind label %46

; <label>:137:                                    ; preds = %135
  %138 = load %class.ErrorHandler*, %class.ErrorHandler** %12, align 8
  %139 = invoke i8* @_ZN11StringAccum5c_strEv(%class.StringAccum* %6)
          to label %140 unwind label %46

; <label>:140:                                    ; preds = %137
  invoke void (%class.ErrorHandler*, i8*, ...) @_ZN12ErrorHandler7messageEPKcz(%class.ErrorHandler* %138, i8* getelementptr inbounds ([3 x i8], [3 x i8]* @.str.7, i32 0, i32 0), i8* %139)
          to label %141 unwind label %46

; <label>:141:                                    ; preds = %140
  %142 = load %class.WritablePacket*, %class.WritablePacket** %13, align 8
  %143 = bitcast %class.WritablePacket* %142 to %class.Packet*
  store %class.Packet* %143, %class.Packet** %3, align 8
  store i32 1, i32* %14, align 4
  br label %144

; <label>:144:                                    ; preds = %141, %41
  call void @_ZN6StringD2Ev(%class.String* %7) #9
  call void @_ZN11StringAccumD2Ev(%class.StringAccum* %6) #9
  br label %146

; <label>:145:                                    ; preds = %46, %42
  call void @_ZN11StringAccumD2Ev(%class.StringAccum* %6) #9
  br label %148

; <label>:146:                                    ; preds = %144, %27
  %147 = load %class.Packet*, %class.Packet** %3, align 8
  ret %class.Packet* %147

; <label>:148:                                    ; preds = %145
  %149 = load i8*, i8** %8, align 8
  %150 = load i32, i32* %9, align 4
  %151 = insertvalue { i8*, i32 } undef, i8* %149, 0
  %152 = insertvalue { i8*, i32 } %151, i32 %150, 1
  resume { i8*, i32 } %152
}

; Function Attrs: noinline nounwind optnone uwtable
define linkonce_odr zeroext i1 @_ZNK6Packet18has_network_headerEv(%class.Packet*) #2 comdat align 2 {
  %2 = alloca %class.Packet*, align 8
  store %class.Packet* %0, %class.Packet** %2, align 8
  %3 = load %class.Packet*, %class.Packet** %2, align 8
  %4 = getelementptr inbounds %class.Packet, %class.Packet* %3, i32 0, i32 6
  %5 = getelementptr inbounds %"struct.Packet::AllAnno", %"struct.Packet::AllAnno"* %4, i32 0, i32 2
  %6 = load i8*, i8** %5, align 8
  %7 = icmp ne i8* %6, null
  ret i1 %7
}

; Function Attrs: noreturn nounwind
declare void @__assert_fail(i8*, i8*, i32, i8*) #5

; Function Attrs: noinline optnone uwtable
define linkonce_odr void @_ZN11StringAccumC2Ev(%class.StringAccum*) unnamed_addr #0 comdat align 2 {
  %2 = alloca %class.StringAccum*, align 8
  store %class.StringAccum* %0, %class.StringAccum** %2, align 8
  %3 = load %class.StringAccum*, %class.StringAccum** %2, align 8
  %4 = getelementptr inbounds %class.StringAccum, %class.StringAccum* %3, i32 0, i32 0
  call void @_ZN11StringAccum5rep_tC2Ev(%"struct.StringAccum::rep_t"* %4)
  ret void
}

; Function Attrs: noinline optnone uwtable
define linkonce_odr void @_ZN6StringC2Ev(%class.String*) unnamed_addr #0 comdat align 2 {
  %2 = alloca %class.String*, align 8
  store %class.String* %0, %class.String** %2, align 8
  %3 = load %class.String*, %class.String** %2, align 8
  %4 = getelementptr inbounds %class.String, %class.String* %3, i32 0, i32 0
  call void @_ZNK6String11assign_memoEPKciPNS_6memo_tE(%class.String* %3, i8* @_ZN6String9null_dataE, i32 0, %"struct.String::memo_t"* null)
  ret void
}

; Function Attrs: noinline nounwind optnone uwtable
define linkonce_odr %class.Router* @_ZNK7Element6routerEv(%class.Element*) #2 comdat align 2 {
  %2 = alloca %class.Element*, align 8
  store %class.Element* %0, %class.Element** %2, align 8
  %3 = load %class.Element*, %class.Element** %2, align 8
  %4 = getelementptr inbounds %class.Element, %class.Element* %3, i32 0, i32 4
  %5 = load %class.Router*, %class.Router** %4, align 8
  ret %class.Router* %5
}

declare %class.ErrorHandler* @_ZNK6Router15chatter_channelERK6String(%class.Router*, %class.String* dereferenceable(24)) #1

; Function Attrs: noinline optnone uwtable
define linkonce_odr %class.WritablePacket* @_ZN6Packet9uniqueifyEv(%class.Packet*) #0 comdat align 2 {
  %2 = alloca %class.WritablePacket*, align 8
  %3 = alloca %class.Packet*, align 8
  store %class.Packet* %0, %class.Packet** %3, align 8
  %4 = load %class.Packet*, %class.Packet** %3, align 8
  %5 = call zeroext i1 @_ZNK6Packet6sharedEv(%class.Packet* %4)
  br i1 %5, label %8, label %6

; <label>:6:                                      ; preds = %1
  %7 = bitcast %class.Packet* %4 to %class.WritablePacket*
  store %class.WritablePacket* %7, %class.WritablePacket** %2, align 8
  br label %10

; <label>:8:                                      ; preds = %1
  %9 = call %class.WritablePacket* @_ZN6Packet19expensive_uniqueifyEiib(%class.Packet* %4, i32 0, i32 0, i1 zeroext true)
  store %class.WritablePacket* %9, %class.WritablePacket** %2, align 8
  br label %10

; <label>:10:                                     ; preds = %8, %6
  %11 = load %class.WritablePacket*, %class.WritablePacket** %2, align 8
  ret %class.WritablePacket* %11
}

; Function Attrs: noinline optnone uwtable
define linkonce_odr %struct.click_ip* @_ZNK14WritablePacket9ip_headerEv(%class.WritablePacket*) #0 comdat align 2 {
  %2 = alloca %class.WritablePacket*, align 8
  store %class.WritablePacket* %0, %class.WritablePacket** %2, align 8
  %3 = load %class.WritablePacket*, %class.WritablePacket** %2, align 8
  %4 = bitcast %class.WritablePacket* %3 to %class.Packet*
  %5 = call %struct.click_ip* @_ZNK6Packet9ip_headerEv(%class.Packet* %4)
  ret %struct.click_ip* %5
}

declare i32 @_Z13click_jiffiesv() #1

; Function Attrs: noinline optnone uwtable
define linkonce_odr dereferenceable(16) %class.StringAccum* @_ZlsR11StringAccumPKc(%class.StringAccum* dereferenceable(16), i8*) #0 comdat {
  %3 = alloca %class.StringAccum*, align 8
  %4 = alloca i8*, align 8
  store %class.StringAccum* %0, %class.StringAccum** %3, align 8
  store i8* %1, i8** %4, align 8
  %5 = load %class.StringAccum*, %class.StringAccum** %3, align 8
  %6 = load i8*, i8** %4, align 8
  call void @_ZN11StringAccum6appendEPKc(%class.StringAccum* %5, i8* %6)
  %7 = load %class.StringAccum*, %class.StringAccum** %3, align 8
  ret %class.StringAccum* %7
}

; Function Attrs: noinline optnone uwtable
define linkonce_odr dereferenceable(16) %class.StringAccum* @_ZlsR11StringAccumi(%class.StringAccum* dereferenceable(16), i32) #0 comdat {
  %3 = alloca %class.StringAccum*, align 8
  %4 = alloca i32, align 4
  store %class.StringAccum* %0, %class.StringAccum** %3, align 8
  store i32 %1, i32* %4, align 4
  %5 = load %class.StringAccum*, %class.StringAccum** %3, align 8
  %6 = load i32, i32* %4, align 4
  %7 = sext i32 %6 to i64
  %8 = call dereferenceable(16) %class.StringAccum* @_ZlsR11StringAccuml(%class.StringAccum* dereferenceable(16) %5, i64 %7)
  ret %class.StringAccum* %8
}

declare void @_ZN12ErrorHandler7messageEPKcz(%class.ErrorHandler*, i8*, ...) #1

declare i8* @_ZN11StringAccum5c_strEv(%class.StringAccum*) #1

; Function Attrs: noinline nounwind optnone uwtable
define linkonce_odr void @_ZN6StringD2Ev(%class.String*) unnamed_addr #2 comdat align 2 personality i8* bitcast (i32 (...)* @__gxx_personality_v0 to i8*) {
  %2 = alloca %class.String*, align 8
  store %class.String* %0, %class.String** %2, align 8
  %3 = load %class.String*, %class.String** %2, align 8
  invoke void @_ZNK6String5derefEv(%class.String* %3)
          to label %4 unwind label %5

; <label>:4:                                      ; preds = %1
  ret void

; <label>:5:                                      ; preds = %1
  %6 = landingpad { i8*, i32 }
          catch i8* null
  %7 = extractvalue { i8*, i32 } %6, 0
  call void @__clang_call_terminate(i8* %7) #11
  unreachable
}

; Function Attrs: noinline nounwind optnone uwtable
define linkonce_odr void @_ZN11StringAccumD2Ev(%class.StringAccum*) unnamed_addr #2 comdat align 2 {
  %2 = alloca %class.StringAccum*, align 8
  store %class.StringAccum* %0, %class.StringAccum** %2, align 8
  %3 = load %class.StringAccum*, %class.StringAccum** %2, align 8
  %4 = getelementptr inbounds %class.StringAccum, %class.StringAccum* %3, i32 0, i32 0
  %5 = getelementptr inbounds %"struct.StringAccum::rep_t", %"struct.StringAccum::rep_t"* %4, i32 0, i32 2
  %6 = load i32, i32* %5, align 4
  %7 = icmp sgt i32 %6, 0
  br i1 %7, label %8, label %20

; <label>:8:                                      ; preds = %1
  %9 = getelementptr inbounds %class.StringAccum, %class.StringAccum* %3, i32 0, i32 0
  %10 = getelementptr inbounds %"struct.StringAccum::rep_t", %"struct.StringAccum::rep_t"* %9, i32 0, i32 2
  %11 = load i32, i32* %10, align 4
  %12 = add nsw i32 %11, 12
  %13 = getelementptr inbounds %class.StringAccum, %class.StringAccum* %3, i32 0, i32 0
  %14 = getelementptr inbounds %"struct.StringAccum::rep_t", %"struct.StringAccum::rep_t"* %13, i32 0, i32 0
  %15 = load i8*, i8** %14, align 8
  %16 = getelementptr inbounds i8, i8* %15, i64 -12
  %17 = icmp eq i8* %16, null
  br i1 %17, label %19, label %18

; <label>:18:                                     ; preds = %8
  call void @_ZdaPv(i8* %16) #10
  br label %19

; <label>:19:                                     ; preds = %18, %8
  br label %20

; <label>:20:                                     ; preds = %19, %1
  ret void
}

declare void @_ZN7Element4pushEiP6Packet(%class.Element*, i32, %class.Packet*) unnamed_addr #1

declare %class.Packet* @_ZN7Element4pullEi(%class.Element*, i32) unnamed_addr #1

declare zeroext i1 @_ZN7Element8run_taskEP4Task(%class.Element*, %class.Task*) unnamed_addr #1

declare void @_ZN7Element9run_timerEP5Timer(%class.Element*, %class.Timer*) unnamed_addr #1

declare void @_ZN7Element8selectedEii(%class.Element*, i32, i32) unnamed_addr #1

declare void @_ZN7Element8selectedEi(%class.Element*, i32) unnamed_addr #1

; Function Attrs: noinline nounwind optnone uwtable
define linkonce_odr i8* @_ZNK14ClaraAVCounter10class_nameEv(%class.ClaraAVCounter*) unnamed_addr #2 comdat align 2 {
  %2 = alloca %class.ClaraAVCounter*, align 8
  store %class.ClaraAVCounter* %0, %class.ClaraAVCounter** %2, align 8
  %3 = load %class.ClaraAVCounter*, %class.ClaraAVCounter** %2, align 8
  ret i8* getelementptr inbounds ([15 x i8], [15 x i8]* @.str.12, i32 0, i32 0)
}

; Function Attrs: noinline nounwind optnone uwtable
define linkonce_odr i8* @_ZNK14ClaraAVCounter10port_countEv(%class.ClaraAVCounter*) unnamed_addr #2 comdat align 2 {
  %2 = alloca %class.ClaraAVCounter*, align 8
  store %class.ClaraAVCounter* %0, %class.ClaraAVCounter** %2, align 8
  %3 = load %class.ClaraAVCounter*, %class.ClaraAVCounter** %2, align 8
  ret i8* getelementptr inbounds ([0 x i8], [0 x i8]* @_ZN7Element9PORTS_1_1E, i32 0, i32 0)
}

declare i8* @_ZNK7Element10processingEv(%class.Element*) unnamed_addr #1

declare i8* @_ZNK7Element9flow_codeEv(%class.Element*) unnamed_addr #1

declare i8* @_ZNK7Element5flagsEv(%class.Element*) unnamed_addr #1

declare i8* @_ZN7Element4castEPKc(%class.Element*, i8*) unnamed_addr #1

declare i8* @_ZN7Element9port_castEbiPKc(%class.Element*, i1 zeroext, i32, i8*) unnamed_addr #1

declare i32 @_ZNK7Element15configure_phaseEv(%class.Element*) unnamed_addr #1

declare void @_ZN7Element12add_handlersEv(%class.Element*) unnamed_addr #1

declare i32 @_ZN7Element10initializeEP12ErrorHandler(%class.Element*, %class.ErrorHandler*) unnamed_addr #1

declare void @_ZN7Element10take_stateEPS_P12ErrorHandler(%class.Element*, %class.Element*, %class.ErrorHandler*) unnamed_addr #1

declare %class.Element* @_ZNK7Element15hotswap_elementEv(%class.Element*) unnamed_addr #1

declare void @_ZN7Element7cleanupENS_12CleanupStageE(%class.Element*, i32) unnamed_addr #1

declare void @_ZNK7Element11declarationEv(%class.String* sret, %class.Element*) unnamed_addr #1

declare zeroext i1 @_ZNK7Element20can_live_reconfigureEv(%class.Element*) unnamed_addr #1

declare i32 @_ZN7Element16live_reconfigureER6VectorI6StringEP12ErrorHandler(%class.Element*, %class.Vector.0* dereferenceable(16), %class.ErrorHandler*) unnamed_addr #1

declare i32 @_ZN7Element5llrpcEjPv(%class.Element*, i32, i8*) unnamed_addr #1

; Function Attrs: noinline optnone uwtable
define linkonce_odr void @_ZN11StringAccum5rep_tC2Ev(%"struct.StringAccum::rep_t"*) unnamed_addr #0 comdat align 2 {
  %2 = alloca %"struct.StringAccum::rep_t"*, align 8
  store %"struct.StringAccum::rep_t"* %0, %"struct.StringAccum::rep_t"** %2, align 8
  %3 = load %"struct.StringAccum::rep_t"*, %"struct.StringAccum::rep_t"** %2, align 8
  %4 = getelementptr inbounds %"struct.StringAccum::rep_t", %"struct.StringAccum::rep_t"* %3, i32 0, i32 0
  %5 = call i8* @_ZN6String10empty_dataEv()
  store i8* %5, i8** %4, align 8
  %6 = getelementptr inbounds %"struct.StringAccum::rep_t", %"struct.StringAccum::rep_t"* %3, i32 0, i32 1
  store i32 0, i32* %6, align 8
  %7 = getelementptr inbounds %"struct.StringAccum::rep_t", %"struct.StringAccum::rep_t"* %3, i32 0, i32 2
  store i32 0, i32* %7, align 4
  ret void
}

; Function Attrs: noinline nounwind optnone uwtable
define linkonce_odr i8* @_ZN6String10empty_dataEv() #2 comdat align 2 {
  ret i8* @_ZN6String9null_dataE
}

; Function Attrs: noinline optnone uwtable
define linkonce_odr void @_ZNK6String11assign_memoEPKciPNS_6memo_tE(%class.String*, i8*, i32, %"struct.String::memo_t"*) #0 comdat align 2 {
  %5 = alloca %class.String*, align 8
  %6 = alloca i8*, align 8
  %7 = alloca i32, align 4
  %8 = alloca %"struct.String::memo_t"*, align 8
  store %class.String* %0, %class.String** %5, align 8
  store i8* %1, i8** %6, align 8
  store i32 %2, i32* %7, align 4
  store %"struct.String::memo_t"* %3, %"struct.String::memo_t"** %8, align 8
  %9 = load %class.String*, %class.String** %5, align 8
  %10 = load i8*, i8** %6, align 8
  %11 = getelementptr inbounds %class.String, %class.String* %9, i32 0, i32 0
  %12 = getelementptr inbounds %"struct.String::rep_t", %"struct.String::rep_t"* %11, i32 0, i32 0
  store i8* %10, i8** %12, align 8
  %13 = load i32, i32* %7, align 4
  %14 = getelementptr inbounds %class.String, %class.String* %9, i32 0, i32 0
  %15 = getelementptr inbounds %"struct.String::rep_t", %"struct.String::rep_t"* %14, i32 0, i32 1
  store i32 %13, i32* %15, align 8
  %16 = load %"struct.String::memo_t"*, %"struct.String::memo_t"** %8, align 8
  %17 = getelementptr inbounds %class.String, %class.String* %9, i32 0, i32 0
  %18 = getelementptr inbounds %"struct.String::rep_t", %"struct.String::rep_t"* %17, i32 0, i32 2
  store %"struct.String::memo_t"* %16, %"struct.String::memo_t"** %18, align 8
  %19 = icmp ne %"struct.String::memo_t"* %16, null
  br i1 %19, label %20, label %23

; <label>:20:                                     ; preds = %4
  %21 = load %"struct.String::memo_t"*, %"struct.String::memo_t"** %8, align 8
  %22 = getelementptr inbounds %"struct.String::memo_t", %"struct.String::memo_t"* %21, i32 0, i32 0
  call void @_ZN15atomic_uint32_t3incERVj(i32* dereferenceable(4) %22)
  br label %23

; <label>:23:                                     ; preds = %20, %4
  ret void
}

; Function Attrs: noinline nounwind optnone uwtable
define linkonce_odr void @_ZN15atomic_uint32_t3incERVj(i32* dereferenceable(4)) #2 comdat align 2 {
  %2 = alloca i32*, align 8
  store i32* %0, i32** %2, align 8
  %3 = load i32*, i32** %2, align 8
  %4 = load volatile i32, i32* %3, align 4
  %5 = add i32 %4, 1
  store volatile i32 %5, i32* %3, align 4
  ret void
}

; Function Attrs: noinline optnone uwtable
define linkonce_odr zeroext i1 @_ZNK6Packet6sharedEv(%class.Packet*) #0 comdat align 2 {
  %2 = alloca %class.Packet*, align 8
  store %class.Packet* %0, %class.Packet** %2, align 8
  %3 = load %class.Packet*, %class.Packet** %2, align 8
  %4 = getelementptr inbounds %class.Packet, %class.Packet* %3, i32 0, i32 1
  %5 = load %class.Packet*, %class.Packet** %4, align 8
  %6 = icmp ne %class.Packet* %5, null
  br i1 %6, label %11, label %7

; <label>:7:                                      ; preds = %1
  %8 = getelementptr inbounds %class.Packet, %class.Packet* %3, i32 0, i32 0
  %9 = call i32 @_ZNK15atomic_uint32_tcvjEv(%class.atomic_uint32_t* %8)
  %10 = icmp ugt i32 %9, 1
  br label %11

; <label>:11:                                     ; preds = %7, %1
  %12 = phi i1 [ true, %1 ], [ %10, %7 ]
  ret i1 %12
}

declare %class.WritablePacket* @_ZN6Packet19expensive_uniqueifyEiib(%class.Packet*, i32, i32, i1 zeroext) #1

; Function Attrs: noinline optnone uwtable
define linkonce_odr i32 @_ZNK15atomic_uint32_tcvjEv(%class.atomic_uint32_t*) #0 comdat align 2 {
  %2 = alloca %class.atomic_uint32_t*, align 8
  store %class.atomic_uint32_t* %0, %class.atomic_uint32_t** %2, align 8
  %3 = load %class.atomic_uint32_t*, %class.atomic_uint32_t** %2, align 8
  %4 = call i32 @_ZNK15atomic_uint32_t5valueEv(%class.atomic_uint32_t* %3)
  ret i32 %4
}

; Function Attrs: noinline nounwind optnone uwtable
define linkonce_odr i32 @_ZNK15atomic_uint32_t5valueEv(%class.atomic_uint32_t*) #2 comdat align 2 {
  %2 = alloca %class.atomic_uint32_t*, align 8
  store %class.atomic_uint32_t* %0, %class.atomic_uint32_t** %2, align 8
  %3 = load %class.atomic_uint32_t*, %class.atomic_uint32_t** %2, align 8
  %4 = getelementptr inbounds %class.atomic_uint32_t, %class.atomic_uint32_t* %3, i32 0, i32 0
  %5 = load i32, i32* %4, align 4
  ret i32 %5
}

; Function Attrs: noinline optnone uwtable
define linkonce_odr %struct.click_ip* @_ZNK6Packet9ip_headerEv(%class.Packet*) #0 comdat align 2 {
  %2 = alloca %class.Packet*, align 8
  store %class.Packet* %0, %class.Packet** %2, align 8
  %3 = load %class.Packet*, %class.Packet** %2, align 8
  %4 = call i8* @_ZNK6Packet14network_headerEv(%class.Packet* %3)
  %5 = bitcast i8* %4 to %struct.click_ip*
  ret %struct.click_ip* %5
}

; Function Attrs: noinline nounwind optnone uwtable
define linkonce_odr i8* @_ZNK6Packet14network_headerEv(%class.Packet*) #2 comdat align 2 {
  %2 = alloca %class.Packet*, align 8
  store %class.Packet* %0, %class.Packet** %2, align 8
  %3 = load %class.Packet*, %class.Packet** %2, align 8
  %4 = getelementptr inbounds %class.Packet, %class.Packet* %3, i32 0, i32 6
  %5 = getelementptr inbounds %"struct.Packet::AllAnno", %"struct.Packet::AllAnno"* %4, i32 0, i32 2
  %6 = load i8*, i8** %5, align 8
  ret i8* %6
}

; Function Attrs: noinline optnone uwtable
define linkonce_odr void @_ZN11StringAccum6appendEPKc(%class.StringAccum*, i8*) #0 comdat align 2 {
  %3 = alloca %class.StringAccum*, align 8
  %4 = alloca i8*, align 8
  store %class.StringAccum* %0, %class.StringAccum** %3, align 8
  store i8* %1, i8** %4, align 8
  %5 = load %class.StringAccum*, %class.StringAccum** %3, align 8
  %6 = load i8*, i8** %4, align 8
  %7 = icmp ne i8* %6, null
  br i1 %7, label %8, label %14

; <label>:8:                                      ; preds = %2
  br i1 false, label %9, label %14

; <label>:9:                                      ; preds = %8
  %10 = load i8*, i8** %4, align 8
  %11 = load i8*, i8** %4, align 8
  %12 = call i64 @strlen(i8* %11) #12
  %13 = trunc i64 %12 to i32
  call void @_ZN11StringAccum6appendEPKci(%class.StringAccum* %5, i8* %10, i32 %13)
  br label %16

; <label>:14:                                     ; preds = %8, %2
  %15 = load i8*, i8** %4, align 8
  call void @_ZN11StringAccum16hard_append_cstrEPKc(%class.StringAccum* %5, i8* %15)
  br label %16

; <label>:16:                                     ; preds = %14, %9
  ret void
}

; Function Attrs: noinline optnone uwtable
define linkonce_odr void @_ZN11StringAccum6appendEPKci(%class.StringAccum*, i8*, i32) #0 comdat align 2 {
  %4 = alloca %class.StringAccum*, align 8
  %5 = alloca i8*, align 8
  %6 = alloca i32, align 4
  store %class.StringAccum* %0, %class.StringAccum** %4, align 8
  store i8* %1, i8** %5, align 8
  store i32 %2, i32* %6, align 4
  %7 = load %class.StringAccum*, %class.StringAccum** %4, align 8
  %8 = load i32, i32* %6, align 4
  %9 = icmp sge i32 %8, 0
  br i1 %9, label %10, label %11

; <label>:10:                                     ; preds = %3
  br label %13

; <label>:11:                                     ; preds = %3
  call void @__assert_fail(i8* getelementptr inbounds ([9 x i8], [9 x i8]* @.str.8, i32 0, i32 0), i8* getelementptr inbounds ([37 x i8], [37 x i8]* @.str.9, i32 0, i32 0), i32 433, i8* getelementptr inbounds ([44 x i8], [44 x i8]* @__PRETTY_FUNCTION__._ZN11StringAccum6appendEPKci, i32 0, i32 0)) #11
  unreachable
                                                  ; No predecessors!
  br label %13

; <label>:13:                                     ; preds = %12, %10
  %14 = getelementptr inbounds %class.StringAccum, %class.StringAccum* %7, i32 0, i32 0
  %15 = getelementptr inbounds %"struct.StringAccum::rep_t", %"struct.StringAccum::rep_t"* %14, i32 0, i32 1
  %16 = load i32, i32* %15, align 8
  %17 = load i32, i32* %6, align 4
  %18 = add nsw i32 %16, %17
  %19 = getelementptr inbounds %class.StringAccum, %class.StringAccum* %7, i32 0, i32 0
  %20 = getelementptr inbounds %"struct.StringAccum::rep_t", %"struct.StringAccum::rep_t"* %19, i32 0, i32 2
  %21 = load i32, i32* %20, align 4
  %22 = icmp sle i32 %18, %21
  br i1 %22, label %23, label %40

; <label>:23:                                     ; preds = %13
  %24 = getelementptr inbounds %class.StringAccum, %class.StringAccum* %7, i32 0, i32 0
  %25 = getelementptr inbounds %"struct.StringAccum::rep_t", %"struct.StringAccum::rep_t"* %24, i32 0, i32 0
  %26 = load i8*, i8** %25, align 8
  %27 = getelementptr inbounds %class.StringAccum, %class.StringAccum* %7, i32 0, i32 0
  %28 = getelementptr inbounds %"struct.StringAccum::rep_t", %"struct.StringAccum::rep_t"* %27, i32 0, i32 1
  %29 = load i32, i32* %28, align 8
  %30 = sext i32 %29 to i64
  %31 = getelementptr inbounds i8, i8* %26, i64 %30
  %32 = load i8*, i8** %5, align 8
  %33 = load i32, i32* %6, align 4
  %34 = sext i32 %33 to i64
  call void @llvm.memcpy.p0i8.p0i8.i64(i8* %31, i8* %32, i64 %34, i32 1, i1 false)
  %35 = load i32, i32* %6, align 4
  %36 = getelementptr inbounds %class.StringAccum, %class.StringAccum* %7, i32 0, i32 0
  %37 = getelementptr inbounds %"struct.StringAccum::rep_t", %"struct.StringAccum::rep_t"* %36, i32 0, i32 1
  %38 = load i32, i32* %37, align 8
  %39 = add nsw i32 %38, %35
  store i32 %39, i32* %37, align 8
  br label %43

; <label>:40:                                     ; preds = %13
  %41 = load i8*, i8** %5, align 8
  %42 = load i32, i32* %6, align 4
  call void @_ZN11StringAccum11hard_appendEPKci(%class.StringAccum* %7, i8* %41, i32 %42)
  br label %43

; <label>:43:                                     ; preds = %40, %23
  ret void
}

; Function Attrs: nounwind readonly
declare i64 @strlen(i8*) #6

declare void @_ZN11StringAccum16hard_append_cstrEPKc(%class.StringAccum*, i8*) #1

; Function Attrs: argmemonly nounwind
declare void @llvm.memcpy.p0i8.p0i8.i64(i8* nocapture writeonly, i8* nocapture readonly, i64, i32, i1) #7

declare void @_ZN11StringAccum11hard_appendEPKci(%class.StringAccum*, i8*, i32) #1

declare dereferenceable(16) %class.StringAccum* @_ZlsR11StringAccuml(%class.StringAccum* dereferenceable(16), i64) #1

; Function Attrs: noinline optnone uwtable
define linkonce_odr void @_ZNK6String5derefEv(%class.String*) #0 comdat align 2 {
  %2 = alloca %class.String*, align 8
  store %class.String* %0, %class.String** %2, align 8
  %3 = load %class.String*, %class.String** %2, align 8
  %4 = getelementptr inbounds %class.String, %class.String* %3, i32 0, i32 0
  %5 = getelementptr inbounds %"struct.String::rep_t", %"struct.String::rep_t"* %4, i32 0, i32 2
  %6 = load %"struct.String::memo_t"*, %"struct.String::memo_t"** %5, align 8
  %7 = icmp ne %"struct.String::memo_t"* %6, null
  br i1 %7, label %8, label %31

; <label>:8:                                      ; preds = %1
  %9 = getelementptr inbounds %class.String, %class.String* %3, i32 0, i32 0
  %10 = getelementptr inbounds %"struct.String::rep_t", %"struct.String::rep_t"* %9, i32 0, i32 2
  %11 = load %"struct.String::memo_t"*, %"struct.String::memo_t"** %10, align 8
  %12 = getelementptr inbounds %"struct.String::memo_t", %"struct.String::memo_t"* %11, i32 0, i32 0
  %13 = load volatile i32, i32* %12, align 4
  %14 = icmp ne i32 %13, 0
  br i1 %14, label %15, label %16

; <label>:15:                                     ; preds = %8
  br label %18

; <label>:16:                                     ; preds = %8
  call void @__assert_fail(i8* getelementptr inbounds ([18 x i8], [18 x i8]* @.str.10, i32 0, i32 0), i8* getelementptr inbounds ([35 x i8], [35 x i8]* @.str.11, i32 0, i32 0), i32 272, i8* getelementptr inbounds ([27 x i8], [27 x i8]* @__PRETTY_FUNCTION__._ZNK6String5derefEv, i32 0, i32 0)) #11
  unreachable
                                                  ; No predecessors!
  br label %18

; <label>:18:                                     ; preds = %17, %15
  %19 = getelementptr inbounds %class.String, %class.String* %3, i32 0, i32 0
  %20 = getelementptr inbounds %"struct.String::rep_t", %"struct.String::rep_t"* %19, i32 0, i32 2
  %21 = load %"struct.String::memo_t"*, %"struct.String::memo_t"** %20, align 8
  %22 = getelementptr inbounds %"struct.String::memo_t", %"struct.String::memo_t"* %21, i32 0, i32 0
  %23 = call zeroext i1 @_ZN15atomic_uint32_t12dec_and_testERVj(i32* dereferenceable(4) %22)
  br i1 %23, label %24, label %28

; <label>:24:                                     ; preds = %18
  %25 = getelementptr inbounds %class.String, %class.String* %3, i32 0, i32 0
  %26 = getelementptr inbounds %"struct.String::rep_t", %"struct.String::rep_t"* %25, i32 0, i32 2
  %27 = load %"struct.String::memo_t"*, %"struct.String::memo_t"** %26, align 8
  call void @_ZN6String11delete_memoEPNS_6memo_tE(%"struct.String::memo_t"* %27)
  br label %28

; <label>:28:                                     ; preds = %24, %18
  %29 = getelementptr inbounds %class.String, %class.String* %3, i32 0, i32 0
  %30 = getelementptr inbounds %"struct.String::rep_t", %"struct.String::rep_t"* %29, i32 0, i32 2
  store %"struct.String::memo_t"* null, %"struct.String::memo_t"** %30, align 8
  br label %31

; <label>:31:                                     ; preds = %28, %1
  ret void
}

; Function Attrs: noinline noreturn nounwind
define linkonce_odr hidden void @__clang_call_terminate(i8*) #8 comdat {
  %2 = call i8* @__cxa_begin_catch(i8* %0) #9
  call void @_ZSt9terminatev() #11
  unreachable
}

declare i8* @__cxa_begin_catch(i8*)

declare void @_ZSt9terminatev()

; Function Attrs: noinline nounwind optnone uwtable
define linkonce_odr zeroext i1 @_ZN15atomic_uint32_t12dec_and_testERVj(i32* dereferenceable(4)) #2 comdat align 2 {
  %2 = alloca i32*, align 8
  store i32* %0, i32** %2, align 8
  %3 = load i32*, i32** %2, align 8
  %4 = load volatile i32, i32* %3, align 4
  %5 = add i32 %4, -1
  store volatile i32 %5, i32* %3, align 4
  %6 = icmp eq i32 %5, 0
  ret i1 %6
}

declare void @_ZN6String11delete_memoEPNS_6memo_tE(%"struct.String::memo_t"*) #1

; Function Attrs: nobuiltin nounwind
declare void @_ZdaPv(i8*) #4

; Function Attrs: noinline optnone uwtable
define linkonce_odr dereferenceable(112) %class.Args* @_ZN4Args4readIbEERS_PKciRT_(%class.Args*, i8*, i32, i8* dereferenceable(1)) #0 comdat align 2 {
  %5 = alloca %class.Args*, align 8
  %6 = alloca i8*, align 8
  %7 = alloca i32, align 4
  %8 = alloca i8*, align 8
  store %class.Args* %0, %class.Args** %5, align 8
  store i8* %1, i8** %6, align 8
  store i32 %2, i32* %7, align 4
  store i8* %3, i8** %8, align 8
  %9 = load %class.Args*, %class.Args** %5, align 8
  %10 = load i8*, i8** %6, align 8
  %11 = load i32, i32* %7, align 4
  %12 = load i8*, i8** %8, align 8
  call void @_Z14args_base_readIbEvP4ArgsPKciRT_(%class.Args* %9, i8* %10, i32 %11, i8* dereferenceable(1) %12)
  ret %class.Args* %9
}

; Function Attrs: noinline optnone uwtable
define linkonce_odr void @_Z14args_base_readIbEvP4ArgsPKciRT_(%class.Args*, i8*, i32, i8* dereferenceable(1)) #0 comdat {
  %5 = alloca %class.Args*, align 8
  %6 = alloca i8*, align 8
  %7 = alloca i32, align 4
  %8 = alloca i8*, align 8
  store %class.Args* %0, %class.Args** %5, align 8
  store i8* %1, i8** %6, align 8
  store i32 %2, i32* %7, align 4
  store i8* %3, i8** %8, align 8
  %9 = load %class.Args*, %class.Args** %5, align 8
  %10 = load i8*, i8** %6, align 8
  %11 = load i32, i32* %7, align 4
  %12 = load i8*, i8** %8, align 8
  call void @_ZN4Args9base_readIbEEvPKciRT_(%class.Args* %9, i8* %10, i32 %11, i8* dereferenceable(1) %12)
  ret void
}

; Function Attrs: noinline optnone uwtable
define linkonce_odr void @_ZN4Args9base_readIbEEvPKciRT_(%class.Args*, i8*, i32, i8* dereferenceable(1)) #0 comdat align 2 personality i8* bitcast (i32 (...)* @__gxx_personality_v0 to i8*) {
  %5 = alloca %class.Args*, align 8
  %6 = alloca i8*, align 8
  %7 = alloca i32, align 4
  %8 = alloca i8*, align 8
  %9 = alloca %"struct.Args::Slot"*, align 8
  %10 = alloca %class.String, align 8
  %11 = alloca i8*
  %12 = alloca i32
  %13 = alloca i8*, align 8
  %14 = alloca %struct.DefaultArg, align 1
  store %class.Args* %0, %class.Args** %5, align 8
  store i8* %1, i8** %6, align 8
  store i32 %2, i32* %7, align 4
  store i8* %3, i8** %8, align 8
  %15 = load %class.Args*, %class.Args** %5, align 8
  %16 = load i8*, i8** %6, align 8
  %17 = load i32, i32* %7, align 4
  call void @_ZN4Args4findEPKciRPNS_4SlotE(%class.String* sret %10, %class.Args* %15, i8* %16, i32 %17, %"struct.Args::Slot"** dereferenceable(8) %9)
  %18 = invoke { i64, i64 } @_ZNK6StringcvMS_KFivEEv(%class.String* %10)
          to label %19 unwind label %36

; <label>:19:                                     ; preds = %4
  %20 = extractvalue { i64, i64 } %18, 0
  %21 = icmp ne i64 %20, 0
  br i1 %21, label %22, label %40

; <label>:22:                                     ; preds = %19
  %23 = load i8*, i8** %8, align 8
  %24 = invoke i8* @_ZN17Args_parse_helperI10DefaultArgIbELb0EE4slotIb4ArgsEEPT_RS5_RT0_(i8* dereferenceable(1) %23, %class.Args* dereferenceable(112) %15)
          to label %25 unwind label %36

; <label>:25:                                     ; preds = %22
  store i8* %24, i8** %13, align 8
  %26 = load i8*, i8** %13, align 8
  %27 = icmp ne i8* %26, null
  br i1 %27, label %28, label %32

; <label>:28:                                     ; preds = %25
  %29 = load i8*, i8** %13, align 8
  %30 = invoke zeroext i1 @_ZN17Args_parse_helperI10DefaultArgIbELb0EE5parseIb4ArgsEEbS1_RK6StringRT_RT0_(%class.String* dereferenceable(24) %10, i8* dereferenceable(1) %29, %class.Args* dereferenceable(112) %15)
          to label %31 unwind label %36

; <label>:31:                                     ; preds = %28
  br label %32

; <label>:32:                                     ; preds = %31, %25
  %33 = phi i1 [ false, %25 ], [ %30, %31 ]
  %34 = load %"struct.Args::Slot"*, %"struct.Args::Slot"** %9, align 8
  invoke void @_ZN4Args9postparseEbPNS_4SlotE(%class.Args* %15, i1 zeroext %33, %"struct.Args::Slot"* %34)
          to label %35 unwind label %36

; <label>:35:                                     ; preds = %32
  br label %40

; <label>:36:                                     ; preds = %32, %28, %22, %4
  %37 = landingpad { i8*, i32 }
          cleanup
  %38 = extractvalue { i8*, i32 } %37, 0
  store i8* %38, i8** %11, align 8
  %39 = extractvalue { i8*, i32 } %37, 1
  store i32 %39, i32* %12, align 4
  call void @_ZN6StringD2Ev(%class.String* %10) #9
  br label %41

; <label>:40:                                     ; preds = %35, %19
  call void @_ZN6StringD2Ev(%class.String* %10) #9
  ret void

; <label>:41:                                     ; preds = %36
  %42 = load i8*, i8** %11, align 8
  %43 = load i32, i32* %12, align 4
  %44 = insertvalue { i8*, i32 } undef, i8* %42, 0
  %45 = insertvalue { i8*, i32 } %44, i32 %43, 1
  resume { i8*, i32 } %45
}

declare void @_ZN4Args4findEPKciRPNS_4SlotE(%class.String* sret, %class.Args*, i8*, i32, %"struct.Args::Slot"** dereferenceable(8)) #1

; Function Attrs: noinline nounwind optnone uwtable
define linkonce_odr { i64, i64 } @_ZNK6StringcvMS_KFivEEv(%class.String*) #2 comdat align 2 {
  %2 = alloca %class.String*, align 8
  store %class.String* %0, %class.String** %2, align 8
  %3 = load %class.String*, %class.String** %2, align 8
  %4 = getelementptr inbounds %class.String, %class.String* %3, i32 0, i32 0
  %5 = getelementptr inbounds %"struct.String::rep_t", %"struct.String::rep_t"* %4, i32 0, i32 1
  %6 = load i32, i32* %5, align 8
  %7 = icmp ne i32 %6, 0
  %8 = zext i1 %7 to i64
  %9 = select i1 %7, { i64, i64 } { i64 ptrtoint (i32 (%class.String*)* @_ZNK6String6lengthEv to i64), i64 0 }, { i64, i64 } zeroinitializer
  ret { i64, i64 } %9
}

; Function Attrs: noinline optnone uwtable
define linkonce_odr i8* @_ZN17Args_parse_helperI10DefaultArgIbELb0EE4slotIb4ArgsEEPT_RS5_RT0_(i8* dereferenceable(1), %class.Args* dereferenceable(112)) #0 comdat align 2 {
  %3 = alloca i8*, align 8
  %4 = alloca %class.Args*, align 8
  store i8* %0, i8** %3, align 8
  store %class.Args* %1, %class.Args** %4, align 8
  %5 = load %class.Args*, %class.Args** %4, align 8
  %6 = load i8*, i8** %3, align 8
  %7 = call i8* @_ZN4Args4slotIbEEPT_RS1_(%class.Args* %5, i8* dereferenceable(1) %6)
  ret i8* %7
}

declare void @_ZN4Args9postparseEbPNS_4SlotE(%class.Args*, i1 zeroext, %"struct.Args::Slot"*) #1

; Function Attrs: noinline optnone uwtable
define linkonce_odr zeroext i1 @_ZN17Args_parse_helperI10DefaultArgIbELb0EE5parseIb4ArgsEEbS1_RK6StringRT_RT0_(%class.String* dereferenceable(24), i8* dereferenceable(1), %class.Args* dereferenceable(112)) #0 comdat align 2 {
  %4 = alloca %struct.DefaultArg, align 1
  %5 = alloca %class.String*, align 8
  %6 = alloca i8*, align 8
  %7 = alloca %class.Args*, align 8
  store %class.String* %0, %class.String** %5, align 8
  store i8* %1, i8** %6, align 8
  store %class.Args* %2, %class.Args** %7, align 8
  %8 = load %class.String*, %class.String** %5, align 8
  %9 = load i8*, i8** %6, align 8
  %10 = load %class.Args*, %class.Args** %7, align 8
  %11 = bitcast %class.Args* %10 to %class.ArgContext*
  %12 = call zeroext i1 @_ZN7BoolArg5parseERK6StringRbRK10ArgContext(%class.String* dereferenceable(24) %8, i8* dereferenceable(1) %9, %class.ArgContext* dereferenceable(32) %11)
  ret i1 %12
}

; Function Attrs: noinline nounwind optnone uwtable
define linkonce_odr i32 @_ZNK6String6lengthEv(%class.String*) #2 comdat align 2 {
  %2 = alloca %class.String*, align 8
  store %class.String* %0, %class.String** %2, align 8
  %3 = load %class.String*, %class.String** %2, align 8
  %4 = getelementptr inbounds %class.String, %class.String* %3, i32 0, i32 0
  %5 = getelementptr inbounds %"struct.String::rep_t", %"struct.String::rep_t"* %4, i32 0, i32 1
  %6 = load i32, i32* %5, align 8
  ret i32 %6
}

; Function Attrs: noinline optnone uwtable
define linkonce_odr i8* @_ZN4Args4slotIbEEPT_RS1_(%class.Args*, i8* dereferenceable(1)) #0 comdat align 2 {
  %3 = alloca %class.Args*, align 8
  %4 = alloca i8*, align 8
  store %class.Args* %0, %class.Args** %3, align 8
  store i8* %1, i8** %4, align 8
  %5 = load %class.Args*, %class.Args** %3, align 8
  %6 = load i8*, i8** %4, align 8
  %7 = call i8* @_ZN4Args11simple_slotEPvm(%class.Args* %5, i8* %6, i64 1)
  ret i8* %7
}

declare i8* @_ZN4Args11simple_slotEPvm(%class.Args*, i8*, i64) #1

declare zeroext i1 @_ZN7BoolArg5parseERK6StringRbRK10ArgContext(%class.String* dereferenceable(24), i8* dereferenceable(1), %class.ArgContext* dereferenceable(32)) #1

attributes #0 = { noinline optnone uwtable "correctly-rounded-divide-sqrt-fp-math"="false" "disable-tail-calls"="false" "less-precise-fpmad"="false" "no-frame-pointer-elim"="true" "no-frame-pointer-elim-non-leaf" "no-infs-fp-math"="false" "no-jump-tables"="false" "no-nans-fp-math"="false" "no-signed-zeros-fp-math"="false" "no-trapping-math"="false" "stack-protector-buffer-size"="8" "target-cpu"="x86-64" "target-features"="+fxsr,+mmx,+sse,+sse2,+x87" "unsafe-fp-math"="false" "use-soft-float"="false" }
attributes #1 = { "correctly-rounded-divide-sqrt-fp-math"="false" "disable-tail-calls"="false" "less-precise-fpmad"="false" "no-frame-pointer-elim"="true" "no-frame-pointer-elim-non-leaf" "no-infs-fp-math"="false" "no-nans-fp-math"="false" "no-signed-zeros-fp-math"="false" "no-trapping-math"="false" "stack-protector-buffer-size"="8" "target-cpu"="x86-64" "target-features"="+fxsr,+mmx,+sse,+sse2,+x87" "unsafe-fp-math"="false" "use-soft-float"="false" }
attributes #2 = { noinline nounwind optnone uwtable "correctly-rounded-divide-sqrt-fp-math"="false" "disable-tail-calls"="false" "less-precise-fpmad"="false" "no-frame-pointer-elim"="true" "no-frame-pointer-elim-non-leaf" "no-infs-fp-math"="false" "no-jump-tables"="false" "no-nans-fp-math"="false" "no-signed-zeros-fp-math"="false" "no-trapping-math"="false" "stack-protector-buffer-size"="8" "target-cpu"="x86-64" "target-features"="+fxsr,+mmx,+sse,+sse2,+x87" "unsafe-fp-math"="false" "use-soft-float"="false" }
attributes #3 = { nounwind "correctly-rounded-divide-sqrt-fp-math"="false" "disable-tail-calls"="false" "less-precise-fpmad"="false" "no-frame-pointer-elim"="true" "no-frame-pointer-elim-non-leaf" "no-infs-fp-math"="false" "no-nans-fp-math"="false" "no-signed-zeros-fp-math"="false" "no-trapping-math"="false" "stack-protector-buffer-size"="8" "target-cpu"="x86-64" "target-features"="+fxsr,+mmx,+sse,+sse2,+x87" "unsafe-fp-math"="false" "use-soft-float"="false" }
attributes #4 = { nobuiltin nounwind "correctly-rounded-divide-sqrt-fp-math"="false" "disable-tail-calls"="false" "less-precise-fpmad"="false" "no-frame-pointer-elim"="true" "no-frame-pointer-elim-non-leaf" "no-infs-fp-math"="false" "no-nans-fp-math"="false" "no-signed-zeros-fp-math"="false" "no-trapping-math"="false" "stack-protector-buffer-size"="8" "target-cpu"="x86-64" "target-features"="+fxsr,+mmx,+sse,+sse2,+x87" "unsafe-fp-math"="false" "use-soft-float"="false" }
attributes #5 = { noreturn nounwind "correctly-rounded-divide-sqrt-fp-math"="false" "disable-tail-calls"="false" "less-precise-fpmad"="false" "no-frame-pointer-elim"="true" "no-frame-pointer-elim-non-leaf" "no-infs-fp-math"="false" "no-nans-fp-math"="false" "no-signed-zeros-fp-math"="false" "no-trapping-math"="false" "stack-protector-buffer-size"="8" "target-cpu"="x86-64" "target-features"="+fxsr,+mmx,+sse,+sse2,+x87" "unsafe-fp-math"="false" "use-soft-float"="false" }
attributes #6 = { nounwind readonly "correctly-rounded-divide-sqrt-fp-math"="false" "disable-tail-calls"="false" "less-precise-fpmad"="false" "no-frame-pointer-elim"="true" "no-frame-pointer-elim-non-leaf" "no-infs-fp-math"="false" "no-nans-fp-math"="false" "no-signed-zeros-fp-math"="false" "no-trapping-math"="false" "stack-protector-buffer-size"="8" "target-cpu"="x86-64" "target-features"="+fxsr,+mmx,+sse,+sse2,+x87" "unsafe-fp-math"="false" "use-soft-float"="false" }
attributes #7 = { argmemonly nounwind }
attributes #8 = { noinline noreturn nounwind }
attributes #9 = { nounwind }
attributes #10 = { builtin nounwind }
attributes #11 = { noreturn nounwind }
attributes #12 = { nounwind readonly }

!llvm.module.flags = !{!0}
!llvm.ident = !{!1}

!0 = !{i32 1, !"wchar_size", i32 4}
!1 = !{!"clang version 6.0.0-1ubuntu2 (tags/RELEASE_600/final)"}
