; ModuleID = '../../click/elements/test/confparsetest.cc'
source_filename = "../../click/elements/test/confparsetest.cc"
target datalayout = "e-m:e-i64:64-f80:128-n8:16:32:64-S128"
target triple = "x86_64-pc-linux-gnu"

%class.ArgContext = type <{ %class.Element*, %class.ErrorHandler*, i8*, i8, [7 x i8] }>
%class.Element = type <{ i32 (...)**, [2 x %"class.Element::Port"*], [4 x %"class.Element::Port"], [2 x i32], %class.Router*, i32, [4 x i8] }>
%"class.Element::Port" = type <{ %class.Element*, i32, [4 x i8] }>
%class.Router = type opaque
%class.ErrorHandler = type <{ i32 (...)**, i32, [4 x i8] }>
%"struct.String::rep_t" = type { i8*, i32, %"struct.String::memo_t"* }
%"struct.String::memo_t" = type { i32, i32, i32, [8 x i8] }
%class.ConfParseTest = type { %class.Element.base, [4 x i8] }
%class.Element.base = type <{ i32 (...)**, [2 x %"class.Element::Port"*], [4 x %"class.Element::Port"], [2 x i32], %class.Router*, i32 }>
%class.String = type { %"struct.String::rep_t" }
%class.Vector = type { %class.vector_memory }
%class.vector_memory = type { %class.String*, i32, i32 }
%"class.(anonymous namespace)::RecordErrorHandler" = type { %class.ErrorHandler.base, %class.StringAccum }
%class.ErrorHandler.base = type <{ i32 (...)**, i32 }>
%class.StringAccum = type { %"struct.StringAccum::rep_t" }
%"struct.StringAccum::rep_t" = type { i8*, i32, i32 }
%class.Args = type { %class.ArgContext.base, i8, i8, i8, %class.Vector*, %class.Vector.0, %"struct.Args::Slot"*, [48 x i8] }
%class.ArgContext.base = type <{ %class.Element*, %class.ErrorHandler*, i8*, i8 }>
%class.Vector.0 = type { %class.vector_memory.1 }
%class.vector_memory.1 = type { %struct.char_array*, i32, i32 }
%struct.char_array = type opaque
%"struct.Args::Slot" = type { i32 (...)**, %"struct.Args::Slot"* }
%class.IntArg = type { i32, i32 }
%class.BoundedIntArg = type <{ %class.IntArg, i64, i64, i8, [7 x i8] }>
%class.FixedPointArg = type { i32, i32, i32 }
%class.SecondsArg = type { i32, i32 }
%class.BandwidthArg = type { i32 }
%class.IPAddress = type { i32 }
%class.IPPrefixArg = type { i8 }
%class.Timestamp = type { %"union.Timestamp::rep_t" }
%"union.Timestamp::rep_t" = type { i64 }
%struct.timeval = type { i64, i64 }
%class.AnyArg = type { i8 }
%class.NumArg = type { i8 }
%struct.uninitialized_type = type { i8 }
%class.Packet = type { %class.atomic_uint32_t, %class.Packet*, i8*, i8*, i8*, i8*, %"struct.Packet::AllAnno", void (i8*, i64, i8*)*, i8* }
%class.atomic_uint32_t = type { i32 }
%"struct.Packet::AllAnno" = type { %"union.Packet::Anno", i8*, i8*, i8*, i32, [8 x i8], %class.Packet*, %class.Packet* }
%"union.Packet::Anno" = type { [6 x i64] }
%class.Task = type opaque
%class.Timer = type opaque
%struct.__va_list_tag = type { i32, i32, i8*, i8* }
%struct.DefaultArg = type { %class.IntArg }
%"struct.Args::SlotT" = type { %"struct.Args::Slot", %class.Vector*, %class.Vector }
%struct.DefaultArg.2 = type { %class.IntArg }

$_ZeqRK6StringPKc = comdat any

$_ZN6StringC2EPKc = comdat any

$_ZN6StringD2Ev = comdat any

$_ZN6StringaSEPKc = comdat any

$_ZN6VectorI6StringEC2Ev = comdat any

$_ZNK6VectorI6StringE4sizeEv = comdat any

$_ZN6VectorI6StringEixEi = comdat any

$_Z10cp_integerRK6StringPi = comdat any

$_Z10cp_integerRK6StringPj = comdat any

$_Z10cp_integerPKcS0_iPi = comdat any

$_Z10cp_integerRK6StringPx = comdat any

$_Z10cp_integerRK6StringPy = comdat any

$_ZN6IntArgC2Ei = comdat any

$_ZN6IntArg5parseIiEEbRK6StringRT_RK10ArgContext = comdat any

$_ZN6IntArg5parseIjEEbRK6StringRT_RK10ArgContext = comdat any

$_ZNK6String6equalsEPKci = comdat any

$_ZNK6String5c_strEv = comdat any

$_ZN6IntArg16parse_saturatingIjEEbRK6StringRT_RK10ArgContext = comdat any

$_ZN6IntArg16parse_saturatingIiEEbRK6StringRT_RK10ArgContext = comdat any

$_ZN6IntArg5parseIaEEbRK6StringRT_RK10ArgContext = comdat any

$_ZN6IntArg16parse_saturatingIaEEbRK6StringRT_RK10ArgContext = comdat any

$_ZN6IntArg5parseIlEEbRK6StringRT_RK10ArgContext = comdat any

$_ZN6IntArg5parseImEEbRK6StringRT_RK10ArgContext = comdat any

$_ZN6IntArg16parse_saturatingImEEbRK6StringRT_RK10ArgContext = comdat any

$_ZN13BoundedIntArgC2IiEET_S1_i = comdat any

$_ZN13BoundedIntArg5parseIiEEbRK6StringRT_RK10ArgContext = comdat any

$_ZN13BoundedIntArg5parseIjEEbRK6StringRT_RK10ArgContext = comdat any

$_ZN13BoundedIntArgC2IjEET_S1_i = comdat any

$_ZN13FixedPointArgC2Eii = comdat any

$_ZneRK6StringPKc = comdat any

$_ZN10SecondsArgC2Ei = comdat any

$_ZN9IPAddressC2Ev = comdat any

$_ZN11IPPrefixArgC2Eb = comdat any

$_ZN10ArgContextC2EPK7ElementP12ErrorHandler = comdat any

$_Zmi9TimestampRKS_ = comdat any

$_ZN9TimestampC2Eij = comdat any

$_ZN9Timestamp9make_msecEl = comdat any

$_ZNK9Timestamp3secEv = comdat any

$_ZNK9Timestamp4usecEv = comdat any

$_ZeqRK9TimestampS1_ = comdat any

$_ZN9Timestamp12make_jiffiesEi = comdat any

$_ZltRK9TimestampS1_ = comdat any

$_ZN9Timestamp12make_jiffiesEj = comdat any

$_ZngRK9Timestamp = comdat any

$_ZNK9Timestamp6subsecEv = comdat any

$_ZgtRK9TimestampS1_ = comdat any

$_Zpl9TimestampRKS_ = comdat any

$_ZN9Timestamp9make_usecEl = comdat any

$_ZN9Timestamp9make_nsecEl = comdat any

$_ZNK9Timestamp7msecvalEv = comdat any

$_ZNK9Timestamp7usecvalEv = comdat any

$_ZNK9Timestamp7nsecvalEv = comdat any

$_ZN9Timestamp9make_nsecEij = comdat any

$_ZNK9Timestamp7timevalEv = comdat any

$_ZN9TimestampC2ERK7timeval = comdat any

$_ZN9Timestamp9make_usecEij = comdat any

$_ZNK9Timestamp12timeval_ceilEv = comdat any

$_ZNK6String9substringEi = comdat any

$_ZN6String6appendEPKci = comdat any

$_ZNK6String4dataEv = comdat any

$_ZN6StringpLERKS_ = comdat any

$_ZN6StringC2Ev = comdat any

$_ZN6StringaSEOS_ = comdat any

$_ZN6String18make_out_of_memoryEv = comdat any

$_ZN6StringaSERKS_ = comdat any

$_ZNK6String13out_of_memoryEv = comdat any

$_ZN11StringAccumC2Ei = comdat any

$_ZlsR11StringAccumPKc = comdat any

$_ZNK11StringAccum8capacityEv = comdat any

$_ZNK11StringAccum6lengthEv = comdat any

$_ZN11StringAccum6appendEPKci = comdat any

$_ZN11StringAccum4dataEv = comdat any

$_ZlsR11StringAccumRKS_ = comdat any

$_ZlsR11StringAccumRK6String = comdat any

$_ZNK11StringAccum13out_of_memoryEv = comdat any

$_ZeqRK6StringS1_ = comdat any

$_ZN6String11make_stableEPKci = comdat any

$_ZNK6String8hashcodeEv = comdat any

$_ZN6String11make_stableEPKc = comdat any

$_ZN6VectorI6StringE9push_backI13fast_argumentIS0_Lb1EEEENT_23enable_rvalue_referenceEOS0_ = comdat any

$_ZN4Args4readImEERS_PKcRT_ = comdat any

$_ZN4Args11read_statusERb = comdat any

$_ZN4Args13read_all_withI6AnyArg6VectorI6StringEEERS_PKcT_RT0_ = comdat any

$_ZN4Args4readIiEERS_PKcRT_ = comdat any

$_ZN6VectorI6StringE5clearEv = comdat any

$_Zpl6StringRKS_ = comdat any

$_Zpl6StringPKc = comdat any

$_ZN6StringC2Eb = comdat any

$_ZN11StringAccumC2Ev = comdat any

$_ZlsR11StringAccumb = comdat any

$_ZlsR11StringAccumc = comdat any

$_ZN11StringAccumD2Ev = comdat any

$_ZN4Args8read_allI6AnyArg6StringEERS_PKcT_R6VectorIT0_E = comdat any

$_ZN4Args11read_or_setIiiEERS_PKcRT_RKT0_ = comdat any

$_ZN4Args7read_mpIiEERS_PKcRT_ = comdat any

$_ZN6VectorI6StringED2Ev = comdat any

$_ZN13ConfParseTestD2Ev = comdat any

$_ZN13ConfParseTestD0Ev = comdat any

$_ZNK13ConfParseTest10class_nameEv = comdat any

$_ZNK6String11assign_memoEPKciPNS_6memo_tE = comdat any

$_ZN15atomic_uint32_t3incERVj = comdat any

$_ZNK6String5derefEv = comdat any

$__clang_call_terminate = comdat any

$_ZN15atomic_uint32_t12dec_and_testERVj = comdat any

$_ZNK6String5beginEv = comdat any

$_ZNK6String3endEv = comdat any

$_ZN12ErrorHandlerC2Ev = comdat any

$_ZN12ErrorHandlerD2Ev = comdat any

$_ZN12ErrorHandler7accountEi = comdat any

$_ZN12ErrorHandler5clearEv = comdat any

$_ZN11StringAccum6appendEPKcS1_ = comdat any

$_ZN12ErrorHandler9skip_annoEPKcS1_ = comdat any

$_ZNK6StringcvMS_KFivEEv = comdat any

$_ZNK6String6lengthEv = comdat any

$_ZmIR9TimestampRKS_ = comdat any

$_ZN9Timestamp7sub_fixEv = comdat any

$_ZN9Timestamp6assignEij = comdat any

$_ZN9TimestampC2ERK18uninitialized_type = comdat any

$_ZN9Timestamp9value_divElj = comdat any

$_Z10int_dividelj = comdat any

$_ZN9Timestamp14subsec_to_usecEj = comdat any

$_ZpLR9TimestampRKS_ = comdat any

$_ZN9Timestamp7add_fixEv = comdat any

$_ZN9Timestamp14nsec_to_subsecEj = comdat any

$_ZN9Timestamp14usec_to_subsecEj = comdat any

$_ZN6String11absent_memoEv = comdat any

$_ZNK6String6assignERKS_ = comdat any

$_ZN11StringAccum5rep_tC2Ev = comdat any

$_ZN6String10empty_dataEv = comdat any

$_ZN11StringAccum6appendEPKc = comdat any

$_ZNK11StringAccum5beginEv = comdat any

$_ZNK11StringAccum3endEv = comdat any

$_ZN6StringC2EPKciPNS_6memo_tE = comdat any

$_ZN6StringC2EOS_ = comdat any

$_ZN6String6appendEPKc = comdat any

$_ZN11StringAccum6appendEc = comdat any

$_ZN13vector_memoryI18typed_array_memoryI6StringEED2Ev = comdat any

$_ZN18typed_array_memoryI6StringE7destroyEPS0_m = comdat any

$_ZN13vector_memoryI18typed_array_memoryI6StringEE5clearEv = comdat any

$_ZN18typed_array_memoryI6StringE13mark_noaccessEPS0_m = comdat any

$_ZN18sized_array_memoryILm24EE13mark_noaccessEPvm = comdat any

$_ZN13vector_memoryI18typed_array_memoryI6StringEEC2Ev = comdat any

$_Z15extract_integerIjjEvPKT_RT0_ = comdat any

$_ZN22extract_integer_helperILi1EjjE7extractEPKjRj = comdat any

$_Z15extract_integerIjhEvPKT_RT0_ = comdat any

$_ZN22extract_integer_helperILi1EjhE7extractEPKjRh = comdat any

$_ZN6IntArg16parse_saturatingIlEEbRK6StringRT_RK10ArgContext = comdat any

$_Z15extract_integerIjmEvPKT_RT0_ = comdat any

$_ZN22extract_integer_helperILi2EjmE7extractEPKjRm = comdat any

$_ZN22extract_integer_helperILi1EjmE7extractEPKjRm = comdat any

$_ZNK13BoundedIntArg9check_minEx = comdat any

$_ZNK13BoundedIntArg9check_maxEx = comdat any

$_ZNK13BoundedIntArg9check_minEy = comdat any

$_ZNK13BoundedIntArg9check_maxEy = comdat any

$_ZN13vector_memoryI18typed_array_memoryI6StringEE19move_construct_backEPS1_ = comdat any

$_ZN18typed_array_memoryI6StringE4castEPS0_ = comdat any

$_ZN18typed_array_memoryI6StringE14mark_undefinedEPS0_m = comdat any

$_ZN18typed_array_memoryI6StringE14move_constructEPS0_S2_ = comdat any

$_ZN13vector_memoryI18typed_array_memoryI6StringEE21reserve_and_push_backEiPKS1_ = comdat any

$_ZN18sized_array_memoryILm24EE14mark_undefinedEPvm = comdat any

$_Z10click_moveIR6StringEON16remove_referenceIT_E4typeEOS3_ = comdat any

$_ZNK13vector_memoryI18typed_array_memoryI6StringEE18need_argument_copyEPKS1_ = comdat any

$_ZN6StringC2ERKS_ = comdat any

$_ZN18typed_array_memoryI6StringE4moveEPS0_PKS0_m = comdat any

$_ZN13vector_memoryI18typed_array_memoryI6StringEE9push_backEPKS1_ = comdat any

$_ZN18typed_array_memoryI6StringE4fillEPS0_mPKS0_ = comdat any

$_ZN4Args4readImEERS_PKciRT_ = comdat any

$_Z14args_base_readImEvP4ArgsPKciRT_ = comdat any

$_ZN4Args9base_readImEEvPKciRT_ = comdat any

$_ZN17Args_parse_helperI10DefaultArgImELb0EE4slotIm4ArgsEEPT_RS5_RT0_ = comdat any

$_ZN17Args_parse_helperI10DefaultArgImELb0EE5parseIm4ArgsEEbS1_RK6StringRT_RT0_ = comdat any

$_ZN10DefaultArgImEC2Ev = comdat any

$_ZN4Args4slotImEEPT_RS1_ = comdat any

$_ZN4Args13read_all_withI6AnyArg6VectorI6StringEEERS_PKciT_RT0_ = comdat any

$_Z23args_base_read_all_withI6AnyArg6VectorI6StringEEvP4ArgsPKciT_RT0_ = comdat any

$_ZN4Args18base_read_all_withI6AnyArg6VectorI6StringEEEvPKciT_RT0_ = comdat any

$_ZN17Args_parse_helperI6AnyArgLb0EE16initialized_slotI6VectorI6StringE4ArgsEEPT_RS7_RT0_ = comdat any

$_ZN17Args_parse_helperI6AnyArgLb0EE5parseI6VectorI6StringE4ArgsEEbS0_RKS4_RT_RT0_ = comdat any

$_ZN4Args16initialized_slotI6VectorI6StringEEEPT_RS4_ = comdat any

$_ZN4Args4slotI6VectorI6StringEEEPT_RS4_ = comdat any

$_ZN4Args12complex_slotI6VectorI6StringEEEPT_RS4_ = comdat any

$_ZN4Args5SlotTI6VectorI6StringEEC2EPS3_ = comdat any

$_ZN4Args4SlotC2Ev = comdat any

$_ZN4Args5SlotTI6VectorI6StringEED2Ev = comdat any

$_ZN4Args5SlotTI6VectorI6StringEED0Ev = comdat any

$_ZN4Args5SlotTI6VectorI6StringEE5storeEv = comdat any

$_ZN4Args4SlotD2Ev = comdat any

$_ZN4Args4SlotD0Ev = comdat any

$_Z14assign_consumeI6StringEvR6VectorIT_ES4_ = comdat any

$_ZN6VectorI6StringE4swapERS1_ = comdat any

$_ZN13vector_memoryI18typed_array_memoryI6StringEE4swapERS3_ = comdat any

$_ZN6AnyArg5parseERK6StringR6VectorIS0_ERK10ArgContext = comdat any

$_ZN6VectorI6StringE9push_backERKS0_ = comdat any

$_ZN18typed_array_memoryI6StringE4castEPKS0_ = comdat any

$_ZN4Args4readIiEERS_PKciRT_ = comdat any

$_Z14args_base_readIiEvP4ArgsPKciRT_ = comdat any

$_ZN4Args9base_readIiEEvPKciRT_ = comdat any

$_ZN17Args_parse_helperI10DefaultArgIiELb0EE4slotIi4ArgsEEPT_RS5_RT0_ = comdat any

$_ZN17Args_parse_helperI10DefaultArgIiELb0EE5parseIi4ArgsEEbS1_RK6StringRT_RT0_ = comdat any

$_ZN10DefaultArgIiEC2Ev = comdat any

$_ZN4Args4slotIiEEPT_RS1_ = comdat any

$_ZN4Args8read_allI6AnyArg6StringEERS_PKciT_R6VectorIT0_E = comdat any

$_Z18args_base_read_allI6AnyArg6StringEvP4ArgsPKciT_R6VectorIT0_E = comdat any

$_ZN4Args13base_read_allI6AnyArg6StringEEvPKciT_R6VectorIT0_E = comdat any

$_ZN6AnyArg5parseERK6StringRS0_RK10ArgContext = comdat any

$_ZN4Args11read_or_setIiiEERS_PKciRT_RKT0_ = comdat any

$_Z21args_base_read_or_setIiiEvP4ArgsPKciRT_RKT0_ = comdat any

$_ZN4Args16base_read_or_setIiiEEvPKciRT_RKT0_ = comdat any

$_ZTVN4Args5SlotTI6VectorI6StringEEE = comdat any

$_ZTSN4Args5SlotTI6VectorI6StringEEE = comdat any

$_ZTSN4Args4SlotE = comdat any

$_ZTIN4Args4SlotE = comdat any

$_ZTIN4Args5SlotTI6VectorI6StringEEE = comdat any

$_ZTVN4Args4SlotE = comdat any

@_ZTV13ConfParseTest = unnamed_addr constant { [29 x i8*] } { [29 x i8*] [i8* null, i8* bitcast ({ i8*, i8*, i8* }* @_ZTI13ConfParseTest to i8*), i8* bitcast (void (%class.ConfParseTest*)* @_ZN13ConfParseTestD2Ev to i8*), i8* bitcast (void (%class.ConfParseTest*)* @_ZN13ConfParseTestD0Ev to i8*), i8* bitcast (void (%class.Element*, i32, %class.Packet*)* @_ZN7Element4pushEiP6Packet to i8*), i8* bitcast (%class.Packet* (%class.Element*, i32)* @_ZN7Element4pullEi to i8*), i8* bitcast (%class.Packet* (%class.Element*, %class.Packet*)* @_ZN7Element13simple_actionEP6Packet to i8*), i8* bitcast (i1 (%class.Element*, %class.Task*)* @_ZN7Element8run_taskEP4Task to i8*), i8* bitcast (void (%class.Element*, %class.Timer*)* @_ZN7Element9run_timerEP5Timer to i8*), i8* bitcast (void (%class.Element*, i32, i32)* @_ZN7Element8selectedEii to i8*), i8* bitcast (void (%class.Element*, i32)* @_ZN7Element8selectedEi to i8*), i8* bitcast (i8* (%class.ConfParseTest*)* @_ZNK13ConfParseTest10class_nameEv to i8*), i8* bitcast (i8* (%class.Element*)* @_ZNK7Element10port_countEv to i8*), i8* bitcast (i8* (%class.Element*)* @_ZNK7Element10processingEv to i8*), i8* bitcast (i8* (%class.Element*)* @_ZNK7Element9flow_codeEv to i8*), i8* bitcast (i8* (%class.Element*)* @_ZNK7Element5flagsEv to i8*), i8* bitcast (i8* (%class.Element*, i8*)* @_ZN7Element4castEPKc to i8*), i8* bitcast (i8* (%class.Element*, i1, i32, i8*)* @_ZN7Element9port_castEbiPKc to i8*), i8* bitcast (i32 (%class.Element*)* @_ZNK7Element15configure_phaseEv to i8*), i8* bitcast (i32 (%class.Element*, %class.Vector*, %class.ErrorHandler*)* @_ZN7Element9configureER6VectorI6StringEP12ErrorHandler to i8*), i8* bitcast (void (%class.Element*)* @_ZN7Element12add_handlersEv to i8*), i8* bitcast (i32 (%class.ConfParseTest*, %class.ErrorHandler*)* @_ZN13ConfParseTest10initializeEP12ErrorHandler to i8*), i8* bitcast (void (%class.Element*, %class.Element*, %class.ErrorHandler*)* @_ZN7Element10take_stateEPS_P12ErrorHandler to i8*), i8* bitcast (%class.Element* (%class.Element*)* @_ZNK7Element15hotswap_elementEv to i8*), i8* bitcast (void (%class.Element*, i32)* @_ZN7Element7cleanupENS_12CleanupStageE to i8*), i8* bitcast (void (%class.String*, %class.Element*)* @_ZNK7Element11declarationEv to i8*), i8* bitcast (i1 (%class.Element*)* @_ZNK7Element20can_live_reconfigureEv to i8*), i8* bitcast (i32 (%class.Element*, %class.Vector*, %class.ErrorHandler*)* @_ZN7Element16live_reconfigureER6VectorI6StringEP12ErrorHandler to i8*), i8* bitcast (i32 (%class.Element*, i32, i8*)* @_ZN7Element5llrpcEjPv to i8*)] }, align 8
@.str = private unnamed_addr constant [9 x i8] c"  a  b  \00", align 1
@.str.1 = private unnamed_addr constant [5 x i8] c"a  b\00", align 1
@.str.2 = private unnamed_addr constant [26 x i8] c"%s:%d: test %<%s%> failed\00", align 1
@.str.3 = private unnamed_addr constant [43 x i8] c"../../click/elements/test/confparsetest.cc\00", align 1
@.str.4 = private unnamed_addr constant [35 x i8] c"cp_uncomment(\22  a  b  \22) == \22a  b\22\00", align 1
@.str.5 = private unnamed_addr constant [41 x i8] c"  a /* whatever */   // whatever\0A    b  \00", align 1
@.str.6 = private unnamed_addr constant [4 x i8] c"a b\00", align 1
@.str.7 = private unnamed_addr constant [67 x i8] c"cp_uncomment(\22  a /* whatever */   // whatever\5Cn    b  \22) == \22a b\22\00", align 1
@.str.8 = private unnamed_addr constant [18 x i8] c"  \22 /*???  */ \22  \00", align 1
@.str.9 = private unnamed_addr constant [14 x i8] c"\22 /*???  */ \22\00", align 1
@.str.10 = private unnamed_addr constant [57 x i8] c"cp_uncomment(\22  \5C\22 /*???  */ \5C\22  \22) == \22\5C\22 /*???  */ \5C\22\22\00", align 1
@.str.11 = private unnamed_addr constant [31 x i8] c"\22\5Cn\22 abc /* 123 */ '/* def */'\00", align 1
@.str.12 = private unnamed_addr constant [16 x i8] c"\0A abc /* def */\00", align 1
@.str.13 = private unnamed_addr constant [70 x i8] c"cp_unquote(\22\5C\22\5C\5Cn\5C\22 abc /* 123 */ '/* def */'\22) == \22\5Cn abc /* def */\22\00", align 1
@.str.14 = private unnamed_addr constant [8 x i8] c"       \00", align 1
@.str.15 = private unnamed_addr constant [33 x i8] c"cp_eat_space(eat_space) == false\00", align 1
@.str.16 = private unnamed_addr constant [1 x i8] zeroinitializer, align 1
@.str.17 = private unnamed_addr constant [16 x i8] c"eat_space == \22\22\00", align 1
@.str.18 = private unnamed_addr constant [32 x i8] c"cp_eat_space(eat_space) == true\00", align 1
@.str.19 = private unnamed_addr constant [7 x i8] c"a  b  \00", align 1
@.str.20 = private unnamed_addr constant [22 x i8] c"eat_space == \22a  b  \22\00", align 1
@.str.21 = private unnamed_addr constant [8 x i8] c"a, b, c\00", align 1
@.str.22 = private unnamed_addr constant [14 x i8] c"v.size() == 3\00", align 1
@.str.23 = private unnamed_addr constant [2 x i8] c"a\00", align 1
@.str.24 = private unnamed_addr constant [12 x i8] c"v[0] == \22a\22\00", align 1
@.str.25 = private unnamed_addr constant [2 x i8] c"b\00", align 1
@.str.26 = private unnamed_addr constant [12 x i8] c"v[1] == \22b\22\00", align 1
@.str.27 = private unnamed_addr constant [2 x i8] c"c\00", align 1
@.str.28 = private unnamed_addr constant [12 x i8] c"v[2] == \22c\22\00", align 1
@.str.29 = private unnamed_addr constant [18 x i8] c"  a /*?*/ b,  c, \00", align 1
@.str.30 = private unnamed_addr constant [14 x i8] c"v.size() == 5\00", align 1
@.str.31 = private unnamed_addr constant [14 x i8] c"v[3] == \22a b\22\00", align 1
@.str.32 = private unnamed_addr constant [12 x i8] c"v[4] == \22c\22\00", align 1
@.str.33 = private unnamed_addr constant [12 x i8] c"\22x, y\22 // ?\00", align 1
@.str.34 = private unnamed_addr constant [14 x i8] c"v.size() == 6\00", align 1
@.str.35 = private unnamed_addr constant [7 x i8] c"\22x, y\22\00", align 1
@.str.36 = private unnamed_addr constant [19 x i8] c"v[5] == \22\5C\22x, y\5C\22\22\00", align 1
@.str.37 = private unnamed_addr constant [8 x i8] c"a  b, c\00", align 1
@.str.38 = private unnamed_addr constant [14 x i8] c"v.size() == 9\00", align 1
@.str.39 = private unnamed_addr constant [12 x i8] c"v[6] == \22a\22\00", align 1
@.str.40 = private unnamed_addr constant [3 x i8] c"b,\00", align 1
@.str.41 = private unnamed_addr constant [13 x i8] c"v[7] == \22b,\22\00", align 1
@.str.42 = private unnamed_addr constant [12 x i8] c"v[8] == \22c\22\00", align 1
@.str.43 = private unnamed_addr constant [15 x i8] c"  'a /*?*/ b'c\00", align 1
@.str.44 = private unnamed_addr constant [15 x i8] c"v.size() == 10\00", align 1
@.str.45 = private unnamed_addr constant [13 x i8] c"'a /*?*/ b'c\00", align 1
@.str.46 = private unnamed_addr constant [23 x i8] c"v[9] == \22'a /*?*/ b'c\22\00", align 1
@.str.47 = private unnamed_addr constant [2 x i8] c"0\00", align 1
@.str.48 = private unnamed_addr constant [42 x i8] c"cp_integer(\220\22, &i32) == true && i32 == 0\00", align 1
@.str.49 = private unnamed_addr constant [3 x i8] c"-0\00", align 1
@.str.50 = private unnamed_addr constant [43 x i8] c"cp_integer(\22-0\22, &i32) == true && i32 == 0\00", align 1
@.str.51 = private unnamed_addr constant [10 x i8] c"u32 == 97\00", align 1
@.str.52 = private unnamed_addr constant [42 x i8] c"cp_integer(\220\22, &u32) == true && u32 == 0\00", align 1
@.str.53 = private unnamed_addr constant [32 x i8] c"cp_integer(\22-0\22, &u32) == false\00", align 1
@.str.54 = private unnamed_addr constant [11 x i8] c"4294967294\00", align 1
@.str.55 = private unnamed_addr constant [61 x i8] c"cp_integer(\224294967294\22, &u32) == true && u32 == 4294967294U\00", align 1
@.str.56 = private unnamed_addr constant [11 x i8] c"0xFFFFFFFE\00", align 1
@.str.57 = private unnamed_addr constant [61 x i8] c"cp_integer(\220xFFFFFFFE\22, &u32) == true && u32 == 4294967294U\00", align 1
@.str.58 = private unnamed_addr constant [11 x i8] c"4294967296\00", align 1
@cp_errno = external global i32, align 4
@.str.59 = private unnamed_addr constant [89 x i8] c"cp_integer(\224294967296\22, &u32) == true && u32 == 4294967295U && cp_errno == CPE_OVERFLOW\00", align 1
@.str.60 = private unnamed_addr constant [15 x i8] c"42949672961939\00", align 1
@.str.61 = private unnamed_addr constant [93 x i8] c"cp_integer(\2242949672961939\22, &u32) == true && u32 == 4294967295U && cp_errno == CPE_OVERFLOW\00", align 1
@.str.62 = private unnamed_addr constant [12 x i8] c"0xFFFFFFFFF\00", align 1
@.str.63 = private unnamed_addr constant [90 x i8] c"cp_integer(\220xFFFFFFFFF\22, &u32) == true && u32 == 4294967295U && cp_errno == CPE_OVERFLOW\00", align 1
@.str.64 = private unnamed_addr constant [88 x i8] c"cp_integer(\224294967296\22, &i32) == true && i32 == 2147483647 && cp_errno == CPE_OVERFLOW\00", align 1
@.str.65 = private unnamed_addr constant [11 x i8] c"2147483647\00", align 1
@.str.66 = private unnamed_addr constant [82 x i8] c"cp_integer(\222147483647\22, &i32) == true && i32 == 2147483647 && cp_errno == CPE_OK\00", align 1
@.str.67 = private unnamed_addr constant [11 x i8] c"2147483648\00", align 1
@.str.68 = private unnamed_addr constant [88 x i8] c"cp_integer(\222147483648\22, &i32) == true && i32 == 2147483647 && cp_errno == CPE_OVERFLOW\00", align 1
@.str.69 = private unnamed_addr constant [12 x i8] c"-2147483648\00", align 1
@.str.70 = private unnamed_addr constant [88 x i8] c"cp_integer(\22-2147483648\22, &i32) == true && i32 == -2147483647 - 1 && cp_errno == CPE_OK\00", align 1
@.str.71 = private unnamed_addr constant [12 x i8] c"-4294967296\00", align 1
@.str.72 = private unnamed_addr constant [94 x i8] c"cp_integer(\22-4294967296\22, &i32) == true && i32 == -2147483647 - 1 && cp_errno == CPE_OVERFLOW\00", align 1
@.str.73 = private unnamed_addr constant [6 x i8] c"-127 \00", align 1
@.str.74 = private unnamed_addr constant [67 x i8] c"cp_integer(s, s + strlen(s) - 1, 10, &i32) == s + 4 && i32 == -127\00", align 1
@.str.75 = private unnamed_addr constant [63 x i8] c"cp_integer(String(s), &i32) == false && cp_errno == CPE_FORMAT\00", align 1
@.str.76 = private unnamed_addr constant [20 x i8] c"9223372036854775807\00", align 1
@.str.77 = private unnamed_addr constant [78 x i8] c"cp_integer(\229223372036854775807\22, &ll) == true && ll == 0x7FFFFFFFFFFFFFFFULL\00", align 1
@.str.78 = private unnamed_addr constant [21 x i8] c"-9223372036854775808\00", align 1
@.str.79 = private unnamed_addr constant [91 x i8] c"cp_integer(\22-9223372036854775808\22, &ll) == true && ll == (long long) 0x8000000000000000ULL\00", align 1
@.str.80 = private unnamed_addr constant [21 x i8] c"18446744073709551616\00", align 1
@.str.81 = private unnamed_addr constant [109 x i8] c"cp_integer(\2218446744073709551616\22, &ull) == true && ull == 0xFFFFFFFFFFFFFFFFULL && cp_errno == CPE_OVERFLOW\00", align 1
@blank_args = external global %class.ArgContext, align 8
@.str.82 = private unnamed_addr constant [45 x i8] c"IntArg().parse(\220\22, i32) == true && i32 == 0\00", align 1
@.str.83 = private unnamed_addr constant [46 x i8] c"IntArg().parse(\22-0\22, i32) == true && i32 == 0\00", align 1
@.str.84 = private unnamed_addr constant [3 x i8] c"-5\00", align 1
@.str.85 = private unnamed_addr constant [47 x i8] c"IntArg().parse(\22-5\22, i32) == true && i32 == -5\00", align 1
@.str.86 = private unnamed_addr constant [5 x i8] c"aoeu\00", align 1
@.str.87 = private unnamed_addr constant [56 x i8] c"IntArg().parse(\22aoeu\22, u32, args) == false && u32 == 97\00", align 1
@.str.88 = private unnamed_addr constant [15 x i8] c"invalid number\00", align 1
@.str.89 = private unnamed_addr constant [60 x i8] c"%s:%d: test %<%s%> produces unexpected error message %<%s%>\00", align 1
@.str.90 = private unnamed_addr constant [45 x i8] c"IntArg().parse(\220\22, u32) == true && u32 == 0\00", align 1
@.str.91 = private unnamed_addr constant [35 x i8] c"IntArg().parse(\22-0\22, u32) == false\00", align 1
@.str.92 = private unnamed_addr constant [64 x i8] c"IntArg().parse(\224294967294\22, u32) == true && u32 == 4294967294U\00", align 1
@.str.93 = private unnamed_addr constant [64 x i8] c"IntArg().parse(\220xFFFFFFFE\22, u32) == true && u32 == 4294967294U\00", align 1
@.str.94 = private unnamed_addr constant [65 x i8] c"ia.parse(\224294967296\22, u32, args) == false && u32 == 4294967294U\00", align 1
@.str.95 = private unnamed_addr constant [31 x i8] c"out of range, bound 4294967295\00", align 1
@.str.96 = private unnamed_addr constant [75 x i8] c"IntArg().parse_saturating(\224294967296\22, u32) == true && u32 == 4294967295U\00", align 1
@.str.97 = private unnamed_addr constant [60 x i8] c"ia.parse(\2242949672961939\22, u32, args) == false && u32 == 97\00", align 1
@.str.98 = private unnamed_addr constant [79 x i8] c"ia.parse_saturating(\2242949672961939\22, u32, args) == true && u32 == 4294967295U\00", align 1
@.str.99 = private unnamed_addr constant [44 x i8] c"IntArg().parse(\220xFFFFFFFFF\22, u32) == false\00", align 1
@.str.100 = private unnamed_addr constant [76 x i8] c"IntArg().parse_saturating(\220xFFFFFFFFF\22, u32) == true && u32 == 0xFFFFFFFFU\00", align 1
@.str.101 = private unnamed_addr constant [43 x i8] c"ia.parse(\224294967296\22, i32, args) == false\00", align 1
@.str.102 = private unnamed_addr constant [31 x i8] c"out of range, bound 2147483647\00", align 1
@.str.103 = private unnamed_addr constant [74 x i8] c"ia.parse_saturating(\224294967296\22, i32, args) == true && i32 == 2147483647\00", align 1
@.str.104 = private unnamed_addr constant [63 x i8] c"ia.parse(\222147483647\22, i32, args) == true && i32 == 2147483647\00", align 1
@.str.105 = private unnamed_addr constant [64 x i8] c"ia.parse(\222147483648\22, i32, args) == false && i32 == 2147483647\00", align 1
@.str.106 = private unnamed_addr constant [74 x i8] c"ia.parse_saturating(\222147483648\22, i32, args) == true && i32 == 2147483647\00", align 1
@.str.107 = private unnamed_addr constant [69 x i8] c"ia.parse(\22-2147483648\22, i32, args) == true && i32 == -2147483647 - 1\00", align 1
@.str.108 = private unnamed_addr constant [12 x i8] c"-2147483649\00", align 1
@.str.109 = private unnamed_addr constant [70 x i8] c"ia.parse(\22-2147483649\22, i32, args) == false && i32 == -2147483647 - 1\00", align 1
@.str.110 = private unnamed_addr constant [32 x i8] c"out of range, bound -2147483648\00", align 1
@.str.111 = private unnamed_addr constant [80 x i8] c"ia.parse_saturating(\22-2147483649\22, i32, args) == true && i32 == -2147483647 - 1\00", align 1
@.str.112 = private unnamed_addr constant [70 x i8] c"ia.parse(\22-4294967296\22, i32, args) == false && i32 == -2147483647 - 1\00", align 1
@.str.113 = private unnamed_addr constant [3 x i8] c"97\00", align 1
@.str.114 = private unnamed_addr constant [45 x i8] c"ia.parse(\2297\22, i8, args) == true && i8 == 97\00", align 1
@.str.115 = private unnamed_addr constant [4 x i8] c"128\00", align 1
@.str.116 = private unnamed_addr constant [47 x i8] c"ia.parse(\22128\22, i8, args) == false && i8 == 97\00", align 1
@.str.117 = private unnamed_addr constant [24 x i8] c"out of range, bound 127\00", align 1
@.str.118 = private unnamed_addr constant [58 x i8] c"ia.parse_saturating(\22128\22, i8, args) == true && i8 == 127\00", align 1
@.str.119 = private unnamed_addr constant [92 x i8] c"ia.parse(\229223372036854775807\22, i64, args) == true && i64 == int64_t(0x7FFFFFFFFFFFFFFFULL)\00", align 1
@.str.120 = private unnamed_addr constant [93 x i8] c"ia.parse(\22-9223372036854775808\22, i64, args) == true && i64 == int64_t(0x8000000000000000ULL)\00", align 1
@.str.121 = private unnamed_addr constant [47 x i8] c"ia.parse(\22-5\22, i64, args) == true && i64 == -5\00", align 1
@.str.122 = private unnamed_addr constant [65 x i8] c"ia.parse(\2218446744073709551616\22, u64, args) == false && u64 == 0\00", align 1
@.str.123 = private unnamed_addr constant [41 x i8] c"out of range, bound 18446744073709551615\00", align 1
@.str.124 = private unnamed_addr constant [95 x i8] c"ia.parse_saturating(\2218446744073709551616\22, u64, args) == true && u64 == 0xFFFFFFFFFFFFFFFFULL\00", align 1
@.str.125 = private unnamed_addr constant [3 x i8] c"10\00", align 1
@.str.126 = private unnamed_addr constant [65 x i8] c"BoundedIntArg(0, 10).parse(\2210\22, i32, args) == true && i32 == 10\00", align 1
@.str.127 = private unnamed_addr constant [65 x i8] c"BoundedIntArg(0, 9).parse(\2210\22, i32, args) == false && i32 == 10\00", align 1
@.str.128 = private unnamed_addr constant [22 x i8] c"out of range, bound 9\00", align 1
@.str.129 = private unnamed_addr constant [4 x i8] c"-10\00", align 1
@.str.130 = private unnamed_addr constant [67 x i8] c"BoundedIntArg(-1, 9).parse(\22-10\22, i32, args) == false && i32 == 10\00", align 1
@.str.131 = private unnamed_addr constant [23 x i8] c"out of range, bound -1\00", align 1
@.str.132 = private unnamed_addr constant [11 x i8] c"0xFFFFFF00\00", align 1
@.str.133 = private unnamed_addr constant [79 x i8] c"BoundedIntArg(-1000, -90).parse(\220xFFFFFF00\22, u32, args) == false && i32 == 10\00", align 1
@.str.134 = private unnamed_addr constant [24 x i8] c"out of range, bound -90\00", align 1
@.str.135 = private unnamed_addr constant [3 x i8] c"-1\00", align 1
@.str.136 = private unnamed_addr constant [69 x i8] c"BoundedIntArg(0U, 100U).parse(\22-1\22, i32, args) == false && i32 == 10\00", align 1
@.str.137 = private unnamed_addr constant [22 x i8] c"out of range, bound 0\00", align 1
@.str.138 = private unnamed_addr constant [68 x i8] c"BoundedIntArg(0U, ~0U).parse(\22-1\22, i32, args) == false && i32 == 10\00", align 1
@.str.139 = private unnamed_addr constant [68 x i8] c"BoundedIntArg(-1, 9).parse(\22aoeu\22, i32, args) == false && i32 == 10\00", align 1
@.str.140 = private unnamed_addr constant [4 x i8] c"0.5\00", align 1
@.str.141 = private unnamed_addr constant [55 x i8] c"FixedPointArg(1).parse(\220.5\22, i32) == true && i32 == 1\00", align 1
@.str.142 = private unnamed_addr constant [5 x i8] c"-0.5\00", align 1
@.str.143 = private unnamed_addr constant [57 x i8] c"FixedPointArg(1).parse(\22-0.5\22, i32) == true && i32 == -1\00", align 1
@.str.144 = private unnamed_addr constant [6 x i8] c"0.418\00", align 1
@.str.145 = private unnamed_addr constant [26 x i8] c"%s:%d: %<%s%> unparseable\00", align 1
@.str.146 = private unnamed_addr constant [62 x i8] c"%s:%d: %<%s%> parsed and unparsed is %<%s%>, should be %<%s%>\00", align 1
@.str.147 = private unnamed_addr constant [6 x i8] c"0.417\00", align 1
@.str.148 = private unnamed_addr constant [6 x i8] c"0.416\00", align 1
@.str.149 = private unnamed_addr constant [6 x i8] c"0.414\00", align 1
@.str.150 = private unnamed_addr constant [5 x i8] c"0.42\00", align 1
@.str.151 = private unnamed_addr constant [4 x i8] c"0.3\00", align 1
@.str.152 = private unnamed_addr constant [5 x i8] c"0.49\00", align 1
@.str.153 = private unnamed_addr constant [6 x i8] c"0.499\00", align 1
@.str.154 = private unnamed_addr constant [7 x i8] c"0.4999\00", align 1
@.str.155 = private unnamed_addr constant [8 x i8] c"0.49999\00", align 1
@.str.156 = private unnamed_addr constant [8 x i8] c"0.49998\00", align 1
@.str.157 = private unnamed_addr constant [9 x i8] c"0.499999\00", align 1
@.str.158 = private unnamed_addr constant [9 x i8] c"0.999999\00", align 1
@.str.159 = private unnamed_addr constant [2 x i8] c"1\00", align 1
@.str.160 = private unnamed_addr constant [47 x i8] c"cp_real2(\22-0.5\22, 1, &i32) == true && i32 == -1\00", align 1
@.str.161 = private unnamed_addr constant [5 x i8] c"3600\00", align 1
@.str.162 = private unnamed_addr constant [55 x i8] c"SecondsArg().parse(\223600\22, u32) == true && u32 == 3600\00", align 1
@.str.163 = private unnamed_addr constant [54 x i8] c"cp_seconds_as(\223600\22, 0, &u32) == true && u32 == 3600\00", align 1
@.str.164 = private unnamed_addr constant [6 x i8] c"3600s\00", align 1
@.str.165 = private unnamed_addr constant [56 x i8] c"SecondsArg().parse(\223600s\22, u32) == true && u32 == 3600\00", align 1
@.str.166 = private unnamed_addr constant [11 x i8] c"3.6e6 msec\00", align 1
@.str.167 = private unnamed_addr constant [61 x i8] c"SecondsArg().parse(\223.6e6 msec\22, u32) == true && u32 == 3600\00", align 1
@.str.168 = private unnamed_addr constant [4 x i8] c"60m\00", align 1
@.str.169 = private unnamed_addr constant [54 x i8] c"SecondsArg().parse(\2260m\22, u32) == true && u32 == 3600\00", align 1
@.str.170 = private unnamed_addr constant [5 x i8] c"1 hr\00", align 1
@.str.171 = private unnamed_addr constant [55 x i8] c"SecondsArg().parse(\221 hr\22, u32) == true && u32 == 3600\00", align 1
@.str.172 = private unnamed_addr constant [8 x i8] c"1.99 hr\00", align 1
@.str.173 = private unnamed_addr constant [58 x i8] c"SecondsArg().parse(\221.99 hr\22, u32) == true && u32 == 7164\00", align 1
@.str.174 = private unnamed_addr constant [7 x i8] c"1.99 s\00", align 1
@.str.175 = private unnamed_addr constant [54 x i8] c"SecondsArg().parse(\221.99 s\22, u32) == true && u32 == 2\00", align 1
@.str.176 = private unnamed_addr constant [56 x i8] c"SecondsArg(1).parse(\221.99 s\22, u32) == true && u32 == 20\00", align 1
@.str.177 = private unnamed_addr constant [57 x i8] c"SecondsArg(2).parse(\221.99 s\22, u32) == true && u32 == 199\00", align 1
@.str.178 = private unnamed_addr constant [4 x i8] c"1ms\00", align 1
@.str.179 = private unnamed_addr constant [51 x i8] c"SecondsArg().parse(\221ms\22, u32) == true && u32 == 0\00", align 1
@.str.180 = private unnamed_addr constant [52 x i8] c"SecondsArg(3).parse(\221ms\22, u32) == true && u32 == 1\00", align 1
@.str.181 = private unnamed_addr constant [6 x i8] c"1.9ms\00", align 1
@.str.182 = private unnamed_addr constant [54 x i8] c"SecondsArg(3).parse(\221.9ms\22, u32) == true && u32 == 2\00", align 1
@.str.183 = private unnamed_addr constant [55 x i8] c"SecondsArg(6).parse(\221ms\22, u32) == true && u32 == 1000\00", align 1
@.str.184 = private unnamed_addr constant [57 x i8] c"SecondsArg(6).parse(\221.9ms\22, u32) == true && u32 == 1900\00", align 1
@.str.185 = private unnamed_addr constant [51 x i8] c"SecondsArg().parse(\223600\22, d) == true && d == 3600\00", align 1
@.str.186 = private unnamed_addr constant [52 x i8] c"SecondsArg().parse(\223600s\22, d) == true && d == 3600\00", align 1
@.str.187 = private unnamed_addr constant [57 x i8] c"SecondsArg().parse(\223.6e6 msec\22, d) == true && d == 3600\00", align 1
@.str.188 = private unnamed_addr constant [50 x i8] c"SecondsArg().parse(\2260m\22, d) == true && d == 3600\00", align 1
@.str.189 = private unnamed_addr constant [51 x i8] c"SecondsArg().parse(\221 hr\22, d) == true && d == 3600\00", align 1
@.str.190 = private unnamed_addr constant [2 x i8] c"8\00", align 1
@.str.191 = private unnamed_addr constant [85 x i8] c"bwarg.parse(\228\22, u32) == true && bwarg.status == NumArg::status_unitless && u32 == 8\00", align 1
@.str.192 = private unnamed_addr constant [7 x i8] c"8 baud\00", align 1
@.str.193 = private unnamed_addr constant [84 x i8] c"bwarg.parse(\228 baud\22, u32) == true && bwarg.status == NumArg::status_ok && u32 == 1\00", align 1
@.str.194 = private unnamed_addr constant [6 x i8] c"8Kbps\00", align 1
@.str.195 = private unnamed_addr constant [86 x i8] c"bwarg.parse(\228Kbps\22, u32) == true && bwarg.status == NumArg::status_ok && u32 == 1000\00", align 1
@.str.196 = private unnamed_addr constant [6 x i8] c"8KBps\00", align 1
@.str.197 = private unnamed_addr constant [86 x i8] c"bwarg.parse(\228KBps\22, u32) == true && bwarg.status == NumArg::status_ok && u32 == 8000\00", align 1
@.str.198 = private unnamed_addr constant [11 x i8] c"18.26.4/24\00", align 1
@.str.199 = private unnamed_addr constant [13 x i8] c"18.26.4.0/24\00", align 1
@.str.200 = private unnamed_addr constant [98 x i8] c"IPPrefixArg().parse(\2218.26.4/24\22, a, m, this) == true && a.unparse_with_mask(m) == \2218.26.4.0/24\22\00", align 1
@.str.201 = private unnamed_addr constant [11 x i8] c"18.26.4/28\00", align 1
@.str.202 = private unnamed_addr constant [55 x i8] c"IPPrefixArg().parse(\2218.26.4/28\22, a, m, this) == false\00", align 1
@.str.203 = private unnamed_addr constant [36 x i8] c"t.sec() == -2 && t.usec() == 999000\00", align 1
@.str.204 = private unnamed_addr constant [10 x i8] c"-1.001000\00", align 1
@.str.205 = private unnamed_addr constant [27 x i8] c"t.unparse() == \22-1.001000\22\00", align 1
@.str.206 = private unnamed_addr constant [65 x i8] c"t == Timestamp::make_jiffies((click_jiffies_difference_t) -1001)\00", align 1
@.str.207 = private unnamed_addr constant [53 x i8] c"t < Timestamp::make_jiffies((click_jiffies_t) -1001)\00", align 1
@.str.208 = private unnamed_addr constant [54 x i8] c"-t == Timestamp::make_jiffies((click_jiffies_t) 1001)\00", align 1
@.str.209 = private unnamed_addr constant [65 x i8] c"-t == Timestamp::make_jiffies((click_jiffies_difference_t) 1001)\00", align 1
@.str.210 = private unnamed_addr constant [36 x i8] c"t2.sec() == -10 && t2.subsec() == 0\00", align 1
@.str.211 = private unnamed_addr constant [11 x i8] c"-10.000000\00", align 1
@.str.212 = private unnamed_addr constant [29 x i8] c"t2.unparse() == \22-10.000000\22\00", align 1
@.str.213 = private unnamed_addr constant [7 x i8] c"t2 < t\00", align 1
@.str.214 = private unnamed_addr constant [10 x i8] c"10.000000\00", align 1
@.str.215 = private unnamed_addr constant [31 x i8] c"(-t2).unparse() == \2210.000000\22\00", align 1
@.str.216 = private unnamed_addr constant [9 x i8] c"1.001000\00", align 1
@.str.217 = private unnamed_addr constant [29 x i8] c"(-t).unparse() == \221.001000\22\00", align 1
@.str.218 = private unnamed_addr constant [8 x i8] c"-t2 > t\00", align 1
@.str.219 = private unnamed_addr constant [10 x i8] c"-8.999000\00", align 1
@.str.220 = private unnamed_addr constant [35 x i8] c"(-t + t2).unparse() == \22-8.999000\22\00", align 1
@.str.221 = private unnamed_addr constant [9 x i8] c"1.998000\00", align 1
@.str.222 = private unnamed_addr constant [32 x i8] c"(t + t).unparse() == \221.998000\22\00", align 1
@.str.223 = private unnamed_addr constant [10 x i8] c"-1.998000\00", align 1
@.str.224 = private unnamed_addr constant [34 x i8] c"(-t - t).unparse() == \22-1.998000\22\00", align 1
@.str.225 = private unnamed_addr constant [33 x i8] c"-t == Timestamp::make_msec(-999)\00", align 1
@.str.226 = private unnamed_addr constant [34 x i8] c"t == Timestamp::make_usec(999000)\00", align 1
@.str.227 = private unnamed_addr constant [36 x i8] c"-t == Timestamp::make_usec(-999000)\00", align 1
@.str.228 = private unnamed_addr constant [37 x i8] c"t == Timestamp::make_nsec(999000000)\00", align 1
@.str.229 = private unnamed_addr constant [39 x i8] c"-t == Timestamp::make_nsec(-999000000)\00", align 1
@.str.230 = private unnamed_addr constant [19 x i8] c"t.msecval() == 999\00", align 1
@.str.231 = private unnamed_addr constant [22 x i8] c"t.usecval() == 999000\00", align 1
@.str.232 = private unnamed_addr constant [25 x i8] c"t.nsecval() == 999000000\00", align 1
@.str.233 = private unnamed_addr constant [23 x i8] c"(-t).msecval() == -999\00", align 1
@.str.234 = private unnamed_addr constant [26 x i8] c"(-t).usecval() == -999000\00", align 1
@.str.235 = private unnamed_addr constant [29 x i8] c"(-t).nsecval() == -999000000\00", align 1
@.str.236 = private unnamed_addr constant [40 x i8] c"t.sec() == -10001 && t.usec() == 999000\00", align 1
@.str.237 = private unnamed_addr constant [47 x i8] c"t.subsec() == 999 * Timestamp::subsec_per_msec\00", align 1
@.str.238 = private unnamed_addr constant [80 x i8] c"Timestamp(Timestamp::make_nsec(0, 999).timeval()) == Timestamp::make_usec(0, 0)\00", align 1
@.str.239 = private unnamed_addr constant [83 x i8] c"Timestamp(Timestamp::make_nsec(0, 1).timeval_ceil()) == Timestamp::make_usec(0, 1)\00", align 1
@.str.240 = private unnamed_addr constant [83 x i8] c"Timestamp(Timestamp::make_nsec(0, 0).timeval_ceil()) == Timestamp::make_usec(0, 0)\00", align 1
@.str.241 = private unnamed_addr constant [7 x i8] c"abcdef\00", align 1
@.str.242 = private unnamed_addr constant [4 x i8] c"def\00", align 1
@.str.243 = private unnamed_addr constant [40 x i8] c"String(\22abcdef\22).substring(-3) == \22def\22\00", align 1
@.str.244 = private unnamed_addr constant [4 x i8] c"abc\00", align 1
@.str.245 = private unnamed_addr constant [37 x i8] c"String(\22abc\22).substring(-3) == \22abc\22\00", align 1
@.str.246 = private unnamed_addr constant [3 x i8] c"ab\00", align 1
@.str.247 = private unnamed_addr constant [35 x i8] c"String(\22ab\22).substring(-3) == \22ab\22\00", align 1
@.str.248 = private unnamed_addr constant [2 x i8] c"d\00", align 1
@.str.249 = private unnamed_addr constant [42 x i8] c"String(\22abcdef\22).substring(-3, -2) == \22d\22\00", align 1
@.str.250 = private unnamed_addr constant [3 x i8] c"de\00", align 1
@.str.251 = private unnamed_addr constant [42 x i8] c"String(\22abcdef\22).substring(-3, 2) == \22de\22\00", align 1
@.str.252 = private unnamed_addr constant [41 x i8] c"String(\22abcdef\22).substring(2, -3) == \22c\22\00", align 1
@.str.253 = private unnamed_addr constant [4 x i8] c"cde\00", align 1
@.str.254 = private unnamed_addr constant [42 x i8] c"String(\22abcdef\22).substring(2, 3) == \22cde\22\00", align 1
@.str.255 = private unnamed_addr constant [5 x i8] c"cdef\00", align 1
@.str.256 = private unnamed_addr constant [44 x i8] c"String(\22abcdef\22).substring(2, 10) == \22cdef\22\00", align 1
@.str.257 = private unnamed_addr constant [3 x i8] c"ef\00", align 1
@.str.258 = private unnamed_addr constant [43 x i8] c"String(\22abcdef\22).substring(-2, 10) == \22ef\22\00", align 1
@.str.259 = private unnamed_addr constant [45 x i8] c"String(\22abcdef\22).substring(-10, -3) == \22abc\22\00", align 1
@.str.260 = private unnamed_addr constant [42 x i8] c"String(\22abcdef\22).substring(-10, -9) == \22\22\00", align 1
@.str.261 = private unnamed_addr constant [41 x i8] c"String(\22abcdef\22).substring(10, -9) == \22\22\00", align 1
@.str.262 = private unnamed_addr constant [15 x i8] c"abcdefghijklmn\00", align 1
@.str.263 = private unnamed_addr constant [27 x i8] c"abcdefghijklmnbcdefghijklm\00", align 1
@.str.264 = private unnamed_addr constant [34 x i8] c"x == \22abcdefghijklmnbcdefghijklm\22\00", align 1
@.str.265 = private unnamed_addr constant [53 x i8] c"abcdefghijklmnbcdefghijklmabcdefghijklmnbcdefghijklm\00", align 1
@.str.266 = private unnamed_addr constant [60 x i8] c"x == \22abcdefghijklmnbcdefghijklmabcdefghijklmnbcdefghijklm\22\00", align 1
@.str.267 = private unnamed_addr constant [60 x i8] c"z == \22abcdefghijklmnbcdefghijklmabcdefghijklmnbcdefghijklm\22\00", align 1
@.str.268 = private unnamed_addr constant [21 x i8] c"z.data() == x.data()\00", align 1
@.str.269 = private unnamed_addr constant [11 x i8] c"abcdeabcde\00", align 1
@.str.270 = private unnamed_addr constant [18 x i8] c"z == \22abcdeabcde\22\00", align 1
@.str.271 = private unnamed_addr constant [21 x i8] c"z.data() != x.data()\00", align 1
@.str.272 = private unnamed_addr constant [18 x i8] c"z.out_of_memory()\00", align 1
@.str.273 = private unnamed_addr constant [33 x i8] c"xx.capacity() - xx.length() < 12\00", align 1
@.str.274 = private unnamed_addr constant [54 x i8] c"strcmp(xx.c_str(), \22abcdefghijklmnbcdefghijklm\22) == 0\00", align 1
@.str.275 = private unnamed_addr constant [80 x i8] c"strcmp(xx.c_str(), \22abcdefghijklmnbcdefghijklmabcdefghijklmnbcdefghijklm\22) == 0\00", align 1
@.str.276 = private unnamed_addr constant [20 x i8] c"!xx.out_of_memory()\00", align 1
@.str.277 = private unnamed_addr constant [2 x i8] c"X\00", align 1
@.str.278 = private unnamed_addr constant [19 x i8] c"xx.out_of_memory()\00", align 1
@.str.279 = private unnamed_addr constant [49 x i8] c"xx.take_string() == String::make_out_of_memory()\00", align 1
@_ZZN13ConfParseTest10initializeEP12ErrorHandlerE5hash1 = internal constant [65 x i8] c"boot_countXXXXXXYboot_countYYYYYZZboot_countZZZZWWWboot_countWWW\00", align 16
@.str.280 = private unnamed_addr constant [45 x i8] c"s1 == s2 && s2 == s3 && s3 == s4 && s4 == s1\00", align 1
@.str.281 = private unnamed_addr constant [31 x i8] c"s1.hashcode() == s2.hashcode()\00", align 1
@.str.282 = private unnamed_addr constant [31 x i8] c"s1.hashcode() == s3.hashcode()\00", align 1
@.str.283 = private unnamed_addr constant [31 x i8] c"s1.hashcode() == s4.hashcode()\00", align 1
@.str.284 = private unnamed_addr constant [59 x i8] c"((uintptr_t) s1.data() & 3) != ((uintptr_t) s2.data() & 3)\00", align 1
@.str.285 = private unnamed_addr constant [59 x i8] c"((uintptr_t) s1.data() & 3) != ((uintptr_t) s3.data() & 3)\00", align 1
@.str.286 = private unnamed_addr constant [59 x i8] c"((uintptr_t) s2.data() & 3) != ((uintptr_t) s3.data() & 3)\00", align 1
@.str.287 = private unnamed_addr constant [59 x i8] c"((uintptr_t) s1.data() & 3) != ((uintptr_t) s4.data() & 3)\00", align 1
@.str.288 = private unnamed_addr constant [59 x i8] c"((uintptr_t) s2.data() & 3) != ((uintptr_t) s4.data() & 3)\00", align 1
@.str.289 = private unnamed_addr constant [59 x i8] c"((uintptr_t) s3.data() & 3) != ((uintptr_t) s4.data() & 3)\00", align 1
@.str.290 = private unnamed_addr constant [12 x i8] c"click-align\00", align 1
@.str.291 = private unnamed_addr constant [23 x i8] c"s1.find_left('c') == 0\00", align 1
@.str.292 = private unnamed_addr constant [26 x i8] c"s1.find_left('c', 1) == 3\00", align 1
@.str.293 = private unnamed_addr constant [26 x i8] c"s1.find_left('c', 3) == 3\00", align 1
@.str.294 = private unnamed_addr constant [27 x i8] c"s1.find_left('c', 4) == -1\00", align 1
@.str.295 = private unnamed_addr constant [23 x i8] c"s1.find_left(\22c\22) == 0\00", align 1
@.str.296 = private unnamed_addr constant [26 x i8] c"s1.find_left(\22c\22, 1) == 3\00", align 1
@.str.297 = private unnamed_addr constant [26 x i8] c"s1.find_left(\22c\22, 3) == 3\00", align 1
@.str.298 = private unnamed_addr constant [27 x i8] c"s1.find_left(\22c\22, 5) == -1\00", align 1
@.str.299 = private unnamed_addr constant [3 x i8] c"li\00", align 1
@.str.300 = private unnamed_addr constant [24 x i8] c"s1.find_left(\22li\22) == 1\00", align 1
@.str.301 = private unnamed_addr constant [27 x i8] c"s1.find_left(\22li\22, 2) == 7\00", align 1
@.str.302 = private unnamed_addr constant [28 x i8] c"s1.find_left(\22li\22, 8) == -1\00", align 1
@.str.303 = private unnamed_addr constant [25 x i8] c"s1.find_left(\22\22, 0) == 0\00", align 1
@.str.304 = private unnamed_addr constant [27 x i8] c"s1.find_left(\22\22, 10) == 10\00", align 1
@.str.305 = private unnamed_addr constant [27 x i8] c"s1.find_left(\22\22, 11) == 11\00", align 1
@.str.306 = private unnamed_addr constant [27 x i8] c"s1.find_left(\22\22, 12) == -1\00", align 1
@.str.307 = private unnamed_addr constant [23 x i8] c"s1.find_left(\22a\22) == 6\00", align 1
@.str.308 = private unnamed_addr constant [41 x i8] c"s1.substring(0, -1).find_left('n') == -1\00", align 1
@.str.309 = private unnamed_addr constant [27 x i8] c"click_strcmp(\22a\22, \22b\22) < 0\00", align 1
@.str.310 = private unnamed_addr constant [3 x i8] c"a9\00", align 1
@.str.311 = private unnamed_addr constant [4 x i8] c"a10\00", align 1
@.str.312 = private unnamed_addr constant [30 x i8] c"click_strcmp(\22a9\22, \22a10\22) < 0\00", align 1
@.str.313 = private unnamed_addr constant [5 x i8] c"a001\00", align 1
@.str.314 = private unnamed_addr constant [3 x i8] c"a2\00", align 1
@.str.315 = private unnamed_addr constant [31 x i8] c"click_strcmp(\22a001\22, \22a2\22) < 0\00", align 1
@.str.316 = private unnamed_addr constant [3 x i8] c"a1\00", align 1
@.str.317 = private unnamed_addr constant [31 x i8] c"click_strcmp(\22a001\22, \22a1\22) > 0\00", align 1
@.str.318 = private unnamed_addr constant [2 x i8] c"B\00", align 1
@.str.319 = private unnamed_addr constant [27 x i8] c"click_strcmp(\22a\22, \22B\22) < 0\00", align 1
@.str.320 = private unnamed_addr constant [4 x i8] c"Baa\00", align 1
@.str.321 = private unnamed_addr constant [4 x i8] c"baa\00", align 1
@.str.322 = private unnamed_addr constant [31 x i8] c"click_strcmp(\22Baa\22, \22baa\22) < 0\00", align 1
@.str.323 = private unnamed_addr constant [4 x i8] c"caa\00", align 1
@.str.324 = private unnamed_addr constant [31 x i8] c"click_strcmp(\22Baa\22, \22caa\22) < 0\00", align 1
@.str.325 = private unnamed_addr constant [4 x i8] c"Caa\00", align 1
@.str.326 = private unnamed_addr constant [31 x i8] c"click_strcmp(\22baa\22, \22Caa\22) < 0\00", align 1
@.str.327 = private unnamed_addr constant [31 x i8] c"click_strcmp(\22baa\22, \22Baa\22) > 0\00", align 1
@.str.328 = private unnamed_addr constant [4 x i8] c"baA\00", align 1
@.str.329 = private unnamed_addr constant [32 x i8] c"click_strcmp(\22baA\22, \22baA\22) == 0\00", align 1
@.str.330 = private unnamed_addr constant [4 x i8] c"a9x\00", align 1
@.str.331 = private unnamed_addr constant [31 x i8] c"click_strcmp(\22a9x\22, \22a10\22) < 0\00", align 1
@.str.332 = private unnamed_addr constant [5 x i8] c"a9xy\00", align 1
@.str.333 = private unnamed_addr constant [32 x i8] c"click_strcmp(\22a9x\22, \22a9xy\22) < 0\00", align 1
@.str.334 = private unnamed_addr constant [4 x i8] c"0.1\00", align 1
@.str.335 = private unnamed_addr constant [29 x i8] c"click_strcmp(\220\22, \220.1\22) < 0\00", align 1
@.str.336 = private unnamed_addr constant [3 x i8] c"0.\00", align 1
@.str.337 = private unnamed_addr constant [28 x i8] c"click_strcmp(\220\22, \220.\22) < 0\00", align 1
@.str.338 = private unnamed_addr constant [5 x i8] c"-0.1\00", align 1
@.str.339 = private unnamed_addr constant [30 x i8] c"click_strcmp(\220\22, \22-0.1\22) > 0\00", align 1
@.str.340 = private unnamed_addr constant [31 x i8] c"click_strcmp(\22-0\22, \22-0.1\22) > 0\00", align 1
@.str.341 = private unnamed_addr constant [3 x i8] c"-9\00", align 1
@.str.342 = private unnamed_addr constant [31 x i8] c"click_strcmp(\22-9\22, \22-0.1\22) < 0\00", align 1
@.str.343 = private unnamed_addr constant [2 x i8] c"9\00", align 1
@.str.344 = private unnamed_addr constant [29 x i8] c"click_strcmp(\229\22, \220.1\22) > 0\00", align 1
@.str.345 = private unnamed_addr constant [5 x i8] c"-0.2\00", align 1
@.str.346 = private unnamed_addr constant [33 x i8] c"click_strcmp(\22-0.2\22, \22-0.1\22) < 0\00", align 1
@.str.347 = private unnamed_addr constant [5 x i8] c"-2.2\00", align 1
@.str.348 = private unnamed_addr constant [3 x i8] c"-2\00", align 1
@.str.349 = private unnamed_addr constant [31 x i8] c"click_strcmp(\22-2.2\22, \22-2\22) < 0\00", align 1
@.str.350 = private unnamed_addr constant [4 x i8] c"2.2\00", align 1
@.str.351 = private unnamed_addr constant [2 x i8] c"2\00", align 1
@.str.352 = private unnamed_addr constant [29 x i8] c"click_strcmp(\222.2\22, \222\22) > 0\00", align 1
@.str.353 = private unnamed_addr constant [4 x i8] c"0.2\00", align 1
@.str.354 = private unnamed_addr constant [31 x i8] c"click_strcmp(\220.2\22, \220.1\22) > 0\00", align 1
@.str.355 = private unnamed_addr constant [5 x i8] c"0.39\00", align 1
@.str.356 = private unnamed_addr constant [32 x i8] c"click_strcmp(\220.2\22, \220.39\22) < 0\00", align 1
@.str.357 = private unnamed_addr constant [3 x i8] c".2\00", align 1
@.str.358 = private unnamed_addr constant [30 x i8] c"click_strcmp(\22.2\22, \220.2\22) < 0\00", align 1
@.str.359 = private unnamed_addr constant [4 x i8] c"a-2\00", align 1
@.str.360 = private unnamed_addr constant [5 x i8] c"a-23\00", align 1
@.str.361 = private unnamed_addr constant [32 x i8] c"click_strcmp(\22a-2\22, \22a-23\22) < 0\00", align 1
@.str.362 = private unnamed_addr constant [4 x i8] c"a-3\00", align 1
@.str.363 = private unnamed_addr constant [31 x i8] c"click_strcmp(\22a-2\22, \22a-3\22) < 0\00", align 1
@.str.364 = private unnamed_addr constant [5 x i8] c"a1.2\00", align 1
@.str.365 = private unnamed_addr constant [4 x i8] c"a1a\00", align 1
@.str.366 = private unnamed_addr constant [32 x i8] c"click_strcmp(\22a1.2\22, \22a1a\22) > 0\00", align 1
@.str.367 = private unnamed_addr constant [8 x i8] c"1.2.3.4\00", align 1
@.str.368 = private unnamed_addr constant [9 x i8] c"10.2.3.4\00", align 1
@.str.369 = private unnamed_addr constant [40 x i8] c"click_strcmp(\221.2.3.4\22, \2210.2.3.4\22) < 0\00", align 1
@.str.370 = private unnamed_addr constant [5 x i8] c"1.12\00", align 1
@.str.371 = private unnamed_addr constant [4 x i8] c"1.2\00", align 1
@.str.372 = private unnamed_addr constant [32 x i8] c"click_strcmp(\221.12\22, \221.2\22) < 0\00", align 1
@.str.373 = private unnamed_addr constant [6 x i8] c"1.012\00", align 1
@.str.374 = private unnamed_addr constant [33 x i8] c"click_strcmp(\221.012\22, \221.2\22) < 0\00", align 1
@.str.375 = private unnamed_addr constant [7 x i8] c"1.012.\00", align 1
@.str.376 = private unnamed_addr constant [5 x i8] c"1.2.\00", align 1
@.str.377 = private unnamed_addr constant [35 x i8] c"click_strcmp(\221.012.\22, \221.2.\22) < 0\00", align 1
@.str.378 = private unnamed_addr constant [9 x i8] c"1.12.3.4\00", align 1
@.str.379 = private unnamed_addr constant [40 x i8] c"click_strcmp(\221.12.3.4\22, \221.2.3.4\22) > 0\00", align 1
@.str.380 = private unnamed_addr constant [9 x i8] c"1.2.10.4\00", align 1
@.str.381 = private unnamed_addr constant [8 x i8] c"1.2.9.4\00", align 1
@.str.382 = private unnamed_addr constant [40 x i8] c"click_strcmp(\221.2.10.4\22, \221.2.9.4\22) > 0\00", align 1
@.str.383 = private unnamed_addr constant [13 x i8] c"1.2.10.4:100\00", align 1
@.str.384 = private unnamed_addr constant [11 x i8] c"1.2.10.4:2\00", align 1
@.str.385 = private unnamed_addr constant [47 x i8] c"click_strcmp(\221.2.10.4:100\22, \221.2.10.4:2\22) > 0\00", align 1
@.str.386 = private unnamed_addr constant [15 x i8] c"SIZE 123456789\00", align 1
@.str.387 = private unnamed_addr constant [5 x i8] c"SIZE\00", align 1
@cpSize = external constant i8*, align 8
@.str.388 = private unnamed_addr constant [100 x i8] c"cp_va_kparse(conf, this, errh, \22SIZE\22, 0, cpSize, &test_size, cpEnd) == 1 && test_size == 123456789\00", align 1
@.str.389 = private unnamed_addr constant [119 x i8] c"Args(conf, this, errh) .read(\22SIZE\22, test_size).read_status(b) .complete() >= 0 && b == true && test_size == 123456789\00", align 1
@.str.390 = private unnamed_addr constant [27 x i8] c"A 1, B 2, A 3, A 4   , A 5\00", align 1
@.str.391 = private unnamed_addr constant [2 x i8] c"A\00", align 1
@.str.392 = private unnamed_addr constant [165 x i8] c"Args(this, errh).push_back_args(\22A 1, B 2, A 3, A 4   , A 5\22) .read_all_with(\22A\22, AnyArg(), results).read_status(b) .read(\22B\22, i32).read_status(b2) .complete() >= 0\00", align 1
@.str.393 = private unnamed_addr constant [10 x i8] c"b == true\00", align 1
@.str.394 = private unnamed_addr constant [11 x i8] c"b2 == true\00", align 1
@.str.395 = private unnamed_addr constant [9 x i8] c"i32 == 2\00", align 1
@.str.396 = private unnamed_addr constant [20 x i8] c"results.size() == 4\00", align 1
@.str.397 = private unnamed_addr constant [2 x i8] c"3\00", align 1
@.str.398 = private unnamed_addr constant [2 x i8] c"4\00", align 1
@.str.399 = private unnamed_addr constant [2 x i8] c"5\00", align 1
@.str.400 = private unnamed_addr constant [81 x i8] c"results[0] == \221\22 && results[1] == \223\22 && results[2] == \224\22 && results[3] == \225\22\00", align 1
@.str.401 = private unnamed_addr constant [4 x i8] c"B 3\00", align 1
@.str.402 = private unnamed_addr constant [205 x i8] c"Args(this, errh).push_back_args(\22B 3\22) .read_all_with(\22A\22, AnyArg(), results).read_status(b) .read(\22B\22, i32).read_status(b2) .complete() >= 0 && b == false && b2 == true && i32 == 3 && results.size() == 0\00", align 1
@.str.403 = private unnamed_addr constant [2 x i8] c" \00", align 1
@.str.404 = private unnamed_addr constant [11 x i8] c"true false\00", align 1
@.str.405 = private unnamed_addr constant [51 x i8] c"String(true) + \22 \22 + String(false) == \22true false\22\00", align 1
@.str.406 = private unnamed_addr constant [33 x i8] c"sa.take_string() == \22true false\22\00", align 1
@.str.407 = private unnamed_addr constant [24 x i8] c"A 1, B 2, A 3, A 4, A 5\00", align 1
@.str.408 = private unnamed_addr constant [124 x i8] c"Args(this, errh).push_back_args(\22A 1, B 2, A 3, A 4, A 5\22) .read_all(\22A\22, AnyArg(), results).read_status(b) .consume() >= 0\00", align 1
@.str.409 = private unnamed_addr constant [4 x i8] c"A 1\00", align 1
@.str.410 = private unnamed_addr constant [139 x i8] c"Args(this, errh).push_back_args(\22A 1\22) .read_or_set(\22A\22, i32, 9).read_status(b) .read_or_set(\22B\22, i32b, 3).read_status(b2) .consume() >= 0\00", align 1
@.str.411 = private unnamed_addr constant [12 x i8] c"b2 == false\00", align 1
@.str.412 = private unnamed_addr constant [9 x i8] c"i32 == 1\00", align 1
@.str.413 = private unnamed_addr constant [10 x i8] c"i32b == 3\00", align 1
@.str.414 = private unnamed_addr constant [134 x i8] c"Args(this, errh).push_back(\221\22).push_back(\222\22) .read_mp(\22A\22, i32).read_status(b) .read_mp(\22B\22, i32b).read_status(b2) .complete() >= 0\00", align 1
@.str.415 = private unnamed_addr constant [10 x i8] c"i32b == 2\00", align 1
@.str.416 = private unnamed_addr constant [16 x i8] c"All tests pass!\00", align 1
@_ZTVN10__cxxabiv120__si_class_type_infoE = external global i8*
@_ZTS13ConfParseTest = constant [16 x i8] c"13ConfParseTest\00"
@_ZTI7Element = external constant i8*
@_ZTI13ConfParseTest = constant { i8*, i8*, i8* } { i8* bitcast (i8** getelementptr inbounds (i8*, i8** @_ZTVN10__cxxabiv120__si_class_type_infoE, i64 2) to i8*), i8* getelementptr inbounds ([16 x i8], [16 x i8]* @_ZTS13ConfParseTest, i32 0, i32 0), i8* bitcast (i8** @_ZTI7Element to i8*) }
@.str.417 = private unnamed_addr constant [18 x i8] c"_r.memo->refcount\00", align 1
@.str.418 = private unnamed_addr constant [35 x i8] c"/usr/local/include/click/string.hh\00", align 1
@__PRETTY_FUNCTION__._ZNK6String5derefEv = private unnamed_addr constant [27 x i8] c"void String::deref() const\00", align 1
@_ZTVN12_GLOBAL__N_118RecordErrorHandlerE = internal unnamed_addr constant { [9 x i8*] } { [9 x i8*] [i8* null, i8* bitcast ({ i8*, i8*, i8* }* @_ZTIN12_GLOBAL__N_118RecordErrorHandlerE to i8*), i8* bitcast (void (%"class.(anonymous namespace)::RecordErrorHandler"*)* @_ZN12_GLOBAL__N_118RecordErrorHandlerD2Ev to i8*), i8* bitcast (void (%"class.(anonymous namespace)::RecordErrorHandler"*)* @_ZN12_GLOBAL__N_118RecordErrorHandlerD0Ev to i8*), i8* bitcast (void (%class.String*, %class.ErrorHandler*, i8*, %struct.__va_list_tag*)* @_ZN12ErrorHandler7vformatEPKcP13__va_list_tag to i8*), i8* bitcast (void (%class.String*, %class.ErrorHandler*, %class.String*)* @_ZN12ErrorHandler8decorateERK6String to i8*), i8* bitcast (i8* (%"class.(anonymous namespace)::RecordErrorHandler"*, %class.String*, i8*, i1)* @_ZN12_GLOBAL__N_118RecordErrorHandler4emitERK6StringPvb to i8*), i8* bitcast (void (%class.ErrorHandler*, i32)* @_ZN12ErrorHandler7accountEi to i8*), i8* bitcast (void (%class.ErrorHandler*)* @_ZN12ErrorHandler5clearEv to i8*)] }, align 8
@_ZTSN12_GLOBAL__N_118RecordErrorHandlerE = internal constant [37 x i8] c"N12_GLOBAL__N_118RecordErrorHandlerE\00"
@_ZTI12ErrorHandler = external constant i8*
@_ZTIN12_GLOBAL__N_118RecordErrorHandlerE = internal constant { i8*, i8*, i8* } { i8* bitcast (i8** getelementptr inbounds (i8*, i8** @_ZTVN10__cxxabiv120__si_class_type_infoE, i64 2) to i8*), i8* getelementptr inbounds ([37 x i8], [37 x i8]* @_ZTSN12_GLOBAL__N_118RecordErrorHandlerE, i32 0, i32 0), i8* bitcast (i8** @_ZTI12ErrorHandler to i8*) }
@_ZTV12ErrorHandler = external unnamed_addr constant { [9 x i8*] }
@_ZN6String9null_dataE = external constant i8, align 1
@_ZN6String14oom_string_repE = external global %"struct.String::rep_t", align 8
@_ZN6String8oom_dataE = external constant [15 x i8], align 1
@.str.419 = private unnamed_addr constant [14 x i8] c"capacity >= 0\00", align 1
@.str.420 = private unnamed_addr constant [37 x i8] c"/usr/local/include/click/straccum.hh\00", align 1
@__PRETTY_FUNCTION__._ZN11StringAccumC2Ei = private unnamed_addr constant [30 x i8] c"StringAccum::StringAccum(int)\00", align 1
@.str.421 = private unnamed_addr constant [9 x i8] c"len >= 0\00", align 1
@__PRETTY_FUNCTION__._ZN11StringAccum6appendEPKci = private unnamed_addr constant [44 x i8] c"void StringAccum::append(const char *, int)\00", align 1
@_ZN6String9bool_dataE = external constant [11 x i8], align 1
@.str.422 = private unnamed_addr constant [14 x i8] c"ConfParseTest\00", align 1
@.str.423 = private unnamed_addr constant [33 x i8] c"(unsigned) i < (unsigned) vm_.n_\00", align 1
@.str.424 = private unnamed_addr constant [35 x i8] c"/usr/local/include/click/vector.hh\00", align 1
@__PRETTY_FUNCTION__._ZN6VectorI6StringEixEi = private unnamed_addr constant [62 x i8] c"T &Vector<String>::operator[](Vector::size_type) [T = String]\00", align 1
@.str.425 = private unnamed_addr constant [14 x i8] c"out of memory\00", align 1
@_ZTVN4Args5SlotTI6VectorI6StringEEE = linkonce_odr unnamed_addr constant { [5 x i8*] } { [5 x i8*] [i8* null, i8* bitcast ({ i8*, i8*, i8* }* @_ZTIN4Args5SlotTI6VectorI6StringEEE to i8*), i8* bitcast (void (%"struct.Args::SlotT"*)* @_ZN4Args5SlotTI6VectorI6StringEED2Ev to i8*), i8* bitcast (void (%"struct.Args::SlotT"*)* @_ZN4Args5SlotTI6VectorI6StringEED0Ev to i8*), i8* bitcast (void (%"struct.Args::SlotT"*)* @_ZN4Args5SlotTI6VectorI6StringEE5storeEv to i8*)] }, comdat, align 8
@_ZTSN4Args5SlotTI6VectorI6StringEEE = linkonce_odr constant [32 x i8] c"N4Args5SlotTI6VectorI6StringEEE\00", comdat
@_ZTVN10__cxxabiv117__class_type_infoE = external global i8*
@_ZTSN4Args4SlotE = linkonce_odr constant [13 x i8] c"N4Args4SlotE\00", comdat
@_ZTIN4Args4SlotE = linkonce_odr constant { i8*, i8* } { i8* bitcast (i8** getelementptr inbounds (i8*, i8** @_ZTVN10__cxxabiv117__class_type_infoE, i64 2) to i8*), i8* getelementptr inbounds ([13 x i8], [13 x i8]* @_ZTSN4Args4SlotE, i32 0, i32 0) }, comdat
@_ZTIN4Args5SlotTI6VectorI6StringEEE = linkonce_odr constant { i8*, i8*, i8* } { i8* bitcast (i8** getelementptr inbounds (i8*, i8** @_ZTVN10__cxxabiv120__si_class_type_infoE, i64 2) to i8*), i8* getelementptr inbounds ([32 x i8], [32 x i8]* @_ZTSN4Args5SlotTI6VectorI6StringEEE, i32 0, i32 0), i8* bitcast ({ i8*, i8* }* @_ZTIN4Args4SlotE to i8*) }, comdat
@_ZTVN4Args4SlotE = linkonce_odr unnamed_addr constant { [5 x i8*] } { [5 x i8*] [i8* null, i8* bitcast ({ i8*, i8* }* @_ZTIN4Args4SlotE to i8*), i8* bitcast (void (%"struct.Args::Slot"*)* @_ZN4Args4SlotD2Ev to i8*), i8* bitcast (void (%"struct.Args::Slot"*)* @_ZN4Args4SlotD0Ev to i8*), i8* bitcast (void ()* @__cxa_pure_virtual to i8*)] }, comdat, align 8

@_ZN13ConfParseTestC1Ev = alias void (%class.ConfParseTest*), void (%class.ConfParseTest*)* @_ZN13ConfParseTestC2Ev

; Function Attrs: noinline optnone uwtable
define void @_ZN13ConfParseTestC2Ev(%class.ConfParseTest*) unnamed_addr #0 align 2 {
  %2 = alloca %class.ConfParseTest*, align 8
  store %class.ConfParseTest* %0, %class.ConfParseTest** %2, align 8
  %3 = load %class.ConfParseTest*, %class.ConfParseTest** %2, align 8
  %4 = bitcast %class.ConfParseTest* %3 to %class.Element*
  call void @_ZN7ElementC2Ev(%class.Element* %4)
  %5 = bitcast %class.ConfParseTest* %3 to i32 (...)***
  store i32 (...)** bitcast (i8** getelementptr inbounds ({ [29 x i8*] }, { [29 x i8*] }* @_ZTV13ConfParseTest, i32 0, inrange i32 0, i32 2) to i32 (...)**), i32 (...)*** %5, align 8
  ret void
}

declare void @_ZN7ElementC2Ev(%class.Element*) unnamed_addr #1

; Function Attrs: noinline optnone uwtable
define i32 @_ZN13ConfParseTest10initializeEP12ErrorHandler(%class.ConfParseTest*, %class.ErrorHandler*) unnamed_addr #0 align 2 personality i8* bitcast (i32 (...)* @__gxx_personality_v0 to i8*) {
  %3 = alloca i32, align 4
  %4 = alloca %class.ConfParseTest*, align 8
  %5 = alloca %class.ErrorHandler*, align 8
  %6 = alloca %class.String, align 8
  %7 = alloca %class.String, align 8
  %8 = alloca i8*
  %9 = alloca i32
  %10 = alloca %class.String, align 8
  %11 = alloca %class.String, align 8
  %12 = alloca %class.String, align 8
  %13 = alloca %class.String, align 8
  %14 = alloca %class.String, align 8
  %15 = alloca %class.String, align 8
  %16 = alloca %class.String, align 8
  %17 = alloca i32
  %18 = alloca %class.Vector, align 8
  %19 = alloca %class.String, align 8
  %20 = alloca %class.String, align 8
  %21 = alloca %class.String, align 8
  %22 = alloca %class.String, align 8
  %23 = alloca %class.String, align 8
  %24 = alloca i32, align 4
  %25 = alloca i32, align 4
  %26 = alloca %class.String, align 8
  %27 = alloca %class.String, align 8
  %28 = alloca %class.String, align 8
  %29 = alloca %class.String, align 8
  %30 = alloca %class.String, align 8
  %31 = alloca %class.String, align 8
  %32 = alloca %class.String, align 8
  %33 = alloca %class.String, align 8
  %34 = alloca %class.String, align 8
  %35 = alloca %class.String, align 8
  %36 = alloca %class.String, align 8
  %37 = alloca %class.String, align 8
  %38 = alloca %class.String, align 8
  %39 = alloca %class.String, align 8
  %40 = alloca i8*, align 8
  %41 = alloca %class.String, align 8
  %42 = alloca i64, align 8
  %43 = alloca i64, align 8
  %44 = alloca %class.String, align 8
  %45 = alloca %class.String, align 8
  %46 = alloca %class.String, align 8
  %47 = alloca %"class.(anonymous namespace)::RecordErrorHandler", align 8
  %48 = alloca %class.Args, align 8
  %49 = alloca %class.IntArg, align 4
  %50 = alloca %class.IntArg, align 4
  %51 = alloca %class.String, align 8
  %52 = alloca %class.IntArg, align 4
  %53 = alloca %class.String, align 8
  %54 = alloca %class.IntArg, align 4
  %55 = alloca %class.String, align 8
  %56 = alloca %class.IntArg, align 4
  %57 = alloca %class.String, align 8
  %58 = alloca %class.String, align 8
  %59 = alloca %class.IntArg, align 4
  %60 = alloca %class.String, align 8
  %61 = alloca %class.IntArg, align 4
  %62 = alloca %class.String, align 8
  %63 = alloca %class.IntArg, align 4
  %64 = alloca %class.String, align 8
  %65 = alloca %class.IntArg, align 4
  %66 = alloca %class.String, align 8
  %67 = alloca %class.String, align 8
  %68 = alloca %class.String, align 8
  %69 = alloca %class.IntArg, align 4
  %70 = alloca %class.String, align 8
  %71 = alloca %class.String, align 8
  %72 = alloca %class.String, align 8
  %73 = alloca %class.String, align 8
  %74 = alloca %class.String, align 8
  %75 = alloca %class.IntArg, align 4
  %76 = alloca %class.String, align 8
  %77 = alloca %class.IntArg, align 4
  %78 = alloca %class.String, align 8
  %79 = alloca %class.String, align 8
  %80 = alloca %class.String, align 8
  %81 = alloca %class.String, align 8
  %82 = alloca %class.String, align 8
  %83 = alloca %class.String, align 8
  %84 = alloca %class.String, align 8
  %85 = alloca %class.String, align 8
  %86 = alloca %class.String, align 8
  %87 = alloca %class.String, align 8
  %88 = alloca %class.String, align 8
  %89 = alloca %class.String, align 8
  %90 = alloca %class.String, align 8
  %91 = alloca %class.String, align 8
  %92 = alloca %class.String, align 8
  %93 = alloca %class.String, align 8
  %94 = alloca %class.String, align 8
  %95 = alloca %class.String, align 8
  %96 = alloca %class.String, align 8
  %97 = alloca i8, align 1
  %98 = alloca %class.String, align 8
  %99 = alloca %class.String, align 8
  %100 = alloca %class.String, align 8
  %101 = alloca %class.String, align 8
  %102 = alloca %class.String, align 8
  %103 = alloca %class.String, align 8
  %104 = alloca i64, align 8
  %105 = alloca i64, align 8
  %106 = alloca %class.String, align 8
  %107 = alloca %class.String, align 8
  %108 = alloca %class.String, align 8
  %109 = alloca %class.String, align 8
  %110 = alloca %class.String, align 8
  %111 = alloca %class.String, align 8
  %112 = alloca %class.String, align 8
  %113 = alloca %class.String, align 8
  %114 = alloca %class.String, align 8
  %115 = alloca %class.String, align 8
  %116 = alloca %class.BoundedIntArg, align 8
  %117 = alloca %class.String, align 8
  %118 = alloca %class.String, align 8
  %119 = alloca %class.BoundedIntArg, align 8
  %120 = alloca %class.String, align 8
  %121 = alloca %class.String, align 8
  %122 = alloca %class.BoundedIntArg, align 8
  %123 = alloca %class.String, align 8
  %124 = alloca %class.String, align 8
  %125 = alloca %class.BoundedIntArg, align 8
  %126 = alloca %class.String, align 8
  %127 = alloca %class.String, align 8
  %128 = alloca %class.BoundedIntArg, align 8
  %129 = alloca %class.String, align 8
  %130 = alloca %class.String, align 8
  %131 = alloca %class.BoundedIntArg, align 8
  %132 = alloca %class.String, align 8
  %133 = alloca %class.String, align 8
  %134 = alloca %class.BoundedIntArg, align 8
  %135 = alloca %class.String, align 8
  %136 = alloca %class.String, align 8
  %137 = alloca %class.BoundedIntArg, align 8
  %138 = alloca %class.String, align 8
  %139 = alloca %class.String, align 8
  %140 = alloca i8, align 1
  %141 = alloca %class.FixedPointArg, align 4
  %142 = alloca %class.String, align 8
  %143 = alloca %class.FixedPointArg, align 4
  %144 = alloca %class.String, align 8
  %145 = alloca %class.String, align 8
  %146 = alloca i32, align 4
  %147 = alloca %class.FixedPointArg, align 4
  %148 = alloca %class.String, align 8
  %149 = alloca %class.String, align 8
  %150 = alloca i32, align 4
  %151 = alloca %class.FixedPointArg, align 4
  %152 = alloca %class.String, align 8
  %153 = alloca %class.String, align 8
  %154 = alloca i32, align 4
  %155 = alloca %class.FixedPointArg, align 4
  %156 = alloca %class.String, align 8
  %157 = alloca %class.String, align 8
  %158 = alloca i32, align 4
  %159 = alloca %class.FixedPointArg, align 4
  %160 = alloca %class.String, align 8
  %161 = alloca %class.String, align 8
  %162 = alloca i32, align 4
  %163 = alloca %class.FixedPointArg, align 4
  %164 = alloca %class.String, align 8
  %165 = alloca %class.String, align 8
  %166 = alloca i32, align 4
  %167 = alloca %class.FixedPointArg, align 4
  %168 = alloca %class.String, align 8
  %169 = alloca %class.String, align 8
  %170 = alloca i32, align 4
  %171 = alloca %class.FixedPointArg, align 4
  %172 = alloca %class.String, align 8
  %173 = alloca %class.String, align 8
  %174 = alloca i32, align 4
  %175 = alloca %class.FixedPointArg, align 4
  %176 = alloca %class.String, align 8
  %177 = alloca %class.String, align 8
  %178 = alloca i32, align 4
  %179 = alloca %class.FixedPointArg, align 4
  %180 = alloca %class.String, align 8
  %181 = alloca %class.String, align 8
  %182 = alloca i32, align 4
  %183 = alloca %class.FixedPointArg, align 4
  %184 = alloca %class.String, align 8
  %185 = alloca %class.String, align 8
  %186 = alloca i32, align 4
  %187 = alloca %class.FixedPointArg, align 4
  %188 = alloca %class.String, align 8
  %189 = alloca %class.String, align 8
  %190 = alloca i32, align 4
  %191 = alloca %class.FixedPointArg, align 4
  %192 = alloca %class.String, align 8
  %193 = alloca %class.String, align 8
  %194 = alloca %class.SecondsArg, align 4
  %195 = alloca %class.String, align 8
  %196 = alloca %class.String, align 8
  %197 = alloca %class.SecondsArg, align 4
  %198 = alloca %class.String, align 8
  %199 = alloca %class.SecondsArg, align 4
  %200 = alloca %class.String, align 8
  %201 = alloca %class.SecondsArg, align 4
  %202 = alloca %class.String, align 8
  %203 = alloca %class.SecondsArg, align 4
  %204 = alloca %class.String, align 8
  %205 = alloca %class.SecondsArg, align 4
  %206 = alloca %class.String, align 8
  %207 = alloca %class.SecondsArg, align 4
  %208 = alloca %class.String, align 8
  %209 = alloca %class.SecondsArg, align 4
  %210 = alloca %class.String, align 8
  %211 = alloca %class.SecondsArg, align 4
  %212 = alloca %class.String, align 8
  %213 = alloca %class.SecondsArg, align 4
  %214 = alloca %class.String, align 8
  %215 = alloca %class.SecondsArg, align 4
  %216 = alloca %class.String, align 8
  %217 = alloca %class.SecondsArg, align 4
  %218 = alloca %class.String, align 8
  %219 = alloca %class.SecondsArg, align 4
  %220 = alloca %class.String, align 8
  %221 = alloca %class.SecondsArg, align 4
  %222 = alloca %class.String, align 8
  %223 = alloca double, align 8
  %224 = alloca %class.SecondsArg, align 4
  %225 = alloca %class.String, align 8
  %226 = alloca %class.SecondsArg, align 4
  %227 = alloca %class.String, align 8
  %228 = alloca %class.SecondsArg, align 4
  %229 = alloca %class.String, align 8
  %230 = alloca %class.SecondsArg, align 4
  %231 = alloca %class.String, align 8
  %232 = alloca %class.SecondsArg, align 4
  %233 = alloca %class.String, align 8
  %234 = alloca %class.BandwidthArg, align 4
  %235 = alloca %class.String, align 8
  %236 = alloca %class.String, align 8
  %237 = alloca %class.String, align 8
  %238 = alloca %class.String, align 8
  %239 = alloca %class.IPAddress, align 4
  %240 = alloca %class.IPAddress, align 4
  %241 = alloca %class.IPPrefixArg, align 1
  %242 = alloca %class.String, align 8
  %243 = alloca %class.ArgContext, align 8
  %244 = alloca %class.String, align 8
  %245 = alloca %class.IPAddress, align 4
  %246 = alloca i1, align 1
  %247 = alloca %class.IPPrefixArg, align 1
  %248 = alloca %class.String, align 8
  %249 = alloca %class.ArgContext, align 8
  %250 = alloca %class.Timestamp, align 8
  %251 = alloca %class.Timestamp, align 8
  %252 = alloca %class.Timestamp, align 8
  %253 = alloca %class.String, align 8
  %254 = alloca %class.Timestamp, align 8
  %255 = alloca %class.Timestamp, align 8
  %256 = alloca %class.Timestamp, align 8
  %257 = alloca %class.Timestamp, align 8
  %258 = alloca %class.Timestamp, align 8
  %259 = alloca %class.Timestamp, align 8
  %260 = alloca %class.Timestamp, align 8
  %261 = alloca %class.String, align 8
  %262 = alloca %class.String, align 8
  %263 = alloca %class.Timestamp, align 8
  %264 = alloca %class.String, align 8
  %265 = alloca %class.Timestamp, align 8
  %266 = alloca %class.Timestamp, align 8
  %267 = alloca %class.String, align 8
  %268 = alloca %class.Timestamp, align 8
  %269 = alloca %class.Timestamp, align 8
  %270 = alloca %class.Timestamp, align 8
  %271 = alloca %class.String, align 8
  %272 = alloca %class.Timestamp, align 8
  %273 = alloca %class.Timestamp, align 8
  %274 = alloca %class.String, align 8
  %275 = alloca %class.Timestamp, align 8
  %276 = alloca %class.Timestamp, align 8
  %277 = alloca %class.Timestamp, align 8
  %278 = alloca %class.Timestamp, align 8
  %279 = alloca %class.Timestamp, align 8
  %280 = alloca %class.Timestamp, align 8
  %281 = alloca %class.Timestamp, align 8
  %282 = alloca %class.Timestamp, align 8
  %283 = alloca %class.Timestamp, align 8
  %284 = alloca %class.Timestamp, align 8
  %285 = alloca %class.Timestamp, align 8
  %286 = alloca %class.Timestamp, align 8
  %287 = alloca %class.Timestamp, align 8
  %288 = alloca %class.Timestamp, align 8
  %289 = alloca %class.Timestamp, align 8
  %290 = alloca %class.Timestamp, align 8
  %291 = alloca %class.Timestamp, align 8
  %292 = alloca %struct.timeval, align 8
  %293 = alloca %class.Timestamp, align 8
  %294 = alloca %class.Timestamp, align 8
  %295 = alloca %class.Timestamp, align 8
  %296 = alloca %struct.timeval, align 8
  %297 = alloca %class.Timestamp, align 8
  %298 = alloca %class.Timestamp, align 8
  %299 = alloca %class.Timestamp, align 8
  %300 = alloca %struct.timeval, align 8
  %301 = alloca %class.Timestamp, align 8
  %302 = alloca %class.Timestamp, align 8
  %303 = alloca %class.String, align 8
  %304 = alloca %class.String, align 8
  %305 = alloca %class.String, align 8
  %306 = alloca %class.String, align 8
  %307 = alloca %class.String, align 8
  %308 = alloca %class.String, align 8
  %309 = alloca %class.String, align 8
  %310 = alloca %class.String, align 8
  %311 = alloca %class.String, align 8
  %312 = alloca %class.String, align 8
  %313 = alloca %class.String, align 8
  %314 = alloca %class.String, align 8
  %315 = alloca %class.String, align 8
  %316 = alloca %class.String, align 8
  %317 = alloca %class.String, align 8
  %318 = alloca %class.String, align 8
  %319 = alloca %class.String, align 8
  %320 = alloca %class.String, align 8
  %321 = alloca %class.String, align 8
  %322 = alloca %class.String, align 8
  %323 = alloca %class.String, align 8
  %324 = alloca %class.String, align 8
  %325 = alloca %class.String, align 8
  %326 = alloca %class.String, align 8
  %327 = alloca %class.String, align 8
  %328 = alloca %class.String, align 8
  %329 = alloca %class.String, align 8
  %330 = alloca %class.String, align 8
  %331 = alloca %class.String, align 8
  %332 = alloca %class.StringAccum, align 8
  %333 = alloca %class.String, align 8
  %334 = alloca %class.String, align 8
  %335 = alloca %class.String, align 8
  %336 = alloca %class.String, align 8
  %337 = alloca %class.String, align 8
  %338 = alloca %class.String, align 8
  %339 = alloca %class.String, align 8
  %340 = alloca %class.String, align 8
  %341 = alloca %class.String, align 8
  %342 = alloca %class.String, align 8
  %343 = alloca %class.String, align 8
  %344 = alloca %class.String, align 8
  %345 = alloca %class.String, align 8
  %346 = alloca %class.String, align 8
  %347 = alloca %class.String, align 8
  %348 = alloca %class.String, align 8
  %349 = alloca %class.String, align 8
  %350 = alloca %class.String, align 8
  %351 = alloca %class.String, align 8
  %352 = alloca %class.String, align 8
  %353 = alloca %class.String, align 8
  %354 = alloca %class.String, align 8
  %355 = alloca %class.String, align 8
  %356 = alloca %class.String, align 8
  %357 = alloca %class.String, align 8
  %358 = alloca %class.String, align 8
  %359 = alloca %class.String, align 8
  %360 = alloca %class.String, align 8
  %361 = alloca %class.String, align 8
  %362 = alloca %class.String, align 8
  %363 = alloca %class.String, align 8
  %364 = alloca %class.String, align 8
  %365 = alloca %class.String, align 8
  %366 = alloca %class.String, align 8
  %367 = alloca %class.String, align 8
  %368 = alloca %class.String, align 8
  %369 = alloca %class.String, align 8
  %370 = alloca %class.String, align 8
  %371 = alloca %class.String, align 8
  %372 = alloca %class.String, align 8
  %373 = alloca %class.String, align 8
  %374 = alloca %class.String, align 8
  %375 = alloca %class.String, align 8
  %376 = alloca %class.String, align 8
  %377 = alloca %class.String, align 8
  %378 = alloca %class.String, align 8
  %379 = alloca %class.String, align 8
  %380 = alloca %class.String, align 8
  %381 = alloca %class.String, align 8
  %382 = alloca %class.String, align 8
  %383 = alloca %class.String, align 8
  %384 = alloca %class.String, align 8
  %385 = alloca %class.String, align 8
  %386 = alloca %class.String, align 8
  %387 = alloca %class.String, align 8
  %388 = alloca %class.String, align 8
  %389 = alloca %class.String, align 8
  %390 = alloca %class.String, align 8
  %391 = alloca %class.String, align 8
  %392 = alloca %class.String, align 8
  %393 = alloca %class.String, align 8
  %394 = alloca %class.String, align 8
  %395 = alloca %class.String, align 8
  %396 = alloca %class.String, align 8
  %397 = alloca %class.String, align 8
  %398 = alloca %class.String, align 8
  %399 = alloca %class.String, align 8
  %400 = alloca %class.String, align 8
  %401 = alloca %class.String, align 8
  %402 = alloca %class.String, align 8
  %403 = alloca %class.String, align 8
  %404 = alloca %class.String, align 8
  %405 = alloca %class.String, align 8
  %406 = alloca %class.String, align 8
  %407 = alloca %class.String, align 8
  %408 = alloca %class.String, align 8
  %409 = alloca %class.String, align 8
  %410 = alloca %class.String, align 8
  %411 = alloca %class.String, align 8
  %412 = alloca %class.String, align 8
  %413 = alloca %class.String, align 8
  %414 = alloca %class.String, align 8
  %415 = alloca %class.String, align 8
  %416 = alloca %class.String, align 8
  %417 = alloca %class.String, align 8
  %418 = alloca %class.String, align 8
  %419 = alloca %class.String, align 8
  %420 = alloca %class.Vector, align 8
  %421 = alloca %class.String, align 8
  %422 = alloca i64, align 8
  %423 = alloca %class.Args, align 8
  %424 = alloca %class.Vector, align 8
  %425 = alloca i8, align 1
  %426 = alloca %class.Args, align 8
  %427 = alloca %class.String, align 8
  %428 = alloca %class.AnyArg, align 1
  %429 = alloca %class.Args, align 8
  %430 = alloca %class.String, align 8
  %431 = alloca %class.AnyArg, align 1
  %432 = alloca %class.String, align 8
  %433 = alloca %class.String, align 8
  %434 = alloca %class.String, align 8
  %435 = alloca %class.String, align 8
  %436 = alloca %class.StringAccum, align 8
  %437 = alloca %class.String, align 8
  %438 = alloca %class.Args, align 8
  %439 = alloca %class.String, align 8
  %440 = alloca %class.AnyArg, align 1
  %441 = alloca i32, align 4
  %442 = alloca %class.Args, align 8
  %443 = alloca %class.String, align 8
  %444 = alloca i32, align 4
  %445 = alloca i32, align 4
  %446 = alloca %class.Args, align 8
  %447 = alloca %class.String, align 8
  %448 = alloca %class.String, align 8
  store %class.ConfParseTest* %0, %class.ConfParseTest** %4, align 8
  store %class.ErrorHandler* %1, %class.ErrorHandler** %5, align 8
  %449 = load %class.ConfParseTest*, %class.ConfParseTest** %4, align 8
  br label %450

; <label>:450:                                    ; preds = %2
  call void @_ZN6StringC2EPKc(%class.String* %7, i8* getelementptr inbounds ([9 x i8], [9 x i8]* @.str, i32 0, i32 0))
  invoke void @_Z12cp_uncommentRK6String(%class.String* sret %6, %class.String* dereferenceable(24) %7)
          to label %451 unwind label %458

; <label>:451:                                    ; preds = %450
  %452 = invoke zeroext i1 @_ZeqRK6StringPKc(%class.String* dereferenceable(24) %6, i8* getelementptr inbounds ([5 x i8], [5 x i8]* @.str.1, i32 0, i32 0))
          to label %453 unwind label %462

; <label>:453:                                    ; preds = %451
  %454 = xor i1 %452, true
  call void @_ZN6StringD2Ev(%class.String* %6) #11
  call void @_ZN6StringD2Ev(%class.String* %7) #11
  br i1 %454, label %455, label %467

; <label>:455:                                    ; preds = %453
  %456 = load %class.ErrorHandler*, %class.ErrorHandler** %5, align 8
  %457 = call i32 (%class.ErrorHandler*, i8*, ...) @_ZN12ErrorHandler5errorEPKcz(%class.ErrorHandler* %456, i8* getelementptr inbounds ([26 x i8], [26 x i8]* @.str.2, i32 0, i32 0), i8* getelementptr inbounds ([43 x i8], [43 x i8]* @.str.3, i32 0, i32 0), i32 67, i8* getelementptr inbounds ([35 x i8], [35 x i8]* @.str.4, i32 0, i32 0))
  store i32 %457, i32* %3, align 4
  br label %6761

; <label>:458:                                    ; preds = %450
  %459 = landingpad { i8*, i32 }
          cleanup
  %460 = extractvalue { i8*, i32 } %459, 0
  store i8* %460, i8** %8, align 8
  %461 = extractvalue { i8*, i32 } %459, 1
  store i32 %461, i32* %9, align 4
  br label %466

; <label>:462:                                    ; preds = %451
  %463 = landingpad { i8*, i32 }
          cleanup
  %464 = extractvalue { i8*, i32 } %463, 0
  store i8* %464, i8** %8, align 8
  %465 = extractvalue { i8*, i32 } %463, 1
  store i32 %465, i32* %9, align 4
  call void @_ZN6StringD2Ev(%class.String* %6) #11
  br label %466

; <label>:466:                                    ; preds = %462, %458
  call void @_ZN6StringD2Ev(%class.String* %7) #11
  br label %6763

; <label>:467:                                    ; preds = %453
  br label %468

; <label>:468:                                    ; preds = %467
  br label %469

; <label>:469:                                    ; preds = %468
  call void @_ZN6StringC2EPKc(%class.String* %11, i8* getelementptr inbounds ([41 x i8], [41 x i8]* @.str.5, i32 0, i32 0))
  invoke void @_Z12cp_uncommentRK6String(%class.String* sret %10, %class.String* dereferenceable(24) %11)
          to label %470 unwind label %477

; <label>:470:                                    ; preds = %469
  %471 = invoke zeroext i1 @_ZeqRK6StringPKc(%class.String* dereferenceable(24) %10, i8* getelementptr inbounds ([4 x i8], [4 x i8]* @.str.6, i32 0, i32 0))
          to label %472 unwind label %481

; <label>:472:                                    ; preds = %470
  %473 = xor i1 %471, true
  call void @_ZN6StringD2Ev(%class.String* %10) #11
  call void @_ZN6StringD2Ev(%class.String* %11) #11
  br i1 %473, label %474, label %486

; <label>:474:                                    ; preds = %472
  %475 = load %class.ErrorHandler*, %class.ErrorHandler** %5, align 8
  %476 = call i32 (%class.ErrorHandler*, i8*, ...) @_ZN12ErrorHandler5errorEPKcz(%class.ErrorHandler* %475, i8* getelementptr inbounds ([26 x i8], [26 x i8]* @.str.2, i32 0, i32 0), i8* getelementptr inbounds ([43 x i8], [43 x i8]* @.str.3, i32 0, i32 0), i32 68, i8* getelementptr inbounds ([67 x i8], [67 x i8]* @.str.7, i32 0, i32 0))
  store i32 %476, i32* %3, align 4
  br label %6761

; <label>:477:                                    ; preds = %469
  %478 = landingpad { i8*, i32 }
          cleanup
  %479 = extractvalue { i8*, i32 } %478, 0
  store i8* %479, i8** %8, align 8
  %480 = extractvalue { i8*, i32 } %478, 1
  store i32 %480, i32* %9, align 4
  br label %485

; <label>:481:                                    ; preds = %470
  %482 = landingpad { i8*, i32 }
          cleanup
  %483 = extractvalue { i8*, i32 } %482, 0
  store i8* %483, i8** %8, align 8
  %484 = extractvalue { i8*, i32 } %482, 1
  store i32 %484, i32* %9, align 4
  call void @_ZN6StringD2Ev(%class.String* %10) #11
  br label %485

; <label>:485:                                    ; preds = %481, %477
  call void @_ZN6StringD2Ev(%class.String* %11) #11
  br label %6763

; <label>:486:                                    ; preds = %472
  br label %487

; <label>:487:                                    ; preds = %486
  br label %488

; <label>:488:                                    ; preds = %487
  call void @_ZN6StringC2EPKc(%class.String* %13, i8* getelementptr inbounds ([18 x i8], [18 x i8]* @.str.8, i32 0, i32 0))
  invoke void @_Z12cp_uncommentRK6String(%class.String* sret %12, %class.String* dereferenceable(24) %13)
          to label %489 unwind label %496

; <label>:489:                                    ; preds = %488
  %490 = invoke zeroext i1 @_ZeqRK6StringPKc(%class.String* dereferenceable(24) %12, i8* getelementptr inbounds ([14 x i8], [14 x i8]* @.str.9, i32 0, i32 0))
          to label %491 unwind label %500

; <label>:491:                                    ; preds = %489
  %492 = xor i1 %490, true
  call void @_ZN6StringD2Ev(%class.String* %12) #11
  call void @_ZN6StringD2Ev(%class.String* %13) #11
  br i1 %492, label %493, label %505

; <label>:493:                                    ; preds = %491
  %494 = load %class.ErrorHandler*, %class.ErrorHandler** %5, align 8
  %495 = call i32 (%class.ErrorHandler*, i8*, ...) @_ZN12ErrorHandler5errorEPKcz(%class.ErrorHandler* %494, i8* getelementptr inbounds ([26 x i8], [26 x i8]* @.str.2, i32 0, i32 0), i8* getelementptr inbounds ([43 x i8], [43 x i8]* @.str.3, i32 0, i32 0), i32 69, i8* getelementptr inbounds ([57 x i8], [57 x i8]* @.str.10, i32 0, i32 0))
  store i32 %495, i32* %3, align 4
  br label %6761

; <label>:496:                                    ; preds = %488
  %497 = landingpad { i8*, i32 }
          cleanup
  %498 = extractvalue { i8*, i32 } %497, 0
  store i8* %498, i8** %8, align 8
  %499 = extractvalue { i8*, i32 } %497, 1
  store i32 %499, i32* %9, align 4
  br label %504

; <label>:500:                                    ; preds = %489
  %501 = landingpad { i8*, i32 }
          cleanup
  %502 = extractvalue { i8*, i32 } %501, 0
  store i8* %502, i8** %8, align 8
  %503 = extractvalue { i8*, i32 } %501, 1
  store i32 %503, i32* %9, align 4
  call void @_ZN6StringD2Ev(%class.String* %12) #11
  br label %504

; <label>:504:                                    ; preds = %500, %496
  call void @_ZN6StringD2Ev(%class.String* %13) #11
  br label %6763

; <label>:505:                                    ; preds = %491
  br label %506

; <label>:506:                                    ; preds = %505
  br label %507

; <label>:507:                                    ; preds = %506
  call void @_ZN6StringC2EPKc(%class.String* %15, i8* getelementptr inbounds ([31 x i8], [31 x i8]* @.str.11, i32 0, i32 0))
  invoke void @_Z10cp_unquoteRK6String(%class.String* sret %14, %class.String* dereferenceable(24) %15)
          to label %508 unwind label %515

; <label>:508:                                    ; preds = %507
  %509 = invoke zeroext i1 @_ZeqRK6StringPKc(%class.String* dereferenceable(24) %14, i8* getelementptr inbounds ([16 x i8], [16 x i8]* @.str.12, i32 0, i32 0))
          to label %510 unwind label %519

; <label>:510:                                    ; preds = %508
  %511 = xor i1 %509, true
  call void @_ZN6StringD2Ev(%class.String* %14) #11
  call void @_ZN6StringD2Ev(%class.String* %15) #11
  br i1 %511, label %512, label %524

; <label>:512:                                    ; preds = %510
  %513 = load %class.ErrorHandler*, %class.ErrorHandler** %5, align 8
  %514 = call i32 (%class.ErrorHandler*, i8*, ...) @_ZN12ErrorHandler5errorEPKcz(%class.ErrorHandler* %513, i8* getelementptr inbounds ([26 x i8], [26 x i8]* @.str.2, i32 0, i32 0), i8* getelementptr inbounds ([43 x i8], [43 x i8]* @.str.3, i32 0, i32 0), i32 70, i8* getelementptr inbounds ([70 x i8], [70 x i8]* @.str.13, i32 0, i32 0))
  store i32 %514, i32* %3, align 4
  br label %6761

; <label>:515:                                    ; preds = %507
  %516 = landingpad { i8*, i32 }
          cleanup
  %517 = extractvalue { i8*, i32 } %516, 0
  store i8* %517, i8** %8, align 8
  %518 = extractvalue { i8*, i32 } %516, 1
  store i32 %518, i32* %9, align 4
  br label %523

; <label>:519:                                    ; preds = %508
  %520 = landingpad { i8*, i32 }
          cleanup
  %521 = extractvalue { i8*, i32 } %520, 0
  store i8* %521, i8** %8, align 8
  %522 = extractvalue { i8*, i32 } %520, 1
  store i32 %522, i32* %9, align 4
  call void @_ZN6StringD2Ev(%class.String* %14) #11
  br label %523

; <label>:523:                                    ; preds = %519, %515
  call void @_ZN6StringD2Ev(%class.String* %15) #11
  br label %6763

; <label>:524:                                    ; preds = %510
  br label %525

; <label>:525:                                    ; preds = %524
  call void @_ZN6StringC2EPKc(%class.String* %16, i8* getelementptr inbounds ([8 x i8], [8 x i8]* @.str.14, i32 0, i32 0))
  br label %526

; <label>:526:                                    ; preds = %525
  %527 = invoke zeroext i1 @_Z12cp_eat_spaceR6String(%class.String* dereferenceable(24) %16)
          to label %528 unwind label %535

; <label>:528:                                    ; preds = %526
  %529 = zext i1 %527 to i32
  %530 = icmp eq i32 %529, 0
  br i1 %530, label %539, label %531

; <label>:531:                                    ; preds = %528
  %532 = load %class.ErrorHandler*, %class.ErrorHandler** %5, align 8
  %533 = invoke i32 (%class.ErrorHandler*, i8*, ...) @_ZN12ErrorHandler5errorEPKcz(%class.ErrorHandler* %532, i8* getelementptr inbounds ([26 x i8], [26 x i8]* @.str.2, i32 0, i32 0), i8* getelementptr inbounds ([43 x i8], [43 x i8]* @.str.3, i32 0, i32 0), i32 74, i8* getelementptr inbounds ([33 x i8], [33 x i8]* @.str.15, i32 0, i32 0))
          to label %534 unwind label %535

; <label>:534:                                    ; preds = %531
  store i32 %533, i32* %3, align 4
  store i32 1, i32* %17, align 4
  br label %6759

; <label>:535:                                    ; preds = %575, %569, %566, %559, %554, %551, %545, %542, %531, %526
  %536 = landingpad { i8*, i32 }
          cleanup
  %537 = extractvalue { i8*, i32 } %536, 0
  store i8* %537, i8** %8, align 8
  %538 = extractvalue { i8*, i32 } %536, 1
  store i32 %538, i32* %9, align 4
  br label %6760

; <label>:539:                                    ; preds = %528
  br label %540

; <label>:540:                                    ; preds = %539
  br label %541

; <label>:541:                                    ; preds = %540
  br label %542

; <label>:542:                                    ; preds = %541
  %543 = invoke zeroext i1 @_ZeqRK6StringPKc(%class.String* dereferenceable(24) %16, i8* getelementptr inbounds ([1 x i8], [1 x i8]* @.str.16, i32 0, i32 0))
          to label %544 unwind label %535

; <label>:544:                                    ; preds = %542
  br i1 %543, label %549, label %545

; <label>:545:                                    ; preds = %544
  %546 = load %class.ErrorHandler*, %class.ErrorHandler** %5, align 8
  %547 = invoke i32 (%class.ErrorHandler*, i8*, ...) @_ZN12ErrorHandler5errorEPKcz(%class.ErrorHandler* %546, i8* getelementptr inbounds ([26 x i8], [26 x i8]* @.str.2, i32 0, i32 0), i8* getelementptr inbounds ([43 x i8], [43 x i8]* @.str.3, i32 0, i32 0), i32 75, i8* getelementptr inbounds ([16 x i8], [16 x i8]* @.str.17, i32 0, i32 0))
          to label %548 unwind label %535

; <label>:548:                                    ; preds = %545
  store i32 %547, i32* %3, align 4
  store i32 1, i32* %17, align 4
  br label %6759

; <label>:549:                                    ; preds = %544
  br label %550

; <label>:550:                                    ; preds = %549
  br label %551

; <label>:551:                                    ; preds = %550
  %552 = invoke dereferenceable(24) %class.String* @_ZN6StringaSEPKc(%class.String* %16, i8* getelementptr inbounds ([9 x i8], [9 x i8]* @.str, i32 0, i32 0))
          to label %553 unwind label %535

; <label>:553:                                    ; preds = %551
  br label %554

; <label>:554:                                    ; preds = %553
  %555 = invoke zeroext i1 @_Z12cp_eat_spaceR6String(%class.String* dereferenceable(24) %16)
          to label %556 unwind label %535

; <label>:556:                                    ; preds = %554
  %557 = zext i1 %555 to i32
  %558 = icmp eq i32 %557, 1
  br i1 %558, label %563, label %559

; <label>:559:                                    ; preds = %556
  %560 = load %class.ErrorHandler*, %class.ErrorHandler** %5, align 8
  %561 = invoke i32 (%class.ErrorHandler*, i8*, ...) @_ZN12ErrorHandler5errorEPKcz(%class.ErrorHandler* %560, i8* getelementptr inbounds ([26 x i8], [26 x i8]* @.str.2, i32 0, i32 0), i8* getelementptr inbounds ([43 x i8], [43 x i8]* @.str.3, i32 0, i32 0), i32 77, i8* getelementptr inbounds ([32 x i8], [32 x i8]* @.str.18, i32 0, i32 0))
          to label %562 unwind label %535

; <label>:562:                                    ; preds = %559
  store i32 %561, i32* %3, align 4
  store i32 1, i32* %17, align 4
  br label %6759

; <label>:563:                                    ; preds = %556
  br label %564

; <label>:564:                                    ; preds = %563
  br label %565

; <label>:565:                                    ; preds = %564
  br label %566

; <label>:566:                                    ; preds = %565
  %567 = invoke zeroext i1 @_ZeqRK6StringPKc(%class.String* dereferenceable(24) %16, i8* getelementptr inbounds ([7 x i8], [7 x i8]* @.str.19, i32 0, i32 0))
          to label %568 unwind label %535

; <label>:568:                                    ; preds = %566
  br i1 %567, label %573, label %569

; <label>:569:                                    ; preds = %568
  %570 = load %class.ErrorHandler*, %class.ErrorHandler** %5, align 8
  %571 = invoke i32 (%class.ErrorHandler*, i8*, ...) @_ZN12ErrorHandler5errorEPKcz(%class.ErrorHandler* %570, i8* getelementptr inbounds ([26 x i8], [26 x i8]* @.str.2, i32 0, i32 0), i8* getelementptr inbounds ([43 x i8], [43 x i8]* @.str.3, i32 0, i32 0), i32 78, i8* getelementptr inbounds ([22 x i8], [22 x i8]* @.str.20, i32 0, i32 0))
          to label %572 unwind label %535

; <label>:572:                                    ; preds = %569
  store i32 %571, i32* %3, align 4
  store i32 1, i32* %17, align 4
  br label %6759

; <label>:573:                                    ; preds = %568
  br label %574

; <label>:574:                                    ; preds = %573
  br label %575

; <label>:575:                                    ; preds = %574
  invoke void @_ZN6VectorI6StringEC2Ev(%class.Vector* %18)
          to label %576 unwind label %535

; <label>:576:                                    ; preds = %575
  invoke void @_ZN6StringC2EPKc(%class.String* %19, i8* getelementptr inbounds ([8 x i8], [8 x i8]* @.str.21, i32 0, i32 0))
          to label %577 unwind label %587

; <label>:577:                                    ; preds = %576
  invoke void @_Z9cp_argvecRK6StringR6VectorIS_E(%class.String* dereferenceable(24) %19, %class.Vector* dereferenceable(16) %18)
          to label %578 unwind label %591

; <label>:578:                                    ; preds = %577
  call void @_ZN6StringD2Ev(%class.String* %19) #11
  br label %579

; <label>:579:                                    ; preds = %578
  %580 = invoke i32 @_ZNK6VectorI6StringE4sizeEv(%class.Vector* %18)
          to label %581 unwind label %587

; <label>:581:                                    ; preds = %579
  %582 = icmp eq i32 %580, 3
  br i1 %582, label %595, label %583

; <label>:583:                                    ; preds = %581
  %584 = load %class.ErrorHandler*, %class.ErrorHandler** %5, align 8
  %585 = invoke i32 (%class.ErrorHandler*, i8*, ...) @_ZN12ErrorHandler5errorEPKcz(%class.ErrorHandler* %584, i8* getelementptr inbounds ([26 x i8], [26 x i8]* @.str.2, i32 0, i32 0), i8* getelementptr inbounds ([43 x i8], [43 x i8]* @.str.3, i32 0, i32 0), i32 82, i8* getelementptr inbounds ([14 x i8], [14 x i8]* @.str.22, i32 0, i32 0))
          to label %586 unwind label %587

; <label>:586:                                    ; preds = %583
  store i32 %585, i32* %3, align 4
  store i32 1, i32* %17, align 4
  br label %6757

; <label>:587:                                    ; preds = %1254, %1244, %1229, %1218, %1206, %1195, %1183, %1172, %1159, %1152, %1137, %1126, %1111, %1100, %1085, %1074, %1059, %1048, %1033, %1022, %1007, %996, %981, %970, %955, %944, %929, %918, %906, %895, %883, %872, %865, %854, %842, %835, %821, %809, %798, %786, %779, %776, %774, %763, %759, %756, %750, %747, %745, %738, %735, %733, %726, %723, %721, %710, %706, %703, %697, %694, %692, %681, %677, %674, %668, %665, %663, %656, %653, %651, %640, %636, %633, %627, %624, %622, %615, %612, %610, %603, %600, %598, %583, %579, %576
  %588 = landingpad { i8*, i32 }
          cleanup
  %589 = extractvalue { i8*, i32 } %588, 0
  store i8* %589, i8** %8, align 8
  %590 = extractvalue { i8*, i32 } %588, 1
  store i32 %590, i32* %9, align 4
  br label %6758

; <label>:591:                                    ; preds = %577
  %592 = landingpad { i8*, i32 }
          cleanup
  %593 = extractvalue { i8*, i32 } %592, 0
  store i8* %593, i8** %8, align 8
  %594 = extractvalue { i8*, i32 } %592, 1
  store i32 %594, i32* %9, align 4
  call void @_ZN6StringD2Ev(%class.String* %19) #11
  br label %6758

; <label>:595:                                    ; preds = %581
  br label %596

; <label>:596:                                    ; preds = %595
  br label %597

; <label>:597:                                    ; preds = %596
  br label %598

; <label>:598:                                    ; preds = %597
  %599 = invoke dereferenceable(24) %class.String* @_ZN6VectorI6StringEixEi(%class.Vector* %18, i32 0)
          to label %600 unwind label %587

; <label>:600:                                    ; preds = %598
  %601 = invoke zeroext i1 @_ZeqRK6StringPKc(%class.String* dereferenceable(24) %599, i8* getelementptr inbounds ([2 x i8], [2 x i8]* @.str.23, i32 0, i32 0))
          to label %602 unwind label %587

; <label>:602:                                    ; preds = %600
  br i1 %601, label %607, label %603

; <label>:603:                                    ; preds = %602
  %604 = load %class.ErrorHandler*, %class.ErrorHandler** %5, align 8
  %605 = invoke i32 (%class.ErrorHandler*, i8*, ...) @_ZN12ErrorHandler5errorEPKcz(%class.ErrorHandler* %604, i8* getelementptr inbounds ([26 x i8], [26 x i8]* @.str.2, i32 0, i32 0), i8* getelementptr inbounds ([43 x i8], [43 x i8]* @.str.3, i32 0, i32 0), i32 83, i8* getelementptr inbounds ([12 x i8], [12 x i8]* @.str.24, i32 0, i32 0))
          to label %606 unwind label %587

; <label>:606:                                    ; preds = %603
  store i32 %605, i32* %3, align 4
  store i32 1, i32* %17, align 4
  br label %6757

; <label>:607:                                    ; preds = %602
  br label %608

; <label>:608:                                    ; preds = %607
  br label %609

; <label>:609:                                    ; preds = %608
  br label %610

; <label>:610:                                    ; preds = %609
  %611 = invoke dereferenceable(24) %class.String* @_ZN6VectorI6StringEixEi(%class.Vector* %18, i32 1)
          to label %612 unwind label %587

; <label>:612:                                    ; preds = %610
  %613 = invoke zeroext i1 @_ZeqRK6StringPKc(%class.String* dereferenceable(24) %611, i8* getelementptr inbounds ([2 x i8], [2 x i8]* @.str.25, i32 0, i32 0))
          to label %614 unwind label %587

; <label>:614:                                    ; preds = %612
  br i1 %613, label %619, label %615

; <label>:615:                                    ; preds = %614
  %616 = load %class.ErrorHandler*, %class.ErrorHandler** %5, align 8
  %617 = invoke i32 (%class.ErrorHandler*, i8*, ...) @_ZN12ErrorHandler5errorEPKcz(%class.ErrorHandler* %616, i8* getelementptr inbounds ([26 x i8], [26 x i8]* @.str.2, i32 0, i32 0), i8* getelementptr inbounds ([43 x i8], [43 x i8]* @.str.3, i32 0, i32 0), i32 84, i8* getelementptr inbounds ([12 x i8], [12 x i8]* @.str.26, i32 0, i32 0))
          to label %618 unwind label %587

; <label>:618:                                    ; preds = %615
  store i32 %617, i32* %3, align 4
  store i32 1, i32* %17, align 4
  br label %6757

; <label>:619:                                    ; preds = %614
  br label %620

; <label>:620:                                    ; preds = %619
  br label %621

; <label>:621:                                    ; preds = %620
  br label %622

; <label>:622:                                    ; preds = %621
  %623 = invoke dereferenceable(24) %class.String* @_ZN6VectorI6StringEixEi(%class.Vector* %18, i32 2)
          to label %624 unwind label %587

; <label>:624:                                    ; preds = %622
  %625 = invoke zeroext i1 @_ZeqRK6StringPKc(%class.String* dereferenceable(24) %623, i8* getelementptr inbounds ([2 x i8], [2 x i8]* @.str.27, i32 0, i32 0))
          to label %626 unwind label %587

; <label>:626:                                    ; preds = %624
  br i1 %625, label %631, label %627

; <label>:627:                                    ; preds = %626
  %628 = load %class.ErrorHandler*, %class.ErrorHandler** %5, align 8
  %629 = invoke i32 (%class.ErrorHandler*, i8*, ...) @_ZN12ErrorHandler5errorEPKcz(%class.ErrorHandler* %628, i8* getelementptr inbounds ([26 x i8], [26 x i8]* @.str.2, i32 0, i32 0), i8* getelementptr inbounds ([43 x i8], [43 x i8]* @.str.3, i32 0, i32 0), i32 85, i8* getelementptr inbounds ([12 x i8], [12 x i8]* @.str.28, i32 0, i32 0))
          to label %630 unwind label %587

; <label>:630:                                    ; preds = %627
  store i32 %629, i32* %3, align 4
  store i32 1, i32* %17, align 4
  br label %6757

; <label>:631:                                    ; preds = %626
  br label %632

; <label>:632:                                    ; preds = %631
  br label %633

; <label>:633:                                    ; preds = %632
  invoke void @_ZN6StringC2EPKc(%class.String* %20, i8* getelementptr inbounds ([18 x i8], [18 x i8]* @.str.29, i32 0, i32 0))
          to label %634 unwind label %587

; <label>:634:                                    ; preds = %633
  invoke void @_Z9cp_argvecRK6StringR6VectorIS_E(%class.String* dereferenceable(24) %20, %class.Vector* dereferenceable(16) %18)
          to label %635 unwind label %644

; <label>:635:                                    ; preds = %634
  call void @_ZN6StringD2Ev(%class.String* %20) #11
  br label %636

; <label>:636:                                    ; preds = %635
  %637 = invoke i32 @_ZNK6VectorI6StringE4sizeEv(%class.Vector* %18)
          to label %638 unwind label %587

; <label>:638:                                    ; preds = %636
  %639 = icmp eq i32 %637, 5
  br i1 %639, label %648, label %640

; <label>:640:                                    ; preds = %638
  %641 = load %class.ErrorHandler*, %class.ErrorHandler** %5, align 8
  %642 = invoke i32 (%class.ErrorHandler*, i8*, ...) @_ZN12ErrorHandler5errorEPKcz(%class.ErrorHandler* %641, i8* getelementptr inbounds ([26 x i8], [26 x i8]* @.str.2, i32 0, i32 0), i8* getelementptr inbounds ([43 x i8], [43 x i8]* @.str.3, i32 0, i32 0), i32 87, i8* getelementptr inbounds ([14 x i8], [14 x i8]* @.str.30, i32 0, i32 0))
          to label %643 unwind label %587

; <label>:643:                                    ; preds = %640
  store i32 %642, i32* %3, align 4
  store i32 1, i32* %17, align 4
  br label %6757

; <label>:644:                                    ; preds = %634
  %645 = landingpad { i8*, i32 }
          cleanup
  %646 = extractvalue { i8*, i32 } %645, 0
  store i8* %646, i8** %8, align 8
  %647 = extractvalue { i8*, i32 } %645, 1
  store i32 %647, i32* %9, align 4
  call void @_ZN6StringD2Ev(%class.String* %20) #11
  br label %6758

; <label>:648:                                    ; preds = %638
  br label %649

; <label>:649:                                    ; preds = %648
  br label %650

; <label>:650:                                    ; preds = %649
  br label %651

; <label>:651:                                    ; preds = %650
  %652 = invoke dereferenceable(24) %class.String* @_ZN6VectorI6StringEixEi(%class.Vector* %18, i32 3)
          to label %653 unwind label %587

; <label>:653:                                    ; preds = %651
  %654 = invoke zeroext i1 @_ZeqRK6StringPKc(%class.String* dereferenceable(24) %652, i8* getelementptr inbounds ([4 x i8], [4 x i8]* @.str.6, i32 0, i32 0))
          to label %655 unwind label %587

; <label>:655:                                    ; preds = %653
  br i1 %654, label %660, label %656

; <label>:656:                                    ; preds = %655
  %657 = load %class.ErrorHandler*, %class.ErrorHandler** %5, align 8
  %658 = invoke i32 (%class.ErrorHandler*, i8*, ...) @_ZN12ErrorHandler5errorEPKcz(%class.ErrorHandler* %657, i8* getelementptr inbounds ([26 x i8], [26 x i8]* @.str.2, i32 0, i32 0), i8* getelementptr inbounds ([43 x i8], [43 x i8]* @.str.3, i32 0, i32 0), i32 88, i8* getelementptr inbounds ([14 x i8], [14 x i8]* @.str.31, i32 0, i32 0))
          to label %659 unwind label %587

; <label>:659:                                    ; preds = %656
  store i32 %658, i32* %3, align 4
  store i32 1, i32* %17, align 4
  br label %6757

; <label>:660:                                    ; preds = %655
  br label %661

; <label>:661:                                    ; preds = %660
  br label %662

; <label>:662:                                    ; preds = %661
  br label %663

; <label>:663:                                    ; preds = %662
  %664 = invoke dereferenceable(24) %class.String* @_ZN6VectorI6StringEixEi(%class.Vector* %18, i32 4)
          to label %665 unwind label %587

; <label>:665:                                    ; preds = %663
  %666 = invoke zeroext i1 @_ZeqRK6StringPKc(%class.String* dereferenceable(24) %664, i8* getelementptr inbounds ([2 x i8], [2 x i8]* @.str.27, i32 0, i32 0))
          to label %667 unwind label %587

; <label>:667:                                    ; preds = %665
  br i1 %666, label %672, label %668

; <label>:668:                                    ; preds = %667
  %669 = load %class.ErrorHandler*, %class.ErrorHandler** %5, align 8
  %670 = invoke i32 (%class.ErrorHandler*, i8*, ...) @_ZN12ErrorHandler5errorEPKcz(%class.ErrorHandler* %669, i8* getelementptr inbounds ([26 x i8], [26 x i8]* @.str.2, i32 0, i32 0), i8* getelementptr inbounds ([43 x i8], [43 x i8]* @.str.3, i32 0, i32 0), i32 89, i8* getelementptr inbounds ([12 x i8], [12 x i8]* @.str.32, i32 0, i32 0))
          to label %671 unwind label %587

; <label>:671:                                    ; preds = %668
  store i32 %670, i32* %3, align 4
  store i32 1, i32* %17, align 4
  br label %6757

; <label>:672:                                    ; preds = %667
  br label %673

; <label>:673:                                    ; preds = %672
  br label %674

; <label>:674:                                    ; preds = %673
  invoke void @_ZN6StringC2EPKc(%class.String* %21, i8* getelementptr inbounds ([12 x i8], [12 x i8]* @.str.33, i32 0, i32 0))
          to label %675 unwind label %587

; <label>:675:                                    ; preds = %674
  invoke void @_Z9cp_argvecRK6StringR6VectorIS_E(%class.String* dereferenceable(24) %21, %class.Vector* dereferenceable(16) %18)
          to label %676 unwind label %685

; <label>:676:                                    ; preds = %675
  call void @_ZN6StringD2Ev(%class.String* %21) #11
  br label %677

; <label>:677:                                    ; preds = %676
  %678 = invoke i32 @_ZNK6VectorI6StringE4sizeEv(%class.Vector* %18)
          to label %679 unwind label %587

; <label>:679:                                    ; preds = %677
  %680 = icmp eq i32 %678, 6
  br i1 %680, label %689, label %681

; <label>:681:                                    ; preds = %679
  %682 = load %class.ErrorHandler*, %class.ErrorHandler** %5, align 8
  %683 = invoke i32 (%class.ErrorHandler*, i8*, ...) @_ZN12ErrorHandler5errorEPKcz(%class.ErrorHandler* %682, i8* getelementptr inbounds ([26 x i8], [26 x i8]* @.str.2, i32 0, i32 0), i8* getelementptr inbounds ([43 x i8], [43 x i8]* @.str.3, i32 0, i32 0), i32 91, i8* getelementptr inbounds ([14 x i8], [14 x i8]* @.str.34, i32 0, i32 0))
          to label %684 unwind label %587

; <label>:684:                                    ; preds = %681
  store i32 %683, i32* %3, align 4
  store i32 1, i32* %17, align 4
  br label %6757

; <label>:685:                                    ; preds = %675
  %686 = landingpad { i8*, i32 }
          cleanup
  %687 = extractvalue { i8*, i32 } %686, 0
  store i8* %687, i8** %8, align 8
  %688 = extractvalue { i8*, i32 } %686, 1
  store i32 %688, i32* %9, align 4
  call void @_ZN6StringD2Ev(%class.String* %21) #11
  br label %6758

; <label>:689:                                    ; preds = %679
  br label %690

; <label>:690:                                    ; preds = %689
  br label %691

; <label>:691:                                    ; preds = %690
  br label %692

; <label>:692:                                    ; preds = %691
  %693 = invoke dereferenceable(24) %class.String* @_ZN6VectorI6StringEixEi(%class.Vector* %18, i32 5)
          to label %694 unwind label %587

; <label>:694:                                    ; preds = %692
  %695 = invoke zeroext i1 @_ZeqRK6StringPKc(%class.String* dereferenceable(24) %693, i8* getelementptr inbounds ([7 x i8], [7 x i8]* @.str.35, i32 0, i32 0))
          to label %696 unwind label %587

; <label>:696:                                    ; preds = %694
  br i1 %695, label %701, label %697

; <label>:697:                                    ; preds = %696
  %698 = load %class.ErrorHandler*, %class.ErrorHandler** %5, align 8
  %699 = invoke i32 (%class.ErrorHandler*, i8*, ...) @_ZN12ErrorHandler5errorEPKcz(%class.ErrorHandler* %698, i8* getelementptr inbounds ([26 x i8], [26 x i8]* @.str.2, i32 0, i32 0), i8* getelementptr inbounds ([43 x i8], [43 x i8]* @.str.3, i32 0, i32 0), i32 92, i8* getelementptr inbounds ([19 x i8], [19 x i8]* @.str.36, i32 0, i32 0))
          to label %700 unwind label %587

; <label>:700:                                    ; preds = %697
  store i32 %699, i32* %3, align 4
  store i32 1, i32* %17, align 4
  br label %6757

; <label>:701:                                    ; preds = %696
  br label %702

; <label>:702:                                    ; preds = %701
  br label %703

; <label>:703:                                    ; preds = %702
  invoke void @_ZN6StringC2EPKc(%class.String* %22, i8* getelementptr inbounds ([8 x i8], [8 x i8]* @.str.37, i32 0, i32 0))
          to label %704 unwind label %587

; <label>:704:                                    ; preds = %703
  invoke void @_Z11cp_spacevecRK6StringR6VectorIS_E(%class.String* dereferenceable(24) %22, %class.Vector* dereferenceable(16) %18)
          to label %705 unwind label %714

; <label>:705:                                    ; preds = %704
  call void @_ZN6StringD2Ev(%class.String* %22) #11
  br label %706

; <label>:706:                                    ; preds = %705
  %707 = invoke i32 @_ZNK6VectorI6StringE4sizeEv(%class.Vector* %18)
          to label %708 unwind label %587

; <label>:708:                                    ; preds = %706
  %709 = icmp eq i32 %707, 9
  br i1 %709, label %718, label %710

; <label>:710:                                    ; preds = %708
  %711 = load %class.ErrorHandler*, %class.ErrorHandler** %5, align 8
  %712 = invoke i32 (%class.ErrorHandler*, i8*, ...) @_ZN12ErrorHandler5errorEPKcz(%class.ErrorHandler* %711, i8* getelementptr inbounds ([26 x i8], [26 x i8]* @.str.2, i32 0, i32 0), i8* getelementptr inbounds ([43 x i8], [43 x i8]* @.str.3, i32 0, i32 0), i32 94, i8* getelementptr inbounds ([14 x i8], [14 x i8]* @.str.38, i32 0, i32 0))
          to label %713 unwind label %587

; <label>:713:                                    ; preds = %710
  store i32 %712, i32* %3, align 4
  store i32 1, i32* %17, align 4
  br label %6757

; <label>:714:                                    ; preds = %704
  %715 = landingpad { i8*, i32 }
          cleanup
  %716 = extractvalue { i8*, i32 } %715, 0
  store i8* %716, i8** %8, align 8
  %717 = extractvalue { i8*, i32 } %715, 1
  store i32 %717, i32* %9, align 4
  call void @_ZN6StringD2Ev(%class.String* %22) #11
  br label %6758

; <label>:718:                                    ; preds = %708
  br label %719

; <label>:719:                                    ; preds = %718
  br label %720

; <label>:720:                                    ; preds = %719
  br label %721

; <label>:721:                                    ; preds = %720
  %722 = invoke dereferenceable(24) %class.String* @_ZN6VectorI6StringEixEi(%class.Vector* %18, i32 6)
          to label %723 unwind label %587

; <label>:723:                                    ; preds = %721
  %724 = invoke zeroext i1 @_ZeqRK6StringPKc(%class.String* dereferenceable(24) %722, i8* getelementptr inbounds ([2 x i8], [2 x i8]* @.str.23, i32 0, i32 0))
          to label %725 unwind label %587

; <label>:725:                                    ; preds = %723
  br i1 %724, label %730, label %726

; <label>:726:                                    ; preds = %725
  %727 = load %class.ErrorHandler*, %class.ErrorHandler** %5, align 8
  %728 = invoke i32 (%class.ErrorHandler*, i8*, ...) @_ZN12ErrorHandler5errorEPKcz(%class.ErrorHandler* %727, i8* getelementptr inbounds ([26 x i8], [26 x i8]* @.str.2, i32 0, i32 0), i8* getelementptr inbounds ([43 x i8], [43 x i8]* @.str.3, i32 0, i32 0), i32 95, i8* getelementptr inbounds ([12 x i8], [12 x i8]* @.str.39, i32 0, i32 0))
          to label %729 unwind label %587

; <label>:729:                                    ; preds = %726
  store i32 %728, i32* %3, align 4
  store i32 1, i32* %17, align 4
  br label %6757

; <label>:730:                                    ; preds = %725
  br label %731

; <label>:731:                                    ; preds = %730
  br label %732

; <label>:732:                                    ; preds = %731
  br label %733

; <label>:733:                                    ; preds = %732
  %734 = invoke dereferenceable(24) %class.String* @_ZN6VectorI6StringEixEi(%class.Vector* %18, i32 7)
          to label %735 unwind label %587

; <label>:735:                                    ; preds = %733
  %736 = invoke zeroext i1 @_ZeqRK6StringPKc(%class.String* dereferenceable(24) %734, i8* getelementptr inbounds ([3 x i8], [3 x i8]* @.str.40, i32 0, i32 0))
          to label %737 unwind label %587

; <label>:737:                                    ; preds = %735
  br i1 %736, label %742, label %738

; <label>:738:                                    ; preds = %737
  %739 = load %class.ErrorHandler*, %class.ErrorHandler** %5, align 8
  %740 = invoke i32 (%class.ErrorHandler*, i8*, ...) @_ZN12ErrorHandler5errorEPKcz(%class.ErrorHandler* %739, i8* getelementptr inbounds ([26 x i8], [26 x i8]* @.str.2, i32 0, i32 0), i8* getelementptr inbounds ([43 x i8], [43 x i8]* @.str.3, i32 0, i32 0), i32 96, i8* getelementptr inbounds ([13 x i8], [13 x i8]* @.str.41, i32 0, i32 0))
          to label %741 unwind label %587

; <label>:741:                                    ; preds = %738
  store i32 %740, i32* %3, align 4
  store i32 1, i32* %17, align 4
  br label %6757

; <label>:742:                                    ; preds = %737
  br label %743

; <label>:743:                                    ; preds = %742
  br label %744

; <label>:744:                                    ; preds = %743
  br label %745

; <label>:745:                                    ; preds = %744
  %746 = invoke dereferenceable(24) %class.String* @_ZN6VectorI6StringEixEi(%class.Vector* %18, i32 8)
          to label %747 unwind label %587

; <label>:747:                                    ; preds = %745
  %748 = invoke zeroext i1 @_ZeqRK6StringPKc(%class.String* dereferenceable(24) %746, i8* getelementptr inbounds ([2 x i8], [2 x i8]* @.str.27, i32 0, i32 0))
          to label %749 unwind label %587

; <label>:749:                                    ; preds = %747
  br i1 %748, label %754, label %750

; <label>:750:                                    ; preds = %749
  %751 = load %class.ErrorHandler*, %class.ErrorHandler** %5, align 8
  %752 = invoke i32 (%class.ErrorHandler*, i8*, ...) @_ZN12ErrorHandler5errorEPKcz(%class.ErrorHandler* %751, i8* getelementptr inbounds ([26 x i8], [26 x i8]* @.str.2, i32 0, i32 0), i8* getelementptr inbounds ([43 x i8], [43 x i8]* @.str.3, i32 0, i32 0), i32 97, i8* getelementptr inbounds ([12 x i8], [12 x i8]* @.str.42, i32 0, i32 0))
          to label %753 unwind label %587

; <label>:753:                                    ; preds = %750
  store i32 %752, i32* %3, align 4
  store i32 1, i32* %17, align 4
  br label %6757

; <label>:754:                                    ; preds = %749
  br label %755

; <label>:755:                                    ; preds = %754
  br label %756

; <label>:756:                                    ; preds = %755
  invoke void @_ZN6StringC2EPKc(%class.String* %23, i8* getelementptr inbounds ([15 x i8], [15 x i8]* @.str.43, i32 0, i32 0))
          to label %757 unwind label %587

; <label>:757:                                    ; preds = %756
  invoke void @_Z11cp_spacevecRK6StringR6VectorIS_E(%class.String* dereferenceable(24) %23, %class.Vector* dereferenceable(16) %18)
          to label %758 unwind label %767

; <label>:758:                                    ; preds = %757
  call void @_ZN6StringD2Ev(%class.String* %23) #11
  br label %759

; <label>:759:                                    ; preds = %758
  %760 = invoke i32 @_ZNK6VectorI6StringE4sizeEv(%class.Vector* %18)
          to label %761 unwind label %587

; <label>:761:                                    ; preds = %759
  %762 = icmp eq i32 %760, 10
  br i1 %762, label %771, label %763

; <label>:763:                                    ; preds = %761
  %764 = load %class.ErrorHandler*, %class.ErrorHandler** %5, align 8
  %765 = invoke i32 (%class.ErrorHandler*, i8*, ...) @_ZN12ErrorHandler5errorEPKcz(%class.ErrorHandler* %764, i8* getelementptr inbounds ([26 x i8], [26 x i8]* @.str.2, i32 0, i32 0), i8* getelementptr inbounds ([43 x i8], [43 x i8]* @.str.3, i32 0, i32 0), i32 99, i8* getelementptr inbounds ([15 x i8], [15 x i8]* @.str.44, i32 0, i32 0))
          to label %766 unwind label %587

; <label>:766:                                    ; preds = %763
  store i32 %765, i32* %3, align 4
  store i32 1, i32* %17, align 4
  br label %6757

; <label>:767:                                    ; preds = %757
  %768 = landingpad { i8*, i32 }
          cleanup
  %769 = extractvalue { i8*, i32 } %768, 0
  store i8* %769, i8** %8, align 8
  %770 = extractvalue { i8*, i32 } %768, 1
  store i32 %770, i32* %9, align 4
  call void @_ZN6StringD2Ev(%class.String* %23) #11
  br label %6758

; <label>:771:                                    ; preds = %761
  br label %772

; <label>:772:                                    ; preds = %771
  br label %773

; <label>:773:                                    ; preds = %772
  br label %774

; <label>:774:                                    ; preds = %773
  %775 = invoke dereferenceable(24) %class.String* @_ZN6VectorI6StringEixEi(%class.Vector* %18, i32 9)
          to label %776 unwind label %587

; <label>:776:                                    ; preds = %774
  %777 = invoke zeroext i1 @_ZeqRK6StringPKc(%class.String* dereferenceable(24) %775, i8* getelementptr inbounds ([13 x i8], [13 x i8]* @.str.45, i32 0, i32 0))
          to label %778 unwind label %587

; <label>:778:                                    ; preds = %776
  br i1 %777, label %783, label %779

; <label>:779:                                    ; preds = %778
  %780 = load %class.ErrorHandler*, %class.ErrorHandler** %5, align 8
  %781 = invoke i32 (%class.ErrorHandler*, i8*, ...) @_ZN12ErrorHandler5errorEPKcz(%class.ErrorHandler* %780, i8* getelementptr inbounds ([26 x i8], [26 x i8]* @.str.2, i32 0, i32 0), i8* getelementptr inbounds ([43 x i8], [43 x i8]* @.str.3, i32 0, i32 0), i32 100, i8* getelementptr inbounds ([23 x i8], [23 x i8]* @.str.46, i32 0, i32 0))
          to label %782 unwind label %587

; <label>:782:                                    ; preds = %779
  store i32 %781, i32* %3, align 4
  store i32 1, i32* %17, align 4
  br label %6757

; <label>:783:                                    ; preds = %778
  br label %784

; <label>:784:                                    ; preds = %783
  br label %785

; <label>:785:                                    ; preds = %784
  store i32 97, i32* %25, align 4
  br label %786

; <label>:786:                                    ; preds = %785
  invoke void @_ZN6StringC2EPKc(%class.String* %26, i8* getelementptr inbounds ([2 x i8], [2 x i8]* @.str.47, i32 0, i32 0))
          to label %787 unwind label %587

; <label>:787:                                    ; preds = %786
  %788 = invoke zeroext i1 @_Z10cp_integerRK6StringPi(%class.String* dereferenceable(24) %26, i32* %24)
          to label %789 unwind label %802

; <label>:789:                                    ; preds = %787
  %790 = zext i1 %788 to i32
  %791 = icmp eq i32 %790, 1
  br i1 %791, label %792, label %795

; <label>:792:                                    ; preds = %789
  %793 = load i32, i32* %24, align 4
  %794 = icmp eq i32 %793, 0
  br label %795

; <label>:795:                                    ; preds = %792, %789
  %796 = phi i1 [ false, %789 ], [ %794, %792 ]
  %797 = xor i1 %796, true
  call void @_ZN6StringD2Ev(%class.String* %26) #11
  br i1 %797, label %798, label %806

; <label>:798:                                    ; preds = %795
  %799 = load %class.ErrorHandler*, %class.ErrorHandler** %5, align 8
  %800 = invoke i32 (%class.ErrorHandler*, i8*, ...) @_ZN12ErrorHandler5errorEPKcz(%class.ErrorHandler* %799, i8* getelementptr inbounds ([26 x i8], [26 x i8]* @.str.2, i32 0, i32 0), i8* getelementptr inbounds ([43 x i8], [43 x i8]* @.str.3, i32 0, i32 0), i32 106, i8* getelementptr inbounds ([42 x i8], [42 x i8]* @.str.48, i32 0, i32 0))
          to label %801 unwind label %587

; <label>:801:                                    ; preds = %798
  store i32 %800, i32* %3, align 4
  store i32 1, i32* %17, align 4
  br label %6757

; <label>:802:                                    ; preds = %787
  %803 = landingpad { i8*, i32 }
          cleanup
  %804 = extractvalue { i8*, i32 } %803, 0
  store i8* %804, i8** %8, align 8
  %805 = extractvalue { i8*, i32 } %803, 1
  store i32 %805, i32* %9, align 4
  call void @_ZN6StringD2Ev(%class.String* %26) #11
  br label %6758

; <label>:806:                                    ; preds = %795
  br label %807

; <label>:807:                                    ; preds = %806
  br label %808

; <label>:808:                                    ; preds = %807
  br label %809

; <label>:809:                                    ; preds = %808
  invoke void @_ZN6StringC2EPKc(%class.String* %27, i8* getelementptr inbounds ([3 x i8], [3 x i8]* @.str.49, i32 0, i32 0))
          to label %810 unwind label %587

; <label>:810:                                    ; preds = %809
  %811 = invoke zeroext i1 @_Z10cp_integerRK6StringPi(%class.String* dereferenceable(24) %27, i32* %24)
          to label %812 unwind label %825

; <label>:812:                                    ; preds = %810
  %813 = zext i1 %811 to i32
  %814 = icmp eq i32 %813, 1
  br i1 %814, label %815, label %818

; <label>:815:                                    ; preds = %812
  %816 = load i32, i32* %24, align 4
  %817 = icmp eq i32 %816, 0
  br label %818

; <label>:818:                                    ; preds = %815, %812
  %819 = phi i1 [ false, %812 ], [ %817, %815 ]
  %820 = xor i1 %819, true
  call void @_ZN6StringD2Ev(%class.String* %27) #11
  br i1 %820, label %821, label %829

; <label>:821:                                    ; preds = %818
  %822 = load %class.ErrorHandler*, %class.ErrorHandler** %5, align 8
  %823 = invoke i32 (%class.ErrorHandler*, i8*, ...) @_ZN12ErrorHandler5errorEPKcz(%class.ErrorHandler* %822, i8* getelementptr inbounds ([26 x i8], [26 x i8]* @.str.2, i32 0, i32 0), i8* getelementptr inbounds ([43 x i8], [43 x i8]* @.str.3, i32 0, i32 0), i32 107, i8* getelementptr inbounds ([43 x i8], [43 x i8]* @.str.50, i32 0, i32 0))
          to label %824 unwind label %587

; <label>:824:                                    ; preds = %821
  store i32 %823, i32* %3, align 4
  store i32 1, i32* %17, align 4
  br label %6757

; <label>:825:                                    ; preds = %810
  %826 = landingpad { i8*, i32 }
          cleanup
  %827 = extractvalue { i8*, i32 } %826, 0
  store i8* %827, i8** %8, align 8
  %828 = extractvalue { i8*, i32 } %826, 1
  store i32 %828, i32* %9, align 4
  call void @_ZN6StringD2Ev(%class.String* %27) #11
  br label %6758

; <label>:829:                                    ; preds = %818
  br label %830

; <label>:830:                                    ; preds = %829
  br label %831

; <label>:831:                                    ; preds = %830
  br label %832

; <label>:832:                                    ; preds = %831
  %833 = load i32, i32* %25, align 4
  %834 = icmp eq i32 %833, 97
  br i1 %834, label %839, label %835

; <label>:835:                                    ; preds = %832
  %836 = load %class.ErrorHandler*, %class.ErrorHandler** %5, align 8
  %837 = invoke i32 (%class.ErrorHandler*, i8*, ...) @_ZN12ErrorHandler5errorEPKcz(%class.ErrorHandler* %836, i8* getelementptr inbounds ([26 x i8], [26 x i8]* @.str.2, i32 0, i32 0), i8* getelementptr inbounds ([43 x i8], [43 x i8]* @.str.3, i32 0, i32 0), i32 108, i8* getelementptr inbounds ([10 x i8], [10 x i8]* @.str.51, i32 0, i32 0))
          to label %838 unwind label %587

; <label>:838:                                    ; preds = %835
  store i32 %837, i32* %3, align 4
  store i32 1, i32* %17, align 4
  br label %6757

; <label>:839:                                    ; preds = %832
  br label %840

; <label>:840:                                    ; preds = %839
  br label %841

; <label>:841:                                    ; preds = %840
  br label %842

; <label>:842:                                    ; preds = %841
  invoke void @_ZN6StringC2EPKc(%class.String* %28, i8* getelementptr inbounds ([2 x i8], [2 x i8]* @.str.47, i32 0, i32 0))
          to label %843 unwind label %587

; <label>:843:                                    ; preds = %842
  %844 = invoke zeroext i1 @_Z10cp_integerRK6StringPj(%class.String* dereferenceable(24) %28, i32* %25)
          to label %845 unwind label %858

; <label>:845:                                    ; preds = %843
  %846 = zext i1 %844 to i32
  %847 = icmp eq i32 %846, 1
  br i1 %847, label %848, label %851

; <label>:848:                                    ; preds = %845
  %849 = load i32, i32* %25, align 4
  %850 = icmp eq i32 %849, 0
  br label %851

; <label>:851:                                    ; preds = %848, %845
  %852 = phi i1 [ false, %845 ], [ %850, %848 ]
  %853 = xor i1 %852, true
  call void @_ZN6StringD2Ev(%class.String* %28) #11
  br i1 %853, label %854, label %862

; <label>:854:                                    ; preds = %851
  %855 = load %class.ErrorHandler*, %class.ErrorHandler** %5, align 8
  %856 = invoke i32 (%class.ErrorHandler*, i8*, ...) @_ZN12ErrorHandler5errorEPKcz(%class.ErrorHandler* %855, i8* getelementptr inbounds ([26 x i8], [26 x i8]* @.str.2, i32 0, i32 0), i8* getelementptr inbounds ([43 x i8], [43 x i8]* @.str.3, i32 0, i32 0), i32 109, i8* getelementptr inbounds ([42 x i8], [42 x i8]* @.str.52, i32 0, i32 0))
          to label %857 unwind label %587

; <label>:857:                                    ; preds = %854
  store i32 %856, i32* %3, align 4
  store i32 1, i32* %17, align 4
  br label %6757

; <label>:858:                                    ; preds = %843
  %859 = landingpad { i8*, i32 }
          cleanup
  %860 = extractvalue { i8*, i32 } %859, 0
  store i8* %860, i8** %8, align 8
  %861 = extractvalue { i8*, i32 } %859, 1
  store i32 %861, i32* %9, align 4
  call void @_ZN6StringD2Ev(%class.String* %28) #11
  br label %6758

; <label>:862:                                    ; preds = %851
  br label %863

; <label>:863:                                    ; preds = %862
  br label %864

; <label>:864:                                    ; preds = %863
  br label %865

; <label>:865:                                    ; preds = %864
  invoke void @_ZN6StringC2EPKc(%class.String* %29, i8* getelementptr inbounds ([3 x i8], [3 x i8]* @.str.49, i32 0, i32 0))
          to label %866 unwind label %587

; <label>:866:                                    ; preds = %865
  %867 = invoke zeroext i1 @_Z10cp_integerRK6StringPj(%class.String* dereferenceable(24) %29, i32* %25)
          to label %868 unwind label %876

; <label>:868:                                    ; preds = %866
  %869 = zext i1 %867 to i32
  %870 = icmp eq i32 %869, 0
  %871 = xor i1 %870, true
  call void @_ZN6StringD2Ev(%class.String* %29) #11
  br i1 %871, label %872, label %880

; <label>:872:                                    ; preds = %868
  %873 = load %class.ErrorHandler*, %class.ErrorHandler** %5, align 8
  %874 = invoke i32 (%class.ErrorHandler*, i8*, ...) @_ZN12ErrorHandler5errorEPKcz(%class.ErrorHandler* %873, i8* getelementptr inbounds ([26 x i8], [26 x i8]* @.str.2, i32 0, i32 0), i8* getelementptr inbounds ([43 x i8], [43 x i8]* @.str.3, i32 0, i32 0), i32 110, i8* getelementptr inbounds ([32 x i8], [32 x i8]* @.str.53, i32 0, i32 0))
          to label %875 unwind label %587

; <label>:875:                                    ; preds = %872
  store i32 %874, i32* %3, align 4
  store i32 1, i32* %17, align 4
  br label %6757

; <label>:876:                                    ; preds = %866
  %877 = landingpad { i8*, i32 }
          cleanup
  %878 = extractvalue { i8*, i32 } %877, 0
  store i8* %878, i8** %8, align 8
  %879 = extractvalue { i8*, i32 } %877, 1
  store i32 %879, i32* %9, align 4
  call void @_ZN6StringD2Ev(%class.String* %29) #11
  br label %6758

; <label>:880:                                    ; preds = %868
  br label %881

; <label>:881:                                    ; preds = %880
  br label %882

; <label>:882:                                    ; preds = %881
  br label %883

; <label>:883:                                    ; preds = %882
  invoke void @_ZN6StringC2EPKc(%class.String* %30, i8* getelementptr inbounds ([11 x i8], [11 x i8]* @.str.54, i32 0, i32 0))
          to label %884 unwind label %587

; <label>:884:                                    ; preds = %883
  %885 = invoke zeroext i1 @_Z10cp_integerRK6StringPj(%class.String* dereferenceable(24) %30, i32* %25)
          to label %886 unwind label %899

; <label>:886:                                    ; preds = %884
  %887 = zext i1 %885 to i32
  %888 = icmp eq i32 %887, 1
  br i1 %888, label %889, label %892

; <label>:889:                                    ; preds = %886
  %890 = load i32, i32* %25, align 4
  %891 = icmp eq i32 %890, -2
  br label %892

; <label>:892:                                    ; preds = %889, %886
  %893 = phi i1 [ false, %886 ], [ %891, %889 ]
  %894 = xor i1 %893, true
  call void @_ZN6StringD2Ev(%class.String* %30) #11
  br i1 %894, label %895, label %903

; <label>:895:                                    ; preds = %892
  %896 = load %class.ErrorHandler*, %class.ErrorHandler** %5, align 8
  %897 = invoke i32 (%class.ErrorHandler*, i8*, ...) @_ZN12ErrorHandler5errorEPKcz(%class.ErrorHandler* %896, i8* getelementptr inbounds ([26 x i8], [26 x i8]* @.str.2, i32 0, i32 0), i8* getelementptr inbounds ([43 x i8], [43 x i8]* @.str.3, i32 0, i32 0), i32 111, i8* getelementptr inbounds ([61 x i8], [61 x i8]* @.str.55, i32 0, i32 0))
          to label %898 unwind label %587

; <label>:898:                                    ; preds = %895
  store i32 %897, i32* %3, align 4
  store i32 1, i32* %17, align 4
  br label %6757

; <label>:899:                                    ; preds = %884
  %900 = landingpad { i8*, i32 }
          cleanup
  %901 = extractvalue { i8*, i32 } %900, 0
  store i8* %901, i8** %8, align 8
  %902 = extractvalue { i8*, i32 } %900, 1
  store i32 %902, i32* %9, align 4
  call void @_ZN6StringD2Ev(%class.String* %30) #11
  br label %6758

; <label>:903:                                    ; preds = %892
  br label %904

; <label>:904:                                    ; preds = %903
  br label %905

; <label>:905:                                    ; preds = %904
  br label %906

; <label>:906:                                    ; preds = %905
  invoke void @_ZN6StringC2EPKc(%class.String* %31, i8* getelementptr inbounds ([11 x i8], [11 x i8]* @.str.56, i32 0, i32 0))
          to label %907 unwind label %587

; <label>:907:                                    ; preds = %906
  %908 = invoke zeroext i1 @_Z10cp_integerRK6StringPj(%class.String* dereferenceable(24) %31, i32* %25)
          to label %909 unwind label %922

; <label>:909:                                    ; preds = %907
  %910 = zext i1 %908 to i32
  %911 = icmp eq i32 %910, 1
  br i1 %911, label %912, label %915

; <label>:912:                                    ; preds = %909
  %913 = load i32, i32* %25, align 4
  %914 = icmp eq i32 %913, -2
  br label %915

; <label>:915:                                    ; preds = %912, %909
  %916 = phi i1 [ false, %909 ], [ %914, %912 ]
  %917 = xor i1 %916, true
  call void @_ZN6StringD2Ev(%class.String* %31) #11
  br i1 %917, label %918, label %926

; <label>:918:                                    ; preds = %915
  %919 = load %class.ErrorHandler*, %class.ErrorHandler** %5, align 8
  %920 = invoke i32 (%class.ErrorHandler*, i8*, ...) @_ZN12ErrorHandler5errorEPKcz(%class.ErrorHandler* %919, i8* getelementptr inbounds ([26 x i8], [26 x i8]* @.str.2, i32 0, i32 0), i8* getelementptr inbounds ([43 x i8], [43 x i8]* @.str.3, i32 0, i32 0), i32 112, i8* getelementptr inbounds ([61 x i8], [61 x i8]* @.str.57, i32 0, i32 0))
          to label %921 unwind label %587

; <label>:921:                                    ; preds = %918
  store i32 %920, i32* %3, align 4
  store i32 1, i32* %17, align 4
  br label %6757

; <label>:922:                                    ; preds = %907
  %923 = landingpad { i8*, i32 }
          cleanup
  %924 = extractvalue { i8*, i32 } %923, 0
  store i8* %924, i8** %8, align 8
  %925 = extractvalue { i8*, i32 } %923, 1
  store i32 %925, i32* %9, align 4
  call void @_ZN6StringD2Ev(%class.String* %31) #11
  br label %6758

; <label>:926:                                    ; preds = %915
  br label %927

; <label>:927:                                    ; preds = %926
  br label %928

; <label>:928:                                    ; preds = %927
  br label %929

; <label>:929:                                    ; preds = %928
  invoke void @_ZN6StringC2EPKc(%class.String* %32, i8* getelementptr inbounds ([11 x i8], [11 x i8]* @.str.58, i32 0, i32 0))
          to label %930 unwind label %587

; <label>:930:                                    ; preds = %929
  %931 = invoke zeroext i1 @_Z10cp_integerRK6StringPj(%class.String* dereferenceable(24) %32, i32* %25)
          to label %932 unwind label %948

; <label>:932:                                    ; preds = %930
  %933 = zext i1 %931 to i32
  %934 = icmp eq i32 %933, 1
  br i1 %934, label %935, label %941

; <label>:935:                                    ; preds = %932
  %936 = load i32, i32* %25, align 4
  %937 = icmp eq i32 %936, -1
  br i1 %937, label %938, label %941

; <label>:938:                                    ; preds = %935
  %939 = load i32, i32* @cp_errno, align 4
  %940 = icmp eq i32 %939, 3
  br label %941

; <label>:941:                                    ; preds = %938, %935, %932
  %942 = phi i1 [ false, %935 ], [ false, %932 ], [ %940, %938 ]
  %943 = xor i1 %942, true
  call void @_ZN6StringD2Ev(%class.String* %32) #11
  br i1 %943, label %944, label %952

; <label>:944:                                    ; preds = %941
  %945 = load %class.ErrorHandler*, %class.ErrorHandler** %5, align 8
  %946 = invoke i32 (%class.ErrorHandler*, i8*, ...) @_ZN12ErrorHandler5errorEPKcz(%class.ErrorHandler* %945, i8* getelementptr inbounds ([26 x i8], [26 x i8]* @.str.2, i32 0, i32 0), i8* getelementptr inbounds ([43 x i8], [43 x i8]* @.str.3, i32 0, i32 0), i32 113, i8* getelementptr inbounds ([89 x i8], [89 x i8]* @.str.59, i32 0, i32 0))
          to label %947 unwind label %587

; <label>:947:                                    ; preds = %944
  store i32 %946, i32* %3, align 4
  store i32 1, i32* %17, align 4
  br label %6757

; <label>:948:                                    ; preds = %930
  %949 = landingpad { i8*, i32 }
          cleanup
  %950 = extractvalue { i8*, i32 } %949, 0
  store i8* %950, i8** %8, align 8
  %951 = extractvalue { i8*, i32 } %949, 1
  store i32 %951, i32* %9, align 4
  call void @_ZN6StringD2Ev(%class.String* %32) #11
  br label %6758

; <label>:952:                                    ; preds = %941
  br label %953

; <label>:953:                                    ; preds = %952
  br label %954

; <label>:954:                                    ; preds = %953
  br label %955

; <label>:955:                                    ; preds = %954
  invoke void @_ZN6StringC2EPKc(%class.String* %33, i8* getelementptr inbounds ([15 x i8], [15 x i8]* @.str.60, i32 0, i32 0))
          to label %956 unwind label %587

; <label>:956:                                    ; preds = %955
  %957 = invoke zeroext i1 @_Z10cp_integerRK6StringPj(%class.String* dereferenceable(24) %33, i32* %25)
          to label %958 unwind label %974

; <label>:958:                                    ; preds = %956
  %959 = zext i1 %957 to i32
  %960 = icmp eq i32 %959, 1
  br i1 %960, label %961, label %967

; <label>:961:                                    ; preds = %958
  %962 = load i32, i32* %25, align 4
  %963 = icmp eq i32 %962, -1
  br i1 %963, label %964, label %967

; <label>:964:                                    ; preds = %961
  %965 = load i32, i32* @cp_errno, align 4
  %966 = icmp eq i32 %965, 3
  br label %967

; <label>:967:                                    ; preds = %964, %961, %958
  %968 = phi i1 [ false, %961 ], [ false, %958 ], [ %966, %964 ]
  %969 = xor i1 %968, true
  call void @_ZN6StringD2Ev(%class.String* %33) #11
  br i1 %969, label %970, label %978

; <label>:970:                                    ; preds = %967
  %971 = load %class.ErrorHandler*, %class.ErrorHandler** %5, align 8
  %972 = invoke i32 (%class.ErrorHandler*, i8*, ...) @_ZN12ErrorHandler5errorEPKcz(%class.ErrorHandler* %971, i8* getelementptr inbounds ([26 x i8], [26 x i8]* @.str.2, i32 0, i32 0), i8* getelementptr inbounds ([43 x i8], [43 x i8]* @.str.3, i32 0, i32 0), i32 114, i8* getelementptr inbounds ([93 x i8], [93 x i8]* @.str.61, i32 0, i32 0))
          to label %973 unwind label %587

; <label>:973:                                    ; preds = %970
  store i32 %972, i32* %3, align 4
  store i32 1, i32* %17, align 4
  br label %6757

; <label>:974:                                    ; preds = %956
  %975 = landingpad { i8*, i32 }
          cleanup
  %976 = extractvalue { i8*, i32 } %975, 0
  store i8* %976, i8** %8, align 8
  %977 = extractvalue { i8*, i32 } %975, 1
  store i32 %977, i32* %9, align 4
  call void @_ZN6StringD2Ev(%class.String* %33) #11
  br label %6758

; <label>:978:                                    ; preds = %967
  br label %979

; <label>:979:                                    ; preds = %978
  br label %980

; <label>:980:                                    ; preds = %979
  br label %981

; <label>:981:                                    ; preds = %980
  invoke void @_ZN6StringC2EPKc(%class.String* %34, i8* getelementptr inbounds ([12 x i8], [12 x i8]* @.str.62, i32 0, i32 0))
          to label %982 unwind label %587

; <label>:982:                                    ; preds = %981
  %983 = invoke zeroext i1 @_Z10cp_integerRK6StringPj(%class.String* dereferenceable(24) %34, i32* %25)
          to label %984 unwind label %1000

; <label>:984:                                    ; preds = %982
  %985 = zext i1 %983 to i32
  %986 = icmp eq i32 %985, 1
  br i1 %986, label %987, label %993

; <label>:987:                                    ; preds = %984
  %988 = load i32, i32* %25, align 4
  %989 = icmp eq i32 %988, -1
  br i1 %989, label %990, label %993

; <label>:990:                                    ; preds = %987
  %991 = load i32, i32* @cp_errno, align 4
  %992 = icmp eq i32 %991, 3
  br label %993

; <label>:993:                                    ; preds = %990, %987, %984
  %994 = phi i1 [ false, %987 ], [ false, %984 ], [ %992, %990 ]
  %995 = xor i1 %994, true
  call void @_ZN6StringD2Ev(%class.String* %34) #11
  br i1 %995, label %996, label %1004

; <label>:996:                                    ; preds = %993
  %997 = load %class.ErrorHandler*, %class.ErrorHandler** %5, align 8
  %998 = invoke i32 (%class.ErrorHandler*, i8*, ...) @_ZN12ErrorHandler5errorEPKcz(%class.ErrorHandler* %997, i8* getelementptr inbounds ([26 x i8], [26 x i8]* @.str.2, i32 0, i32 0), i8* getelementptr inbounds ([43 x i8], [43 x i8]* @.str.3, i32 0, i32 0), i32 115, i8* getelementptr inbounds ([90 x i8], [90 x i8]* @.str.63, i32 0, i32 0))
          to label %999 unwind label %587

; <label>:999:                                    ; preds = %996
  store i32 %998, i32* %3, align 4
  store i32 1, i32* %17, align 4
  br label %6757

; <label>:1000:                                   ; preds = %982
  %1001 = landingpad { i8*, i32 }
          cleanup
  %1002 = extractvalue { i8*, i32 } %1001, 0
  store i8* %1002, i8** %8, align 8
  %1003 = extractvalue { i8*, i32 } %1001, 1
  store i32 %1003, i32* %9, align 4
  call void @_ZN6StringD2Ev(%class.String* %34) #11
  br label %6758

; <label>:1004:                                   ; preds = %993
  br label %1005

; <label>:1005:                                   ; preds = %1004
  br label %1006

; <label>:1006:                                   ; preds = %1005
  br label %1007

; <label>:1007:                                   ; preds = %1006
  invoke void @_ZN6StringC2EPKc(%class.String* %35, i8* getelementptr inbounds ([11 x i8], [11 x i8]* @.str.58, i32 0, i32 0))
          to label %1008 unwind label %587

; <label>:1008:                                   ; preds = %1007
  %1009 = invoke zeroext i1 @_Z10cp_integerRK6StringPi(%class.String* dereferenceable(24) %35, i32* %24)
          to label %1010 unwind label %1026

; <label>:1010:                                   ; preds = %1008
  %1011 = zext i1 %1009 to i32
  %1012 = icmp eq i32 %1011, 1
  br i1 %1012, label %1013, label %1019

; <label>:1013:                                   ; preds = %1010
  %1014 = load i32, i32* %24, align 4
  %1015 = icmp eq i32 %1014, 2147483647
  br i1 %1015, label %1016, label %1019

; <label>:1016:                                   ; preds = %1013
  %1017 = load i32, i32* @cp_errno, align 4
  %1018 = icmp eq i32 %1017, 3
  br label %1019

; <label>:1019:                                   ; preds = %1016, %1013, %1010
  %1020 = phi i1 [ false, %1013 ], [ false, %1010 ], [ %1018, %1016 ]
  %1021 = xor i1 %1020, true
  call void @_ZN6StringD2Ev(%class.String* %35) #11
  br i1 %1021, label %1022, label %1030

; <label>:1022:                                   ; preds = %1019
  %1023 = load %class.ErrorHandler*, %class.ErrorHandler** %5, align 8
  %1024 = invoke i32 (%class.ErrorHandler*, i8*, ...) @_ZN12ErrorHandler5errorEPKcz(%class.ErrorHandler* %1023, i8* getelementptr inbounds ([26 x i8], [26 x i8]* @.str.2, i32 0, i32 0), i8* getelementptr inbounds ([43 x i8], [43 x i8]* @.str.3, i32 0, i32 0), i32 116, i8* getelementptr inbounds ([88 x i8], [88 x i8]* @.str.64, i32 0, i32 0))
          to label %1025 unwind label %587

; <label>:1025:                                   ; preds = %1022
  store i32 %1024, i32* %3, align 4
  store i32 1, i32* %17, align 4
  br label %6757

; <label>:1026:                                   ; preds = %1008
  %1027 = landingpad { i8*, i32 }
          cleanup
  %1028 = extractvalue { i8*, i32 } %1027, 0
  store i8* %1028, i8** %8, align 8
  %1029 = extractvalue { i8*, i32 } %1027, 1
  store i32 %1029, i32* %9, align 4
  call void @_ZN6StringD2Ev(%class.String* %35) #11
  br label %6758

; <label>:1030:                                   ; preds = %1019
  br label %1031

; <label>:1031:                                   ; preds = %1030
  br label %1032

; <label>:1032:                                   ; preds = %1031
  br label %1033

; <label>:1033:                                   ; preds = %1032
  invoke void @_ZN6StringC2EPKc(%class.String* %36, i8* getelementptr inbounds ([11 x i8], [11 x i8]* @.str.65, i32 0, i32 0))
          to label %1034 unwind label %587

; <label>:1034:                                   ; preds = %1033
  %1035 = invoke zeroext i1 @_Z10cp_integerRK6StringPi(%class.String* dereferenceable(24) %36, i32* %24)
          to label %1036 unwind label %1052

; <label>:1036:                                   ; preds = %1034
  %1037 = zext i1 %1035 to i32
  %1038 = icmp eq i32 %1037, 1
  br i1 %1038, label %1039, label %1045

; <label>:1039:                                   ; preds = %1036
  %1040 = load i32, i32* %24, align 4
  %1041 = icmp eq i32 %1040, 2147483647
  br i1 %1041, label %1042, label %1045

; <label>:1042:                                   ; preds = %1039
  %1043 = load i32, i32* @cp_errno, align 4
  %1044 = icmp eq i32 %1043, 0
  br label %1045

; <label>:1045:                                   ; preds = %1042, %1039, %1036
  %1046 = phi i1 [ false, %1039 ], [ false, %1036 ], [ %1044, %1042 ]
  %1047 = xor i1 %1046, true
  call void @_ZN6StringD2Ev(%class.String* %36) #11
  br i1 %1047, label %1048, label %1056

; <label>:1048:                                   ; preds = %1045
  %1049 = load %class.ErrorHandler*, %class.ErrorHandler** %5, align 8
  %1050 = invoke i32 (%class.ErrorHandler*, i8*, ...) @_ZN12ErrorHandler5errorEPKcz(%class.ErrorHandler* %1049, i8* getelementptr inbounds ([26 x i8], [26 x i8]* @.str.2, i32 0, i32 0), i8* getelementptr inbounds ([43 x i8], [43 x i8]* @.str.3, i32 0, i32 0), i32 117, i8* getelementptr inbounds ([82 x i8], [82 x i8]* @.str.66, i32 0, i32 0))
          to label %1051 unwind label %587

; <label>:1051:                                   ; preds = %1048
  store i32 %1050, i32* %3, align 4
  store i32 1, i32* %17, align 4
  br label %6757

; <label>:1052:                                   ; preds = %1034
  %1053 = landingpad { i8*, i32 }
          cleanup
  %1054 = extractvalue { i8*, i32 } %1053, 0
  store i8* %1054, i8** %8, align 8
  %1055 = extractvalue { i8*, i32 } %1053, 1
  store i32 %1055, i32* %9, align 4
  call void @_ZN6StringD2Ev(%class.String* %36) #11
  br label %6758

; <label>:1056:                                   ; preds = %1045
  br label %1057

; <label>:1057:                                   ; preds = %1056
  br label %1058

; <label>:1058:                                   ; preds = %1057
  br label %1059

; <label>:1059:                                   ; preds = %1058
  invoke void @_ZN6StringC2EPKc(%class.String* %37, i8* getelementptr inbounds ([11 x i8], [11 x i8]* @.str.67, i32 0, i32 0))
          to label %1060 unwind label %587

; <label>:1060:                                   ; preds = %1059
  %1061 = invoke zeroext i1 @_Z10cp_integerRK6StringPi(%class.String* dereferenceable(24) %37, i32* %24)
          to label %1062 unwind label %1078

; <label>:1062:                                   ; preds = %1060
  %1063 = zext i1 %1061 to i32
  %1064 = icmp eq i32 %1063, 1
  br i1 %1064, label %1065, label %1071

; <label>:1065:                                   ; preds = %1062
  %1066 = load i32, i32* %24, align 4
  %1067 = icmp eq i32 %1066, 2147483647
  br i1 %1067, label %1068, label %1071

; <label>:1068:                                   ; preds = %1065
  %1069 = load i32, i32* @cp_errno, align 4
  %1070 = icmp eq i32 %1069, 3
  br label %1071

; <label>:1071:                                   ; preds = %1068, %1065, %1062
  %1072 = phi i1 [ false, %1065 ], [ false, %1062 ], [ %1070, %1068 ]
  %1073 = xor i1 %1072, true
  call void @_ZN6StringD2Ev(%class.String* %37) #11
  br i1 %1073, label %1074, label %1082

; <label>:1074:                                   ; preds = %1071
  %1075 = load %class.ErrorHandler*, %class.ErrorHandler** %5, align 8
  %1076 = invoke i32 (%class.ErrorHandler*, i8*, ...) @_ZN12ErrorHandler5errorEPKcz(%class.ErrorHandler* %1075, i8* getelementptr inbounds ([26 x i8], [26 x i8]* @.str.2, i32 0, i32 0), i8* getelementptr inbounds ([43 x i8], [43 x i8]* @.str.3, i32 0, i32 0), i32 118, i8* getelementptr inbounds ([88 x i8], [88 x i8]* @.str.68, i32 0, i32 0))
          to label %1077 unwind label %587

; <label>:1077:                                   ; preds = %1074
  store i32 %1076, i32* %3, align 4
  store i32 1, i32* %17, align 4
  br label %6757

; <label>:1078:                                   ; preds = %1060
  %1079 = landingpad { i8*, i32 }
          cleanup
  %1080 = extractvalue { i8*, i32 } %1079, 0
  store i8* %1080, i8** %8, align 8
  %1081 = extractvalue { i8*, i32 } %1079, 1
  store i32 %1081, i32* %9, align 4
  call void @_ZN6StringD2Ev(%class.String* %37) #11
  br label %6758

; <label>:1082:                                   ; preds = %1071
  br label %1083

; <label>:1083:                                   ; preds = %1082
  br label %1084

; <label>:1084:                                   ; preds = %1083
  br label %1085

; <label>:1085:                                   ; preds = %1084
  invoke void @_ZN6StringC2EPKc(%class.String* %38, i8* getelementptr inbounds ([12 x i8], [12 x i8]* @.str.69, i32 0, i32 0))
          to label %1086 unwind label %587

; <label>:1086:                                   ; preds = %1085
  %1087 = invoke zeroext i1 @_Z10cp_integerRK6StringPi(%class.String* dereferenceable(24) %38, i32* %24)
          to label %1088 unwind label %1104

; <label>:1088:                                   ; preds = %1086
  %1089 = zext i1 %1087 to i32
  %1090 = icmp eq i32 %1089, 1
  br i1 %1090, label %1091, label %1097

; <label>:1091:                                   ; preds = %1088
  %1092 = load i32, i32* %24, align 4
  %1093 = icmp eq i32 %1092, -2147483648
  br i1 %1093, label %1094, label %1097

; <label>:1094:                                   ; preds = %1091
  %1095 = load i32, i32* @cp_errno, align 4
  %1096 = icmp eq i32 %1095, 0
  br label %1097

; <label>:1097:                                   ; preds = %1094, %1091, %1088
  %1098 = phi i1 [ false, %1091 ], [ false, %1088 ], [ %1096, %1094 ]
  %1099 = xor i1 %1098, true
  call void @_ZN6StringD2Ev(%class.String* %38) #11
  br i1 %1099, label %1100, label %1108

; <label>:1100:                                   ; preds = %1097
  %1101 = load %class.ErrorHandler*, %class.ErrorHandler** %5, align 8
  %1102 = invoke i32 (%class.ErrorHandler*, i8*, ...) @_ZN12ErrorHandler5errorEPKcz(%class.ErrorHandler* %1101, i8* getelementptr inbounds ([26 x i8], [26 x i8]* @.str.2, i32 0, i32 0), i8* getelementptr inbounds ([43 x i8], [43 x i8]* @.str.3, i32 0, i32 0), i32 119, i8* getelementptr inbounds ([88 x i8], [88 x i8]* @.str.70, i32 0, i32 0))
          to label %1103 unwind label %587

; <label>:1103:                                   ; preds = %1100
  store i32 %1102, i32* %3, align 4
  store i32 1, i32* %17, align 4
  br label %6757

; <label>:1104:                                   ; preds = %1086
  %1105 = landingpad { i8*, i32 }
          cleanup
  %1106 = extractvalue { i8*, i32 } %1105, 0
  store i8* %1106, i8** %8, align 8
  %1107 = extractvalue { i8*, i32 } %1105, 1
  store i32 %1107, i32* %9, align 4
  call void @_ZN6StringD2Ev(%class.String* %38) #11
  br label %6758

; <label>:1108:                                   ; preds = %1097
  br label %1109

; <label>:1109:                                   ; preds = %1108
  br label %1110

; <label>:1110:                                   ; preds = %1109
  br label %1111

; <label>:1111:                                   ; preds = %1110
  invoke void @_ZN6StringC2EPKc(%class.String* %39, i8* getelementptr inbounds ([12 x i8], [12 x i8]* @.str.71, i32 0, i32 0))
          to label %1112 unwind label %587

; <label>:1112:                                   ; preds = %1111
  %1113 = invoke zeroext i1 @_Z10cp_integerRK6StringPi(%class.String* dereferenceable(24) %39, i32* %24)
          to label %1114 unwind label %1130

; <label>:1114:                                   ; preds = %1112
  %1115 = zext i1 %1113 to i32
  %1116 = icmp eq i32 %1115, 1
  br i1 %1116, label %1117, label %1123

; <label>:1117:                                   ; preds = %1114
  %1118 = load i32, i32* %24, align 4
  %1119 = icmp eq i32 %1118, -2147483648
  br i1 %1119, label %1120, label %1123

; <label>:1120:                                   ; preds = %1117
  %1121 = load i32, i32* @cp_errno, align 4
  %1122 = icmp eq i32 %1121, 3
  br label %1123

; <label>:1123:                                   ; preds = %1120, %1117, %1114
  %1124 = phi i1 [ false, %1117 ], [ false, %1114 ], [ %1122, %1120 ]
  %1125 = xor i1 %1124, true
  call void @_ZN6StringD2Ev(%class.String* %39) #11
  br i1 %1125, label %1126, label %1134

; <label>:1126:                                   ; preds = %1123
  %1127 = load %class.ErrorHandler*, %class.ErrorHandler** %5, align 8
  %1128 = invoke i32 (%class.ErrorHandler*, i8*, ...) @_ZN12ErrorHandler5errorEPKcz(%class.ErrorHandler* %1127, i8* getelementptr inbounds ([26 x i8], [26 x i8]* @.str.2, i32 0, i32 0), i8* getelementptr inbounds ([43 x i8], [43 x i8]* @.str.3, i32 0, i32 0), i32 120, i8* getelementptr inbounds ([94 x i8], [94 x i8]* @.str.72, i32 0, i32 0))
          to label %1129 unwind label %587

; <label>:1129:                                   ; preds = %1126
  store i32 %1128, i32* %3, align 4
  store i32 1, i32* %17, align 4
  br label %6757

; <label>:1130:                                   ; preds = %1112
  %1131 = landingpad { i8*, i32 }
          cleanup
  %1132 = extractvalue { i8*, i32 } %1131, 0
  store i8* %1132, i8** %8, align 8
  %1133 = extractvalue { i8*, i32 } %1131, 1
  store i32 %1133, i32* %9, align 4
  call void @_ZN6StringD2Ev(%class.String* %39) #11
  br label %6758

; <label>:1134:                                   ; preds = %1123
  br label %1135

; <label>:1135:                                   ; preds = %1134
  br label %1136

; <label>:1136:                                   ; preds = %1135
  store i8* getelementptr inbounds ([6 x i8], [6 x i8]* @.str.73, i32 0, i32 0), i8** %40, align 8
  br label %1137

; <label>:1137:                                   ; preds = %1136
  %1138 = load i8*, i8** %40, align 8
  %1139 = load i8*, i8** %40, align 8
  %1140 = load i8*, i8** %40, align 8
  %1141 = call i64 @strlen(i8* %1140) #12
  %1142 = getelementptr inbounds i8, i8* %1139, i64 %1141
  %1143 = getelementptr inbounds i8, i8* %1142, i64 -1
  %1144 = invoke i8* @_Z10cp_integerPKcS0_iPi(i8* %1138, i8* %1143, i32 10, i32* %24)
          to label %1145 unwind label %587

; <label>:1145:                                   ; preds = %1137
  %1146 = load i8*, i8** %40, align 8
  %1147 = getelementptr inbounds i8, i8* %1146, i64 4
  %1148 = icmp eq i8* %1144, %1147
  br i1 %1148, label %1149, label %1152

; <label>:1149:                                   ; preds = %1145
  %1150 = load i32, i32* %24, align 4
  %1151 = icmp eq i32 %1150, -127
  br i1 %1151, label %1156, label %1152

; <label>:1152:                                   ; preds = %1149, %1145
  %1153 = load %class.ErrorHandler*, %class.ErrorHandler** %5, align 8
  %1154 = invoke i32 (%class.ErrorHandler*, i8*, ...) @_ZN12ErrorHandler5errorEPKcz(%class.ErrorHandler* %1153, i8* getelementptr inbounds ([26 x i8], [26 x i8]* @.str.2, i32 0, i32 0), i8* getelementptr inbounds ([43 x i8], [43 x i8]* @.str.3, i32 0, i32 0), i32 122, i8* getelementptr inbounds ([67 x i8], [67 x i8]* @.str.74, i32 0, i32 0))
          to label %1155 unwind label %587

; <label>:1155:                                   ; preds = %1152
  store i32 %1154, i32* %3, align 4
  store i32 1, i32* %17, align 4
  br label %6757

; <label>:1156:                                   ; preds = %1149
  br label %1157

; <label>:1157:                                   ; preds = %1156
  br label %1158

; <label>:1158:                                   ; preds = %1157
  br label %1159

; <label>:1159:                                   ; preds = %1158
  %1160 = load i8*, i8** %40, align 8
  invoke void @_ZN6StringC2EPKc(%class.String* %41, i8* %1160)
          to label %1161 unwind label %587

; <label>:1161:                                   ; preds = %1159
  %1162 = invoke zeroext i1 @_Z10cp_integerRK6StringPi(%class.String* dereferenceable(24) %41, i32* %24)
          to label %1163 unwind label %1176

; <label>:1163:                                   ; preds = %1161
  %1164 = zext i1 %1162 to i32
  %1165 = icmp eq i32 %1164, 0
  br i1 %1165, label %1166, label %1169

; <label>:1166:                                   ; preds = %1163
  %1167 = load i32, i32* @cp_errno, align 4
  %1168 = icmp eq i32 %1167, 1
  br label %1169

; <label>:1169:                                   ; preds = %1166, %1163
  %1170 = phi i1 [ false, %1163 ], [ %1168, %1166 ]
  %1171 = xor i1 %1170, true
  call void @_ZN6StringD2Ev(%class.String* %41) #11
  br i1 %1171, label %1172, label %1180

; <label>:1172:                                   ; preds = %1169
  %1173 = load %class.ErrorHandler*, %class.ErrorHandler** %5, align 8
  %1174 = invoke i32 (%class.ErrorHandler*, i8*, ...) @_ZN12ErrorHandler5errorEPKcz(%class.ErrorHandler* %1173, i8* getelementptr inbounds ([26 x i8], [26 x i8]* @.str.2, i32 0, i32 0), i8* getelementptr inbounds ([43 x i8], [43 x i8]* @.str.3, i32 0, i32 0), i32 123, i8* getelementptr inbounds ([63 x i8], [63 x i8]* @.str.75, i32 0, i32 0))
          to label %1175 unwind label %587

; <label>:1175:                                   ; preds = %1172
  store i32 %1174, i32* %3, align 4
  store i32 1, i32* %17, align 4
  br label %6757

; <label>:1176:                                   ; preds = %1161
  %1177 = landingpad { i8*, i32 }
          cleanup
  %1178 = extractvalue { i8*, i32 } %1177, 0
  store i8* %1178, i8** %8, align 8
  %1179 = extractvalue { i8*, i32 } %1177, 1
  store i32 %1179, i32* %9, align 4
  call void @_ZN6StringD2Ev(%class.String* %41) #11
  br label %6758

; <label>:1180:                                   ; preds = %1169
  br label %1181

; <label>:1181:                                   ; preds = %1180
  br label %1182

; <label>:1182:                                   ; preds = %1181
  br label %1183

; <label>:1183:                                   ; preds = %1182
  invoke void @_ZN6StringC2EPKc(%class.String* %44, i8* getelementptr inbounds ([20 x i8], [20 x i8]* @.str.76, i32 0, i32 0))
          to label %1184 unwind label %587

; <label>:1184:                                   ; preds = %1183
  %1185 = invoke zeroext i1 @_Z10cp_integerRK6StringPx(%class.String* dereferenceable(24) %44, i64* %42)
          to label %1186 unwind label %1199

; <label>:1186:                                   ; preds = %1184
  %1187 = zext i1 %1185 to i32
  %1188 = icmp eq i32 %1187, 1
  br i1 %1188, label %1189, label %1192

; <label>:1189:                                   ; preds = %1186
  %1190 = load i64, i64* %42, align 8
  %1191 = icmp eq i64 %1190, 9223372036854775807
  br label %1192

; <label>:1192:                                   ; preds = %1189, %1186
  %1193 = phi i1 [ false, %1186 ], [ %1191, %1189 ]
  %1194 = xor i1 %1193, true
  call void @_ZN6StringD2Ev(%class.String* %44) #11
  br i1 %1194, label %1195, label %1203

; <label>:1195:                                   ; preds = %1192
  %1196 = load %class.ErrorHandler*, %class.ErrorHandler** %5, align 8
  %1197 = invoke i32 (%class.ErrorHandler*, i8*, ...) @_ZN12ErrorHandler5errorEPKcz(%class.ErrorHandler* %1196, i8* getelementptr inbounds ([26 x i8], [26 x i8]* @.str.2, i32 0, i32 0), i8* getelementptr inbounds ([43 x i8], [43 x i8]* @.str.3, i32 0, i32 0), i32 128, i8* getelementptr inbounds ([78 x i8], [78 x i8]* @.str.77, i32 0, i32 0))
          to label %1198 unwind label %587

; <label>:1198:                                   ; preds = %1195
  store i32 %1197, i32* %3, align 4
  store i32 1, i32* %17, align 4
  br label %6757

; <label>:1199:                                   ; preds = %1184
  %1200 = landingpad { i8*, i32 }
          cleanup
  %1201 = extractvalue { i8*, i32 } %1200, 0
  store i8* %1201, i8** %8, align 8
  %1202 = extractvalue { i8*, i32 } %1200, 1
  store i32 %1202, i32* %9, align 4
  call void @_ZN6StringD2Ev(%class.String* %44) #11
  br label %6758

; <label>:1203:                                   ; preds = %1192
  br label %1204

; <label>:1204:                                   ; preds = %1203
  br label %1205

; <label>:1205:                                   ; preds = %1204
  br label %1206

; <label>:1206:                                   ; preds = %1205
  invoke void @_ZN6StringC2EPKc(%class.String* %45, i8* getelementptr inbounds ([21 x i8], [21 x i8]* @.str.78, i32 0, i32 0))
          to label %1207 unwind label %587

; <label>:1207:                                   ; preds = %1206
  %1208 = invoke zeroext i1 @_Z10cp_integerRK6StringPx(%class.String* dereferenceable(24) %45, i64* %42)
          to label %1209 unwind label %1222

; <label>:1209:                                   ; preds = %1207
  %1210 = zext i1 %1208 to i32
  %1211 = icmp eq i32 %1210, 1
  br i1 %1211, label %1212, label %1215

; <label>:1212:                                   ; preds = %1209
  %1213 = load i64, i64* %42, align 8
  %1214 = icmp eq i64 %1213, -9223372036854775808
  br label %1215

; <label>:1215:                                   ; preds = %1212, %1209
  %1216 = phi i1 [ false, %1209 ], [ %1214, %1212 ]
  %1217 = xor i1 %1216, true
  call void @_ZN6StringD2Ev(%class.String* %45) #11
  br i1 %1217, label %1218, label %1226

; <label>:1218:                                   ; preds = %1215
  %1219 = load %class.ErrorHandler*, %class.ErrorHandler** %5, align 8
  %1220 = invoke i32 (%class.ErrorHandler*, i8*, ...) @_ZN12ErrorHandler5errorEPKcz(%class.ErrorHandler* %1219, i8* getelementptr inbounds ([26 x i8], [26 x i8]* @.str.2, i32 0, i32 0), i8* getelementptr inbounds ([43 x i8], [43 x i8]* @.str.3, i32 0, i32 0), i32 129, i8* getelementptr inbounds ([91 x i8], [91 x i8]* @.str.79, i32 0, i32 0))
          to label %1221 unwind label %587

; <label>:1221:                                   ; preds = %1218
  store i32 %1220, i32* %3, align 4
  store i32 1, i32* %17, align 4
  br label %6757

; <label>:1222:                                   ; preds = %1207
  %1223 = landingpad { i8*, i32 }
          cleanup
  %1224 = extractvalue { i8*, i32 } %1223, 0
  store i8* %1224, i8** %8, align 8
  %1225 = extractvalue { i8*, i32 } %1223, 1
  store i32 %1225, i32* %9, align 4
  call void @_ZN6StringD2Ev(%class.String* %45) #11
  br label %6758

; <label>:1226:                                   ; preds = %1215
  br label %1227

; <label>:1227:                                   ; preds = %1226
  br label %1228

; <label>:1228:                                   ; preds = %1227
  br label %1229

; <label>:1229:                                   ; preds = %1228
  invoke void @_ZN6StringC2EPKc(%class.String* %46, i8* getelementptr inbounds ([21 x i8], [21 x i8]* @.str.80, i32 0, i32 0))
          to label %1230 unwind label %587

; <label>:1230:                                   ; preds = %1229
  %1231 = invoke zeroext i1 @_Z10cp_integerRK6StringPy(%class.String* dereferenceable(24) %46, i64* %43)
          to label %1232 unwind label %1248

; <label>:1232:                                   ; preds = %1230
  %1233 = zext i1 %1231 to i32
  %1234 = icmp eq i32 %1233, 1
  br i1 %1234, label %1235, label %1241

; <label>:1235:                                   ; preds = %1232
  %1236 = load i64, i64* %43, align 8
  %1237 = icmp eq i64 %1236, -1
  br i1 %1237, label %1238, label %1241

; <label>:1238:                                   ; preds = %1235
  %1239 = load i32, i32* @cp_errno, align 4
  %1240 = icmp eq i32 %1239, 3
  br label %1241

; <label>:1241:                                   ; preds = %1238, %1235, %1232
  %1242 = phi i1 [ false, %1235 ], [ false, %1232 ], [ %1240, %1238 ]
  %1243 = xor i1 %1242, true
  call void @_ZN6StringD2Ev(%class.String* %46) #11
  br i1 %1243, label %1244, label %1252

; <label>:1244:                                   ; preds = %1241
  %1245 = load %class.ErrorHandler*, %class.ErrorHandler** %5, align 8
  %1246 = invoke i32 (%class.ErrorHandler*, i8*, ...) @_ZN12ErrorHandler5errorEPKcz(%class.ErrorHandler* %1245, i8* getelementptr inbounds ([26 x i8], [26 x i8]* @.str.2, i32 0, i32 0), i8* getelementptr inbounds ([43 x i8], [43 x i8]* @.str.3, i32 0, i32 0), i32 130, i8* getelementptr inbounds ([109 x i8], [109 x i8]* @.str.81, i32 0, i32 0))
          to label %1247 unwind label %587

; <label>:1247:                                   ; preds = %1244
  store i32 %1246, i32* %3, align 4
  store i32 1, i32* %17, align 4
  br label %6757

; <label>:1248:                                   ; preds = %1230
  %1249 = landingpad { i8*, i32 }
          cleanup
  %1250 = extractvalue { i8*, i32 } %1249, 0
  store i8* %1250, i8** %8, align 8
  %1251 = extractvalue { i8*, i32 } %1249, 1
  store i32 %1251, i32* %9, align 4
  call void @_ZN6StringD2Ev(%class.String* %46) #11
  br label %6758

; <label>:1252:                                   ; preds = %1241
  br label %1253

; <label>:1253:                                   ; preds = %1252
  br label %1254

; <label>:1254:                                   ; preds = %1253
  invoke void @_ZN12_GLOBAL__N_118RecordErrorHandlerC2Ev(%"class.(anonymous namespace)::RecordErrorHandler"* %47)
          to label %1255 unwind label %587

; <label>:1255:                                   ; preds = %1254
  %1256 = bitcast %"class.(anonymous namespace)::RecordErrorHandler"* %47 to %class.ErrorHandler*
  invoke void @_ZN4ArgsC1EPK7ElementP12ErrorHandler(%class.Args* %48, %class.Element* null, %class.ErrorHandler* %1256)
          to label %1257 unwind label %1276

; <label>:1257:                                   ; preds = %1255
  store i32 97, i32* %25, align 4
  invoke void @_ZN6IntArgC2Ei(%class.IntArg* %49, i32 0)
          to label %1258 unwind label %1280

; <label>:1258:                                   ; preds = %1257
  br label %1259

; <label>:1259:                                   ; preds = %1258
  invoke void @_ZN6IntArgC2Ei(%class.IntArg* %50, i32 0)
          to label %1260 unwind label %1280

; <label>:1260:                                   ; preds = %1259
  invoke void @_ZN6StringC2EPKc(%class.String* %51, i8* getelementptr inbounds ([2 x i8], [2 x i8]* @.str.47, i32 0, i32 0))
          to label %1261 unwind label %1280

; <label>:1261:                                   ; preds = %1260
  %1262 = invoke zeroext i1 @_ZN6IntArg5parseIiEEbRK6StringRT_RK10ArgContext(%class.IntArg* %50, %class.String* dereferenceable(24) %51, i32* dereferenceable(4) %24, %class.ArgContext* dereferenceable(32) @blank_args)
          to label %1263 unwind label %1284

; <label>:1263:                                   ; preds = %1261
  %1264 = zext i1 %1262 to i32
  %1265 = icmp eq i32 %1264, 1
  br i1 %1265, label %1266, label %1269

; <label>:1266:                                   ; preds = %1263
  %1267 = load i32, i32* %24, align 4
  %1268 = icmp eq i32 %1267, 0
  br label %1269

; <label>:1269:                                   ; preds = %1266, %1263
  %1270 = phi i1 [ false, %1263 ], [ %1268, %1266 ]
  %1271 = xor i1 %1270, true
  call void @_ZN6StringD2Ev(%class.String* %51) #11
  br i1 %1271, label %1272, label %1288

; <label>:1272:                                   ; preds = %1269
  %1273 = load %class.ErrorHandler*, %class.ErrorHandler** %5, align 8
  %1274 = invoke i32 (%class.ErrorHandler*, i8*, ...) @_ZN12ErrorHandler5errorEPKcz(%class.ErrorHandler* %1273, i8* getelementptr inbounds ([26 x i8], [26 x i8]* @.str.2, i32 0, i32 0), i8* getelementptr inbounds ([43 x i8], [43 x i8]* @.str.3, i32 0, i32 0), i32 139, i8* getelementptr inbounds ([45 x i8], [45 x i8]* @.str.82, i32 0, i32 0))
          to label %1275 unwind label %1280

; <label>:1275:                                   ; preds = %1272
  store i32 %1274, i32* %3, align 4
  store i32 1, i32* %17, align 4
  br label %6754

; <label>:1276:                                   ; preds = %1255
  %1277 = landingpad { i8*, i32 }
          cleanup
  %1278 = extractvalue { i8*, i32 } %1277, 0
  store i8* %1278, i8** %8, align 8
  %1279 = extractvalue { i8*, i32 } %1277, 1
  store i32 %1279, i32* %9, align 4
  br label %6756

; <label>:1280:                                   ; preds = %4727, %4712, %4706, %4690, %4684, %4668, %4662, %4646, %4640, %4624, %4618, %4602, %4596, %4580, %4574, %4558, %4552, %4536, %4530, %4514, %4508, %4492, %4486, %4470, %4464, %4457, %4451, %4449, %4443, %4439, %4437, %4430, %4424, %4422, %4416, %4412, %4410, %4403, %4397, %4395, %4389, %4385, %4383, %4376, %4372, %4365, %4361, %4357, %4345, %4343, %4342, %4336, %4329, %4327, %4320, %4313, %4311, %4304, %4297, %4295, %4288, %4284, %4277, %4273, %4266, %4262, %4255, %4249, %4245, %4243, %4236, %4230, %4228, %4221, %4215, %4211, %4209, %4202, %4196, %4194, %4187, %4181, %4177, %4175, %4164, %4157, %4150, %4148, %4137, %4130, %4123, %4116, %4106, %4099, %4092, %4090, %4083, %4077, %4075, %4064, %4057, %4055, %4044, %4037, %4035, %4028, %4025, %4014, %4009, %4002, %3998, %3994, %3992, %3986, %3980, %3976, %3974, %3967, %3961, %3957, %3955, %3948, %3942, %3940, %3933, %3927, %3925, %3914, %3909, %3902, %3898, %3894, %3884, %3882, %3881, %3871, %3862, %3861, %3842, %3820, %3819, %3817, %3816, %3806, %3790, %3779, %3763, %3752, %3736, %3725, %3709, %3698, %3686, %3685, %3674, %3662, %3661, %3650, %3638, %3637, %3626, %3614, %3613, %3602, %3590, %3589, %3578, %3566, %3565, %3554, %3542, %3541, %3530, %3518, %3517, %3506, %3494, %3493, %3482, %3470, %3469, %3458, %3446, %3445, %3434, %3422, %3421, %3410, %3398, %3397, %3386, %3374, %3373, %3362, %3350, %3349, %3338, %3326, %3325, %3314, %3302, %3301, %3290, %3278, %3277, %3266, %3254, %3243, %3231, %3230, %3218, %3206, %3167, %3129, %3091, %3053, %3015, %2977, %2939, %2901, %2863, %2825, %2787, %2750, %2740, %2728, %2727, %2716, %2704, %2703, %2683, %2675, %2662, %2661, %2641, %2633, %2620, %2619, %2599, %2591, %2578, %2577, %2557, %2549, %2536, %2535, %2515, %2507, %2494, %2493, %2473, %2465, %2452, %2451, %2431, %2423, %2410, %2409, %2389, %2381, %2368, %2367, %2347, %2339, %2326, %2306, %2298, %2285, %2265, %2257, %2244, %2224, %2216, %2203, %2183, %2175, %2162, %2142, %2134, %2120, %2100, %2092, %2078, %2058, %2050, %2036, %2016, %2008, %1995, %1975, %1967, %1954, %1934, %1926, %1913, %1893, %1885, %1872, %1852, %1844, %1831, %1811, %1803, %1790, %1770, %1762, %1749, %1729, %1721, %1708, %1688, %1680, %1672, %1661, %1649, %1648, %1637, %1630, %1629, %1609, %1601, %1588, %1568, %1560, %1547, %1536, %1524, %1523, %1503, %1495, %1482, %1471, %1459, %1458, %1447, %1435, %1434, %1423, %1416, %1415, %1404, %1392, %1391, %1371, %1363, %1350, %1349, %1342, %1328, %1316, %1315, %1304, %1292, %1291, %1272, %1260, %1259, %1257
  %1281 = landingpad { i8*, i32 }
          cleanup
  %1282 = extractvalue { i8*, i32 } %1281, 0
  store i8* %1282, i8** %8, align 8
  %1283 = extractvalue { i8*, i32 } %1281, 1
  store i32 %1283, i32* %9, align 4
  br label %6755

; <label>:1284:                                   ; preds = %1261
  %1285 = landingpad { i8*, i32 }
          cleanup
  %1286 = extractvalue { i8*, i32 } %1285, 0
  store i8* %1286, i8** %8, align 8
  %1287 = extractvalue { i8*, i32 } %1285, 1
  store i32 %1287, i32* %9, align 4
  call void @_ZN6StringD2Ev(%class.String* %51) #11
  br label %6755

; <label>:1288:                                   ; preds = %1269
  br label %1289

; <label>:1289:                                   ; preds = %1288
  br label %1290

; <label>:1290:                                   ; preds = %1289
  br label %1291

; <label>:1291:                                   ; preds = %1290
  invoke void @_ZN6IntArgC2Ei(%class.IntArg* %52, i32 0)
          to label %1292 unwind label %1280

; <label>:1292:                                   ; preds = %1291
  invoke void @_ZN6StringC2EPKc(%class.String* %53, i8* getelementptr inbounds ([3 x i8], [3 x i8]* @.str.49, i32 0, i32 0))
          to label %1293 unwind label %1280

; <label>:1293:                                   ; preds = %1292
  %1294 = invoke zeroext i1 @_ZN6IntArg5parseIiEEbRK6StringRT_RK10ArgContext(%class.IntArg* %52, %class.String* dereferenceable(24) %53, i32* dereferenceable(4) %24, %class.ArgContext* dereferenceable(32) @blank_args)
          to label %1295 unwind label %1308

; <label>:1295:                                   ; preds = %1293
  %1296 = zext i1 %1294 to i32
  %1297 = icmp eq i32 %1296, 1
  br i1 %1297, label %1298, label %1301

; <label>:1298:                                   ; preds = %1295
  %1299 = load i32, i32* %24, align 4
  %1300 = icmp eq i32 %1299, 0
  br label %1301

; <label>:1301:                                   ; preds = %1298, %1295
  %1302 = phi i1 [ false, %1295 ], [ %1300, %1298 ]
  %1303 = xor i1 %1302, true
  call void @_ZN6StringD2Ev(%class.String* %53) #11
  br i1 %1303, label %1304, label %1312

; <label>:1304:                                   ; preds = %1301
  %1305 = load %class.ErrorHandler*, %class.ErrorHandler** %5, align 8
  %1306 = invoke i32 (%class.ErrorHandler*, i8*, ...) @_ZN12ErrorHandler5errorEPKcz(%class.ErrorHandler* %1305, i8* getelementptr inbounds ([26 x i8], [26 x i8]* @.str.2, i32 0, i32 0), i8* getelementptr inbounds ([43 x i8], [43 x i8]* @.str.3, i32 0, i32 0), i32 140, i8* getelementptr inbounds ([46 x i8], [46 x i8]* @.str.83, i32 0, i32 0))
          to label %1307 unwind label %1280

; <label>:1307:                                   ; preds = %1304
  store i32 %1306, i32* %3, align 4
  store i32 1, i32* %17, align 4
  br label %6754

; <label>:1308:                                   ; preds = %1293
  %1309 = landingpad { i8*, i32 }
          cleanup
  %1310 = extractvalue { i8*, i32 } %1309, 0
  store i8* %1310, i8** %8, align 8
  %1311 = extractvalue { i8*, i32 } %1309, 1
  store i32 %1311, i32* %9, align 4
  call void @_ZN6StringD2Ev(%class.String* %53) #11
  br label %6755

; <label>:1312:                                   ; preds = %1301
  br label %1313

; <label>:1313:                                   ; preds = %1312
  br label %1314

; <label>:1314:                                   ; preds = %1313
  br label %1315

; <label>:1315:                                   ; preds = %1314
  invoke void @_ZN6IntArgC2Ei(%class.IntArg* %54, i32 0)
          to label %1316 unwind label %1280

; <label>:1316:                                   ; preds = %1315
  invoke void @_ZN6StringC2EPKc(%class.String* %55, i8* getelementptr inbounds ([3 x i8], [3 x i8]* @.str.84, i32 0, i32 0))
          to label %1317 unwind label %1280

; <label>:1317:                                   ; preds = %1316
  %1318 = invoke zeroext i1 @_ZN6IntArg5parseIiEEbRK6StringRT_RK10ArgContext(%class.IntArg* %54, %class.String* dereferenceable(24) %55, i32* dereferenceable(4) %24, %class.ArgContext* dereferenceable(32) @blank_args)
          to label %1319 unwind label %1332

; <label>:1319:                                   ; preds = %1317
  %1320 = zext i1 %1318 to i32
  %1321 = icmp eq i32 %1320, 1
  br i1 %1321, label %1322, label %1325

; <label>:1322:                                   ; preds = %1319
  %1323 = load i32, i32* %24, align 4
  %1324 = icmp eq i32 %1323, -5
  br label %1325

; <label>:1325:                                   ; preds = %1322, %1319
  %1326 = phi i1 [ false, %1319 ], [ %1324, %1322 ]
  %1327 = xor i1 %1326, true
  call void @_ZN6StringD2Ev(%class.String* %55) #11
  br i1 %1327, label %1328, label %1336

; <label>:1328:                                   ; preds = %1325
  %1329 = load %class.ErrorHandler*, %class.ErrorHandler** %5, align 8
  %1330 = invoke i32 (%class.ErrorHandler*, i8*, ...) @_ZN12ErrorHandler5errorEPKcz(%class.ErrorHandler* %1329, i8* getelementptr inbounds ([26 x i8], [26 x i8]* @.str.2, i32 0, i32 0), i8* getelementptr inbounds ([43 x i8], [43 x i8]* @.str.3, i32 0, i32 0), i32 141, i8* getelementptr inbounds ([47 x i8], [47 x i8]* @.str.85, i32 0, i32 0))
          to label %1331 unwind label %1280

; <label>:1331:                                   ; preds = %1328
  store i32 %1330, i32* %3, align 4
  store i32 1, i32* %17, align 4
  br label %6754

; <label>:1332:                                   ; preds = %1317
  %1333 = landingpad { i8*, i32 }
          cleanup
  %1334 = extractvalue { i8*, i32 } %1333, 0
  store i8* %1334, i8** %8, align 8
  %1335 = extractvalue { i8*, i32 } %1333, 1
  store i32 %1335, i32* %9, align 4
  call void @_ZN6StringD2Ev(%class.String* %55) #11
  br label %6755

; <label>:1336:                                   ; preds = %1325
  br label %1337

; <label>:1337:                                   ; preds = %1336
  br label %1338

; <label>:1338:                                   ; preds = %1337
  br label %1339

; <label>:1339:                                   ; preds = %1338
  %1340 = load i32, i32* %25, align 4
  %1341 = icmp eq i32 %1340, 97
  br i1 %1341, label %1346, label %1342

; <label>:1342:                                   ; preds = %1339
  %1343 = load %class.ErrorHandler*, %class.ErrorHandler** %5, align 8
  %1344 = invoke i32 (%class.ErrorHandler*, i8*, ...) @_ZN12ErrorHandler5errorEPKcz(%class.ErrorHandler* %1343, i8* getelementptr inbounds ([26 x i8], [26 x i8]* @.str.2, i32 0, i32 0), i8* getelementptr inbounds ([43 x i8], [43 x i8]* @.str.3, i32 0, i32 0), i32 142, i8* getelementptr inbounds ([10 x i8], [10 x i8]* @.str.51, i32 0, i32 0))
          to label %1345 unwind label %1280

; <label>:1345:                                   ; preds = %1342
  store i32 %1344, i32* %3, align 4
  store i32 1, i32* %17, align 4
  br label %6754

; <label>:1346:                                   ; preds = %1339
  br label %1347

; <label>:1347:                                   ; preds = %1346
  br label %1348

; <label>:1348:                                   ; preds = %1347
  br label %1349

; <label>:1349:                                   ; preds = %1348
  invoke void @_ZN6IntArgC2Ei(%class.IntArg* %56, i32 0)
          to label %1350 unwind label %1280

; <label>:1350:                                   ; preds = %1349
  invoke void @_ZN6StringC2EPKc(%class.String* %57, i8* getelementptr inbounds ([5 x i8], [5 x i8]* @.str.86, i32 0, i32 0))
          to label %1351 unwind label %1280

; <label>:1351:                                   ; preds = %1350
  %1352 = bitcast %class.Args* %48 to %class.ArgContext*
  %1353 = invoke zeroext i1 @_ZN6IntArg5parseIjEEbRK6StringRT_RK10ArgContext(%class.IntArg* %56, %class.String* dereferenceable(24) %57, i32* dereferenceable(4) %25, %class.ArgContext* dereferenceable(32) %1352)
          to label %1354 unwind label %1367

; <label>:1354:                                   ; preds = %1351
  %1355 = zext i1 %1353 to i32
  %1356 = icmp eq i32 %1355, 0
  br i1 %1356, label %1357, label %1360

; <label>:1357:                                   ; preds = %1354
  %1358 = load i32, i32* %25, align 4
  %1359 = icmp eq i32 %1358, 97
  br label %1360

; <label>:1360:                                   ; preds = %1357, %1354
  %1361 = phi i1 [ false, %1354 ], [ %1359, %1357 ]
  %1362 = xor i1 %1361, true
  call void @_ZN6StringD2Ev(%class.String* %57) #11
  br i1 %1362, label %1363, label %1371

; <label>:1363:                                   ; preds = %1360
  %1364 = load %class.ErrorHandler*, %class.ErrorHandler** %5, align 8
  %1365 = invoke i32 (%class.ErrorHandler*, i8*, ...) @_ZN12ErrorHandler5errorEPKcz(%class.ErrorHandler* %1364, i8* getelementptr inbounds ([26 x i8], [26 x i8]* @.str.2, i32 0, i32 0), i8* getelementptr inbounds ([43 x i8], [43 x i8]* @.str.3, i32 0, i32 0), i32 143, i8* getelementptr inbounds ([56 x i8], [56 x i8]* @.str.87, i32 0, i32 0))
          to label %1366 unwind label %1280

; <label>:1366:                                   ; preds = %1363
  store i32 %1365, i32* %3, align 4
  store i32 1, i32* %17, align 4
  br label %6754

; <label>:1367:                                   ; preds = %1351
  %1368 = landingpad { i8*, i32 }
          cleanup
  %1369 = extractvalue { i8*, i32 } %1368, 0
  store i8* %1369, i8** %8, align 8
  %1370 = extractvalue { i8*, i32 } %1368, 1
  store i32 %1370, i32* %9, align 4
  call void @_ZN6StringD2Ev(%class.String* %57) #11
  br label %6755

; <label>:1371:                                   ; preds = %1360
  invoke void @_ZN12_GLOBAL__N_118RecordErrorHandler11take_stringEv(%class.String* sret %58, %"class.(anonymous namespace)::RecordErrorHandler"* %47)
          to label %1372 unwind label %1280

; <label>:1372:                                   ; preds = %1371
  %1373 = invoke zeroext i1 @_ZNK6String6equalsEPKci(%class.String* %58, i8* getelementptr inbounds ([15 x i8], [15 x i8]* @.str.88, i32 0, i32 0), i32 -1)
          to label %1374 unwind label %1381

; <label>:1374:                                   ; preds = %1372
  br i1 %1373, label %1385, label %1375

; <label>:1375:                                   ; preds = %1374
  %1376 = load %class.ErrorHandler*, %class.ErrorHandler** %5, align 8
  %1377 = invoke i8* @_ZNK6String5c_strEv(%class.String* %58)
          to label %1378 unwind label %1381

; <label>:1378:                                   ; preds = %1375
  %1379 = invoke i32 (%class.ErrorHandler*, i8*, ...) @_ZN12ErrorHandler5errorEPKcz(%class.ErrorHandler* %1376, i8* getelementptr inbounds ([60 x i8], [60 x i8]* @.str.89, i32 0, i32 0), i8* getelementptr inbounds ([43 x i8], [43 x i8]* @.str.3, i32 0, i32 0), i32 143, i8* getelementptr inbounds ([56 x i8], [56 x i8]* @.str.87, i32 0, i32 0), i8* %1377)
          to label %1380 unwind label %1381

; <label>:1380:                                   ; preds = %1378
  store i32 %1379, i32* %3, align 4
  store i32 1, i32* %17, align 4
  br label %1386

; <label>:1381:                                   ; preds = %1378, %1375, %1372
  %1382 = landingpad { i8*, i32 }
          cleanup
  %1383 = extractvalue { i8*, i32 } %1382, 0
  store i8* %1383, i8** %8, align 8
  %1384 = extractvalue { i8*, i32 } %1382, 1
  store i32 %1384, i32* %9, align 4
  call void @_ZN6StringD2Ev(%class.String* %58) #11
  br label %6755

; <label>:1385:                                   ; preds = %1374
  store i32 0, i32* %17, align 4
  br label %1386

; <label>:1386:                                   ; preds = %1385, %1380
  call void @_ZN6StringD2Ev(%class.String* %58) #11
  %1387 = load i32, i32* %17, align 4
  switch i32 %1387, label %6754 [
    i32 0, label %1388
  ]

; <label>:1388:                                   ; preds = %1386
  br label %1389

; <label>:1389:                                   ; preds = %1388
  br label %1390

; <label>:1390:                                   ; preds = %1389
  br label %1391

; <label>:1391:                                   ; preds = %1390
  invoke void @_ZN6IntArgC2Ei(%class.IntArg* %59, i32 0)
          to label %1392 unwind label %1280

; <label>:1392:                                   ; preds = %1391
  invoke void @_ZN6StringC2EPKc(%class.String* %60, i8* getelementptr inbounds ([2 x i8], [2 x i8]* @.str.47, i32 0, i32 0))
          to label %1393 unwind label %1280

; <label>:1393:                                   ; preds = %1392
  %1394 = invoke zeroext i1 @_ZN6IntArg5parseIjEEbRK6StringRT_RK10ArgContext(%class.IntArg* %59, %class.String* dereferenceable(24) %60, i32* dereferenceable(4) %25, %class.ArgContext* dereferenceable(32) @blank_args)
          to label %1395 unwind label %1408

; <label>:1395:                                   ; preds = %1393
  %1396 = zext i1 %1394 to i32
  %1397 = icmp eq i32 %1396, 1
  br i1 %1397, label %1398, label %1401

; <label>:1398:                                   ; preds = %1395
  %1399 = load i32, i32* %25, align 4
  %1400 = icmp eq i32 %1399, 0
  br label %1401

; <label>:1401:                                   ; preds = %1398, %1395
  %1402 = phi i1 [ false, %1395 ], [ %1400, %1398 ]
  %1403 = xor i1 %1402, true
  call void @_ZN6StringD2Ev(%class.String* %60) #11
  br i1 %1403, label %1404, label %1412

; <label>:1404:                                   ; preds = %1401
  %1405 = load %class.ErrorHandler*, %class.ErrorHandler** %5, align 8
  %1406 = invoke i32 (%class.ErrorHandler*, i8*, ...) @_ZN12ErrorHandler5errorEPKcz(%class.ErrorHandler* %1405, i8* getelementptr inbounds ([26 x i8], [26 x i8]* @.str.2, i32 0, i32 0), i8* getelementptr inbounds ([43 x i8], [43 x i8]* @.str.3, i32 0, i32 0), i32 144, i8* getelementptr inbounds ([45 x i8], [45 x i8]* @.str.90, i32 0, i32 0))
          to label %1407 unwind label %1280

; <label>:1407:                                   ; preds = %1404
  store i32 %1406, i32* %3, align 4
  store i32 1, i32* %17, align 4
  br label %6754

; <label>:1408:                                   ; preds = %1393
  %1409 = landingpad { i8*, i32 }
          cleanup
  %1410 = extractvalue { i8*, i32 } %1409, 0
  store i8* %1410, i8** %8, align 8
  %1411 = extractvalue { i8*, i32 } %1409, 1
  store i32 %1411, i32* %9, align 4
  call void @_ZN6StringD2Ev(%class.String* %60) #11
  br label %6755

; <label>:1412:                                   ; preds = %1401
  br label %1413

; <label>:1413:                                   ; preds = %1412
  br label %1414

; <label>:1414:                                   ; preds = %1413
  br label %1415

; <label>:1415:                                   ; preds = %1414
  invoke void @_ZN6IntArgC2Ei(%class.IntArg* %61, i32 0)
          to label %1416 unwind label %1280

; <label>:1416:                                   ; preds = %1415
  invoke void @_ZN6StringC2EPKc(%class.String* %62, i8* getelementptr inbounds ([3 x i8], [3 x i8]* @.str.49, i32 0, i32 0))
          to label %1417 unwind label %1280

; <label>:1417:                                   ; preds = %1416
  %1418 = invoke zeroext i1 @_ZN6IntArg5parseIjEEbRK6StringRT_RK10ArgContext(%class.IntArg* %61, %class.String* dereferenceable(24) %62, i32* dereferenceable(4) %25, %class.ArgContext* dereferenceable(32) @blank_args)
          to label %1419 unwind label %1427

; <label>:1419:                                   ; preds = %1417
  %1420 = zext i1 %1418 to i32
  %1421 = icmp eq i32 %1420, 0
  %1422 = xor i1 %1421, true
  call void @_ZN6StringD2Ev(%class.String* %62) #11
  br i1 %1422, label %1423, label %1431

; <label>:1423:                                   ; preds = %1419
  %1424 = load %class.ErrorHandler*, %class.ErrorHandler** %5, align 8
  %1425 = invoke i32 (%class.ErrorHandler*, i8*, ...) @_ZN12ErrorHandler5errorEPKcz(%class.ErrorHandler* %1424, i8* getelementptr inbounds ([26 x i8], [26 x i8]* @.str.2, i32 0, i32 0), i8* getelementptr inbounds ([43 x i8], [43 x i8]* @.str.3, i32 0, i32 0), i32 145, i8* getelementptr inbounds ([35 x i8], [35 x i8]* @.str.91, i32 0, i32 0))
          to label %1426 unwind label %1280

; <label>:1426:                                   ; preds = %1423
  store i32 %1425, i32* %3, align 4
  store i32 1, i32* %17, align 4
  br label %6754

; <label>:1427:                                   ; preds = %1417
  %1428 = landingpad { i8*, i32 }
          cleanup
  %1429 = extractvalue { i8*, i32 } %1428, 0
  store i8* %1429, i8** %8, align 8
  %1430 = extractvalue { i8*, i32 } %1428, 1
  store i32 %1430, i32* %9, align 4
  call void @_ZN6StringD2Ev(%class.String* %62) #11
  br label %6755

; <label>:1431:                                   ; preds = %1419
  br label %1432

; <label>:1432:                                   ; preds = %1431
  br label %1433

; <label>:1433:                                   ; preds = %1432
  br label %1434

; <label>:1434:                                   ; preds = %1433
  invoke void @_ZN6IntArgC2Ei(%class.IntArg* %63, i32 0)
          to label %1435 unwind label %1280

; <label>:1435:                                   ; preds = %1434
  invoke void @_ZN6StringC2EPKc(%class.String* %64, i8* getelementptr inbounds ([11 x i8], [11 x i8]* @.str.54, i32 0, i32 0))
          to label %1436 unwind label %1280

; <label>:1436:                                   ; preds = %1435
  %1437 = invoke zeroext i1 @_ZN6IntArg5parseIjEEbRK6StringRT_RK10ArgContext(%class.IntArg* %63, %class.String* dereferenceable(24) %64, i32* dereferenceable(4) %25, %class.ArgContext* dereferenceable(32) @blank_args)
          to label %1438 unwind label %1451

; <label>:1438:                                   ; preds = %1436
  %1439 = zext i1 %1437 to i32
  %1440 = icmp eq i32 %1439, 1
  br i1 %1440, label %1441, label %1444

; <label>:1441:                                   ; preds = %1438
  %1442 = load i32, i32* %25, align 4
  %1443 = icmp eq i32 %1442, -2
  br label %1444

; <label>:1444:                                   ; preds = %1441, %1438
  %1445 = phi i1 [ false, %1438 ], [ %1443, %1441 ]
  %1446 = xor i1 %1445, true
  call void @_ZN6StringD2Ev(%class.String* %64) #11
  br i1 %1446, label %1447, label %1455

; <label>:1447:                                   ; preds = %1444
  %1448 = load %class.ErrorHandler*, %class.ErrorHandler** %5, align 8
  %1449 = invoke i32 (%class.ErrorHandler*, i8*, ...) @_ZN12ErrorHandler5errorEPKcz(%class.ErrorHandler* %1448, i8* getelementptr inbounds ([26 x i8], [26 x i8]* @.str.2, i32 0, i32 0), i8* getelementptr inbounds ([43 x i8], [43 x i8]* @.str.3, i32 0, i32 0), i32 146, i8* getelementptr inbounds ([64 x i8], [64 x i8]* @.str.92, i32 0, i32 0))
          to label %1450 unwind label %1280

; <label>:1450:                                   ; preds = %1447
  store i32 %1449, i32* %3, align 4
  store i32 1, i32* %17, align 4
  br label %6754

; <label>:1451:                                   ; preds = %1436
  %1452 = landingpad { i8*, i32 }
          cleanup
  %1453 = extractvalue { i8*, i32 } %1452, 0
  store i8* %1453, i8** %8, align 8
  %1454 = extractvalue { i8*, i32 } %1452, 1
  store i32 %1454, i32* %9, align 4
  call void @_ZN6StringD2Ev(%class.String* %64) #11
  br label %6755

; <label>:1455:                                   ; preds = %1444
  br label %1456

; <label>:1456:                                   ; preds = %1455
  br label %1457

; <label>:1457:                                   ; preds = %1456
  br label %1458

; <label>:1458:                                   ; preds = %1457
  invoke void @_ZN6IntArgC2Ei(%class.IntArg* %65, i32 0)
          to label %1459 unwind label %1280

; <label>:1459:                                   ; preds = %1458
  invoke void @_ZN6StringC2EPKc(%class.String* %66, i8* getelementptr inbounds ([11 x i8], [11 x i8]* @.str.56, i32 0, i32 0))
          to label %1460 unwind label %1280

; <label>:1460:                                   ; preds = %1459
  %1461 = invoke zeroext i1 @_ZN6IntArg5parseIjEEbRK6StringRT_RK10ArgContext(%class.IntArg* %65, %class.String* dereferenceable(24) %66, i32* dereferenceable(4) %25, %class.ArgContext* dereferenceable(32) @blank_args)
          to label %1462 unwind label %1475

; <label>:1462:                                   ; preds = %1460
  %1463 = zext i1 %1461 to i32
  %1464 = icmp eq i32 %1463, 1
  br i1 %1464, label %1465, label %1468

; <label>:1465:                                   ; preds = %1462
  %1466 = load i32, i32* %25, align 4
  %1467 = icmp eq i32 %1466, -2
  br label %1468

; <label>:1468:                                   ; preds = %1465, %1462
  %1469 = phi i1 [ false, %1462 ], [ %1467, %1465 ]
  %1470 = xor i1 %1469, true
  call void @_ZN6StringD2Ev(%class.String* %66) #11
  br i1 %1470, label %1471, label %1479

; <label>:1471:                                   ; preds = %1468
  %1472 = load %class.ErrorHandler*, %class.ErrorHandler** %5, align 8
  %1473 = invoke i32 (%class.ErrorHandler*, i8*, ...) @_ZN12ErrorHandler5errorEPKcz(%class.ErrorHandler* %1472, i8* getelementptr inbounds ([26 x i8], [26 x i8]* @.str.2, i32 0, i32 0), i8* getelementptr inbounds ([43 x i8], [43 x i8]* @.str.3, i32 0, i32 0), i32 147, i8* getelementptr inbounds ([64 x i8], [64 x i8]* @.str.93, i32 0, i32 0))
          to label %1474 unwind label %1280

; <label>:1474:                                   ; preds = %1471
  store i32 %1473, i32* %3, align 4
  store i32 1, i32* %17, align 4
  br label %6754

; <label>:1475:                                   ; preds = %1460
  %1476 = landingpad { i8*, i32 }
          cleanup
  %1477 = extractvalue { i8*, i32 } %1476, 0
  store i8* %1477, i8** %8, align 8
  %1478 = extractvalue { i8*, i32 } %1476, 1
  store i32 %1478, i32* %9, align 4
  call void @_ZN6StringD2Ev(%class.String* %66) #11
  br label %6755

; <label>:1479:                                   ; preds = %1468
  br label %1480

; <label>:1480:                                   ; preds = %1479
  br label %1481

; <label>:1481:                                   ; preds = %1480
  br label %1482

; <label>:1482:                                   ; preds = %1481
  invoke void @_ZN6StringC2EPKc(%class.String* %67, i8* getelementptr inbounds ([11 x i8], [11 x i8]* @.str.58, i32 0, i32 0))
          to label %1483 unwind label %1280

; <label>:1483:                                   ; preds = %1482
  %1484 = bitcast %class.Args* %48 to %class.ArgContext*
  %1485 = invoke zeroext i1 @_ZN6IntArg5parseIjEEbRK6StringRT_RK10ArgContext(%class.IntArg* %49, %class.String* dereferenceable(24) %67, i32* dereferenceable(4) %25, %class.ArgContext* dereferenceable(32) %1484)
          to label %1486 unwind label %1499

; <label>:1486:                                   ; preds = %1483
  %1487 = zext i1 %1485 to i32
  %1488 = icmp eq i32 %1487, 0
  br i1 %1488, label %1489, label %1492

; <label>:1489:                                   ; preds = %1486
  %1490 = load i32, i32* %25, align 4
  %1491 = icmp eq i32 %1490, -2
  br label %1492

; <label>:1492:                                   ; preds = %1489, %1486
  %1493 = phi i1 [ false, %1486 ], [ %1491, %1489 ]
  %1494 = xor i1 %1493, true
  call void @_ZN6StringD2Ev(%class.String* %67) #11
  br i1 %1494, label %1495, label %1503

; <label>:1495:                                   ; preds = %1492
  %1496 = load %class.ErrorHandler*, %class.ErrorHandler** %5, align 8
  %1497 = invoke i32 (%class.ErrorHandler*, i8*, ...) @_ZN12ErrorHandler5errorEPKcz(%class.ErrorHandler* %1496, i8* getelementptr inbounds ([26 x i8], [26 x i8]* @.str.2, i32 0, i32 0), i8* getelementptr inbounds ([43 x i8], [43 x i8]* @.str.3, i32 0, i32 0), i32 148, i8* getelementptr inbounds ([65 x i8], [65 x i8]* @.str.94, i32 0, i32 0))
          to label %1498 unwind label %1280

; <label>:1498:                                   ; preds = %1495
  store i32 %1497, i32* %3, align 4
  store i32 1, i32* %17, align 4
  br label %6754

; <label>:1499:                                   ; preds = %1483
  %1500 = landingpad { i8*, i32 }
          cleanup
  %1501 = extractvalue { i8*, i32 } %1500, 0
  store i8* %1501, i8** %8, align 8
  %1502 = extractvalue { i8*, i32 } %1500, 1
  store i32 %1502, i32* %9, align 4
  call void @_ZN6StringD2Ev(%class.String* %67) #11
  br label %6755

; <label>:1503:                                   ; preds = %1492
  invoke void @_ZN12_GLOBAL__N_118RecordErrorHandler11take_stringEv(%class.String* sret %68, %"class.(anonymous namespace)::RecordErrorHandler"* %47)
          to label %1504 unwind label %1280

; <label>:1504:                                   ; preds = %1503
  %1505 = invoke zeroext i1 @_ZNK6String6equalsEPKci(%class.String* %68, i8* getelementptr inbounds ([31 x i8], [31 x i8]* @.str.95, i32 0, i32 0), i32 -1)
          to label %1506 unwind label %1513

; <label>:1506:                                   ; preds = %1504
  br i1 %1505, label %1517, label %1507

; <label>:1507:                                   ; preds = %1506
  %1508 = load %class.ErrorHandler*, %class.ErrorHandler** %5, align 8
  %1509 = invoke i8* @_ZNK6String5c_strEv(%class.String* %68)
          to label %1510 unwind label %1513

; <label>:1510:                                   ; preds = %1507
  %1511 = invoke i32 (%class.ErrorHandler*, i8*, ...) @_ZN12ErrorHandler5errorEPKcz(%class.ErrorHandler* %1508, i8* getelementptr inbounds ([60 x i8], [60 x i8]* @.str.89, i32 0, i32 0), i8* getelementptr inbounds ([43 x i8], [43 x i8]* @.str.3, i32 0, i32 0), i32 148, i8* getelementptr inbounds ([65 x i8], [65 x i8]* @.str.94, i32 0, i32 0), i8* %1509)
          to label %1512 unwind label %1513

; <label>:1512:                                   ; preds = %1510
  store i32 %1511, i32* %3, align 4
  store i32 1, i32* %17, align 4
  br label %1518

; <label>:1513:                                   ; preds = %1510, %1507, %1504
  %1514 = landingpad { i8*, i32 }
          cleanup
  %1515 = extractvalue { i8*, i32 } %1514, 0
  store i8* %1515, i8** %8, align 8
  %1516 = extractvalue { i8*, i32 } %1514, 1
  store i32 %1516, i32* %9, align 4
  call void @_ZN6StringD2Ev(%class.String* %68) #11
  br label %6755

; <label>:1517:                                   ; preds = %1506
  store i32 0, i32* %17, align 4
  br label %1518

; <label>:1518:                                   ; preds = %1517, %1512
  call void @_ZN6StringD2Ev(%class.String* %68) #11
  %1519 = load i32, i32* %17, align 4
  switch i32 %1519, label %6754 [
    i32 0, label %1520
  ]

; <label>:1520:                                   ; preds = %1518
  br label %1521

; <label>:1521:                                   ; preds = %1520
  br label %1522

; <label>:1522:                                   ; preds = %1521
  br label %1523

; <label>:1523:                                   ; preds = %1522
  invoke void @_ZN6IntArgC2Ei(%class.IntArg* %69, i32 0)
          to label %1524 unwind label %1280

; <label>:1524:                                   ; preds = %1523
  invoke void @_ZN6StringC2EPKc(%class.String* %70, i8* getelementptr inbounds ([11 x i8], [11 x i8]* @.str.58, i32 0, i32 0))
          to label %1525 unwind label %1280

; <label>:1525:                                   ; preds = %1524
  %1526 = invoke zeroext i1 @_ZN6IntArg16parse_saturatingIjEEbRK6StringRT_RK10ArgContext(%class.IntArg* %69, %class.String* dereferenceable(24) %70, i32* dereferenceable(4) %25, %class.ArgContext* dereferenceable(32) @blank_args)
          to label %1527 unwind label %1540

; <label>:1527:                                   ; preds = %1525
  %1528 = zext i1 %1526 to i32
  %1529 = icmp eq i32 %1528, 1
  br i1 %1529, label %1530, label %1533

; <label>:1530:                                   ; preds = %1527
  %1531 = load i32, i32* %25, align 4
  %1532 = icmp eq i32 %1531, -1
  br label %1533

; <label>:1533:                                   ; preds = %1530, %1527
  %1534 = phi i1 [ false, %1527 ], [ %1532, %1530 ]
  %1535 = xor i1 %1534, true
  call void @_ZN6StringD2Ev(%class.String* %70) #11
  br i1 %1535, label %1536, label %1544

; <label>:1536:                                   ; preds = %1533
  %1537 = load %class.ErrorHandler*, %class.ErrorHandler** %5, align 8
  %1538 = invoke i32 (%class.ErrorHandler*, i8*, ...) @_ZN12ErrorHandler5errorEPKcz(%class.ErrorHandler* %1537, i8* getelementptr inbounds ([26 x i8], [26 x i8]* @.str.2, i32 0, i32 0), i8* getelementptr inbounds ([43 x i8], [43 x i8]* @.str.3, i32 0, i32 0), i32 149, i8* getelementptr inbounds ([75 x i8], [75 x i8]* @.str.96, i32 0, i32 0))
          to label %1539 unwind label %1280

; <label>:1539:                                   ; preds = %1536
  store i32 %1538, i32* %3, align 4
  store i32 1, i32* %17, align 4
  br label %6754

; <label>:1540:                                   ; preds = %1525
  %1541 = landingpad { i8*, i32 }
          cleanup
  %1542 = extractvalue { i8*, i32 } %1541, 0
  store i8* %1542, i8** %8, align 8
  %1543 = extractvalue { i8*, i32 } %1541, 1
  store i32 %1543, i32* %9, align 4
  call void @_ZN6StringD2Ev(%class.String* %70) #11
  br label %6755

; <label>:1544:                                   ; preds = %1533
  br label %1545

; <label>:1545:                                   ; preds = %1544
  br label %1546

; <label>:1546:                                   ; preds = %1545
  store i32 97, i32* %25, align 4
  br label %1547

; <label>:1547:                                   ; preds = %1546
  invoke void @_ZN6StringC2EPKc(%class.String* %71, i8* getelementptr inbounds ([15 x i8], [15 x i8]* @.str.60, i32 0, i32 0))
          to label %1548 unwind label %1280

; <label>:1548:                                   ; preds = %1547
  %1549 = bitcast %class.Args* %48 to %class.ArgContext*
  %1550 = invoke zeroext i1 @_ZN6IntArg5parseIjEEbRK6StringRT_RK10ArgContext(%class.IntArg* %49, %class.String* dereferenceable(24) %71, i32* dereferenceable(4) %25, %class.ArgContext* dereferenceable(32) %1549)
          to label %1551 unwind label %1564

; <label>:1551:                                   ; preds = %1548
  %1552 = zext i1 %1550 to i32
  %1553 = icmp eq i32 %1552, 0
  br i1 %1553, label %1554, label %1557

; <label>:1554:                                   ; preds = %1551
  %1555 = load i32, i32* %25, align 4
  %1556 = icmp eq i32 %1555, 97
  br label %1557

; <label>:1557:                                   ; preds = %1554, %1551
  %1558 = phi i1 [ false, %1551 ], [ %1556, %1554 ]
  %1559 = xor i1 %1558, true
  call void @_ZN6StringD2Ev(%class.String* %71) #11
  br i1 %1559, label %1560, label %1568

; <label>:1560:                                   ; preds = %1557
  %1561 = load %class.ErrorHandler*, %class.ErrorHandler** %5, align 8
  %1562 = invoke i32 (%class.ErrorHandler*, i8*, ...) @_ZN12ErrorHandler5errorEPKcz(%class.ErrorHandler* %1561, i8* getelementptr inbounds ([26 x i8], [26 x i8]* @.str.2, i32 0, i32 0), i8* getelementptr inbounds ([43 x i8], [43 x i8]* @.str.3, i32 0, i32 0), i32 151, i8* getelementptr inbounds ([60 x i8], [60 x i8]* @.str.97, i32 0, i32 0))
          to label %1563 unwind label %1280

; <label>:1563:                                   ; preds = %1560
  store i32 %1562, i32* %3, align 4
  store i32 1, i32* %17, align 4
  br label %6754

; <label>:1564:                                   ; preds = %1548
  %1565 = landingpad { i8*, i32 }
          cleanup
  %1566 = extractvalue { i8*, i32 } %1565, 0
  store i8* %1566, i8** %8, align 8
  %1567 = extractvalue { i8*, i32 } %1565, 1
  store i32 %1567, i32* %9, align 4
  call void @_ZN6StringD2Ev(%class.String* %71) #11
  br label %6755

; <label>:1568:                                   ; preds = %1557
  invoke void @_ZN12_GLOBAL__N_118RecordErrorHandler11take_stringEv(%class.String* sret %72, %"class.(anonymous namespace)::RecordErrorHandler"* %47)
          to label %1569 unwind label %1280

; <label>:1569:                                   ; preds = %1568
  %1570 = invoke zeroext i1 @_ZNK6String6equalsEPKci(%class.String* %72, i8* getelementptr inbounds ([31 x i8], [31 x i8]* @.str.95, i32 0, i32 0), i32 -1)
          to label %1571 unwind label %1578

; <label>:1571:                                   ; preds = %1569
  br i1 %1570, label %1582, label %1572

; <label>:1572:                                   ; preds = %1571
  %1573 = load %class.ErrorHandler*, %class.ErrorHandler** %5, align 8
  %1574 = invoke i8* @_ZNK6String5c_strEv(%class.String* %72)
          to label %1575 unwind label %1578

; <label>:1575:                                   ; preds = %1572
  %1576 = invoke i32 (%class.ErrorHandler*, i8*, ...) @_ZN12ErrorHandler5errorEPKcz(%class.ErrorHandler* %1573, i8* getelementptr inbounds ([60 x i8], [60 x i8]* @.str.89, i32 0, i32 0), i8* getelementptr inbounds ([43 x i8], [43 x i8]* @.str.3, i32 0, i32 0), i32 151, i8* getelementptr inbounds ([60 x i8], [60 x i8]* @.str.97, i32 0, i32 0), i8* %1574)
          to label %1577 unwind label %1578

; <label>:1577:                                   ; preds = %1575
  store i32 %1576, i32* %3, align 4
  store i32 1, i32* %17, align 4
  br label %1583

; <label>:1578:                                   ; preds = %1575, %1572, %1569
  %1579 = landingpad { i8*, i32 }
          cleanup
  %1580 = extractvalue { i8*, i32 } %1579, 0
  store i8* %1580, i8** %8, align 8
  %1581 = extractvalue { i8*, i32 } %1579, 1
  store i32 %1581, i32* %9, align 4
  call void @_ZN6StringD2Ev(%class.String* %72) #11
  br label %6755

; <label>:1582:                                   ; preds = %1571
  store i32 0, i32* %17, align 4
  br label %1583

; <label>:1583:                                   ; preds = %1582, %1577
  call void @_ZN6StringD2Ev(%class.String* %72) #11
  %1584 = load i32, i32* %17, align 4
  switch i32 %1584, label %6754 [
    i32 0, label %1585
  ]

; <label>:1585:                                   ; preds = %1583
  br label %1586

; <label>:1586:                                   ; preds = %1585
  br label %1587

; <label>:1587:                                   ; preds = %1586
  br label %1588

; <label>:1588:                                   ; preds = %1587
  invoke void @_ZN6StringC2EPKc(%class.String* %73, i8* getelementptr inbounds ([15 x i8], [15 x i8]* @.str.60, i32 0, i32 0))
          to label %1589 unwind label %1280

; <label>:1589:                                   ; preds = %1588
  %1590 = bitcast %class.Args* %48 to %class.ArgContext*
  %1591 = invoke zeroext i1 @_ZN6IntArg16parse_saturatingIjEEbRK6StringRT_RK10ArgContext(%class.IntArg* %49, %class.String* dereferenceable(24) %73, i32* dereferenceable(4) %25, %class.ArgContext* dereferenceable(32) %1590)
          to label %1592 unwind label %1605

; <label>:1592:                                   ; preds = %1589
  %1593 = zext i1 %1591 to i32
  %1594 = icmp eq i32 %1593, 1
  br i1 %1594, label %1595, label %1598

; <label>:1595:                                   ; preds = %1592
  %1596 = load i32, i32* %25, align 4
  %1597 = icmp eq i32 %1596, -1
  br label %1598

; <label>:1598:                                   ; preds = %1595, %1592
  %1599 = phi i1 [ false, %1592 ], [ %1597, %1595 ]
  %1600 = xor i1 %1599, true
  call void @_ZN6StringD2Ev(%class.String* %73) #11
  br i1 %1600, label %1601, label %1609

; <label>:1601:                                   ; preds = %1598
  %1602 = load %class.ErrorHandler*, %class.ErrorHandler** %5, align 8
  %1603 = invoke i32 (%class.ErrorHandler*, i8*, ...) @_ZN12ErrorHandler5errorEPKcz(%class.ErrorHandler* %1602, i8* getelementptr inbounds ([26 x i8], [26 x i8]* @.str.2, i32 0, i32 0), i8* getelementptr inbounds ([43 x i8], [43 x i8]* @.str.3, i32 0, i32 0), i32 152, i8* getelementptr inbounds ([79 x i8], [79 x i8]* @.str.98, i32 0, i32 0))
          to label %1604 unwind label %1280

; <label>:1604:                                   ; preds = %1601
  store i32 %1603, i32* %3, align 4
  store i32 1, i32* %17, align 4
  br label %6754

; <label>:1605:                                   ; preds = %1589
  %1606 = landingpad { i8*, i32 }
          cleanup
  %1607 = extractvalue { i8*, i32 } %1606, 0
  store i8* %1607, i8** %8, align 8
  %1608 = extractvalue { i8*, i32 } %1606, 1
  store i32 %1608, i32* %9, align 4
  call void @_ZN6StringD2Ev(%class.String* %73) #11
  br label %6755

; <label>:1609:                                   ; preds = %1598
  invoke void @_ZN12_GLOBAL__N_118RecordErrorHandler11take_stringEv(%class.String* sret %74, %"class.(anonymous namespace)::RecordErrorHandler"* %47)
          to label %1610 unwind label %1280

; <label>:1610:                                   ; preds = %1609
  %1611 = invoke zeroext i1 @_ZNK6String6equalsEPKci(%class.String* %74, i8* getelementptr inbounds ([1 x i8], [1 x i8]* @.str.16, i32 0, i32 0), i32 -1)
          to label %1612 unwind label %1619

; <label>:1612:                                   ; preds = %1610
  br i1 %1611, label %1623, label %1613

; <label>:1613:                                   ; preds = %1612
  %1614 = load %class.ErrorHandler*, %class.ErrorHandler** %5, align 8
  %1615 = invoke i8* @_ZNK6String5c_strEv(%class.String* %74)
          to label %1616 unwind label %1619

; <label>:1616:                                   ; preds = %1613
  %1617 = invoke i32 (%class.ErrorHandler*, i8*, ...) @_ZN12ErrorHandler5errorEPKcz(%class.ErrorHandler* %1614, i8* getelementptr inbounds ([60 x i8], [60 x i8]* @.str.89, i32 0, i32 0), i8* getelementptr inbounds ([43 x i8], [43 x i8]* @.str.3, i32 0, i32 0), i32 152, i8* getelementptr inbounds ([79 x i8], [79 x i8]* @.str.98, i32 0, i32 0), i8* %1615)
          to label %1618 unwind label %1619

; <label>:1618:                                   ; preds = %1616
  store i32 %1617, i32* %3, align 4
  store i32 1, i32* %17, align 4
  br label %1624

; <label>:1619:                                   ; preds = %1616, %1613, %1610
  %1620 = landingpad { i8*, i32 }
          cleanup
  %1621 = extractvalue { i8*, i32 } %1620, 0
  store i8* %1621, i8** %8, align 8
  %1622 = extractvalue { i8*, i32 } %1620, 1
  store i32 %1622, i32* %9, align 4
  call void @_ZN6StringD2Ev(%class.String* %74) #11
  br label %6755

; <label>:1623:                                   ; preds = %1612
  store i32 0, i32* %17, align 4
  br label %1624

; <label>:1624:                                   ; preds = %1623, %1618
  call void @_ZN6StringD2Ev(%class.String* %74) #11
  %1625 = load i32, i32* %17, align 4
  switch i32 %1625, label %6754 [
    i32 0, label %1626
  ]

; <label>:1626:                                   ; preds = %1624
  br label %1627

; <label>:1627:                                   ; preds = %1626
  br label %1628

; <label>:1628:                                   ; preds = %1627
  br label %1629

; <label>:1629:                                   ; preds = %1628
  invoke void @_ZN6IntArgC2Ei(%class.IntArg* %75, i32 0)
          to label %1630 unwind label %1280

; <label>:1630:                                   ; preds = %1629
  invoke void @_ZN6StringC2EPKc(%class.String* %76, i8* getelementptr inbounds ([12 x i8], [12 x i8]* @.str.62, i32 0, i32 0))
          to label %1631 unwind label %1280

; <label>:1631:                                   ; preds = %1630
  %1632 = invoke zeroext i1 @_ZN6IntArg5parseIjEEbRK6StringRT_RK10ArgContext(%class.IntArg* %75, %class.String* dereferenceable(24) %76, i32* dereferenceable(4) %25, %class.ArgContext* dereferenceable(32) @blank_args)
          to label %1633 unwind label %1641

; <label>:1633:                                   ; preds = %1631
  %1634 = zext i1 %1632 to i32
  %1635 = icmp eq i32 %1634, 0
  %1636 = xor i1 %1635, true
  call void @_ZN6StringD2Ev(%class.String* %76) #11
  br i1 %1636, label %1637, label %1645

; <label>:1637:                                   ; preds = %1633
  %1638 = load %class.ErrorHandler*, %class.ErrorHandler** %5, align 8
  %1639 = invoke i32 (%class.ErrorHandler*, i8*, ...) @_ZN12ErrorHandler5errorEPKcz(%class.ErrorHandler* %1638, i8* getelementptr inbounds ([26 x i8], [26 x i8]* @.str.2, i32 0, i32 0), i8* getelementptr inbounds ([43 x i8], [43 x i8]* @.str.3, i32 0, i32 0), i32 153, i8* getelementptr inbounds ([44 x i8], [44 x i8]* @.str.99, i32 0, i32 0))
          to label %1640 unwind label %1280

; <label>:1640:                                   ; preds = %1637
  store i32 %1639, i32* %3, align 4
  store i32 1, i32* %17, align 4
  br label %6754

; <label>:1641:                                   ; preds = %1631
  %1642 = landingpad { i8*, i32 }
          cleanup
  %1643 = extractvalue { i8*, i32 } %1642, 0
  store i8* %1643, i8** %8, align 8
  %1644 = extractvalue { i8*, i32 } %1642, 1
  store i32 %1644, i32* %9, align 4
  call void @_ZN6StringD2Ev(%class.String* %76) #11
  br label %6755

; <label>:1645:                                   ; preds = %1633
  br label %1646

; <label>:1646:                                   ; preds = %1645
  br label %1647

; <label>:1647:                                   ; preds = %1646
  br label %1648

; <label>:1648:                                   ; preds = %1647
  invoke void @_ZN6IntArgC2Ei(%class.IntArg* %77, i32 0)
          to label %1649 unwind label %1280

; <label>:1649:                                   ; preds = %1648
  invoke void @_ZN6StringC2EPKc(%class.String* %78, i8* getelementptr inbounds ([12 x i8], [12 x i8]* @.str.62, i32 0, i32 0))
          to label %1650 unwind label %1280

; <label>:1650:                                   ; preds = %1649
  %1651 = invoke zeroext i1 @_ZN6IntArg16parse_saturatingIjEEbRK6StringRT_RK10ArgContext(%class.IntArg* %77, %class.String* dereferenceable(24) %78, i32* dereferenceable(4) %25, %class.ArgContext* dereferenceable(32) @blank_args)
          to label %1652 unwind label %1665

; <label>:1652:                                   ; preds = %1650
  %1653 = zext i1 %1651 to i32
  %1654 = icmp eq i32 %1653, 1
  br i1 %1654, label %1655, label %1658

; <label>:1655:                                   ; preds = %1652
  %1656 = load i32, i32* %25, align 4
  %1657 = icmp eq i32 %1656, -1
  br label %1658

; <label>:1658:                                   ; preds = %1655, %1652
  %1659 = phi i1 [ false, %1652 ], [ %1657, %1655 ]
  %1660 = xor i1 %1659, true
  call void @_ZN6StringD2Ev(%class.String* %78) #11
  br i1 %1660, label %1661, label %1669

; <label>:1661:                                   ; preds = %1658
  %1662 = load %class.ErrorHandler*, %class.ErrorHandler** %5, align 8
  %1663 = invoke i32 (%class.ErrorHandler*, i8*, ...) @_ZN12ErrorHandler5errorEPKcz(%class.ErrorHandler* %1662, i8* getelementptr inbounds ([26 x i8], [26 x i8]* @.str.2, i32 0, i32 0), i8* getelementptr inbounds ([43 x i8], [43 x i8]* @.str.3, i32 0, i32 0), i32 154, i8* getelementptr inbounds ([76 x i8], [76 x i8]* @.str.100, i32 0, i32 0))
          to label %1664 unwind label %1280

; <label>:1664:                                   ; preds = %1661
  store i32 %1663, i32* %3, align 4
  store i32 1, i32* %17, align 4
  br label %6754

; <label>:1665:                                   ; preds = %1650
  %1666 = landingpad { i8*, i32 }
          cleanup
  %1667 = extractvalue { i8*, i32 } %1666, 0
  store i8* %1667, i8** %8, align 8
  %1668 = extractvalue { i8*, i32 } %1666, 1
  store i32 %1668, i32* %9, align 4
  call void @_ZN6StringD2Ev(%class.String* %78) #11
  br label %6755

; <label>:1669:                                   ; preds = %1658
  br label %1670

; <label>:1670:                                   ; preds = %1669
  br label %1671

; <label>:1671:                                   ; preds = %1670
  br label %1672

; <label>:1672:                                   ; preds = %1671
  invoke void @_ZN6StringC2EPKc(%class.String* %79, i8* getelementptr inbounds ([11 x i8], [11 x i8]* @.str.58, i32 0, i32 0))
          to label %1673 unwind label %1280

; <label>:1673:                                   ; preds = %1672
  %1674 = bitcast %class.Args* %48 to %class.ArgContext*
  %1675 = invoke zeroext i1 @_ZN6IntArg5parseIiEEbRK6StringRT_RK10ArgContext(%class.IntArg* %49, %class.String* dereferenceable(24) %79, i32* dereferenceable(4) %24, %class.ArgContext* dereferenceable(32) %1674)
          to label %1676 unwind label %1684

; <label>:1676:                                   ; preds = %1673
  %1677 = zext i1 %1675 to i32
  %1678 = icmp eq i32 %1677, 0
  %1679 = xor i1 %1678, true
  call void @_ZN6StringD2Ev(%class.String* %79) #11
  br i1 %1679, label %1680, label %1688

; <label>:1680:                                   ; preds = %1676
  %1681 = load %class.ErrorHandler*, %class.ErrorHandler** %5, align 8
  %1682 = invoke i32 (%class.ErrorHandler*, i8*, ...) @_ZN12ErrorHandler5errorEPKcz(%class.ErrorHandler* %1681, i8* getelementptr inbounds ([26 x i8], [26 x i8]* @.str.2, i32 0, i32 0), i8* getelementptr inbounds ([43 x i8], [43 x i8]* @.str.3, i32 0, i32 0), i32 155, i8* getelementptr inbounds ([43 x i8], [43 x i8]* @.str.101, i32 0, i32 0))
          to label %1683 unwind label %1280

; <label>:1683:                                   ; preds = %1680
  store i32 %1682, i32* %3, align 4
  store i32 1, i32* %17, align 4
  br label %6754

; <label>:1684:                                   ; preds = %1673
  %1685 = landingpad { i8*, i32 }
          cleanup
  %1686 = extractvalue { i8*, i32 } %1685, 0
  store i8* %1686, i8** %8, align 8
  %1687 = extractvalue { i8*, i32 } %1685, 1
  store i32 %1687, i32* %9, align 4
  call void @_ZN6StringD2Ev(%class.String* %79) #11
  br label %6755

; <label>:1688:                                   ; preds = %1676
  invoke void @_ZN12_GLOBAL__N_118RecordErrorHandler11take_stringEv(%class.String* sret %80, %"class.(anonymous namespace)::RecordErrorHandler"* %47)
          to label %1689 unwind label %1280

; <label>:1689:                                   ; preds = %1688
  %1690 = invoke zeroext i1 @_ZNK6String6equalsEPKci(%class.String* %80, i8* getelementptr inbounds ([31 x i8], [31 x i8]* @.str.102, i32 0, i32 0), i32 -1)
          to label %1691 unwind label %1698

; <label>:1691:                                   ; preds = %1689
  br i1 %1690, label %1702, label %1692

; <label>:1692:                                   ; preds = %1691
  %1693 = load %class.ErrorHandler*, %class.ErrorHandler** %5, align 8
  %1694 = invoke i8* @_ZNK6String5c_strEv(%class.String* %80)
          to label %1695 unwind label %1698

; <label>:1695:                                   ; preds = %1692
  %1696 = invoke i32 (%class.ErrorHandler*, i8*, ...) @_ZN12ErrorHandler5errorEPKcz(%class.ErrorHandler* %1693, i8* getelementptr inbounds ([60 x i8], [60 x i8]* @.str.89, i32 0, i32 0), i8* getelementptr inbounds ([43 x i8], [43 x i8]* @.str.3, i32 0, i32 0), i32 155, i8* getelementptr inbounds ([43 x i8], [43 x i8]* @.str.101, i32 0, i32 0), i8* %1694)
          to label %1697 unwind label %1698

; <label>:1697:                                   ; preds = %1695
  store i32 %1696, i32* %3, align 4
  store i32 1, i32* %17, align 4
  br label %1703

; <label>:1698:                                   ; preds = %1695, %1692, %1689
  %1699 = landingpad { i8*, i32 }
          cleanup
  %1700 = extractvalue { i8*, i32 } %1699, 0
  store i8* %1700, i8** %8, align 8
  %1701 = extractvalue { i8*, i32 } %1699, 1
  store i32 %1701, i32* %9, align 4
  call void @_ZN6StringD2Ev(%class.String* %80) #11
  br label %6755

; <label>:1702:                                   ; preds = %1691
  store i32 0, i32* %17, align 4
  br label %1703

; <label>:1703:                                   ; preds = %1702, %1697
  call void @_ZN6StringD2Ev(%class.String* %80) #11
  %1704 = load i32, i32* %17, align 4
  switch i32 %1704, label %6754 [
    i32 0, label %1705
  ]

; <label>:1705:                                   ; preds = %1703
  br label %1706

; <label>:1706:                                   ; preds = %1705
  br label %1707

; <label>:1707:                                   ; preds = %1706
  br label %1708

; <label>:1708:                                   ; preds = %1707
  invoke void @_ZN6StringC2EPKc(%class.String* %81, i8* getelementptr inbounds ([11 x i8], [11 x i8]* @.str.58, i32 0, i32 0))
          to label %1709 unwind label %1280

; <label>:1709:                                   ; preds = %1708
  %1710 = bitcast %class.Args* %48 to %class.ArgContext*
  %1711 = invoke zeroext i1 @_ZN6IntArg16parse_saturatingIiEEbRK6StringRT_RK10ArgContext(%class.IntArg* %49, %class.String* dereferenceable(24) %81, i32* dereferenceable(4) %24, %class.ArgContext* dereferenceable(32) %1710)
          to label %1712 unwind label %1725

; <label>:1712:                                   ; preds = %1709
  %1713 = zext i1 %1711 to i32
  %1714 = icmp eq i32 %1713, 1
  br i1 %1714, label %1715, label %1718

; <label>:1715:                                   ; preds = %1712
  %1716 = load i32, i32* %24, align 4
  %1717 = icmp eq i32 %1716, 2147483647
  br label %1718

; <label>:1718:                                   ; preds = %1715, %1712
  %1719 = phi i1 [ false, %1712 ], [ %1717, %1715 ]
  %1720 = xor i1 %1719, true
  call void @_ZN6StringD2Ev(%class.String* %81) #11
  br i1 %1720, label %1721, label %1729

; <label>:1721:                                   ; preds = %1718
  %1722 = load %class.ErrorHandler*, %class.ErrorHandler** %5, align 8
  %1723 = invoke i32 (%class.ErrorHandler*, i8*, ...) @_ZN12ErrorHandler5errorEPKcz(%class.ErrorHandler* %1722, i8* getelementptr inbounds ([26 x i8], [26 x i8]* @.str.2, i32 0, i32 0), i8* getelementptr inbounds ([43 x i8], [43 x i8]* @.str.3, i32 0, i32 0), i32 156, i8* getelementptr inbounds ([74 x i8], [74 x i8]* @.str.103, i32 0, i32 0))
          to label %1724 unwind label %1280

; <label>:1724:                                   ; preds = %1721
  store i32 %1723, i32* %3, align 4
  store i32 1, i32* %17, align 4
  br label %6754

; <label>:1725:                                   ; preds = %1709
  %1726 = landingpad { i8*, i32 }
          cleanup
  %1727 = extractvalue { i8*, i32 } %1726, 0
  store i8* %1727, i8** %8, align 8
  %1728 = extractvalue { i8*, i32 } %1726, 1
  store i32 %1728, i32* %9, align 4
  call void @_ZN6StringD2Ev(%class.String* %81) #11
  br label %6755

; <label>:1729:                                   ; preds = %1718
  invoke void @_ZN12_GLOBAL__N_118RecordErrorHandler11take_stringEv(%class.String* sret %82, %"class.(anonymous namespace)::RecordErrorHandler"* %47)
          to label %1730 unwind label %1280

; <label>:1730:                                   ; preds = %1729
  %1731 = invoke zeroext i1 @_ZNK6String6equalsEPKci(%class.String* %82, i8* getelementptr inbounds ([1 x i8], [1 x i8]* @.str.16, i32 0, i32 0), i32 -1)
          to label %1732 unwind label %1739

; <label>:1732:                                   ; preds = %1730
  br i1 %1731, label %1743, label %1733

; <label>:1733:                                   ; preds = %1732
  %1734 = load %class.ErrorHandler*, %class.ErrorHandler** %5, align 8
  %1735 = invoke i8* @_ZNK6String5c_strEv(%class.String* %82)
          to label %1736 unwind label %1739

; <label>:1736:                                   ; preds = %1733
  %1737 = invoke i32 (%class.ErrorHandler*, i8*, ...) @_ZN12ErrorHandler5errorEPKcz(%class.ErrorHandler* %1734, i8* getelementptr inbounds ([60 x i8], [60 x i8]* @.str.89, i32 0, i32 0), i8* getelementptr inbounds ([43 x i8], [43 x i8]* @.str.3, i32 0, i32 0), i32 156, i8* getelementptr inbounds ([74 x i8], [74 x i8]* @.str.103, i32 0, i32 0), i8* %1735)
          to label %1738 unwind label %1739

; <label>:1738:                                   ; preds = %1736
  store i32 %1737, i32* %3, align 4
  store i32 1, i32* %17, align 4
  br label %1744

; <label>:1739:                                   ; preds = %1736, %1733, %1730
  %1740 = landingpad { i8*, i32 }
          cleanup
  %1741 = extractvalue { i8*, i32 } %1740, 0
  store i8* %1741, i8** %8, align 8
  %1742 = extractvalue { i8*, i32 } %1740, 1
  store i32 %1742, i32* %9, align 4
  call void @_ZN6StringD2Ev(%class.String* %82) #11
  br label %6755

; <label>:1743:                                   ; preds = %1732
  store i32 0, i32* %17, align 4
  br label %1744

; <label>:1744:                                   ; preds = %1743, %1738
  call void @_ZN6StringD2Ev(%class.String* %82) #11
  %1745 = load i32, i32* %17, align 4
  switch i32 %1745, label %6754 [
    i32 0, label %1746
  ]

; <label>:1746:                                   ; preds = %1744
  br label %1747

; <label>:1747:                                   ; preds = %1746
  br label %1748

; <label>:1748:                                   ; preds = %1747
  br label %1749

; <label>:1749:                                   ; preds = %1748
  invoke void @_ZN6StringC2EPKc(%class.String* %83, i8* getelementptr inbounds ([11 x i8], [11 x i8]* @.str.65, i32 0, i32 0))
          to label %1750 unwind label %1280

; <label>:1750:                                   ; preds = %1749
  %1751 = bitcast %class.Args* %48 to %class.ArgContext*
  %1752 = invoke zeroext i1 @_ZN6IntArg5parseIiEEbRK6StringRT_RK10ArgContext(%class.IntArg* %49, %class.String* dereferenceable(24) %83, i32* dereferenceable(4) %24, %class.ArgContext* dereferenceable(32) %1751)
          to label %1753 unwind label %1766

; <label>:1753:                                   ; preds = %1750
  %1754 = zext i1 %1752 to i32
  %1755 = icmp eq i32 %1754, 1
  br i1 %1755, label %1756, label %1759

; <label>:1756:                                   ; preds = %1753
  %1757 = load i32, i32* %24, align 4
  %1758 = icmp eq i32 %1757, 2147483647
  br label %1759

; <label>:1759:                                   ; preds = %1756, %1753
  %1760 = phi i1 [ false, %1753 ], [ %1758, %1756 ]
  %1761 = xor i1 %1760, true
  call void @_ZN6StringD2Ev(%class.String* %83) #11
  br i1 %1761, label %1762, label %1770

; <label>:1762:                                   ; preds = %1759
  %1763 = load %class.ErrorHandler*, %class.ErrorHandler** %5, align 8
  %1764 = invoke i32 (%class.ErrorHandler*, i8*, ...) @_ZN12ErrorHandler5errorEPKcz(%class.ErrorHandler* %1763, i8* getelementptr inbounds ([26 x i8], [26 x i8]* @.str.2, i32 0, i32 0), i8* getelementptr inbounds ([43 x i8], [43 x i8]* @.str.3, i32 0, i32 0), i32 157, i8* getelementptr inbounds ([63 x i8], [63 x i8]* @.str.104, i32 0, i32 0))
          to label %1765 unwind label %1280

; <label>:1765:                                   ; preds = %1762
  store i32 %1764, i32* %3, align 4
  store i32 1, i32* %17, align 4
  br label %6754

; <label>:1766:                                   ; preds = %1750
  %1767 = landingpad { i8*, i32 }
          cleanup
  %1768 = extractvalue { i8*, i32 } %1767, 0
  store i8* %1768, i8** %8, align 8
  %1769 = extractvalue { i8*, i32 } %1767, 1
  store i32 %1769, i32* %9, align 4
  call void @_ZN6StringD2Ev(%class.String* %83) #11
  br label %6755

; <label>:1770:                                   ; preds = %1759
  invoke void @_ZN12_GLOBAL__N_118RecordErrorHandler11take_stringEv(%class.String* sret %84, %"class.(anonymous namespace)::RecordErrorHandler"* %47)
          to label %1771 unwind label %1280

; <label>:1771:                                   ; preds = %1770
  %1772 = invoke zeroext i1 @_ZNK6String6equalsEPKci(%class.String* %84, i8* getelementptr inbounds ([1 x i8], [1 x i8]* @.str.16, i32 0, i32 0), i32 -1)
          to label %1773 unwind label %1780

; <label>:1773:                                   ; preds = %1771
  br i1 %1772, label %1784, label %1774

; <label>:1774:                                   ; preds = %1773
  %1775 = load %class.ErrorHandler*, %class.ErrorHandler** %5, align 8
  %1776 = invoke i8* @_ZNK6String5c_strEv(%class.String* %84)
          to label %1777 unwind label %1780

; <label>:1777:                                   ; preds = %1774
  %1778 = invoke i32 (%class.ErrorHandler*, i8*, ...) @_ZN12ErrorHandler5errorEPKcz(%class.ErrorHandler* %1775, i8* getelementptr inbounds ([60 x i8], [60 x i8]* @.str.89, i32 0, i32 0), i8* getelementptr inbounds ([43 x i8], [43 x i8]* @.str.3, i32 0, i32 0), i32 157, i8* getelementptr inbounds ([63 x i8], [63 x i8]* @.str.104, i32 0, i32 0), i8* %1776)
          to label %1779 unwind label %1780

; <label>:1779:                                   ; preds = %1777
  store i32 %1778, i32* %3, align 4
  store i32 1, i32* %17, align 4
  br label %1785

; <label>:1780:                                   ; preds = %1777, %1774, %1771
  %1781 = landingpad { i8*, i32 }
          cleanup
  %1782 = extractvalue { i8*, i32 } %1781, 0
  store i8* %1782, i8** %8, align 8
  %1783 = extractvalue { i8*, i32 } %1781, 1
  store i32 %1783, i32* %9, align 4
  call void @_ZN6StringD2Ev(%class.String* %84) #11
  br label %6755

; <label>:1784:                                   ; preds = %1773
  store i32 0, i32* %17, align 4
  br label %1785

; <label>:1785:                                   ; preds = %1784, %1779
  call void @_ZN6StringD2Ev(%class.String* %84) #11
  %1786 = load i32, i32* %17, align 4
  switch i32 %1786, label %6754 [
    i32 0, label %1787
  ]

; <label>:1787:                                   ; preds = %1785
  br label %1788

; <label>:1788:                                   ; preds = %1787
  br label %1789

; <label>:1789:                                   ; preds = %1788
  br label %1790

; <label>:1790:                                   ; preds = %1789
  invoke void @_ZN6StringC2EPKc(%class.String* %85, i8* getelementptr inbounds ([11 x i8], [11 x i8]* @.str.67, i32 0, i32 0))
          to label %1791 unwind label %1280

; <label>:1791:                                   ; preds = %1790
  %1792 = bitcast %class.Args* %48 to %class.ArgContext*
  %1793 = invoke zeroext i1 @_ZN6IntArg5parseIiEEbRK6StringRT_RK10ArgContext(%class.IntArg* %49, %class.String* dereferenceable(24) %85, i32* dereferenceable(4) %24, %class.ArgContext* dereferenceable(32) %1792)
          to label %1794 unwind label %1807

; <label>:1794:                                   ; preds = %1791
  %1795 = zext i1 %1793 to i32
  %1796 = icmp eq i32 %1795, 0
  br i1 %1796, label %1797, label %1800

; <label>:1797:                                   ; preds = %1794
  %1798 = load i32, i32* %24, align 4
  %1799 = icmp eq i32 %1798, 2147483647
  br label %1800

; <label>:1800:                                   ; preds = %1797, %1794
  %1801 = phi i1 [ false, %1794 ], [ %1799, %1797 ]
  %1802 = xor i1 %1801, true
  call void @_ZN6StringD2Ev(%class.String* %85) #11
  br i1 %1802, label %1803, label %1811

; <label>:1803:                                   ; preds = %1800
  %1804 = load %class.ErrorHandler*, %class.ErrorHandler** %5, align 8
  %1805 = invoke i32 (%class.ErrorHandler*, i8*, ...) @_ZN12ErrorHandler5errorEPKcz(%class.ErrorHandler* %1804, i8* getelementptr inbounds ([26 x i8], [26 x i8]* @.str.2, i32 0, i32 0), i8* getelementptr inbounds ([43 x i8], [43 x i8]* @.str.3, i32 0, i32 0), i32 158, i8* getelementptr inbounds ([64 x i8], [64 x i8]* @.str.105, i32 0, i32 0))
          to label %1806 unwind label %1280

; <label>:1806:                                   ; preds = %1803
  store i32 %1805, i32* %3, align 4
  store i32 1, i32* %17, align 4
  br label %6754

; <label>:1807:                                   ; preds = %1791
  %1808 = landingpad { i8*, i32 }
          cleanup
  %1809 = extractvalue { i8*, i32 } %1808, 0
  store i8* %1809, i8** %8, align 8
  %1810 = extractvalue { i8*, i32 } %1808, 1
  store i32 %1810, i32* %9, align 4
  call void @_ZN6StringD2Ev(%class.String* %85) #11
  br label %6755

; <label>:1811:                                   ; preds = %1800
  invoke void @_ZN12_GLOBAL__N_118RecordErrorHandler11take_stringEv(%class.String* sret %86, %"class.(anonymous namespace)::RecordErrorHandler"* %47)
          to label %1812 unwind label %1280

; <label>:1812:                                   ; preds = %1811
  %1813 = invoke zeroext i1 @_ZNK6String6equalsEPKci(%class.String* %86, i8* getelementptr inbounds ([31 x i8], [31 x i8]* @.str.102, i32 0, i32 0), i32 -1)
          to label %1814 unwind label %1821

; <label>:1814:                                   ; preds = %1812
  br i1 %1813, label %1825, label %1815

; <label>:1815:                                   ; preds = %1814
  %1816 = load %class.ErrorHandler*, %class.ErrorHandler** %5, align 8
  %1817 = invoke i8* @_ZNK6String5c_strEv(%class.String* %86)
          to label %1818 unwind label %1821

; <label>:1818:                                   ; preds = %1815
  %1819 = invoke i32 (%class.ErrorHandler*, i8*, ...) @_ZN12ErrorHandler5errorEPKcz(%class.ErrorHandler* %1816, i8* getelementptr inbounds ([60 x i8], [60 x i8]* @.str.89, i32 0, i32 0), i8* getelementptr inbounds ([43 x i8], [43 x i8]* @.str.3, i32 0, i32 0), i32 158, i8* getelementptr inbounds ([64 x i8], [64 x i8]* @.str.105, i32 0, i32 0), i8* %1817)
          to label %1820 unwind label %1821

; <label>:1820:                                   ; preds = %1818
  store i32 %1819, i32* %3, align 4
  store i32 1, i32* %17, align 4
  br label %1826

; <label>:1821:                                   ; preds = %1818, %1815, %1812
  %1822 = landingpad { i8*, i32 }
          cleanup
  %1823 = extractvalue { i8*, i32 } %1822, 0
  store i8* %1823, i8** %8, align 8
  %1824 = extractvalue { i8*, i32 } %1822, 1
  store i32 %1824, i32* %9, align 4
  call void @_ZN6StringD2Ev(%class.String* %86) #11
  br label %6755

; <label>:1825:                                   ; preds = %1814
  store i32 0, i32* %17, align 4
  br label %1826

; <label>:1826:                                   ; preds = %1825, %1820
  call void @_ZN6StringD2Ev(%class.String* %86) #11
  %1827 = load i32, i32* %17, align 4
  switch i32 %1827, label %6754 [
    i32 0, label %1828
  ]

; <label>:1828:                                   ; preds = %1826
  br label %1829

; <label>:1829:                                   ; preds = %1828
  br label %1830

; <label>:1830:                                   ; preds = %1829
  br label %1831

; <label>:1831:                                   ; preds = %1830
  invoke void @_ZN6StringC2EPKc(%class.String* %87, i8* getelementptr inbounds ([11 x i8], [11 x i8]* @.str.67, i32 0, i32 0))
          to label %1832 unwind label %1280

; <label>:1832:                                   ; preds = %1831
  %1833 = bitcast %class.Args* %48 to %class.ArgContext*
  %1834 = invoke zeroext i1 @_ZN6IntArg16parse_saturatingIiEEbRK6StringRT_RK10ArgContext(%class.IntArg* %49, %class.String* dereferenceable(24) %87, i32* dereferenceable(4) %24, %class.ArgContext* dereferenceable(32) %1833)
          to label %1835 unwind label %1848

; <label>:1835:                                   ; preds = %1832
  %1836 = zext i1 %1834 to i32
  %1837 = icmp eq i32 %1836, 1
  br i1 %1837, label %1838, label %1841

; <label>:1838:                                   ; preds = %1835
  %1839 = load i32, i32* %24, align 4
  %1840 = icmp eq i32 %1839, 2147483647
  br label %1841

; <label>:1841:                                   ; preds = %1838, %1835
  %1842 = phi i1 [ false, %1835 ], [ %1840, %1838 ]
  %1843 = xor i1 %1842, true
  call void @_ZN6StringD2Ev(%class.String* %87) #11
  br i1 %1843, label %1844, label %1852

; <label>:1844:                                   ; preds = %1841
  %1845 = load %class.ErrorHandler*, %class.ErrorHandler** %5, align 8
  %1846 = invoke i32 (%class.ErrorHandler*, i8*, ...) @_ZN12ErrorHandler5errorEPKcz(%class.ErrorHandler* %1845, i8* getelementptr inbounds ([26 x i8], [26 x i8]* @.str.2, i32 0, i32 0), i8* getelementptr inbounds ([43 x i8], [43 x i8]* @.str.3, i32 0, i32 0), i32 159, i8* getelementptr inbounds ([74 x i8], [74 x i8]* @.str.106, i32 0, i32 0))
          to label %1847 unwind label %1280

; <label>:1847:                                   ; preds = %1844
  store i32 %1846, i32* %3, align 4
  store i32 1, i32* %17, align 4
  br label %6754

; <label>:1848:                                   ; preds = %1832
  %1849 = landingpad { i8*, i32 }
          cleanup
  %1850 = extractvalue { i8*, i32 } %1849, 0
  store i8* %1850, i8** %8, align 8
  %1851 = extractvalue { i8*, i32 } %1849, 1
  store i32 %1851, i32* %9, align 4
  call void @_ZN6StringD2Ev(%class.String* %87) #11
  br label %6755

; <label>:1852:                                   ; preds = %1841
  invoke void @_ZN12_GLOBAL__N_118RecordErrorHandler11take_stringEv(%class.String* sret %88, %"class.(anonymous namespace)::RecordErrorHandler"* %47)
          to label %1853 unwind label %1280

; <label>:1853:                                   ; preds = %1852
  %1854 = invoke zeroext i1 @_ZNK6String6equalsEPKci(%class.String* %88, i8* getelementptr inbounds ([1 x i8], [1 x i8]* @.str.16, i32 0, i32 0), i32 -1)
          to label %1855 unwind label %1862

; <label>:1855:                                   ; preds = %1853
  br i1 %1854, label %1866, label %1856

; <label>:1856:                                   ; preds = %1855
  %1857 = load %class.ErrorHandler*, %class.ErrorHandler** %5, align 8
  %1858 = invoke i8* @_ZNK6String5c_strEv(%class.String* %88)
          to label %1859 unwind label %1862

; <label>:1859:                                   ; preds = %1856
  %1860 = invoke i32 (%class.ErrorHandler*, i8*, ...) @_ZN12ErrorHandler5errorEPKcz(%class.ErrorHandler* %1857, i8* getelementptr inbounds ([60 x i8], [60 x i8]* @.str.89, i32 0, i32 0), i8* getelementptr inbounds ([43 x i8], [43 x i8]* @.str.3, i32 0, i32 0), i32 159, i8* getelementptr inbounds ([74 x i8], [74 x i8]* @.str.106, i32 0, i32 0), i8* %1858)
          to label %1861 unwind label %1862

; <label>:1861:                                   ; preds = %1859
  store i32 %1860, i32* %3, align 4
  store i32 1, i32* %17, align 4
  br label %1867

; <label>:1862:                                   ; preds = %1859, %1856, %1853
  %1863 = landingpad { i8*, i32 }
          cleanup
  %1864 = extractvalue { i8*, i32 } %1863, 0
  store i8* %1864, i8** %8, align 8
  %1865 = extractvalue { i8*, i32 } %1863, 1
  store i32 %1865, i32* %9, align 4
  call void @_ZN6StringD2Ev(%class.String* %88) #11
  br label %6755

; <label>:1866:                                   ; preds = %1855
  store i32 0, i32* %17, align 4
  br label %1867

; <label>:1867:                                   ; preds = %1866, %1861
  call void @_ZN6StringD2Ev(%class.String* %88) #11
  %1868 = load i32, i32* %17, align 4
  switch i32 %1868, label %6754 [
    i32 0, label %1869
  ]

; <label>:1869:                                   ; preds = %1867
  br label %1870

; <label>:1870:                                   ; preds = %1869
  br label %1871

; <label>:1871:                                   ; preds = %1870
  br label %1872

; <label>:1872:                                   ; preds = %1871
  invoke void @_ZN6StringC2EPKc(%class.String* %89, i8* getelementptr inbounds ([12 x i8], [12 x i8]* @.str.69, i32 0, i32 0))
          to label %1873 unwind label %1280

; <label>:1873:                                   ; preds = %1872
  %1874 = bitcast %class.Args* %48 to %class.ArgContext*
  %1875 = invoke zeroext i1 @_ZN6IntArg5parseIiEEbRK6StringRT_RK10ArgContext(%class.IntArg* %49, %class.String* dereferenceable(24) %89, i32* dereferenceable(4) %24, %class.ArgContext* dereferenceable(32) %1874)
          to label %1876 unwind label %1889

; <label>:1876:                                   ; preds = %1873
  %1877 = zext i1 %1875 to i32
  %1878 = icmp eq i32 %1877, 1
  br i1 %1878, label %1879, label %1882

; <label>:1879:                                   ; preds = %1876
  %1880 = load i32, i32* %24, align 4
  %1881 = icmp eq i32 %1880, -2147483648
  br label %1882

; <label>:1882:                                   ; preds = %1879, %1876
  %1883 = phi i1 [ false, %1876 ], [ %1881, %1879 ]
  %1884 = xor i1 %1883, true
  call void @_ZN6StringD2Ev(%class.String* %89) #11
  br i1 %1884, label %1885, label %1893

; <label>:1885:                                   ; preds = %1882
  %1886 = load %class.ErrorHandler*, %class.ErrorHandler** %5, align 8
  %1887 = invoke i32 (%class.ErrorHandler*, i8*, ...) @_ZN12ErrorHandler5errorEPKcz(%class.ErrorHandler* %1886, i8* getelementptr inbounds ([26 x i8], [26 x i8]* @.str.2, i32 0, i32 0), i8* getelementptr inbounds ([43 x i8], [43 x i8]* @.str.3, i32 0, i32 0), i32 160, i8* getelementptr inbounds ([69 x i8], [69 x i8]* @.str.107, i32 0, i32 0))
          to label %1888 unwind label %1280

; <label>:1888:                                   ; preds = %1885
  store i32 %1887, i32* %3, align 4
  store i32 1, i32* %17, align 4
  br label %6754

; <label>:1889:                                   ; preds = %1873
  %1890 = landingpad { i8*, i32 }
          cleanup
  %1891 = extractvalue { i8*, i32 } %1890, 0
  store i8* %1891, i8** %8, align 8
  %1892 = extractvalue { i8*, i32 } %1890, 1
  store i32 %1892, i32* %9, align 4
  call void @_ZN6StringD2Ev(%class.String* %89) #11
  br label %6755

; <label>:1893:                                   ; preds = %1882
  invoke void @_ZN12_GLOBAL__N_118RecordErrorHandler11take_stringEv(%class.String* sret %90, %"class.(anonymous namespace)::RecordErrorHandler"* %47)
          to label %1894 unwind label %1280

; <label>:1894:                                   ; preds = %1893
  %1895 = invoke zeroext i1 @_ZNK6String6equalsEPKci(%class.String* %90, i8* getelementptr inbounds ([1 x i8], [1 x i8]* @.str.16, i32 0, i32 0), i32 -1)
          to label %1896 unwind label %1903

; <label>:1896:                                   ; preds = %1894
  br i1 %1895, label %1907, label %1897

; <label>:1897:                                   ; preds = %1896
  %1898 = load %class.ErrorHandler*, %class.ErrorHandler** %5, align 8
  %1899 = invoke i8* @_ZNK6String5c_strEv(%class.String* %90)
          to label %1900 unwind label %1903

; <label>:1900:                                   ; preds = %1897
  %1901 = invoke i32 (%class.ErrorHandler*, i8*, ...) @_ZN12ErrorHandler5errorEPKcz(%class.ErrorHandler* %1898, i8* getelementptr inbounds ([60 x i8], [60 x i8]* @.str.89, i32 0, i32 0), i8* getelementptr inbounds ([43 x i8], [43 x i8]* @.str.3, i32 0, i32 0), i32 160, i8* getelementptr inbounds ([69 x i8], [69 x i8]* @.str.107, i32 0, i32 0), i8* %1899)
          to label %1902 unwind label %1903

; <label>:1902:                                   ; preds = %1900
  store i32 %1901, i32* %3, align 4
  store i32 1, i32* %17, align 4
  br label %1908

; <label>:1903:                                   ; preds = %1900, %1897, %1894
  %1904 = landingpad { i8*, i32 }
          cleanup
  %1905 = extractvalue { i8*, i32 } %1904, 0
  store i8* %1905, i8** %8, align 8
  %1906 = extractvalue { i8*, i32 } %1904, 1
  store i32 %1906, i32* %9, align 4
  call void @_ZN6StringD2Ev(%class.String* %90) #11
  br label %6755

; <label>:1907:                                   ; preds = %1896
  store i32 0, i32* %17, align 4
  br label %1908

; <label>:1908:                                   ; preds = %1907, %1902
  call void @_ZN6StringD2Ev(%class.String* %90) #11
  %1909 = load i32, i32* %17, align 4
  switch i32 %1909, label %6754 [
    i32 0, label %1910
  ]

; <label>:1910:                                   ; preds = %1908
  br label %1911

; <label>:1911:                                   ; preds = %1910
  br label %1912

; <label>:1912:                                   ; preds = %1911
  br label %1913

; <label>:1913:                                   ; preds = %1912
  invoke void @_ZN6StringC2EPKc(%class.String* %91, i8* getelementptr inbounds ([12 x i8], [12 x i8]* @.str.108, i32 0, i32 0))
          to label %1914 unwind label %1280

; <label>:1914:                                   ; preds = %1913
  %1915 = bitcast %class.Args* %48 to %class.ArgContext*
  %1916 = invoke zeroext i1 @_ZN6IntArg5parseIiEEbRK6StringRT_RK10ArgContext(%class.IntArg* %49, %class.String* dereferenceable(24) %91, i32* dereferenceable(4) %24, %class.ArgContext* dereferenceable(32) %1915)
          to label %1917 unwind label %1930

; <label>:1917:                                   ; preds = %1914
  %1918 = zext i1 %1916 to i32
  %1919 = icmp eq i32 %1918, 0
  br i1 %1919, label %1920, label %1923

; <label>:1920:                                   ; preds = %1917
  %1921 = load i32, i32* %24, align 4
  %1922 = icmp eq i32 %1921, -2147483648
  br label %1923

; <label>:1923:                                   ; preds = %1920, %1917
  %1924 = phi i1 [ false, %1917 ], [ %1922, %1920 ]
  %1925 = xor i1 %1924, true
  call void @_ZN6StringD2Ev(%class.String* %91) #11
  br i1 %1925, label %1926, label %1934

; <label>:1926:                                   ; preds = %1923
  %1927 = load %class.ErrorHandler*, %class.ErrorHandler** %5, align 8
  %1928 = invoke i32 (%class.ErrorHandler*, i8*, ...) @_ZN12ErrorHandler5errorEPKcz(%class.ErrorHandler* %1927, i8* getelementptr inbounds ([26 x i8], [26 x i8]* @.str.2, i32 0, i32 0), i8* getelementptr inbounds ([43 x i8], [43 x i8]* @.str.3, i32 0, i32 0), i32 161, i8* getelementptr inbounds ([70 x i8], [70 x i8]* @.str.109, i32 0, i32 0))
          to label %1929 unwind label %1280

; <label>:1929:                                   ; preds = %1926
  store i32 %1928, i32* %3, align 4
  store i32 1, i32* %17, align 4
  br label %6754

; <label>:1930:                                   ; preds = %1914
  %1931 = landingpad { i8*, i32 }
          cleanup
  %1932 = extractvalue { i8*, i32 } %1931, 0
  store i8* %1932, i8** %8, align 8
  %1933 = extractvalue { i8*, i32 } %1931, 1
  store i32 %1933, i32* %9, align 4
  call void @_ZN6StringD2Ev(%class.String* %91) #11
  br label %6755

; <label>:1934:                                   ; preds = %1923
  invoke void @_ZN12_GLOBAL__N_118RecordErrorHandler11take_stringEv(%class.String* sret %92, %"class.(anonymous namespace)::RecordErrorHandler"* %47)
          to label %1935 unwind label %1280

; <label>:1935:                                   ; preds = %1934
  %1936 = invoke zeroext i1 @_ZNK6String6equalsEPKci(%class.String* %92, i8* getelementptr inbounds ([32 x i8], [32 x i8]* @.str.110, i32 0, i32 0), i32 -1)
          to label %1937 unwind label %1944

; <label>:1937:                                   ; preds = %1935
  br i1 %1936, label %1948, label %1938

; <label>:1938:                                   ; preds = %1937
  %1939 = load %class.ErrorHandler*, %class.ErrorHandler** %5, align 8
  %1940 = invoke i8* @_ZNK6String5c_strEv(%class.String* %92)
          to label %1941 unwind label %1944

; <label>:1941:                                   ; preds = %1938
