; ModuleID = '../../click/elements/ip/decipttl.cc'
source_filename = "../../click/elements/ip/decipttl.cc"
target datalayout = "e-m:e-i64:64-f80:128-n8:16:32:64-S128"
target triple = "x86_64-pc-linux-gnu"

%class.DecIPTTL = type <{ %class.Element.base, %class.atomic_uint32_t, i8, i8, [6 x i8] }>
%class.Element.base = type <{ i32 (...)**, [2 x %"class.Element::Port"*], [4 x %"class.Element::Port"], [2 x i32], %class.Router*, i32 }>
%"class.Element::Port" = type <{ %class.Element*, i32, [4 x i8] }>
%class.Element = type <{ i32 (...)**, [2 x %"class.Element::Port"*], [4 x %"class.Element::Port"], [2 x i32], %class.Router*, i32, [4 x i8] }>
%class.Router = type opaque
%class.atomic_uint32_t = type { i32 }
%class.Vector = type { %class.vector_memory }
%class.vector_memory = type { %class.String*, i32, i32 }
%class.String = type { %"struct.String::rep_t" }
%"struct.String::rep_t" = type { i8*, i32, %"struct.String::memo_t"* }
%"struct.String::memo_t" = type { i32, i32, i32, [8 x i8] }
%class.ErrorHandler = type opaque
%class.Args = type { %class.ArgContext.base, i8, i8, i8, %class.Vector*, %class.Vector.0, %"struct.Args::Slot"*, [48 x i8] }
%class.ArgContext.base = type <{ %class.Element*, %class.ErrorHandler*, i8*, i8 }>
%class.Vector.0 = type { %class.vector_memory.1 }
%class.vector_memory.1 = type { %struct.char_array*, i32, i32 }
%struct.char_array = type opaque
%"struct.Args::Slot" = type { i32 (...)**, %"struct.Args::Slot"* }
%class.Packet = type { %class.atomic_uint32_t, %class.Packet*, i8*, i8*, i8*, i8*, %"struct.Packet::AllAnno", void (i8*, i64, i8*)*, i8* }
%"struct.Packet::AllAnno" = type { %"union.Packet::Anno", i8*, i8*, i8*, i32, [8 x i8], %class.Packet*, %class.Packet* }
%"union.Packet::Anno" = type { [6 x i64] }
%struct.click_ip = type { i8, i8, i16, i16, i16, i8, i8, i16, %struct.in_addr, %struct.in_addr }
%struct.in_addr = type { i32 }
%class.IPAddress = type { i32 }
%class.WritablePacket = type { %class.Packet }
%class.Task = type opaque
%class.Timer = type opaque
%struct.DefaultArg = type { i8 }
%class.ArgContext = type <{ %class.Element*, %class.ErrorHandler*, i8*, i8, [7 x i8] }>

$_ZN15atomic_uint32_taSEj = comdat any

$_ZN4Args4readIbEERS_PKcRT_ = comdat any

$_ZNK6Packet18has_network_headerEv = comdat any

$_ZNK6Packet9ip_headerEv = comdat any

$_ZN9IPAddressC2E7in_addr = comdat any

$_ZNK9IPAddress12is_multicastEv = comdat any

$_ZN15atomic_uint32_tppEv = comdat any

$_ZNK7Element19checked_output_pushEiP6Packet = comdat any

$_ZN6Packet9uniqueifyEv = comdat any

$_ZNK14WritablePacket9ip_headerEv = comdat any

$_ZNK8DecIPTTL10class_nameEv = comdat any

$_ZNK8DecIPTTL10port_countEv = comdat any

$_ZNK8DecIPTTL10processingEv = comdat any

$_ZNK6Packet14network_headerEv = comdat any

$_ZNK7Element8noutputsEv = comdat any

$_ZNK7Element4Port4pushEP6Packet = comdat any

$_ZN6Packet4killEv = comdat any

$_ZN15atomic_uint32_t12dec_and_testEv = comdat any

$_ZNK6Packet6sharedEv = comdat any

$_ZNK15atomic_uint32_tcvjEv = comdat any

$_ZNK15atomic_uint32_t5valueEv = comdat any

$_ZN4Args4readIbEERS_PKciRT_ = comdat any

$_Z14args_base_readIbEvP4ArgsPKciRT_ = comdat any

$_ZN4Args9base_readIbEEvPKciRT_ = comdat any

$_ZNK6StringcvMS_KFivEEv = comdat any

$_ZN17Args_parse_helperI10DefaultArgIbELb0EE4slotIb4ArgsEEPT_RS5_RT0_ = comdat any

$_ZN17Args_parse_helperI10DefaultArgIbELb0EE5parseIb4ArgsEEbS1_RK6StringRT_RT0_ = comdat any

$_ZN6StringD2Ev = comdat any

$_ZNK6String6lengthEv = comdat any

$_ZN4Args4slotIbEEPT_RS1_ = comdat any

$_ZNK6String5derefEv = comdat any

$__clang_call_terminate = comdat any

$_ZN15atomic_uint32_t12dec_and_testERVj = comdat any

@_ZTV8DecIPTTL = unnamed_addr constant { [29 x i8*] } { [29 x i8*] [i8* null, i8* bitcast ({ i8*, i8*, i8* }* @_ZTI8DecIPTTL to i8*), i8* bitcast (void (%class.DecIPTTL*)* @_ZN8DecIPTTLD1Ev to i8*), i8* bitcast (void (%class.DecIPTTL*)* @_ZN8DecIPTTLD0Ev to i8*), i8* bitcast (void (%class.Element*, i32, %class.Packet*)* @_ZN7Element4pushEiP6Packet to i8*), i8* bitcast (%class.Packet* (%class.Element*, i32)* @_ZN7Element4pullEi to i8*), i8* bitcast (%class.Packet* (%class.DecIPTTL*, %class.Packet*)* @_ZN8DecIPTTL13simple_actionEP6Packet to i8*), i8* bitcast (i1 (%class.Element*, %class.Task*)* @_ZN7Element8run_taskEP4Task to i8*), i8* bitcast (void (%class.Element*, %class.Timer*)* @_ZN7Element9run_timerEP5Timer to i8*), i8* bitcast (void (%class.Element*, i32, i32)* @_ZN7Element8selectedEii to i8*), i8* bitcast (void (%class.Element*, i32)* @_ZN7Element8selectedEi to i8*), i8* bitcast (i8* (%class.DecIPTTL*)* @_ZNK8DecIPTTL10class_nameEv to i8*), i8* bitcast (i8* (%class.DecIPTTL*)* @_ZNK8DecIPTTL10port_countEv to i8*), i8* bitcast (i8* (%class.DecIPTTL*)* @_ZNK8DecIPTTL10processingEv to i8*), i8* bitcast (i8* (%class.Element*)* @_ZNK7Element9flow_codeEv to i8*), i8* bitcast (i8* (%class.Element*)* @_ZNK7Element5flagsEv to i8*), i8* bitcast (i8* (%class.Element*, i8*)* @_ZN7Element4castEPKc to i8*), i8* bitcast (i8* (%class.Element*, i1, i32, i8*)* @_ZN7Element9port_castEbiPKc to i8*), i8* bitcast (i32 (%class.Element*)* @_ZNK7Element15configure_phaseEv to i8*), i8* bitcast (i32 (%class.DecIPTTL*, %class.Vector*, %class.ErrorHandler*)* @_ZN8DecIPTTL9configureER6VectorI6StringEP12ErrorHandler to i8*), i8* bitcast (void (%class.DecIPTTL*)* @_ZN8DecIPTTL12add_handlersEv to i8*), i8* bitcast (i32 (%class.Element*, %class.ErrorHandler*)* @_ZN7Element10initializeEP12ErrorHandler to i8*), i8* bitcast (void (%class.Element*, %class.Element*, %class.ErrorHandler*)* @_ZN7Element10take_stateEPS_P12ErrorHandler to i8*), i8* bitcast (%class.Element* (%class.Element*)* @_ZNK7Element15hotswap_elementEv to i8*), i8* bitcast (void (%class.Element*, i32)* @_ZN7Element7cleanupENS_12CleanupStageE to i8*), i8* bitcast (void (%class.String*, %class.Element*)* @_ZNK7Element11declarationEv to i8*), i8* bitcast (i1 (%class.Element*)* @_ZNK7Element20can_live_reconfigureEv to i8*), i8* bitcast (i32 (%class.Element*, %class.Vector*, %class.ErrorHandler*)* @_ZN7Element16live_reconfigureER6VectorI6StringEP12ErrorHandler to i8*), i8* bitcast (i32 (%class.Element*, i32, i8*)* @_ZN7Element5llrpcEjPv to i8*)] }, align 8
@.str = private unnamed_addr constant [7 x i8] c"ACTIVE\00", align 1
@.str.1 = private unnamed_addr constant [10 x i8] c"MULTICAST\00", align 1
@.str.2 = private unnamed_addr constant [24 x i8] c"p->has_network_header()\00", align 1
@.str.3 = private unnamed_addr constant [36 x i8] c"../../click/elements/ip/decipttl.cc\00", align 1
@__PRETTY_FUNCTION__._ZN8DecIPTTL13simple_actionEP6Packet = private unnamed_addr constant [50 x i8] c"virtual Packet *DecIPTTL::simple_action(Packet *)\00", align 1
@.str.4 = private unnamed_addr constant [6 x i8] c"drops\00", align 1
@.str.5 = private unnamed_addr constant [7 x i8] c"active\00", align 1
@_ZTVN10__cxxabiv120__si_class_type_infoE = external global i8*
@_ZTS8DecIPTTL = constant [10 x i8] c"8DecIPTTL\00"
@_ZTI7Element = external constant i8*
@_ZTI8DecIPTTL = constant { i8*, i8*, i8* } { i8* bitcast (i8** getelementptr inbounds (i8*, i8** @_ZTVN10__cxxabiv120__si_class_type_infoE, i64 2) to i8*), i8* getelementptr inbounds ([10 x i8], [10 x i8]* @_ZTS8DecIPTTL, i32 0, i32 0), i8* bitcast (i8** @_ZTI7Element to i8*) }
@.str.6 = private unnamed_addr constant [8 x i8] c"_e && p\00", align 1
@.str.7 = private unnamed_addr constant [36 x i8] c"/usr/local/include/click/element.hh\00", align 1
@__PRETTY_FUNCTION__._ZNK7Element4Port4pushEP6Packet = private unnamed_addr constant [41 x i8] c"void Element::Port::push(Packet *) const\00", align 1
@.str.8 = private unnamed_addr constant [9 x i8] c"DecIPTTL\00", align 1
@_ZN7Element11PORTS_1_1X2E = external constant [0 x i8], align 1
@_ZN7Element15PROCESSING_A_AHE = external constant [0 x i8], align 1
@.str.9 = private unnamed_addr constant [18 x i8] c"_r.memo->refcount\00", align 1
@.str.10 = private unnamed_addr constant [35 x i8] c"/usr/local/include/click/string.hh\00", align 1
@__PRETTY_FUNCTION__._ZNK6String5derefEv = private unnamed_addr constant [27 x i8] c"void String::deref() const\00", align 1

@_ZN8DecIPTTLC1Ev = alias void (%class.DecIPTTL*), void (%class.DecIPTTL*)* @_ZN8DecIPTTLC2Ev
@_ZN8DecIPTTLD1Ev = alias void (%class.DecIPTTL*), void (%class.DecIPTTL*)* @_ZN8DecIPTTLD2Ev

; Function Attrs: noinline optnone uwtable
define void @_ZN8DecIPTTLC2Ev(%class.DecIPTTL*) unnamed_addr #0 align 2 personality i8* bitcast (i32 (...)* @__gxx_personality_v0 to i8*) {
  %2 = alloca %class.DecIPTTL*, align 8
  %3 = alloca i8*
  %4 = alloca i32
  store %class.DecIPTTL* %0, %class.DecIPTTL** %2, align 8
  %5 = load %class.DecIPTTL*, %class.DecIPTTL** %2, align 8
  %6 = bitcast %class.DecIPTTL* %5 to %class.Element*
  call void @_ZN7ElementC2Ev(%class.Element* %6)
  %7 = bitcast %class.DecIPTTL* %5 to i32 (...)***
  store i32 (...)** bitcast (i8** getelementptr inbounds ({ [29 x i8*] }, { [29 x i8*] }* @_ZTV8DecIPTTL, i32 0, inrange i32 0, i32 2) to i32 (...)**), i32 (...)*** %7, align 8
  %8 = getelementptr inbounds %class.DecIPTTL, %class.DecIPTTL* %5, i32 0, i32 1
  %9 = getelementptr inbounds %class.DecIPTTL, %class.DecIPTTL* %5, i32 0, i32 2
  store i8 1, i8* %9, align 8
  %10 = getelementptr inbounds %class.DecIPTTL, %class.DecIPTTL* %5, i32 0, i32 3
  store i8 1, i8* %10, align 1
  %11 = getelementptr inbounds %class.DecIPTTL, %class.DecIPTTL* %5, i32 0, i32 1
  %12 = invoke dereferenceable(4) %class.atomic_uint32_t* @_ZN15atomic_uint32_taSEj(%class.atomic_uint32_t* %11, i32 0)
          to label %13 unwind label %14

; <label>:13:                                     ; preds = %1
  ret void

; <label>:14:                                     ; preds = %1
  %15 = landingpad { i8*, i32 }
          cleanup
  %16 = extractvalue { i8*, i32 } %15, 0
  store i8* %16, i8** %3, align 8
  %17 = extractvalue { i8*, i32 } %15, 1
  store i32 %17, i32* %4, align 4
  %18 = bitcast %class.DecIPTTL* %5 to %class.Element*
  call void @_ZN7ElementD2Ev(%class.Element* %18) #9
  br label %19

; <label>:19:                                     ; preds = %14
  %20 = load i8*, i8** %3, align 8
  %21 = load i32, i32* %4, align 4
  %22 = insertvalue { i8*, i32 } undef, i8* %20, 0
  %23 = insertvalue { i8*, i32 } %22, i32 %21, 1
  resume { i8*, i32 } %23
}

declare void @_ZN7ElementC2Ev(%class.Element*) unnamed_addr #1

; Function Attrs: noinline nounwind optnone uwtable
define linkonce_odr dereferenceable(4) %class.atomic_uint32_t* @_ZN15atomic_uint32_taSEj(%class.atomic_uint32_t*, i32) #2 comdat align 2 {
  %3 = alloca %class.atomic_uint32_t*, align 8
  %4 = alloca i32, align 4
  store %class.atomic_uint32_t* %0, %class.atomic_uint32_t** %3, align 8
  store i32 %1, i32* %4, align 4
  %5 = load %class.atomic_uint32_t*, %class.atomic_uint32_t** %3, align 8
  %6 = load i32, i32* %4, align 4
  %7 = getelementptr inbounds %class.atomic_uint32_t, %class.atomic_uint32_t* %5, i32 0, i32 0
  store i32 %6, i32* %7, align 4
  ret %class.atomic_uint32_t* %5
}

declare i32 @__gxx_personality_v0(...)

; Function Attrs: nounwind
declare void @_ZN7ElementD2Ev(%class.Element*) unnamed_addr #3

; Function Attrs: noinline nounwind optnone uwtable
define void @_ZN8DecIPTTLD2Ev(%class.DecIPTTL*) unnamed_addr #2 align 2 {
  %2 = alloca %class.DecIPTTL*, align 8
  store %class.DecIPTTL* %0, %class.DecIPTTL** %2, align 8
  %3 = load %class.DecIPTTL*, %class.DecIPTTL** %2, align 8
  %4 = bitcast %class.DecIPTTL* %3 to %class.Element*
  call void @_ZN7ElementD2Ev(%class.Element* %4) #9
  ret void
}

; Function Attrs: noinline nounwind optnone uwtable
define void @_ZN8DecIPTTLD0Ev(%class.DecIPTTL*) unnamed_addr #2 align 2 {
  %2 = alloca %class.DecIPTTL*, align 8
  store %class.DecIPTTL* %0, %class.DecIPTTL** %2, align 8
  %3 = load %class.DecIPTTL*, %class.DecIPTTL** %2, align 8
  call void @_ZN8DecIPTTLD1Ev(%class.DecIPTTL* %3) #9
  %4 = bitcast %class.DecIPTTL* %3 to i8*
  call void @_ZdlPv(i8* %4) #10
  ret void
}

; Function Attrs: nobuiltin nounwind
declare void @_ZdlPv(i8*) #4

; Function Attrs: noinline optnone uwtable
define i32 @_ZN8DecIPTTL9configureER6VectorI6StringEP12ErrorHandler(%class.DecIPTTL*, %class.Vector* dereferenceable(16), %class.ErrorHandler*) unnamed_addr #0 align 2 personality i8* bitcast (i32 (...)* @__gxx_personality_v0 to i8*) {
  %4 = alloca %class.DecIPTTL*, align 8
  %5 = alloca %class.Vector*, align 8
  %6 = alloca %class.ErrorHandler*, align 8
  %7 = alloca %class.Args, align 8
  %8 = alloca i8*
  %9 = alloca i32
  store %class.DecIPTTL* %0, %class.DecIPTTL** %4, align 8
  store %class.Vector* %1, %class.Vector** %5, align 8
  store %class.ErrorHandler* %2, %class.ErrorHandler** %6, align 8
  %10 = load %class.DecIPTTL*, %class.DecIPTTL** %4, align 8
  %11 = load %class.Vector*, %class.Vector** %5, align 8
  %12 = bitcast %class.DecIPTTL* %10 to %class.Element*
  %13 = load %class.ErrorHandler*, %class.ErrorHandler** %6, align 8
  call void @_ZN4ArgsC1ERK6VectorI6StringEPK7ElementP12ErrorHandler(%class.Args* %7, %class.Vector* dereferenceable(16) %11, %class.Element* %12, %class.ErrorHandler* %13)
  %14 = getelementptr inbounds %class.DecIPTTL, %class.DecIPTTL* %10, i32 0, i32 2
  %15 = invoke dereferenceable(112) %class.Args* @_ZN4Args4readIbEERS_PKcRT_(%class.Args* %7, i8* getelementptr inbounds ([7 x i8], [7 x i8]* @.str, i32 0, i32 0), i8* dereferenceable(1) %14)
          to label %16 unwind label %22

; <label>:16:                                     ; preds = %3
  %17 = getelementptr inbounds %class.DecIPTTL, %class.DecIPTTL* %10, i32 0, i32 3
  %18 = invoke dereferenceable(112) %class.Args* @_ZN4Args4readIbEERS_PKcRT_(%class.Args* %15, i8* getelementptr inbounds ([10 x i8], [10 x i8]* @.str.1, i32 0, i32 0), i8* dereferenceable(1) %17)
          to label %19 unwind label %22

; <label>:19:                                     ; preds = %16
  %20 = invoke i32 @_ZN4Args8completeEv(%class.Args* %18)
          to label %21 unwind label %22

; <label>:21:                                     ; preds = %19
  call void @_ZN4ArgsD1Ev(%class.Args* %7) #9
  ret i32 %20

; <label>:22:                                     ; preds = %19, %16, %3
  %23 = landingpad { i8*, i32 }
          cleanup
  %24 = extractvalue { i8*, i32 } %23, 0
  store i8* %24, i8** %8, align 8
  %25 = extractvalue { i8*, i32 } %23, 1
  store i32 %25, i32* %9, align 4
  call void @_ZN4ArgsD1Ev(%class.Args* %7) #9
  br label %26

; <label>:26:                                     ; preds = %22
  %27 = load i8*, i8** %8, align 8
  %28 = load i32, i32* %9, align 4
  %29 = insertvalue { i8*, i32 } undef, i8* %27, 0
  %30 = insertvalue { i8*, i32 } %29, i32 %28, 1
  resume { i8*, i32 } %30
}

declare void @_ZN4ArgsC1ERK6VectorI6StringEPK7ElementP12ErrorHandler(%class.Args*, %class.Vector* dereferenceable(16), %class.Element*, %class.ErrorHandler*) unnamed_addr #1

; Function Attrs: noinline optnone uwtable
define linkonce_odr dereferenceable(112) %class.Args* @_ZN4Args4readIbEERS_PKcRT_(%class.Args*, i8*, i8* dereferenceable(1)) #0 comdat align 2 {
  %4 = alloca %class.Args*, align 8
  %5 = alloca i8*, align 8
  %6 = alloca i8*, align 8
  store %class.Args* %0, %class.Args** %4, align 8
  store i8* %1, i8** %5, align 8
  store i8* %2, i8** %6, align 8
  %7 = load %class.Args*, %class.Args** %4, align 8
  %8 = load i8*, i8** %5, align 8
  %9 = load i8*, i8** %6, align 8
  %10 = call dereferenceable(112) %class.Args* @_ZN4Args4readIbEERS_PKciRT_(%class.Args* %7, i8* %8, i32 0, i8* dereferenceable(1) %9)
  ret %class.Args* %10
}

declare i32 @_ZN4Args8completeEv(%class.Args*) #1

; Function Attrs: nounwind
declare void @_ZN4ArgsD1Ev(%class.Args*) unnamed_addr #3

; Function Attrs: noinline optnone uwtable
define %class.Packet* @_ZN8DecIPTTL13simple_actionEP6Packet(%class.DecIPTTL*, %class.Packet*) unnamed_addr #0 align 2 {
  %3 = alloca %class.Packet*, align 8
  %4 = alloca %class.DecIPTTL*, align 8
  %5 = alloca %class.Packet*, align 8
  %6 = alloca %struct.click_ip*, align 8
  %7 = alloca %class.IPAddress, align 4
  %8 = alloca %struct.in_addr, align 4
  %9 = alloca %class.WritablePacket*, align 8
  %10 = alloca %struct.click_ip*, align 8
  %11 = alloca i64, align 8
  store %class.DecIPTTL* %0, %class.DecIPTTL** %4, align 8
  store %class.Packet* %1, %class.Packet** %5, align 8
  %12 = load %class.DecIPTTL*, %class.DecIPTTL** %4, align 8
  %13 = load %class.Packet*, %class.Packet** %5, align 8
  %14 = call zeroext i1 @_ZNK6Packet18has_network_headerEv(%class.Packet* %13)
  br i1 %14, label %15, label %16

; <label>:15:                                     ; preds = %2
  br label %18

; <label>:16:                                     ; preds = %2
  call void @__assert_fail(i8* getelementptr inbounds ([24 x i8], [24 x i8]* @.str.2, i32 0, i32 0), i8* getelementptr inbounds ([36 x i8], [36 x i8]* @.str.3, i32 0, i32 0), i32 47, i8* getelementptr inbounds ([50 x i8], [50 x i8]* @__PRETTY_FUNCTION__._ZN8DecIPTTL13simple_actionEP6Packet, i32 0, i32 0)) #11
  unreachable
                                                  ; No predecessors!
  br label %18

; <label>:18:                                     ; preds = %17, %15
  %19 = getelementptr inbounds %class.DecIPTTL, %class.DecIPTTL* %12, i32 0, i32 2
  %20 = load i8, i8* %19, align 8
  %21 = trunc i8 %20 to i1
  br i1 %21, label %24, label %22

; <label>:22:                                     ; preds = %18
  %23 = load %class.Packet*, %class.Packet** %5, align 8
  store %class.Packet* %23, %class.Packet** %3, align 8
  br label %87

; <label>:24:                                     ; preds = %18
  %25 = load %class.Packet*, %class.Packet** %5, align 8
  %26 = call %struct.click_ip* @_ZNK6Packet9ip_headerEv(%class.Packet* %25)
  store %struct.click_ip* %26, %struct.click_ip** %6, align 8
  %27 = getelementptr inbounds %class.DecIPTTL, %class.DecIPTTL* %12, i32 0, i32 3
  %28 = load i8, i8* %27, align 1
  %29 = trunc i8 %28 to i1
  br i1 %29, label %38, label %30

; <label>:30:                                     ; preds = %24
  %31 = load %struct.click_ip*, %struct.click_ip** %6, align 8
  %32 = getelementptr inbounds %struct.click_ip, %struct.click_ip* %31, i32 0, i32 9
  %33 = bitcast %struct.in_addr* %8 to i8*
  %34 = bitcast %struct.in_addr* %32 to i8*
  call void @llvm.memcpy.p0i8.p0i8.i64(i8* %33, i8* %34, i64 4, i32 4, i1 false)
  %35 = getelementptr inbounds %struct.in_addr, %struct.in_addr* %8, i32 0, i32 0
  %36 = load i32, i32* %35, align 4
  call void @_ZN9IPAddressC2E7in_addr(%class.IPAddress* %7, i32 %36)
  %37 = call zeroext i1 @_ZNK9IPAddress12is_multicastEv(%class.IPAddress* %7)
  br label %38

; <label>:38:                                     ; preds = %30, %24
  %39 = phi i1 [ false, %24 ], [ %37, %30 ]
  br i1 %39, label %40, label %42

; <label>:40:                                     ; preds = %38
  %41 = load %class.Packet*, %class.Packet** %5, align 8
  store %class.Packet* %41, %class.Packet** %3, align 8
  br label %87

; <label>:42:                                     ; preds = %38
  %43 = load %struct.click_ip*, %struct.click_ip** %6, align 8
  %44 = getelementptr inbounds %struct.click_ip, %struct.click_ip* %43, i32 0, i32 5
  %45 = load i8, i8* %44, align 4
  %46 = zext i8 %45 to i32
  %47 = icmp sle i32 %46, 1
  br i1 %47, label %48, label %52

; <label>:48:                                     ; preds = %42
  %49 = getelementptr inbounds %class.DecIPTTL, %class.DecIPTTL* %12, i32 0, i32 1
  call void @_ZN15atomic_uint32_tppEv(%class.atomic_uint32_t* %49)
  %50 = bitcast %class.DecIPTTL* %12 to %class.Element*
  %51 = load %class.Packet*, %class.Packet** %5, align 8
  call void @_ZNK7Element19checked_output_pushEiP6Packet(%class.Element* %50, i32 1, %class.Packet* %51)
  store %class.Packet* null, %class.Packet** %3, align 8
  br label %87

; <label>:52:                                     ; preds = %42
  %53 = load %class.Packet*, %class.Packet** %5, align 8
  %54 = call %class.WritablePacket* @_ZN6Packet9uniqueifyEv(%class.Packet* %53)
  store %class.WritablePacket* %54, %class.WritablePacket** %9, align 8
  %55 = load %class.WritablePacket*, %class.WritablePacket** %9, align 8
  %56 = icmp ne %class.WritablePacket* %55, null
  br i1 %56, label %58, label %57

; <label>:57:                                     ; preds = %52
  store %class.Packet* null, %class.Packet** %3, align 8
  br label %87

; <label>:58:                                     ; preds = %52
  %59 = load %class.WritablePacket*, %class.WritablePacket** %9, align 8
  %60 = call %struct.click_ip* @_ZNK14WritablePacket9ip_headerEv(%class.WritablePacket* %59)
  store %struct.click_ip* %60, %struct.click_ip** %10, align 8
  %61 = load %struct.click_ip*, %struct.click_ip** %10, align 8
  %62 = getelementptr inbounds %struct.click_ip, %struct.click_ip* %61, i32 0, i32 5
  %63 = load i8, i8* %62, align 4
  %64 = add i8 %63, -1
  store i8 %64, i8* %62, align 4
  %65 = load %struct.click_ip*, %struct.click_ip** %10, align 8
  %66 = getelementptr inbounds %struct.click_ip, %struct.click_ip* %65, i32 0, i32 7
  %67 = load i16, i16* %66, align 2
  %68 = call zeroext i16 @ntohs(i16 zeroext %67) #12
  %69 = zext i16 %68 to i32
  %70 = xor i32 %69, -1
  %71 = and i32 %70, 65535
  %72 = add nsw i32 %71, 65279
  %73 = sext i32 %72 to i64
  store i64 %73, i64* %11, align 8
  %74 = load i64, i64* %11, align 8
  %75 = load i64, i64* %11, align 8
  %76 = lshr i64 %75, 16
  %77 = add i64 %74, %76
  %78 = trunc i64 %77 to i16
  %79 = call zeroext i16 @htons(i16 zeroext %78) #12
  %80 = zext i16 %79 to i32
  %81 = xor i32 %80, -1
  %82 = trunc i32 %81 to i16
  %83 = load %struct.click_ip*, %struct.click_ip** %10, align 8
  %84 = getelementptr inbounds %struct.click_ip, %struct.click_ip* %83, i32 0, i32 7
  store i16 %82, i16* %84, align 2
  %85 = load %class.WritablePacket*, %class.WritablePacket** %9, align 8
  %86 = bitcast %class.WritablePacket* %85 to %class.Packet*
  store %class.Packet* %86, %class.Packet** %3, align 8
  br label %87

; <label>:87:                                     ; preds = %58, %57, %48, %40, %22
  %88 = load %class.Packet*, %class.Packet** %3, align 8
  ret %class.Packet* %88
}

; Function Attrs: noinline nounwind optnone uwtable
define linkonce_odr zeroext i1 @_ZNK6Packet18has_network_headerEv(%class.Packet*) #2 comdat align 2 {
  %2 = alloca %class.Packet*, align 8
  store %class.Packet* %0, %class.Packet** %2, align 8
  %3 = load %class.Packet*, %class.Packet** %2, align 8
  %4 = getelementptr inbounds %class.Packet, %class.Packet* %3, i32 0, i32 6
  %5 = getelementptr inbounds %"struct.Packet::AllAnno", %"struct.Packet::AllAnno"* %4, i32 0, i32 2
  %6 = load i8*, i8** %5, align 8
  %7 = icmp ne i8* %6, null
  ret i1 %7
}

; Function Attrs: noreturn nounwind
declare void @__assert_fail(i8*, i8*, i32, i8*) #5

; Function Attrs: noinline optnone uwtable
define linkonce_odr %struct.click_ip* @_ZNK6Packet9ip_headerEv(%class.Packet*) #0 comdat align 2 {
  %2 = alloca %class.Packet*, align 8
  store %class.Packet* %0, %class.Packet** %2, align 8
  %3 = load %class.Packet*, %class.Packet** %2, align 8
  %4 = call i8* @_ZNK6Packet14network_headerEv(%class.Packet* %3)
  %5 = bitcast i8* %4 to %struct.click_ip*
  ret %struct.click_ip* %5
}

; Function Attrs: argmemonly nounwind
declare void @llvm.memcpy.p0i8.p0i8.i64(i8* nocapture writeonly, i8* nocapture readonly, i64, i32, i1) #6

; Function Attrs: noinline nounwind optnone uwtable
define linkonce_odr void @_ZN9IPAddressC2E7in_addr(%class.IPAddress*, i32) unnamed_addr #2 comdat align 2 {
  %3 = alloca %struct.in_addr, align 4
  %4 = alloca %class.IPAddress*, align 8
  %5 = getelementptr inbounds %struct.in_addr, %struct.in_addr* %3, i32 0, i32 0
  store i32 %1, i32* %5, align 4
  store %class.IPAddress* %0, %class.IPAddress** %4, align 8
  %6 = load %class.IPAddress*, %class.IPAddress** %4, align 8
  %7 = getelementptr inbounds %class.IPAddress, %class.IPAddress* %6, i32 0, i32 0
  %8 = getelementptr inbounds %struct.in_addr, %struct.in_addr* %3, i32 0, i32 0
  %9 = load i32, i32* %8, align 4
  store i32 %9, i32* %7, align 4
  ret void
}

; Function Attrs: noinline nounwind optnone uwtable
define linkonce_odr zeroext i1 @_ZNK9IPAddress12is_multicastEv(%class.IPAddress*) #2 comdat align 2 {
  %2 = alloca %class.IPAddress*, align 8
  store %class.IPAddress* %0, %class.IPAddress** %2, align 8
  %3 = load %class.IPAddress*, %class.IPAddress** %2, align 8
  %4 = getelementptr inbounds %class.IPAddress, %class.IPAddress* %3, i32 0, i32 0
  %5 = load i32, i32* %4, align 4
  %6 = call i32 @htonl(i32 -268435456) #12
  %7 = and i32 %5, %6
  %8 = call i32 @htonl(i32 -536870912) #12
  %9 = icmp eq i32 %7, %8
  ret i1 %9
}

; Function Attrs: noinline nounwind optnone uwtable
define linkonce_odr void @_ZN15atomic_uint32_tppEv(%class.atomic_uint32_t*) #2 comdat align 2 {
  %2 = alloca %class.atomic_uint32_t*, align 8
  store %class.atomic_uint32_t* %0, %class.atomic_uint32_t** %2, align 8
  %3 = load %class.atomic_uint32_t*, %class.atomic_uint32_t** %2, align 8
  %4 = getelementptr inbounds %class.atomic_uint32_t, %class.atomic_uint32_t* %3, i32 0, i32 0
  %5 = load i32, i32* %4, align 4
  %6 = add i32 %5, 1
  store i32 %6, i32* %4, align 4
  ret void
}

; Function Attrs: noinline optnone uwtable
define linkonce_odr void @_ZNK7Element19checked_output_pushEiP6Packet(%class.Element*, i32, %class.Packet*) #0 comdat align 2 {
  %4 = alloca %class.Element*, align 8
  %5 = alloca i32, align 4
  %6 = alloca %class.Packet*, align 8
  store %class.Element* %0, %class.Element** %4, align 8
  store i32 %1, i32* %5, align 4
  store %class.Packet* %2, %class.Packet** %6, align 8
  %7 = load %class.Element*, %class.Element** %4, align 8
  %8 = load i32, i32* %5, align 4
  %9 = call i32 @_ZNK7Element8noutputsEv(%class.Element* %7)
  %10 = icmp ult i32 %8, %9
  br i1 %10, label %11, label %19

; <label>:11:                                     ; preds = %3
  %12 = getelementptr inbounds %class.Element, %class.Element* %7, i32 0, i32 1
  %13 = getelementptr inbounds [2 x %"class.Element::Port"*], [2 x %"class.Element::Port"*]* %12, i64 0, i64 1
  %14 = load %"class.Element::Port"*, %"class.Element::Port"** %13, align 8
  %15 = load i32, i32* %5, align 4
  %16 = sext i32 %15 to i64
  %17 = getelementptr inbounds %"class.Element::Port", %"class.Element::Port"* %14, i64 %16
  %18 = load %class.Packet*, %class.Packet** %6, align 8
  call void @_ZNK7Element4Port4pushEP6Packet(%"class.Element::Port"* %17, %class.Packet* %18)
  br label %21

; <label>:19:                                     ; preds = %3
  %20 = load %class.Packet*, %class.Packet** %6, align 8
  call void @_ZN6Packet4killEv(%class.Packet* %20)
  br label %21

; <label>:21:                                     ; preds = %19, %11
  ret void
}

; Function Attrs: noinline optnone uwtable
define linkonce_odr %class.WritablePacket* @_ZN6Packet9uniqueifyEv(%class.Packet*) #0 comdat align 2 {
  %2 = alloca %class.WritablePacket*, align 8
  %3 = alloca %class.Packet*, align 8
  store %class.Packet* %0, %class.Packet** %3, align 8
  %4 = load %class.Packet*, %class.Packet** %3, align 8
  %5 = call zeroext i1 @_ZNK6Packet6sharedEv(%class.Packet* %4)
  br i1 %5, label %8, label %6

; <label>:6:                                      ; preds = %1
  %7 = bitcast %class.Packet* %4 to %class.WritablePacket*
  store %class.WritablePacket* %7, %class.WritablePacket** %2, align 8
  br label %10

; <label>:8:                                      ; preds = %1
  %9 = call %class.WritablePacket* @_ZN6Packet19expensive_uniqueifyEiib(%class.Packet* %4, i32 0, i32 0, i1 zeroext true)
  store %class.WritablePacket* %9, %class.WritablePacket** %2, align 8
  br label %10

; <label>:10:                                     ; preds = %8, %6
  %11 = load %class.WritablePacket*, %class.WritablePacket** %2, align 8
  ret %class.WritablePacket* %11
}

; Function Attrs: noinline optnone uwtable
define linkonce_odr %struct.click_ip* @_ZNK14WritablePacket9ip_headerEv(%class.WritablePacket*) #0 comdat align 2 {
  %2 = alloca %class.WritablePacket*, align 8
  store %class.WritablePacket* %0, %class.WritablePacket** %2, align 8
  %3 = load %class.WritablePacket*, %class.WritablePacket** %2, align 8
  %4 = bitcast %class.WritablePacket* %3 to %class.Packet*
  %5 = call %struct.click_ip* @_ZNK6Packet9ip_headerEv(%class.Packet* %4)
  ret %struct.click_ip* %5
}

; Function Attrs: nounwind readnone
declare zeroext i16 @ntohs(i16 zeroext) #7

; Function Attrs: nounwind readnone
declare zeroext i16 @htons(i16 zeroext) #7

; Function Attrs: noinline optnone uwtable
define void @_ZN8DecIPTTL12add_handlersEv(%class.DecIPTTL*) unnamed_addr #0 align 2 {
  %2 = alloca %class.DecIPTTL*, align 8
  store %class.DecIPTTL* %0, %class.DecIPTTL** %2, align 8
  %3 = load %class.DecIPTTL*, %class.DecIPTTL** %2, align 8
  %4 = bitcast %class.DecIPTTL* %3 to %class.Element*
  %5 = getelementptr inbounds %class.DecIPTTL, %class.DecIPTTL* %3, i32 0, i32 1
  call void @_ZN7Element17add_data_handlersEPKciP15atomic_uint32_t(%class.Element* %4, i8* getelementptr inbounds ([6 x i8], [6 x i8]* @.str.4, i32 0, i32 0), i32 1, %class.atomic_uint32_t* %5)
  %6 = bitcast %class.DecIPTTL* %3 to %class.Element*
  %7 = getelementptr inbounds %class.DecIPTTL, %class.DecIPTTL* %3, i32 0, i32 2
  call void @_ZN7Element17add_data_handlersEPKciPb(%class.Element* %6, i8* getelementptr inbounds ([7 x i8], [7 x i8]* @.str.5, i32 0, i32 0), i32 16387, i8* %7)
  ret void
}

declare void @_ZN7Element17add_data_handlersEPKciP15atomic_uint32_t(%class.Element*, i8*, i32, %class.atomic_uint32_t*) #1

declare void @_ZN7Element17add_data_handlersEPKciPb(%class.Element*, i8*, i32, i8*) #1

declare void @_ZN7Element4pushEiP6Packet(%class.Element*, i32, %class.Packet*) unnamed_addr #1

declare %class.Packet* @_ZN7Element4pullEi(%class.Element*, i32) unnamed_addr #1

declare zeroext i1 @_ZN7Element8run_taskEP4Task(%class.Element*, %class.Task*) unnamed_addr #1

declare void @_ZN7Element9run_timerEP5Timer(%class.Element*, %class.Timer*) unnamed_addr #1

declare void @_ZN7Element8selectedEii(%class.Element*, i32, i32) unnamed_addr #1

declare void @_ZN7Element8selectedEi(%class.Element*, i32) unnamed_addr #1

; Function Attrs: noinline nounwind optnone uwtable
define linkonce_odr i8* @_ZNK8DecIPTTL10class_nameEv(%class.DecIPTTL*) unnamed_addr #2 comdat align 2 {
  %2 = alloca %class.DecIPTTL*, align 8
  store %class.DecIPTTL* %0, %class.DecIPTTL** %2, align 8
  %3 = load %class.DecIPTTL*, %class.DecIPTTL** %2, align 8
  ret i8* getelementptr inbounds ([9 x i8], [9 x i8]* @.str.8, i32 0, i32 0)
}

; Function Attrs: noinline nounwind optnone uwtable
define linkonce_odr i8* @_ZNK8DecIPTTL10port_countEv(%class.DecIPTTL*) unnamed_addr #2 comdat align 2 {
  %2 = alloca %class.DecIPTTL*, align 8
  store %class.DecIPTTL* %0, %class.DecIPTTL** %2, align 8
  %3 = load %class.DecIPTTL*, %class.DecIPTTL** %2, align 8
  ret i8* getelementptr inbounds ([0 x i8], [0 x i8]* @_ZN7Element11PORTS_1_1X2E, i32 0, i32 0)
}

; Function Attrs: noinline nounwind optnone uwtable
define linkonce_odr i8* @_ZNK8DecIPTTL10processingEv(%class.DecIPTTL*) unnamed_addr #2 comdat align 2 {
  %2 = alloca %class.DecIPTTL*, align 8
  store %class.DecIPTTL* %0, %class.DecIPTTL** %2, align 8
  %3 = load %class.DecIPTTL*, %class.DecIPTTL** %2, align 8
  ret i8* getelementptr inbounds ([0 x i8], [0 x i8]* @_ZN7Element15PROCESSING_A_AHE, i32 0, i32 0)
}

declare i8* @_ZNK7Element9flow_codeEv(%class.Element*) unnamed_addr #1

declare i8* @_ZNK7Element5flagsEv(%class.Element*) unnamed_addr #1

declare i8* @_ZN7Element4castEPKc(%class.Element*, i8*) unnamed_addr #1

declare i8* @_ZN7Element9port_castEbiPKc(%class.Element*, i1 zeroext, i32, i8*) unnamed_addr #1

declare i32 @_ZNK7Element15configure_phaseEv(%class.Element*) unnamed_addr #1

declare i32 @_ZN7Element10initializeEP12ErrorHandler(%class.Element*, %class.ErrorHandler*) unnamed_addr #1

declare void @_ZN7Element10take_stateEPS_P12ErrorHandler(%class.Element*, %class.Element*, %class.ErrorHandler*) unnamed_addr #1

declare %class.Element* @_ZNK7Element15hotswap_elementEv(%class.Element*) unnamed_addr #1

declare void @_ZN7Element7cleanupENS_12CleanupStageE(%class.Element*, i32) unnamed_addr #1

declare void @_ZNK7Element11declarationEv(%class.String* sret, %class.Element*) unnamed_addr #1

declare zeroext i1 @_ZNK7Element20can_live_reconfigureEv(%class.Element*) unnamed_addr #1

declare i32 @_ZN7Element16live_reconfigureER6VectorI6StringEP12ErrorHandler(%class.Element*, %class.Vector* dereferenceable(16), %class.ErrorHandler*) unnamed_addr #1

declare i32 @_ZN7Element5llrpcEjPv(%class.Element*, i32, i8*) unnamed_addr #1

; Function Attrs: noinline nounwind optnone uwtable
define linkonce_odr i8* @_ZNK6Packet14network_headerEv(%class.Packet*) #2 comdat align 2 {
  %2 = alloca %class.Packet*, align 8
  store %class.Packet* %0, %class.Packet** %2, align 8
  %3 = load %class.Packet*, %class.Packet** %2, align 8
  %4 = getelementptr inbounds %class.Packet, %class.Packet* %3, i32 0, i32 6
  %5 = getelementptr inbounds %"struct.Packet::AllAnno", %"struct.Packet::AllAnno"* %4, i32 0, i32 2
  %6 = load i8*, i8** %5, align 8
  ret i8* %6
}

; Function Attrs: nounwind readnone
declare i32 @htonl(i32) #7

; Function Attrs: noinline nounwind optnone uwtable
define linkonce_odr i32 @_ZNK7Element8noutputsEv(%class.Element*) #2 comdat align 2 {
  %2 = alloca %class.Element*, align 8
  store %class.Element* %0, %class.Element** %2, align 8
  %3 = load %class.Element*, %class.Element** %2, align 8
  %4 = getelementptr inbounds %class.Element, %class.Element* %3, i32 0, i32 3
  %5 = getelementptr inbounds [2 x i32], [2 x i32]* %4, i64 0, i64 1
  %6 = load i32, i32* %5, align 4
  ret i32 %6
}

; Function Attrs: noinline optnone uwtable
define linkonce_odr void @_ZNK7Element4Port4pushEP6Packet(%"class.Element::Port"*, %class.Packet*) #0 comdat align 2 {
  %3 = alloca %"class.Element::Port"*, align 8
  %4 = alloca %class.Packet*, align 8
  store %"class.Element::Port"* %0, %"class.Element::Port"** %3, align 8
  store %class.Packet* %1, %class.Packet** %4, align 8
  %5 = load %"class.Element::Port"*, %"class.Element::Port"** %3, align 8
  %6 = getelementptr inbounds %"class.Element::Port", %"class.Element::Port"* %5, i32 0, i32 0
  %7 = load %class.Element*, %class.Element** %6, align 8
  %8 = icmp ne %class.Element* %7, null
  br i1 %8, label %9, label %12

; <label>:9:                                      ; preds = %2
  %10 = load %class.Packet*, %class.Packet** %4, align 8
  %11 = icmp ne %class.Packet* %10, null
  br label %12

; <label>:12:                                     ; preds = %9, %2
  %13 = phi i1 [ false, %2 ], [ %11, %9 ]
  br i1 %13, label %14, label %15

; <label>:14:                                     ; preds = %12
  br label %17

; <label>:15:                                     ; preds = %12
  call void @__assert_fail(i8* getelementptr inbounds ([8 x i8], [8 x i8]* @.str.6, i32 0, i32 0), i8* getelementptr inbounds ([36 x i8], [36 x i8]* @.str.7, i32 0, i32 0), i32 611, i8* getelementptr inbounds ([41 x i8], [41 x i8]* @__PRETTY_FUNCTION__._ZNK7Element4Port4pushEP6Packet, i32 0, i32 0)) #11
  unreachable
                                                  ; No predecessors!
  br label %17

; <label>:17:                                     ; preds = %16, %14
  %18 = getelementptr inbounds %"class.Element::Port", %"class.Element::Port"* %5, i32 0, i32 0
  %19 = load %class.Element*, %class.Element** %18, align 8
  %20 = bitcast %class.Element* %19 to void (%class.Element*, i32, %class.Packet*)***
  %21 = load void (%class.Element*, i32, %class.Packet*)**, void (%class.Element*, i32, %class.Packet*)*** %20, align 8
  %22 = getelementptr inbounds void (%class.Element*, i32, %class.Packet*)*, void (%class.Element*, i32, %class.Packet*)** %21, i64 2
  %23 = load void (%class.Element*, i32, %class.Packet*)*, void (%class.Element*, i32, %class.Packet*)** %22, align 8
  %24 = getelementptr inbounds %"class.Element::Port", %"class.Element::Port"* %5, i32 0, i32 1
  %25 = load i32, i32* %24, align 8
  %26 = load %class.Packet*, %class.Packet** %4, align 8
  call void %23(%class.Element* %19, i32 %25, %class.Packet* %26)
  ret void
}

; Function Attrs: noinline optnone uwtable
define linkonce_odr void @_ZN6Packet4killEv(%class.Packet*) #0 comdat align 2 {
  %2 = alloca %class.Packet*, align 8
  store %class.Packet* %0, %class.Packet** %2, align 8
  %3 = load %class.Packet*, %class.Packet** %2, align 8
  %4 = getelementptr inbounds %class.Packet, %class.Packet* %3, i32 0, i32 0
  %5 = call zeroext i1 @_ZN15atomic_uint32_t12dec_and_testEv(%class.atomic_uint32_t* %4)
  br i1 %5, label %6, label %8

; <label>:6:                                      ; preds = %1
  %7 = bitcast %class.Packet* %3 to %class.WritablePacket*
  call void @_ZN14WritablePacket7recycleEPS_(%class.WritablePacket* %7)
  br label %8

; <label>:8:                                      ; preds = %6, %1
  ret void
}

; Function Attrs: noinline nounwind optnone uwtable
define linkonce_odr zeroext i1 @_ZN15atomic_uint32_t12dec_and_testEv(%class.atomic_uint32_t*) #2 comdat align 2 {
  %2 = alloca %class.atomic_uint32_t*, align 8
  store %class.atomic_uint32_t* %0, %class.atomic_uint32_t** %2, align 8
  %3 = load %class.atomic_uint32_t*, %class.atomic_uint32_t** %2, align 8
  %4 = getelementptr inbounds %class.atomic_uint32_t, %class.atomic_uint32_t* %3, i32 0, i32 0
  %5 = load i32, i32* %4, align 4
  %6 = add i32 %5, -1
  store i32 %6, i32* %4, align 4
  %7 = icmp eq i32 %6, 0
  ret i1 %7
}

declare void @_ZN14WritablePacket7recycleEPS_(%class.WritablePacket*) #1

; Function Attrs: noinline optnone uwtable
define linkonce_odr zeroext i1 @_ZNK6Packet6sharedEv(%class.Packet*) #0 comdat align 2 {
  %2 = alloca %class.Packet*, align 8
  store %class.Packet* %0, %class.Packet** %2, align 8
  %3 = load %class.Packet*, %class.Packet** %2, align 8
  %4 = getelementptr inbounds %class.Packet, %class.Packet* %3, i32 0, i32 1
  %5 = load %class.Packet*, %class.Packet** %4, align 8
  %6 = icmp ne %class.Packet* %5, null
  br i1 %6, label %11, label %7

; <label>:7:                                      ; preds = %1
  %8 = getelementptr inbounds %class.Packet, %class.Packet* %3, i32 0, i32 0
  %9 = call i32 @_ZNK15atomic_uint32_tcvjEv(%class.atomic_uint32_t* %8)
  %10 = icmp ugt i32 %9, 1
  br label %11

; <label>:11:                                     ; preds = %7, %1
  %12 = phi i1 [ true, %1 ], [ %10, %7 ]
  ret i1 %12
}

declare %class.WritablePacket* @_ZN6Packet19expensive_uniqueifyEiib(%class.Packet*, i32, i32, i1 zeroext) #1

; Function Attrs: noinline optnone uwtable
define linkonce_odr i32 @_ZNK15atomic_uint32_tcvjEv(%class.atomic_uint32_t*) #0 comdat align 2 {
  %2 = alloca %class.atomic_uint32_t*, align 8
  store %class.atomic_uint32_t* %0, %class.atomic_uint32_t** %2, align 8
  %3 = load %class.atomic_uint32_t*, %class.atomic_uint32_t** %2, align 8
  %4 = call i32 @_ZNK15atomic_uint32_t5valueEv(%class.atomic_uint32_t* %3)
  ret i32 %4
}

; Function Attrs: noinline nounwind optnone uwtable
define linkonce_odr i32 @_ZNK15atomic_uint32_t5valueEv(%class.atomic_uint32_t*) #2 comdat align 2 {
  %2 = alloca %class.atomic_uint32_t*, align 8
  store %class.atomic_uint32_t* %0, %class.atomic_uint32_t** %2, align 8
  %3 = load %class.atomic_uint32_t*, %class.atomic_uint32_t** %2, align 8
  %4 = getelementptr inbounds %class.atomic_uint32_t, %class.atomic_uint32_t* %3, i32 0, i32 0
  %5 = load i32, i32* %4, align 4
  ret i32 %5
}

; Function Attrs: noinline optnone uwtable
define linkonce_odr dereferenceable(112) %class.Args* @_ZN4Args4readIbEERS_PKciRT_(%class.Args*, i8*, i32, i8* dereferenceable(1)) #0 comdat align 2 {
  %5 = alloca %class.Args*, align 8
  %6 = alloca i8*, align 8
  %7 = alloca i32, align 4
  %8 = alloca i8*, align 8
  store %class.Args* %0, %class.Args** %5, align 8
  store i8* %1, i8** %6, align 8
  store i32 %2, i32* %7, align 4
  store i8* %3, i8** %8, align 8
  %9 = load %class.Args*, %class.Args** %5, align 8
  %10 = load i8*, i8** %6, align 8
  %11 = load i32, i32* %7, align 4
  %12 = load i8*, i8** %8, align 8
  call void @_Z14args_base_readIbEvP4ArgsPKciRT_(%class.Args* %9, i8* %10, i32 %11, i8* dereferenceable(1) %12)
  ret %class.Args* %9
}

; Function Attrs: noinline optnone uwtable
define linkonce_odr void @_Z14args_base_readIbEvP4ArgsPKciRT_(%class.Args*, i8*, i32, i8* dereferenceable(1)) #0 comdat {
  %5 = alloca %class.Args*, align 8
  %6 = alloca i8*, align 8
  %7 = alloca i32, align 4
  %8 = alloca i8*, align 8
  store %class.Args* %0, %class.Args** %5, align 8
  store i8* %1, i8** %6, align 8
  store i32 %2, i32* %7, align 4
  store i8* %3, i8** %8, align 8
  %9 = load %class.Args*, %class.Args** %5, align 8
  %10 = load i8*, i8** %6, align 8
  %11 = load i32, i32* %7, align 4
  %12 = load i8*, i8** %8, align 8
  call void @_ZN4Args9base_readIbEEvPKciRT_(%class.Args* %9, i8* %10, i32 %11, i8* dereferenceable(1) %12)
  ret void
}

; Function Attrs: noinline optnone uwtable
define linkonce_odr void @_ZN4Args9base_readIbEEvPKciRT_(%class.Args*, i8*, i32, i8* dereferenceable(1)) #0 comdat align 2 personality i8* bitcast (i32 (...)* @__gxx_personality_v0 to i8*) {
  %5 = alloca %class.Args*, align 8
  %6 = alloca i8*, align 8
  %7 = alloca i32, align 4
  %8 = alloca i8*, align 8
  %9 = alloca %"struct.Args::Slot"*, align 8
  %10 = alloca %class.String, align 8
  %11 = alloca i8*
  %12 = alloca i32
  %13 = alloca i8*, align 8
  %14 = alloca %struct.DefaultArg, align 1
  store %class.Args* %0, %class.Args** %5, align 8
  store i8* %1, i8** %6, align 8
  store i32 %2, i32* %7, align 4
  store i8* %3, i8** %8, align 8
  %15 = load %class.Args*, %class.Args** %5, align 8
  %16 = load i8*, i8** %6, align 8
  %17 = load i32, i32* %7, align 4
  call void @_ZN4Args4findEPKciRPNS_4SlotE(%class.String* sret %10, %class.Args* %15, i8* %16, i32 %17, %"struct.Args::Slot"** dereferenceable(8) %9)
  %18 = invoke { i64, i64 } @_ZNK6StringcvMS_KFivEEv(%class.String* %10)
          to label %19 unwind label %36

; <label>:19:                                     ; preds = %4
  %20 = extractvalue { i64, i64 } %18, 0
  %21 = icmp ne i64 %20, 0
  br i1 %21, label %22, label %40

; <label>:22:                                     ; preds = %19
  %23 = load i8*, i8** %8, align 8
  %24 = invoke i8* @_ZN17Args_parse_helperI10DefaultArgIbELb0EE4slotIb4ArgsEEPT_RS5_RT0_(i8* dereferenceable(1) %23, %class.Args* dereferenceable(112) %15)
          to label %25 unwind label %36

; <label>:25:                                     ; preds = %22
  store i8* %24, i8** %13, align 8
  %26 = load i8*, i8** %13, align 8
  %27 = icmp ne i8* %26, null
  br i1 %27, label %28, label %32

; <label>:28:                                     ; preds = %25
  %29 = load i8*, i8** %13, align 8
  %30 = invoke zeroext i1 @_ZN17Args_parse_helperI10DefaultArgIbELb0EE5parseIb4ArgsEEbS1_RK6StringRT_RT0_(%class.String* dereferenceable(24) %10, i8* dereferenceable(1) %29, %class.Args* dereferenceable(112) %15)
          to label %31 unwind label %36

; <label>:31:                                     ; preds = %28
  br label %32

; <label>:32:                                     ; preds = %31, %25
  %33 = phi i1 [ false, %25 ], [ %30, %31 ]
  %34 = load %"struct.Args::Slot"*, %"struct.Args::Slot"** %9, align 8
  invoke void @_ZN4Args9postparseEbPNS_4SlotE(%class.Args* %15, i1 zeroext %33, %"struct.Args::Slot"* %34)
          to label %35 unwind label %36

; <label>:35:                                     ; preds = %32
  br label %40

; <label>:36:                                     ; preds = %32, %28, %22, %4
  %37 = landingpad { i8*, i32 }
          cleanup
  %38 = extractvalue { i8*, i32 } %37, 0
  store i8* %38, i8** %11, align 8
  %39 = extractvalue { i8*, i32 } %37, 1
  store i32 %39, i32* %12, align 4
  call void @_ZN6StringD2Ev(%class.String* %10) #9
  br label %41

; <label>:40:                                     ; preds = %35, %19
  call void @_ZN6StringD2Ev(%class.String* %10) #9
  ret void

; <label>:41:                                     ; preds = %36
  %42 = load i8*, i8** %11, align 8
  %43 = load i32, i32* %12, align 4
  %44 = insertvalue { i8*, i32 } undef, i8* %42, 0
  %45 = insertvalue { i8*, i32 } %44, i32 %43, 1
  resume { i8*, i32 } %45
}

declare void @_ZN4Args4findEPKciRPNS_4SlotE(%class.String* sret, %class.Args*, i8*, i32, %"struct.Args::Slot"** dereferenceable(8)) #1

; Function Attrs: noinline nounwind optnone uwtable
define linkonce_odr { i64, i64 } @_ZNK6StringcvMS_KFivEEv(%class.String*) #2 comdat align 2 {
  %2 = alloca %class.String*, align 8
  store %class.String* %0, %class.String** %2, align 8
  %3 = load %class.String*, %class.String** %2, align 8
  %4 = getelementptr inbounds %class.String, %class.String* %3, i32 0, i32 0
  %5 = getelementptr inbounds %"struct.String::rep_t", %"struct.String::rep_t"* %4, i32 0, i32 1
  %6 = load i32, i32* %5, align 8
  %7 = icmp ne i32 %6, 0
  %8 = zext i1 %7 to i64
  %9 = select i1 %7, { i64, i64 } { i64 ptrtoint (i32 (%class.String*)* @_ZNK6String6lengthEv to i64), i64 0 }, { i64, i64 } zeroinitializer
  ret { i64, i64 } %9
}

; Function Attrs: noinline optnone uwtable
define linkonce_odr i8* @_ZN17Args_parse_helperI10DefaultArgIbELb0EE4slotIb4ArgsEEPT_RS5_RT0_(i8* dereferenceable(1), %class.Args* dereferenceable(112)) #0 comdat align 2 {
  %3 = alloca i8*, align 8
  %4 = alloca %class.Args*, align 8
  store i8* %0, i8** %3, align 8
  store %class.Args* %1, %class.Args** %4, align 8
  %5 = load %class.Args*, %class.Args** %4, align 8
  %6 = load i8*, i8** %3, align 8
  %7 = call i8* @_ZN4Args4slotIbEEPT_RS1_(%class.Args* %5, i8* dereferenceable(1) %6)
  ret i8* %7
}

declare void @_ZN4Args9postparseEbPNS_4SlotE(%class.Args*, i1 zeroext, %"struct.Args::Slot"*) #1

; Function Attrs: noinline optnone uwtable
define linkonce_odr zeroext i1 @_ZN17Args_parse_helperI10DefaultArgIbELb0EE5parseIb4ArgsEEbS1_RK6StringRT_RT0_(%class.String* dereferenceable(24), i8* dereferenceable(1), %class.Args* dereferenceable(112)) #0 comdat align 2 {
  %4 = alloca %struct.DefaultArg, align 1
  %5 = alloca %class.String*, align 8
  %6 = alloca i8*, align 8
  %7 = alloca %class.Args*, align 8
  store %class.String* %0, %class.String** %5, align 8
  store i8* %1, i8** %6, align 8
  store %class.Args* %2, %class.Args** %7, align 8
  %8 = load %class.String*, %class.String** %5, align 8
  %9 = load i8*, i8** %6, align 8
  %10 = load %class.Args*, %class.Args** %7, align 8
  %11 = bitcast %class.Args* %10 to %class.ArgContext*
  %12 = call zeroext i1 @_ZN7BoolArg5parseERK6StringRbRK10ArgContext(%class.String* dereferenceable(24) %8, i8* dereferenceable(1) %9, %class.ArgContext* dereferenceable(32) %11)
  ret i1 %12
}

; Function Attrs: noinline nounwind optnone uwtable
define linkonce_odr void @_ZN6StringD2Ev(%class.String*) unnamed_addr #2 comdat align 2 personality i8* bitcast (i32 (...)* @__gxx_personality_v0 to i8*) {
  %2 = alloca %class.String*, align 8
  store %class.String* %0, %class.String** %2, align 8
  %3 = load %class.String*, %class.String** %2, align 8
  invoke void @_ZNK6String5derefEv(%class.String* %3)
          to label %4 unwind label %5

; <label>:4:                                      ; preds = %1
  ret void

; <label>:5:                                      ; preds = %1
  %6 = landingpad { i8*, i32 }
          catch i8* null
  %7 = extractvalue { i8*, i32 } %6, 0
  call void @__clang_call_terminate(i8* %7) #11
  unreachable
}

; Function Attrs: noinline nounwind optnone uwtable
define linkonce_odr i32 @_ZNK6String6lengthEv(%class.String*) #2 comdat align 2 {
  %2 = alloca %class.String*, align 8
  store %class.String* %0, %class.String** %2, align 8
  %3 = load %class.String*, %class.String** %2, align 8
  %4 = getelementptr inbounds %class.String, %class.String* %3, i32 0, i32 0
  %5 = getelementptr inbounds %"struct.String::rep_t", %"struct.String::rep_t"* %4, i32 0, i32 1
  %6 = load i32, i32* %5, align 8
  ret i32 %6
}

; Function Attrs: noinline optnone uwtable
define linkonce_odr i8* @_ZN4Args4slotIbEEPT_RS1_(%class.Args*, i8* dereferenceable(1)) #0 comdat align 2 {
  %3 = alloca %class.Args*, align 8
  %4 = alloca i8*, align 8
  store %class.Args* %0, %class.Args** %3, align 8
  store i8* %1, i8** %4, align 8
  %5 = load %class.Args*, %class.Args** %3, align 8
  %6 = load i8*, i8** %4, align 8
  %7 = call i8* @_ZN4Args11simple_slotEPvm(%class.Args* %5, i8* %6, i64 1)
  ret i8* %7
}

declare i8* @_ZN4Args11simple_slotEPvm(%class.Args*, i8*, i64) #1

declare zeroext i1 @_ZN7BoolArg5parseERK6StringRbRK10ArgContext(%class.String* dereferenceable(24), i8* dereferenceable(1), %class.ArgContext* dereferenceable(32)) #1

; Function Attrs: noinline optnone uwtable
define linkonce_odr void @_ZNK6String5derefEv(%class.String*) #0 comdat align 2 {
  %2 = alloca %class.String*, align 8
  store %class.String* %0, %class.String** %2, align 8
  %3 = load %class.String*, %class.String** %2, align 8
  %4 = getelementptr inbounds %class.String, %class.String* %3, i32 0, i32 0
  %5 = getelementptr inbounds %"struct.String::rep_t", %"struct.String::rep_t"* %4, i32 0, i32 2
  %6 = load %"struct.String::memo_t"*, %"struct.String::memo_t"** %5, align 8
  %7 = icmp ne %"struct.String::memo_t"* %6, null
  br i1 %7, label %8, label %31

; <label>:8:                                      ; preds = %1
  %9 = getelementptr inbounds %class.String, %class.String* %3, i32 0, i32 0
  %10 = getelementptr inbounds %"struct.String::rep_t", %"struct.String::rep_t"* %9, i32 0, i32 2
  %11 = load %"struct.String::memo_t"*, %"struct.String::memo_t"** %10, align 8
  %12 = getelementptr inbounds %"struct.String::memo_t", %"struct.String::memo_t"* %11, i32 0, i32 0
  %13 = load volatile i32, i32* %12, align 4
  %14 = icmp ne i32 %13, 0
  br i1 %14, label %15, label %16

; <label>:15:                                     ; preds = %8
  br label %18

; <label>:16:                                     ; preds = %8
  call void @__assert_fail(i8* getelementptr inbounds ([18 x i8], [18 x i8]* @.str.9, i32 0, i32 0), i8* getelementptr inbounds ([35 x i8], [35 x i8]* @.str.10, i32 0, i32 0), i32 272, i8* getelementptr inbounds ([27 x i8], [27 x i8]* @__PRETTY_FUNCTION__._ZNK6String5derefEv, i32 0, i32 0)) #11
  unreachable
                                                  ; No predecessors!
  br label %18

; <label>:18:                                     ; preds = %17, %15
  %19 = getelementptr inbounds %class.String, %class.String* %3, i32 0, i32 0
  %20 = getelementptr inbounds %"struct.String::rep_t", %"struct.String::rep_t"* %19, i32 0, i32 2
  %21 = load %"struct.String::memo_t"*, %"struct.String::memo_t"** %20, align 8
  %22 = getelementptr inbounds %"struct.String::memo_t", %"struct.String::memo_t"* %21, i32 0, i32 0
  %23 = call zeroext i1 @_ZN15atomic_uint32_t12dec_and_testERVj(i32* dereferenceable(4) %22)
  br i1 %23, label %24, label %28

; <label>:24:                                     ; preds = %18
  %25 = getelementptr inbounds %class.String, %class.String* %3, i32 0, i32 0
  %26 = getelementptr inbounds %"struct.String::rep_t", %"struct.String::rep_t"* %25, i32 0, i32 2
  %27 = load %"struct.String::memo_t"*, %"struct.String::memo_t"** %26, align 8
  call void @_ZN6String11delete_memoEPNS_6memo_tE(%"struct.String::memo_t"* %27)
  br label %28

; <label>:28:                                     ; preds = %24, %18
  %29 = getelementptr inbounds %class.String, %class.String* %3, i32 0, i32 0
  %30 = getelementptr inbounds %"struct.String::rep_t", %"struct.String::rep_t"* %29, i32 0, i32 2
  store %"struct.String::memo_t"* null, %"struct.String::memo_t"** %30, align 8
  br label %31

; <label>:31:                                     ; preds = %28, %1
  ret void
}

; Function Attrs: noinline noreturn nounwind
define linkonce_odr hidden void @__clang_call_terminate(i8*) #8 comdat {
  %2 = call i8* @__cxa_begin_catch(i8* %0) #9
  call void @_ZSt9terminatev() #11
  unreachable
}

declare i8* @__cxa_begin_catch(i8*)

declare void @_ZSt9terminatev()

; Function Attrs: noinline nounwind optnone uwtable
define linkonce_odr zeroext i1 @_ZN15atomic_uint32_t12dec_and_testERVj(i32* dereferenceable(4)) #2 comdat align 2 {
  %2 = alloca i32*, align 8
  store i32* %0, i32** %2, align 8
  %3 = load i32*, i32** %2, align 8
  %4 = load volatile i32, i32* %3, align 4
  %5 = add i32 %4, -1
  store volatile i32 %5, i32* %3, align 4
  %6 = icmp eq i32 %5, 0
  ret i1 %6
}

declare void @_ZN6String11delete_memoEPNS_6memo_tE(%"struct.String::memo_t"*) #1

attributes #0 = { noinline optnone uwtable "correctly-rounded-divide-sqrt-fp-math"="false" "disable-tail-calls"="false" "less-precise-fpmad"="false" "no-frame-pointer-elim"="true" "no-frame-pointer-elim-non-leaf" "no-infs-fp-math"="false" "no-jump-tables"="false" "no-nans-fp-math"="false" "no-signed-zeros-fp-math"="false" "no-trapping-math"="false" "stack-protector-buffer-size"="8" "target-cpu"="x86-64" "target-features"="+fxsr,+mmx,+sse,+sse2,+x87" "unsafe-fp-math"="false" "use-soft-float"="false" }
attributes #1 = { "correctly-rounded-divide-sqrt-fp-math"="false" "disable-tail-calls"="false" "less-precise-fpmad"="false" "no-frame-pointer-elim"="true" "no-frame-pointer-elim-non-leaf" "no-infs-fp-math"="false" "no-nans-fp-math"="false" "no-signed-zeros-fp-math"="false" "no-trapping-math"="false" "stack-protector-buffer-size"="8" "target-cpu"="x86-64" "target-features"="+fxsr,+mmx,+sse,+sse2,+x87" "unsafe-fp-math"="false" "use-soft-float"="false" }
attributes #2 = { noinline nounwind optnone uwtable "correctly-rounded-divide-sqrt-fp-math"="false" "disable-tail-calls"="false" "less-precise-fpmad"="false" "no-frame-pointer-elim"="true" "no-frame-pointer-elim-non-leaf" "no-infs-fp-math"="false" "no-jump-tables"="false" "no-nans-fp-math"="false" "no-signed-zeros-fp-math"="false" "no-trapping-math"="false" "stack-protector-buffer-size"="8" "target-cpu"="x86-64" "target-features"="+fxsr,+mmx,+sse,+sse2,+x87" "unsafe-fp-math"="false" "use-soft-float"="false" }
attributes #3 = { nounwind "correctly-rounded-divide-sqrt-fp-math"="false" "disable-tail-calls"="false" "less-precise-fpmad"="false" "no-frame-pointer-elim"="true" "no-frame-pointer-elim-non-leaf" "no-infs-fp-math"="false" "no-nans-fp-math"="false" "no-signed-zeros-fp-math"="false" "no-trapping-math"="false" "stack-protector-buffer-size"="8" "target-cpu"="x86-64" "target-features"="+fxsr,+mmx,+sse,+sse2,+x87" "unsafe-fp-math"="false" "use-soft-float"="false" }
attributes #4 = { nobuiltin nounwind "correctly-rounded-divide-sqrt-fp-math"="false" "disable-tail-calls"="false" "less-precise-fpmad"="false" "no-frame-pointer-elim"="true" "no-frame-pointer-elim-non-leaf" "no-infs-fp-math"="false" "no-nans-fp-math"="false" "no-signed-zeros-fp-math"="false" "no-trapping-math"="false" "stack-protector-buffer-size"="8" "target-cpu"="x86-64" "target-features"="+fxsr,+mmx,+sse,+sse2,+x87" "unsafe-fp-math"="false" "use-soft-float"="false" }
attributes #5 = { noreturn nounwind "correctly-rounded-divide-sqrt-fp-math"="false" "disable-tail-calls"="false" "less-precise-fpmad"="false" "no-frame-pointer-elim"="true" "no-frame-pointer-elim-non-leaf" "no-infs-fp-math"="false" "no-nans-fp-math"="false" "no-signed-zeros-fp-math"="false" "no-trapping-math"="false" "stack-protector-buffer-size"="8" "target-cpu"="x86-64" "target-features"="+fxsr,+mmx,+sse,+sse2,+x87" "unsafe-fp-math"="false" "use-soft-float"="false" }
attributes #6 = { argmemonly nounwind }
attributes #7 = { nounwind readnone "correctly-rounded-divide-sqrt-fp-math"="false" "disable-tail-calls"="false" "less-precise-fpmad"="false" "no-frame-pointer-elim"="true" "no-frame-pointer-elim-non-leaf" "no-infs-fp-math"="false" "no-nans-fp-math"="false" "no-signed-zeros-fp-math"="false" "no-trapping-math"="false" "stack-protector-buffer-size"="8" "target-cpu"="x86-64" "target-features"="+fxsr,+mmx,+sse,+sse2,+x87" "unsafe-fp-math"="false" "use-soft-float"="false" }
attributes #8 = { noinline noreturn nounwind }
attributes #9 = { nounwind }
attributes #10 = { builtin nounwind }
attributes #11 = { noreturn nounwind }
attributes #12 = { nounwind readnone }

!llvm.module.flags = !{!0}
!llvm.ident = !{!1}

!0 = !{i32 1, !"wchar_size", i32 4}
!1 = !{!"clang version 6.0.0-1ubuntu2 (tags/RELEASE_600/final)"}
