; ModuleID = '../../click/elements/standard/flowinfo.cc'
source_filename = "../../click/elements/standard/flowinfo.cc"
target datalayout = "e-m:e-i64:64-f80:128-n8:16:32:64-S128"
target triple = "x86_64-pc-linux-gnu"

%class.FlowInfo = type { %class.Element.base, [4 x i8] }
%class.Element.base = type <{ i32 (...)**, [2 x %"class.Element::Port"*], [4 x %"class.Element::Port"], [2 x i32], %class.Router*, i32 }>
%"class.Element::Port" = type <{ %class.Element*, i32, [4 x i8] }>
%class.Element = type <{ i32 (...)**, [2 x %"class.Element::Port"*], [4 x %"class.Element::Port"], [2 x i32], %class.Router*, i32, [4 x i8] }>
%class.Router = type { %class.Master*, %class.atomic_uint32_t, i32, i8, i32, %class.atomic_uint32_t, %class.Vector, %class.Vector.0, %class.Vector.0, %class.Vector.2, %class.Vector.5, %class.Vector.6, i32, %class.Vector.5, [2 x %class.Vector.5], %class.Vector.5, %class.Vector.8, %class.Vector.5, %class.Vector.0, %class.Vector.5, %class.Vector.5, %class.Vector.5, %class.Vector.5, %class.Handler**, i32, i32, %class.Vector.0, %class.Vector.12, %class.Element*, %class.String, %"struct.Router::notifier_signals_t"*, %class.HashMap_ArenaFactory*, %class.Router*, %class.ThreadSched*, %class.NameInfo*, %class.Vector.5, %class.Vector.0, %class.Router* }
%class.Master = type opaque
%class.atomic_uint32_t = type { i32 }
%class.Vector = type { %class.vector_memory }
%class.vector_memory = type { %struct.char_array*, i32, i32 }
%struct.char_array = type opaque
%class.Vector.2 = type { %class.vector_memory.3 }
%class.vector_memory.3 = type { %struct.char_array.4*, i32, i32 }
%struct.char_array.4 = type { [4 x i8] }
%class.Vector.6 = type { %class.vector_memory.7 }
%class.vector_memory.7 = type { %"struct.Router::element_landmark_t"*, i32, i32 }
%"struct.Router::element_landmark_t" = type { i32, %class.String }
%class.Vector.8 = type { %class.vector_memory.9 }
%class.vector_memory.9 = type { %struct.char_array.10*, i32, i32 }
%struct.char_array.10 = type { [16 x i8] }
%class.Handler = type <{ %class.String, %union.anon, %union.anon.11, i8*, i8*, i32, i32, i32, [4 x i8] }>
%union.anon = type { i32 (i32, %class.String*, %class.Element*, %class.Handler*, %class.ErrorHandler*)* }
%class.ErrorHandler = type <{ i32 (...)**, i32, [4 x i8] }>
%union.anon.11 = type { i32 (i32, %class.String*, %class.Element*, %class.Handler*, %class.ErrorHandler*)* }
%class.Vector.12 = type { %class.vector_memory }
%class.String = type { %"struct.String::rep_t" }
%"struct.String::rep_t" = type { i8*, i32, %"struct.String::memo_t"* }
%"struct.String::memo_t" = type { i32, i32, i32, [8 x i8] }
%"struct.Router::notifier_signals_t" = type { %class.String, i32, [128 x %class.atomic_uint32_t], %"struct.Router::notifier_signals_t"* }
%class.HashMap_ArenaFactory = type opaque
%class.ThreadSched = type { i32 (...)** }
%class.NameInfo = type opaque
%class.Vector.5 = type { %class.vector_memory.3 }
%class.Vector.0 = type { %class.vector_memory.1 }
%class.vector_memory.1 = type { %class.String*, i32, i32 }
%class.Packet = type { %class.atomic_uint32_t, %class.Packet*, i8*, i8*, i8*, i8*, %"struct.Packet::AllAnno", void (i8*, i64, i8*)*, i8* }
%"struct.Packet::AllAnno" = type { %"union.Packet::Anno", i8*, i8*, i8*, i32, [8 x i8], %class.Packet*, %class.Packet* }
%"union.Packet::Anno" = type { [6 x i64] }
%class.Task = type { %struct.TaskLink.base, i32, i32, %"union.Task::Status", i1 (%class.Task*, i8*)*, i8*, %class.RouterThread*, %class.Element*, %"union.Task::Pending" }
%struct.TaskLink.base = type <{ %struct.TaskLink*, %struct.TaskLink*, i32 }>
%struct.TaskLink = type <{ %struct.TaskLink*, %struct.TaskLink*, i32, [4 x i8] }>
%"union.Task::Status" = type { i32 }
%class.RouterThread = type { %struct.TaskLink, i8, [7 x i8], %class.TimerSet, %class.SelectSet, [32 x i8], %class.Spinlock, %class.atomic_uint32_t, %class.atomic_uint32_t, %"union.Task::Pending", %"union.Task::Pending"*, %class.SpinlockIRQ, [31 x i8], %class.Master*, i32, i8, i32, i32, [40 x i8] }
%class.TimerSet = type <{ %class.Timestamp, i32, i32, i32, [4 x i8], %class.Vector.13, %class.Vector.14, %class.SimpleSpinlock, [7 x i8], %class.Timestamp, i32, [4 x i8] }>
%class.Vector.13 = type { %class.vector_memory.9 }
%class.Vector.14 = type { %class.vector_memory }
%class.SimpleSpinlock = type { i8 }
%class.Timestamp = type { %"union.Timestamp::rep_t" }
%"union.Timestamp::rep_t" = type { i64 }
%class.SelectSet = type { [2 x i32], i8, %class.Vector.15, %class.Vector.16 }
%class.Vector.15 = type { %class.vector_memory }
%class.Vector.16 = type { %class.vector_memory.17 }
%class.vector_memory.17 = type { %struct.char_array.18*, i32, i32 }
%struct.char_array.18 = type opaque
%class.Spinlock = type { i8 }
%class.SpinlockIRQ = type { i8 }
%"union.Task::Pending" = type { %class.Task* }
%class.Timer = type { i32, %class.Timestamp, %union.anon.19, i8*, %class.Element*, %class.RouterThread* }
%union.anon.19 = type { void (%class.Timer*, i8*)* }

$_ZN6VectorI6StringE5beginEv = comdat any

$_ZN6VectorI6StringE3endEv = comdat any

$_ZNK6StringntEv = comdat any

$_ZNK6StringcvMS_KFivEEv = comdat any

$_ZNK7Element6routerEv = comdat any

$_ZNK7Element6eindexEv = comdat any

$_ZN6StringD2Ev = comdat any

$_ZN8FlowInfoD2Ev = comdat any

$_ZN8FlowInfoD0Ev = comdat any

$_ZNK8FlowInfo10class_nameEv = comdat any

$_ZNK8FlowInfo15configure_phaseEv = comdat any

$_ZNK6String5emptyEv = comdat any

$_ZNK6String6lengthEv = comdat any

$_ZNK6String5derefEv = comdat any

$__clang_call_terminate = comdat any

$_ZN15atomic_uint32_t12dec_and_testERVj = comdat any

@_ZTV8FlowInfo = unnamed_addr constant { [29 x i8*] } { [29 x i8*] [i8* null, i8* bitcast ({ i8*, i8*, i8* }* @_ZTI8FlowInfo to i8*), i8* bitcast (void (%class.FlowInfo*)* @_ZN8FlowInfoD2Ev to i8*), i8* bitcast (void (%class.FlowInfo*)* @_ZN8FlowInfoD0Ev to i8*), i8* bitcast (void (%class.Element*, i32, %class.Packet*)* @_ZN7Element4pushEiP6Packet to i8*), i8* bitcast (%class.Packet* (%class.Element*, i32)* @_ZN7Element4pullEi to i8*), i8* bitcast (%class.Packet* (%class.Element*, %class.Packet*)* @_ZN7Element13simple_actionEP6Packet to i8*), i8* bitcast (i1 (%class.Element*, %class.Task*)* @_ZN7Element8run_taskEP4Task to i8*), i8* bitcast (void (%class.Element*, %class.Timer*)* @_ZN7Element9run_timerEP5Timer to i8*), i8* bitcast (void (%class.Element*, i32, i32)* @_ZN7Element8selectedEii to i8*), i8* bitcast (void (%class.Element*, i32)* @_ZN7Element8selectedEi to i8*), i8* bitcast (i8* (%class.FlowInfo*)* @_ZNK8FlowInfo10class_nameEv to i8*), i8* bitcast (i8* (%class.Element*)* @_ZNK7Element10port_countEv to i8*), i8* bitcast (i8* (%class.Element*)* @_ZNK7Element10processingEv to i8*), i8* bitcast (i8* (%class.Element*)* @_ZNK7Element9flow_codeEv to i8*), i8* bitcast (i8* (%class.Element*)* @_ZNK7Element5flagsEv to i8*), i8* bitcast (i8* (%class.Element*, i8*)* @_ZN7Element4castEPKc to i8*), i8* bitcast (i8* (%class.Element*, i1, i32, i8*)* @_ZN7Element9port_castEbiPKc to i8*), i8* bitcast (i32 (%class.FlowInfo*)* @_ZNK8FlowInfo15configure_phaseEv to i8*), i8* bitcast (i32 (%class.FlowInfo*, %class.Vector.0*, %class.ErrorHandler*)* @_ZN8FlowInfo9configureER6VectorI6StringEP12ErrorHandler to i8*), i8* bitcast (void (%class.Element*)* @_ZN7Element12add_handlersEv to i8*), i8* bitcast (i32 (%class.Element*, %class.ErrorHandler*)* @_ZN7Element10initializeEP12ErrorHandler to i8*), i8* bitcast (void (%class.Element*, %class.Element*, %class.ErrorHandler*)* @_ZN7Element10take_stateEPS_P12ErrorHandler to i8*), i8* bitcast (%class.Element* (%class.Element*)* @_ZNK7Element15hotswap_elementEv to i8*), i8* bitcast (void (%class.Element*, i32)* @_ZN7Element7cleanupENS_12CleanupStageE to i8*), i8* bitcast (void (%class.String*, %class.Element*)* @_ZNK7Element11declarationEv to i8*), i8* bitcast (i1 (%class.Element*)* @_ZNK7Element20can_live_reconfigureEv to i8*), i8* bitcast (i32 (%class.Element*, %class.Vector.0*, %class.ErrorHandler*)* @_ZN7Element16live_reconfigureER6VectorI6StringEP12ErrorHandler to i8*), i8* bitcast (i32 (%class.Element*, i32, i8*)* @_ZN7Element5llrpcEjPv to i8*)] }, align 8
@.str = private unnamed_addr constant [26 x i8] c"expected %<ELEMENT CODE%>\00", align 1
@_ZTVN10__cxxabiv120__si_class_type_infoE = external global i8*
@_ZTS8FlowInfo = constant [10 x i8] c"8FlowInfo\00"
@_ZTI7Element = external constant i8*
@_ZTI8FlowInfo = constant { i8*, i8*, i8* } { i8* bitcast (i8** getelementptr inbounds (i8*, i8** @_ZTVN10__cxxabiv120__si_class_type_infoE, i64 2) to i8*), i8* getelementptr inbounds ([10 x i8], [10 x i8]* @_ZTS8FlowInfo, i32 0, i32 0), i8* bitcast (i8** @_ZTI7Element to i8*) }
@.str.1 = private unnamed_addr constant [18 x i8] c"_r.memo->refcount\00", align 1
@.str.2 = private unnamed_addr constant [35 x i8] c"/usr/local/include/click/string.hh\00", align 1
@__PRETTY_FUNCTION__._ZNK6String5derefEv = private unnamed_addr constant [27 x i8] c"void String::deref() const\00", align 1
@.str.3 = private unnamed_addr constant [9 x i8] c"FlowInfo\00", align 1

@_ZN8FlowInfoC1Ev = alias void (%class.FlowInfo*), void (%class.FlowInfo*)* @_ZN8FlowInfoC2Ev

; Function Attrs: noinline optnone uwtable
define void @_ZN8FlowInfoC2Ev(%class.FlowInfo*) unnamed_addr #0 align 2 {
  %2 = alloca %class.FlowInfo*, align 8
  store %class.FlowInfo* %0, %class.FlowInfo** %2, align 8
  %3 = load %class.FlowInfo*, %class.FlowInfo** %2, align 8
  %4 = bitcast %class.FlowInfo* %3 to %class.Element*
  call void @_ZN7ElementC2Ev(%class.Element* %4)
  %5 = bitcast %class.FlowInfo* %3 to i32 (...)***
  store i32 (...)** bitcast (i8** getelementptr inbounds ({ [29 x i8*] }, { [29 x i8*] }* @_ZTV8FlowInfo, i32 0, inrange i32 0, i32 2) to i32 (...)**), i32 (...)*** %5, align 8
  ret void
}

declare void @_ZN7ElementC2Ev(%class.Element*) unnamed_addr #1

; Function Attrs: noinline optnone uwtable
define i32 @_ZN8FlowInfo9configureER6VectorI6StringEP12ErrorHandler(%class.FlowInfo*, %class.Vector.0* dereferenceable(16), %class.ErrorHandler*) unnamed_addr #0 align 2 personality i8* bitcast (i32 (...)* @__gxx_personality_v0 to i8*) {
  %4 = alloca %class.FlowInfo*, align 8
  %5 = alloca %class.Vector.0*, align 8
  %6 = alloca %class.ErrorHandler*, align 8
  %7 = alloca %class.String*, align 8
  %8 = alloca %class.String, align 8
  %9 = alloca %class.String, align 8
  %10 = alloca i8*
  %11 = alloca i32
  %12 = alloca %class.Element*, align 8
  store %class.FlowInfo* %0, %class.FlowInfo** %4, align 8
  store %class.Vector.0* %1, %class.Vector.0** %5, align 8
  store %class.ErrorHandler* %2, %class.ErrorHandler** %6, align 8
  %13 = load %class.FlowInfo*, %class.FlowInfo** %4, align 8
  %14 = load %class.Vector.0*, %class.Vector.0** %5, align 8
  %15 = call %class.String* @_ZN6VectorI6StringE5beginEv(%class.Vector.0* %14)
  store %class.String* %15, %class.String** %7, align 8
  br label %16

; <label>:16:                                     ; preds = %64, %3
  %17 = load %class.String*, %class.String** %7, align 8
  %18 = load %class.Vector.0*, %class.Vector.0** %5, align 8
  %19 = call %class.String* @_ZN6VectorI6StringE3endEv(%class.Vector.0* %18)
  %20 = icmp ne %class.String* %17, %19
  br i1 %20, label %21, label %68

; <label>:21:                                     ; preds = %16
  %22 = load %class.String*, %class.String** %7, align 8
  call void @_Z17cp_shift_spacevecR6String(%class.String* sret %8, %class.String* dereferenceable(24) %22)
  %23 = load %class.String*, %class.String** %7, align 8
  invoke void @_Z17cp_shift_spacevecR6String(%class.String* sret %9, %class.String* dereferenceable(24) %23)
          to label %24 unwind label %40

; <label>:24:                                     ; preds = %21
  %25 = invoke zeroext i1 @_ZNK6StringntEv(%class.String* %8)
          to label %26 unwind label %44

; <label>:26:                                     ; preds = %24
  br i1 %25, label %36, label %27

; <label>:27:                                     ; preds = %26
  %28 = invoke zeroext i1 @_ZNK6StringntEv(%class.String* %9)
          to label %29 unwind label %44

; <label>:29:                                     ; preds = %27
  br i1 %28, label %36, label %30

; <label>:30:                                     ; preds = %29
  %31 = load %class.String*, %class.String** %7, align 8
  %32 = invoke { i64, i64 } @_ZNK6StringcvMS_KFivEEv(%class.String* %31)
          to label %33 unwind label %44

; <label>:33:                                     ; preds = %30
  %34 = extractvalue { i64, i64 } %32, 0
  %35 = icmp ne i64 %34, 0
  br i1 %35, label %36, label %48

; <label>:36:                                     ; preds = %33, %29, %26
  %37 = load %class.ErrorHandler*, %class.ErrorHandler** %6, align 8
  %38 = invoke i32 (%class.ErrorHandler*, i8*, ...) @_ZN12ErrorHandler5errorEPKcz(%class.ErrorHandler* %37, i8* getelementptr inbounds ([26 x i8], [26 x i8]* @.str, i32 0, i32 0))
          to label %39 unwind label %44

; <label>:39:                                     ; preds = %36
  br label %63

; <label>:40:                                     ; preds = %21
  %41 = landingpad { i8*, i32 }
          cleanup
  %42 = extractvalue { i8*, i32 } %41, 0
  store i8* %42, i8** %10, align 8
  %43 = extractvalue { i8*, i32 } %41, 1
  store i32 %43, i32* %11, align 4
  br label %67

; <label>:44:                                     ; preds = %60, %57, %54, %48, %36, %30, %27, %24
  %45 = landingpad { i8*, i32 }
          cleanup
  %46 = extractvalue { i8*, i32 } %45, 0
  store i8* %46, i8** %10, align 8
  %47 = extractvalue { i8*, i32 } %45, 1
  store i32 %47, i32* %11, align 4
  call void @_ZN6StringD2Ev(%class.String* %9) #7
  br label %67

; <label>:48:                                     ; preds = %33
  %49 = bitcast %class.FlowInfo* %13 to %class.Element*
  %50 = load %class.ErrorHandler*, %class.ErrorHandler** %6, align 8
  %51 = invoke %class.Element* @_Z10cp_elementRK6StringPK7ElementP12ErrorHandlerPKc(%class.String* dereferenceable(24) %8, %class.Element* %49, %class.ErrorHandler* %50, i8* null)
          to label %52 unwind label %44

; <label>:52:                                     ; preds = %48
  store %class.Element* %51, %class.Element** %12, align 8
  %53 = icmp ne %class.Element* %51, null
  br i1 %53, label %54, label %62

; <label>:54:                                     ; preds = %52
  %55 = bitcast %class.FlowInfo* %13 to %class.Element*
  %56 = invoke %class.Router* @_ZNK7Element6routerEv(%class.Element* %55)
          to label %57 unwind label %44

; <label>:57:                                     ; preds = %54
  %58 = load %class.Element*, %class.Element** %12, align 8
  %59 = invoke i32 @_ZNK7Element6eindexEv(%class.Element* %58)
          to label %60 unwind label %44

; <label>:60:                                     ; preds = %57
  invoke void @_ZN6Router22set_flow_code_overrideEiRK6String(%class.Router* %56, i32 %59, %class.String* dereferenceable(24) %9)
          to label %61 unwind label %44

; <label>:61:                                     ; preds = %60
  br label %62

; <label>:62:                                     ; preds = %61, %52
  br label %63

; <label>:63:                                     ; preds = %62, %39
  call void @_ZN6StringD2Ev(%class.String* %9) #7
  call void @_ZN6StringD2Ev(%class.String* %8) #7
  br label %64

; <label>:64:                                     ; preds = %63
  %65 = load %class.String*, %class.String** %7, align 8
  %66 = getelementptr inbounds %class.String, %class.String* %65, i32 1
  store %class.String* %66, %class.String** %7, align 8
  br label %16

; <label>:67:                                     ; preds = %44, %40
  call void @_ZN6StringD2Ev(%class.String* %8) #7
  br label %69

; <label>:68:                                     ; preds = %16
  ret i32 0

; <label>:69:                                     ; preds = %67
  %70 = load i8*, i8** %10, align 8
  %71 = load i32, i32* %11, align 4
  %72 = insertvalue { i8*, i32 } undef, i8* %70, 0
  %73 = insertvalue { i8*, i32 } %72, i32 %71, 1
  resume { i8*, i32 } %73
}

; Function Attrs: noinline nounwind optnone uwtable
define linkonce_odr %class.String* @_ZN6VectorI6StringE5beginEv(%class.Vector.0*) #2 comdat align 2 {
  %2 = alloca %class.Vector.0*, align 8
  store %class.Vector.0* %0, %class.Vector.0** %2, align 8
  %3 = load %class.Vector.0*, %class.Vector.0** %2, align 8
  %4 = getelementptr inbounds %class.Vector.0, %class.Vector.0* %3, i32 0, i32 0
  %5 = getelementptr inbounds %class.vector_memory.1, %class.vector_memory.1* %4, i32 0, i32 0
  %6 = load %class.String*, %class.String** %5, align 8
  ret %class.String* %6
}

; Function Attrs: noinline nounwind optnone uwtable
define linkonce_odr %class.String* @_ZN6VectorI6StringE3endEv(%class.Vector.0*) #2 comdat align 2 {
  %2 = alloca %class.Vector.0*, align 8
  store %class.Vector.0* %0, %class.Vector.0** %2, align 8
  %3 = load %class.Vector.0*, %class.Vector.0** %2, align 8
  %4 = getelementptr inbounds %class.Vector.0, %class.Vector.0* %3, i32 0, i32 0
  %5 = getelementptr inbounds %class.vector_memory.1, %class.vector_memory.1* %4, i32 0, i32 0
  %6 = load %class.String*, %class.String** %5, align 8
  %7 = getelementptr inbounds %class.Vector.0, %class.Vector.0* %3, i32 0, i32 0
  %8 = getelementptr inbounds %class.vector_memory.1, %class.vector_memory.1* %7, i32 0, i32 1
  %9 = load i32, i32* %8, align 8
  %10 = sext i32 %9 to i64
  %11 = getelementptr inbounds %class.String, %class.String* %6, i64 %10
  ret %class.String* %11
}

declare void @_Z17cp_shift_spacevecR6String(%class.String* sret, %class.String* dereferenceable(24)) #1

declare i32 @__gxx_personality_v0(...)

; Function Attrs: noinline optnone uwtable
define linkonce_odr zeroext i1 @_ZNK6StringntEv(%class.String*) #0 comdat align 2 {
  %2 = alloca %class.String*, align 8
  store %class.String* %0, %class.String** %2, align 8
  %3 = load %class.String*, %class.String** %2, align 8
  %4 = call zeroext i1 @_ZNK6String5emptyEv(%class.String* %3)
  ret i1 %4
}

; Function Attrs: noinline nounwind optnone uwtable
define linkonce_odr { i64, i64 } @_ZNK6StringcvMS_KFivEEv(%class.String*) #2 comdat align 2 {
  %2 = alloca %class.String*, align 8
  store %class.String* %0, %class.String** %2, align 8
  %3 = load %class.String*, %class.String** %2, align 8
  %4 = getelementptr inbounds %class.String, %class.String* %3, i32 0, i32 0
  %5 = getelementptr inbounds %"struct.String::rep_t", %"struct.String::rep_t"* %4, i32 0, i32 1
  %6 = load i32, i32* %5, align 8
  %7 = icmp ne i32 %6, 0
  %8 = zext i1 %7 to i64
  %9 = select i1 %7, { i64, i64 } { i64 ptrtoint (i32 (%class.String*)* @_ZNK6String6lengthEv to i64), i64 0 }, { i64, i64 } zeroinitializer
  ret { i64, i64 } %9
}

declare i32 @_ZN12ErrorHandler5errorEPKcz(%class.ErrorHandler*, i8*, ...) #1

declare %class.Element* @_Z10cp_elementRK6StringPK7ElementP12ErrorHandlerPKc(%class.String* dereferenceable(24), %class.Element*, %class.ErrorHandler*, i8*) #1

; Function Attrs: noinline nounwind optnone uwtable
define linkonce_odr %class.Router* @_ZNK7Element6routerEv(%class.Element*) #2 comdat align 2 {
  %2 = alloca %class.Element*, align 8
  store %class.Element* %0, %class.Element** %2, align 8
  %3 = load %class.Element*, %class.Element** %2, align 8
  %4 = getelementptr inbounds %class.Element, %class.Element* %3, i32 0, i32 4
  %5 = load %class.Router*, %class.Router** %4, align 8
  ret %class.Router* %5
}

declare void @_ZN6Router22set_flow_code_overrideEiRK6String(%class.Router*, i32, %class.String* dereferenceable(24)) #1

; Function Attrs: noinline nounwind optnone uwtable
define linkonce_odr i32 @_ZNK7Element6eindexEv(%class.Element*) #2 comdat align 2 {
  %2 = alloca %class.Element*, align 8
  store %class.Element* %0, %class.Element** %2, align 8
  %3 = load %class.Element*, %class.Element** %2, align 8
  %4 = getelementptr inbounds %class.Element, %class.Element* %3, i32 0, i32 5
  %5 = load i32, i32* %4, align 8
  ret i32 %5
}

; Function Attrs: noinline nounwind optnone uwtable
define linkonce_odr void @_ZN6StringD2Ev(%class.String*) unnamed_addr #2 comdat align 2 personality i8* bitcast (i32 (...)* @__gxx_personality_v0 to i8*) {
  %2 = alloca %class.String*, align 8
  store %class.String* %0, %class.String** %2, align 8
  %3 = load %class.String*, %class.String** %2, align 8
  invoke void @_ZNK6String5derefEv(%class.String* %3)
          to label %4 unwind label %5

; <label>:4:                                      ; preds = %1
  ret void

; <label>:5:                                      ; preds = %1
  %6 = landingpad { i8*, i32 }
          catch i8* null
  %7 = extractvalue { i8*, i32 } %6, 0
  call void @__clang_call_terminate(i8* %7) #8
  unreachable
}

; Function Attrs: noinline nounwind optnone uwtable
define linkonce_odr void @_ZN8FlowInfoD2Ev(%class.FlowInfo*) unnamed_addr #2 comdat align 2 {
  %2 = alloca %class.FlowInfo*, align 8
  store %class.FlowInfo* %0, %class.FlowInfo** %2, align 8
  %3 = load %class.FlowInfo*, %class.FlowInfo** %2, align 8
  %4 = bitcast %class.FlowInfo* %3 to %class.Element*
  call void @_ZN7ElementD2Ev(%class.Element* %4) #7
  ret void
}

; Function Attrs: noinline nounwind optnone uwtable
define linkonce_odr void @_ZN8FlowInfoD0Ev(%class.FlowInfo*) unnamed_addr #2 comdat align 2 {
  %2 = alloca %class.FlowInfo*, align 8
  store %class.FlowInfo* %0, %class.FlowInfo** %2, align 8
  %3 = load %class.FlowInfo*, %class.FlowInfo** %2, align 8
  call void @_ZN8FlowInfoD2Ev(%class.FlowInfo* %3) #7
  %4 = bitcast %class.FlowInfo* %3 to i8*
  call void @_ZdlPv(i8* %4) #9
  ret void
}

declare void @_ZN7Element4pushEiP6Packet(%class.Element*, i32, %class.Packet*) unnamed_addr #1

declare %class.Packet* @_ZN7Element4pullEi(%class.Element*, i32) unnamed_addr #1

declare %class.Packet* @_ZN7Element13simple_actionEP6Packet(%class.Element*, %class.Packet*) unnamed_addr #1

declare zeroext i1 @_ZN7Element8run_taskEP4Task(%class.Element*, %class.Task*) unnamed_addr #1

declare void @_ZN7Element9run_timerEP5Timer(%class.Element*, %class.Timer*) unnamed_addr #1

declare void @_ZN7Element8selectedEii(%class.Element*, i32, i32) unnamed_addr #1

declare void @_ZN7Element8selectedEi(%class.Element*, i32) unnamed_addr #1

; Function Attrs: noinline nounwind optnone uwtable
define linkonce_odr i8* @_ZNK8FlowInfo10class_nameEv(%class.FlowInfo*) unnamed_addr #2 comdat align 2 {
  %2 = alloca %class.FlowInfo*, align 8
  store %class.FlowInfo* %0, %class.FlowInfo** %2, align 8
  %3 = load %class.FlowInfo*, %class.FlowInfo** %2, align 8
  ret i8* getelementptr inbounds ([9 x i8], [9 x i8]* @.str.3, i32 0, i32 0)
}

declare i8* @_ZNK7Element10port_countEv(%class.Element*) unnamed_addr #1

declare i8* @_ZNK7Element10processingEv(%class.Element*) unnamed_addr #1

declare i8* @_ZNK7Element9flow_codeEv(%class.Element*) unnamed_addr #1

declare i8* @_ZNK7Element5flagsEv(%class.Element*) unnamed_addr #1

declare i8* @_ZN7Element4castEPKc(%class.Element*, i8*) unnamed_addr #1

declare i8* @_ZN7Element9port_castEbiPKc(%class.Element*, i1 zeroext, i32, i8*) unnamed_addr #1

; Function Attrs: noinline nounwind optnone uwtable
define linkonce_odr i32 @_ZNK8FlowInfo15configure_phaseEv(%class.FlowInfo*) unnamed_addr #2 comdat align 2 {
  %2 = alloca %class.FlowInfo*, align 8
  store %class.FlowInfo* %0, %class.FlowInfo** %2, align 8
  %3 = load %class.FlowInfo*, %class.FlowInfo** %2, align 8
  ret i32 20
}

declare void @_ZN7Element12add_handlersEv(%class.Element*) unnamed_addr #1

declare i32 @_ZN7Element10initializeEP12ErrorHandler(%class.Element*, %class.ErrorHandler*) unnamed_addr #1

declare void @_ZN7Element10take_stateEPS_P12ErrorHandler(%class.Element*, %class.Element*, %class.ErrorHandler*) unnamed_addr #1

declare %class.Element* @_ZNK7Element15hotswap_elementEv(%class.Element*) unnamed_addr #1

declare void @_ZN7Element7cleanupENS_12CleanupStageE(%class.Element*, i32) unnamed_addr #1

declare void @_ZNK7Element11declarationEv(%class.String* sret, %class.Element*) unnamed_addr #1

declare zeroext i1 @_ZNK7Element20can_live_reconfigureEv(%class.Element*) unnamed_addr #1

declare i32 @_ZN7Element16live_reconfigureER6VectorI6StringEP12ErrorHandler(%class.Element*, %class.Vector.0* dereferenceable(16), %class.ErrorHandler*) unnamed_addr #1

declare i32 @_ZN7Element5llrpcEjPv(%class.Element*, i32, i8*) unnamed_addr #1

; Function Attrs: noinline nounwind optnone uwtable
define linkonce_odr zeroext i1 @_ZNK6String5emptyEv(%class.String*) #2 comdat align 2 {
  %2 = alloca %class.String*, align 8
  store %class.String* %0, %class.String** %2, align 8
  %3 = load %class.String*, %class.String** %2, align 8
  %4 = getelementptr inbounds %class.String, %class.String* %3, i32 0, i32 0
  %5 = getelementptr inbounds %"struct.String::rep_t", %"struct.String::rep_t"* %4, i32 0, i32 1
  %6 = load i32, i32* %5, align 8
  %7 = icmp eq i32 %6, 0
  ret i1 %7
}

; Function Attrs: noinline nounwind optnone uwtable
define linkonce_odr i32 @_ZNK6String6lengthEv(%class.String*) #2 comdat align 2 {
  %2 = alloca %class.String*, align 8
  store %class.String* %0, %class.String** %2, align 8
  %3 = load %class.String*, %class.String** %2, align 8
  %4 = getelementptr inbounds %class.String, %class.String* %3, i32 0, i32 0
  %5 = getelementptr inbounds %"struct.String::rep_t", %"struct.String::rep_t"* %4, i32 0, i32 1
  %6 = load i32, i32* %5, align 8
  ret i32 %6
}

; Function Attrs: noinline optnone uwtable
define linkonce_odr void @_ZNK6String5derefEv(%class.String*) #0 comdat align 2 {
  %2 = alloca %class.String*, align 8
  store %class.String* %0, %class.String** %2, align 8
  %3 = load %class.String*, %class.String** %2, align 8
  %4 = getelementptr inbounds %class.String, %class.String* %3, i32 0, i32 0
  %5 = getelementptr inbounds %"struct.String::rep_t", %"struct.String::rep_t"* %4, i32 0, i32 2
  %6 = load %"struct.String::memo_t"*, %"struct.String::memo_t"** %5, align 8
  %7 = icmp ne %"struct.String::memo_t"* %6, null
  br i1 %7, label %8, label %31

; <label>:8:                                      ; preds = %1
  %9 = getelementptr inbounds %class.String, %class.String* %3, i32 0, i32 0
  %10 = getelementptr inbounds %"struct.String::rep_t", %"struct.String::rep_t"* %9, i32 0, i32 2
  %11 = load %"struct.String::memo_t"*, %"struct.String::memo_t"** %10, align 8
  %12 = getelementptr inbounds %"struct.String::memo_t", %"struct.String::memo_t"* %11, i32 0, i32 0
  %13 = load volatile i32, i32* %12, align 4
  %14 = icmp ne i32 %13, 0
  br i1 %14, label %15, label %16

; <label>:15:                                     ; preds = %8
  br label %18

; <label>:16:                                     ; preds = %8
  call void @__assert_fail(i8* getelementptr inbounds ([18 x i8], [18 x i8]* @.str.1, i32 0, i32 0), i8* getelementptr inbounds ([35 x i8], [35 x i8]* @.str.2, i32 0, i32 0), i32 272, i8* getelementptr inbounds ([27 x i8], [27 x i8]* @__PRETTY_FUNCTION__._ZNK6String5derefEv, i32 0, i32 0)) #8
  unreachable
                                                  ; No predecessors!
  br label %18

; <label>:18:                                     ; preds = %17, %15
  %19 = getelementptr inbounds %class.String, %class.String* %3, i32 0, i32 0
  %20 = getelementptr inbounds %"struct.String::rep_t", %"struct.String::rep_t"* %19, i32 0, i32 2
  %21 = load %"struct.String::memo_t"*, %"struct.String::memo_t"** %20, align 8
  %22 = getelementptr inbounds %"struct.String::memo_t", %"struct.String::memo_t"* %21, i32 0, i32 0
  %23 = call zeroext i1 @_ZN15atomic_uint32_t12dec_and_testERVj(i32* dereferenceable(4) %22)
  br i1 %23, label %24, label %28

; <label>:24:                                     ; preds = %18
  %25 = getelementptr inbounds %class.String, %class.String* %3, i32 0, i32 0
  %26 = getelementptr inbounds %"struct.String::rep_t", %"struct.String::rep_t"* %25, i32 0, i32 2
  %27 = load %"struct.String::memo_t"*, %"struct.String::memo_t"** %26, align 8
  call void @_ZN6String11delete_memoEPNS_6memo_tE(%"struct.String::memo_t"* %27)
  br label %28

; <label>:28:                                     ; preds = %24, %18
  %29 = getelementptr inbounds %class.String, %class.String* %3, i32 0, i32 0
  %30 = getelementptr inbounds %"struct.String::rep_t", %"struct.String::rep_t"* %29, i32 0, i32 2
  store %"struct.String::memo_t"* null, %"struct.String::memo_t"** %30, align 8
  br label %31

; <label>:31:                                     ; preds = %28, %1
  ret void
}

; Function Attrs: noinline noreturn nounwind
define linkonce_odr hidden void @__clang_call_terminate(i8*) #3 comdat {
  %2 = call i8* @__cxa_begin_catch(i8* %0) #7
  call void @_ZSt9terminatev() #8
  unreachable
}

declare i8* @__cxa_begin_catch(i8*)

declare void @_ZSt9terminatev()

; Function Attrs: noreturn nounwind
declare void @__assert_fail(i8*, i8*, i32, i8*) #4

; Function Attrs: noinline nounwind optnone uwtable
define linkonce_odr zeroext i1 @_ZN15atomic_uint32_t12dec_and_testERVj(i32* dereferenceable(4)) #2 comdat align 2 {
  %2 = alloca i32*, align 8
  store i32* %0, i32** %2, align 8
  %3 = load i32*, i32** %2, align 8
  %4 = load volatile i32, i32* %3, align 4
  %5 = add i32 %4, -1
  store volatile i32 %5, i32* %3, align 4
  %6 = icmp eq i32 %5, 0
  ret i1 %6
}

declare void @_ZN6String11delete_memoEPNS_6memo_tE(%"struct.String::memo_t"*) #1

; Function Attrs: nounwind
declare void @_ZN7ElementD2Ev(%class.Element*) unnamed_addr #5

; Function Attrs: nobuiltin nounwind
declare void @_ZdlPv(i8*) #6

attributes #0 = { noinline optnone uwtable "correctly-rounded-divide-sqrt-fp-math"="false" "disable-tail-calls"="false" "less-precise-fpmad"="false" "no-frame-pointer-elim"="true" "no-frame-pointer-elim-non-leaf" "no-infs-fp-math"="false" "no-jump-tables"="false" "no-nans-fp-math"="false" "no-signed-zeros-fp-math"="false" "no-trapping-math"="false" "stack-protector-buffer-size"="8" "target-cpu"="x86-64" "target-features"="+fxsr,+mmx,+sse,+sse2,+x87" "unsafe-fp-math"="false" "use-soft-float"="false" }
attributes #1 = { "correctly-rounded-divide-sqrt-fp-math"="false" "disable-tail-calls"="false" "less-precise-fpmad"="false" "no-frame-pointer-elim"="true" "no-frame-pointer-elim-non-leaf" "no-infs-fp-math"="false" "no-nans-fp-math"="false" "no-signed-zeros-fp-math"="false" "no-trapping-math"="false" "stack-protector-buffer-size"="8" "target-cpu"="x86-64" "target-features"="+fxsr,+mmx,+sse,+sse2,+x87" "unsafe-fp-math"="false" "use-soft-float"="false" }
attributes #2 = { noinline nounwind optnone uwtable "correctly-rounded-divide-sqrt-fp-math"="false" "disable-tail-calls"="false" "less-precise-fpmad"="false" "no-frame-pointer-elim"="true" "no-frame-pointer-elim-non-leaf" "no-infs-fp-math"="false" "no-jump-tables"="false" "no-nans-fp-math"="false" "no-signed-zeros-fp-math"="false" "no-trapping-math"="false" "stack-protector-buffer-size"="8" "target-cpu"="x86-64" "target-features"="+fxsr,+mmx,+sse,+sse2,+x87" "unsafe-fp-math"="false" "use-soft-float"="false" }
attributes #3 = { noinline noreturn nounwind }
attributes #4 = { noreturn nounwind "correctly-rounded-divide-sqrt-fp-math"="false" "disable-tail-calls"="false" "less-precise-fpmad"="false" "no-frame-pointer-elim"="true" "no-frame-pointer-elim-non-leaf" "no-infs-fp-math"="false" "no-nans-fp-math"="false" "no-signed-zeros-fp-math"="false" "no-trapping-math"="false" "stack-protector-buffer-size"="8" "target-cpu"="x86-64" "target-features"="+fxsr,+mmx,+sse,+sse2,+x87" "unsafe-fp-math"="false" "use-soft-float"="false" }
attributes #5 = { nounwind "correctly-rounded-divide-sqrt-fp-math"="false" "disable-tail-calls"="false" "less-precise-fpmad"="false" "no-frame-pointer-elim"="true" "no-frame-pointer-elim-non-leaf" "no-infs-fp-math"="false" "no-nans-fp-math"="false" "no-signed-zeros-fp-math"="false" "no-trapping-math"="false" "stack-protector-buffer-size"="8" "target-cpu"="x86-64" "target-features"="+fxsr,+mmx,+sse,+sse2,+x87" "unsafe-fp-math"="false" "use-soft-float"="false" }
attributes #6 = { nobuiltin nounwind "correctly-rounded-divide-sqrt-fp-math"="false" "disable-tail-calls"="false" "less-precise-fpmad"="false" "no-frame-pointer-elim"="true" "no-frame-pointer-elim-non-leaf" "no-infs-fp-math"="false" "no-nans-fp-math"="false" "no-signed-zeros-fp-math"="false" "no-trapping-math"="false" "stack-protector-buffer-size"="8" "target-cpu"="x86-64" "target-features"="+fxsr,+mmx,+sse,+sse2,+x87" "unsafe-fp-math"="false" "use-soft-float"="false" }
attributes #7 = { nounwind }
attributes #8 = { noreturn nounwind }
attributes #9 = { builtin nounwind }

!llvm.module.flags = !{!0}
!llvm.ident = !{!1}

!0 = !{i32 1, !"wchar_size", i32 4}
!1 = !{!"clang version 6.0.0-1ubuntu2 (tags/RELEASE_600/final)"}
