; ModuleID = '../../click/elements/grid/hello.cc'
source_filename = "../../click/elements/grid/hello.cc"
target datalayout = "e-m:e-i64:64-f80:128-n8:16:32:64-S128"
target triple = "x86_64-pc-linux-gnu"

%class.SendGridHello = type { %class.Element.base, %class.EtherAddress, %class.IPAddress, i32, i32, %class.Timer }
%class.Element.base = type <{ i32 (...)**, [2 x %"class.Element::Port"*], [4 x %"class.Element::Port"], [2 x i32], %class.Router*, i32 }>
%"class.Element::Port" = type <{ %class.Element*, i32, [4 x i8] }>
%class.Element = type <{ i32 (...)**, [2 x %"class.Element::Port"*], [4 x %"class.Element::Port"], [2 x i32], %class.Router*, i32, [4 x i8] }>
%class.Router = type { %class.Master*, %class.atomic_uint32_t, i32, i8, i32, %class.atomic_uint32_t, %class.Vector, %class.Vector.0, %class.Vector.0, %class.Vector.2, %class.Vector.5, %class.Vector.6, i32, %class.Vector.5, [2 x %class.Vector.5], %class.Vector.5, %class.Vector.8, %class.Vector.5, %class.Vector.0, %class.Vector.5, %class.Vector.5, %class.Vector.5, %class.Vector.5, %class.Handler**, i32, i32, %class.Vector.0, %class.Vector.12, %class.Element*, %class.String, %"struct.Router::notifier_signals_t"*, %class.HashMap_ArenaFactory*, %class.Router*, %class.ThreadSched*, %class.NameInfo*, %class.Vector.5, %class.Vector.0, %class.Router* }
%class.Master = type opaque
%class.atomic_uint32_t = type { i32 }
%class.Vector = type { %class.vector_memory }
%class.vector_memory = type { %struct.char_array*, i32, i32 }
%struct.char_array = type opaque
%class.Vector.2 = type { %class.vector_memory.3 }
%class.vector_memory.3 = type { %struct.char_array.4*, i32, i32 }
%struct.char_array.4 = type { [4 x i8] }
%class.Vector.6 = type { %class.vector_memory.7 }
%class.vector_memory.7 = type { %"struct.Router::element_landmark_t"*, i32, i32 }
%"struct.Router::element_landmark_t" = type { i32, %class.String }
%class.Vector.8 = type { %class.vector_memory.9 }
%class.vector_memory.9 = type { %struct.char_array.10*, i32, i32 }
%struct.char_array.10 = type { [16 x i8] }
%class.Handler = type <{ %class.String, %union.anon, %union.anon.11, i8*, i8*, i32, i32, i32, [4 x i8] }>
%union.anon = type { i32 (i32, %class.String*, %class.Element*, %class.Handler*, %class.ErrorHandler*)* }
%class.ErrorHandler = type <{ i32 (...)**, i32, [4 x i8] }>
%union.anon.11 = type { i32 (i32, %class.String*, %class.Element*, %class.Handler*, %class.ErrorHandler*)* }
%class.Vector.12 = type { %class.vector_memory }
%class.String = type { %"struct.String::rep_t" }
%"struct.String::rep_t" = type { i8*, i32, %"struct.String::memo_t"* }
%"struct.String::memo_t" = type { i32, i32, i32, [8 x i8] }
%"struct.Router::notifier_signals_t" = type { %class.String, i32, [128 x %class.atomic_uint32_t], %"struct.Router::notifier_signals_t"* }
%class.HashMap_ArenaFactory = type opaque
%class.ThreadSched = type { i32 (...)** }
%class.NameInfo = type opaque
%class.Vector.5 = type { %class.vector_memory.3 }
%class.Vector.0 = type { %class.vector_memory.1 }
%class.vector_memory.1 = type { %class.String*, i32, i32 }
%class.EtherAddress = type { [3 x i16] }
%class.IPAddress = type { i32 }
%class.Timer = type { i32, %class.Timestamp, %union.anon.13, i8*, %class.Element*, %class.RouterThread* }
%class.Timestamp = type { %"union.Timestamp::rep_t" }
%"union.Timestamp::rep_t" = type { i64 }
%union.anon.13 = type { void (%class.Timer*, i8*)* }
%class.RouterThread = type { %struct.TaskLink, i8, [7 x i8], %class.TimerSet, %class.SelectSet, [32 x i8], %class.Spinlock, %class.atomic_uint32_t, %class.atomic_uint32_t, %"union.Task::Pending", %"union.Task::Pending"*, %class.SpinlockIRQ, [31 x i8], %class.Master*, i32, i8, i32, i32, [40 x i8] }
%struct.TaskLink = type <{ %struct.TaskLink*, %struct.TaskLink*, i32, [4 x i8] }>
%class.TimerSet = type <{ %class.Timestamp, i32, i32, i32, [4 x i8], %class.Vector.14, %class.Vector.15, %class.SimpleSpinlock, [7 x i8], %class.Timestamp, i32, [4 x i8] }>
%class.Vector.14 = type { %class.vector_memory.9 }
%class.Vector.15 = type { %class.vector_memory }
%class.SimpleSpinlock = type { i8 }
%class.SelectSet = type { [2 x i32], i8, %class.Vector.16, %class.Vector.17 }
%class.Vector.16 = type { %class.vector_memory }
%class.Vector.17 = type { %class.vector_memory.18 }
%class.vector_memory.18 = type { %struct.char_array.19*, i32, i32 }
%struct.char_array.19 = type opaque
%class.Spinlock = type { i8 }
%"union.Task::Pending" = type { %class.Task* }
%class.Task = type { %struct.TaskLink.base, i32, i32, %"union.Task::Status", i1 (%class.Task*, i8*)*, i8*, %class.RouterThread*, %class.Element*, %"union.Task::Pending" }
%struct.TaskLink.base = type <{ %struct.TaskLink*, %struct.TaskLink*, i32 }>
%"union.Task::Status" = type { i32 }
%class.SpinlockIRQ = type { i8 }
%class.Args = type { %class.ArgContext.base, i8, i8, i8, %class.Vector.0*, %class.Vector.5, %"struct.Args::Slot"*, [48 x i8] }
%class.ArgContext.base = type <{ %class.Element*, %class.ErrorHandler*, i8*, i8 }>
%"struct.Args::Slot" = type { i32 (...)**, %"struct.Args::Slot"* }
%class.Packet = type { %class.atomic_uint32_t, %class.Packet*, i8*, i8*, i8*, i8*, %"struct.Packet::AllAnno", void (i8*, i64, i8*)*, i8* }
%"struct.Packet::AllAnno" = type { %"union.Packet::Anno", i8*, i8*, i8*, i32, [8 x i8], %class.Packet*, %class.Packet* }
%"union.Packet::Anno" = type { [6 x i64] }
%class.WritablePacket = type { %class.Packet }
%struct.click_ether = type { [6 x i8], [6 x i8], i16 }
%struct.grid_hdr = type { i32, i8, i8, i8, i8, i32, %struct.grid_location, i16, i8, i8, i32, i32, %struct.grid_location, i16, i8, i8, i32, i16, i16 }
%struct.grid_location = type { i32, i32, i32 }
%struct.uninitialized_type = type { i8 }
%struct.timespec = type { i64, i64 }
%struct.DefaultArg = type { %class.IntArg }
%class.IntArg = type { i32, i32 }
%class.ArgContext = type <{ %class.Element*, %class.ErrorHandler*, i8*, i8, [7 x i8] }>
%class.NumArg = type { i8 }
%struct.DefaultArg.20 = type { %class.EtherAddressArg }
%class.EtherAddressArg = type { i32 }
%struct.DefaultArg.21 = type { i8 }

$_ZN12EtherAddressC2Ev = comdat any

$_ZN9IPAddressC2Ev = comdat any

$_ZN5TimerD2Ev = comdat any

$_ZN4Args7read_mpIiEERS_PKcRT_ = comdat any

$_ZN4Args7read_mpI12EtherAddressEERS_PKcRT_ = comdat any

$_ZN4Args7read_mpI9IPAddressEERS_PKcRT_ = comdat any

$_ZN5Timer19schedule_after_msecEj = comdat any

$_ZNK7Element6outputEi = comdat any

$_ZNK7Element4Port4pushEP6Packet = comdat any

$_Z12click_randomv = comdat any

$_ZN6Packet4makeEj = comdat any

$_ZNK6String5c_strEv = comdat any

$_ZN6StringD2Ev = comdat any

$_ZNK14WritablePacket4dataEv = comdat any

$_ZN6Packet4pullEj = comdat any

$_ZNK6Packet6lengthEv = comdat any

$_ZN6Packet18set_timestamp_annoERK9Timestamp = comdat any

$_ZN9Timestamp3nowEv = comdat any

$_ZN12EtherAddress4dataEv = comdat any

$_ZNK9IPAddresscvjEv = comdat any

$_ZNK13SendGridHello10class_nameEv = comdat any

$_ZNK13SendGridHello10port_countEv = comdat any

$_ZNK13SendGridHello10processingEv = comdat any

$_ZNK5Timer9scheduledEv = comdat any

$__clang_call_terminate = comdat any

$_ZN9Timestamp9make_msecEl = comdat any

$_ZN9TimestampC2ERK18uninitialized_type = comdat any

$_ZNK7Element4portEbi = comdat any

$_ZNK6String5derefEv = comdat any

$_ZN15atomic_uint32_t12dec_and_testERVj = comdat any

$_ZNK6Packet4dataEv = comdat any

$_ZN6Packet14timestamp_annoEv = comdat any

$_ZN9Timestamp10assign_nowEv = comdat any

$_ZN9Timestamp10assign_nowEbbb = comdat any

$_ZN9Timestamp6assignEij = comdat any

$_ZN9Timestamp14nsec_to_subsecEj = comdat any

$_ZN4Args4readIiEERS_PKciRT_ = comdat any

$_Z14args_base_readIiEvP4ArgsPKciRT_ = comdat any

$_ZN4Args9base_readIiEEvPKciRT_ = comdat any

$_ZNK6StringcvMS_KFivEEv = comdat any

$_ZN17Args_parse_helperI10DefaultArgIiELb0EE4slotIi4ArgsEEPT_RS5_RT0_ = comdat any

$_ZN17Args_parse_helperI10DefaultArgIiELb0EE5parseIi4ArgsEEbS1_RK6StringRT_RT0_ = comdat any

$_ZN10DefaultArgIiEC2Ev = comdat any

$_ZNK6String6lengthEv = comdat any

$_ZN4Args4slotIiEEPT_RS1_ = comdat any

$_ZN6IntArg5parseIiEEbRK6StringRT_RK10ArgContext = comdat any

$_ZN6IntArg16parse_saturatingIiEEbRK6StringRT_RK10ArgContext = comdat any

$_ZNK6String5beginEv = comdat any

$_ZNK6String3endEv = comdat any

$_Z15extract_integerIjjEvPKT_RT0_ = comdat any

$_ZN22extract_integer_helperILi1EjjE7extractEPKjRj = comdat any

$_ZN6IntArgC2Ei = comdat any

$_ZN4Args4readI12EtherAddressEERS_PKciRT_ = comdat any

$_Z14args_base_readI12EtherAddressEvP4ArgsPKciRT_ = comdat any

$_ZN4Args9base_readI12EtherAddressEEvPKciRT_ = comdat any

$_ZN17Args_parse_helperI10DefaultArgI12EtherAddressELb1EE4slotIS1_4ArgsEEPT_RS6_RT0_ = comdat any

$_ZN17Args_parse_helperI10DefaultArgI12EtherAddressELb1EE5parseIS1_4ArgsEEbS2_RK6StringRT_RT0_ = comdat any

$_ZN10DefaultArgI12EtherAddressEC2Ev = comdat any

$_ZN15EtherAddressArg12direct_parseERK6StringR12EtherAddressR4Args = comdat any

$_ZN15EtherAddressArgC2Ei = comdat any

$_ZN4Args4readI9IPAddressEERS_PKciRT_ = comdat any

$_Z14args_base_readI9IPAddressEvP4ArgsPKciRT_ = comdat any

$_ZN4Args9base_readI9IPAddressEEvPKciRT_ = comdat any

$_ZN17Args_parse_helperI10DefaultArgI9IPAddressELb0EE4slotIS1_4ArgsEEPT_RS6_RT0_ = comdat any

$_ZN17Args_parse_helperI10DefaultArgI9IPAddressELb0EE5parseIS1_4ArgsEEbS2_RK6StringRT_RT0_ = comdat any

$_ZN4Args4slotI9IPAddressEEPT_RS2_ = comdat any

@_ZTV13SendGridHello = unnamed_addr constant { [29 x i8*] } { [29 x i8*] [i8* null, i8* bitcast ({ i8*, i8*, i8* }* @_ZTI13SendGridHello to i8*), i8* bitcast (void (%class.SendGridHello*)* @_ZN13SendGridHelloD1Ev to i8*), i8* bitcast (void (%class.SendGridHello*)* @_ZN13SendGridHelloD0Ev to i8*), i8* bitcast (void (%class.Element*, i32, %class.Packet*)* @_ZN7Element4pushEiP6Packet to i8*), i8* bitcast (%class.Packet* (%class.Element*, i32)* @_ZN7Element4pullEi to i8*), i8* bitcast (%class.Packet* (%class.Element*, %class.Packet*)* @_ZN7Element13simple_actionEP6Packet to i8*), i8* bitcast (i1 (%class.Element*, %class.Task*)* @_ZN7Element8run_taskEP4Task to i8*), i8* bitcast (void (%class.SendGridHello*, %class.Timer*)* @_ZN13SendGridHello9run_timerEP5Timer to i8*), i8* bitcast (void (%class.Element*, i32, i32)* @_ZN7Element8selectedEii to i8*), i8* bitcast (void (%class.Element*, i32)* @_ZN7Element8selectedEi to i8*), i8* bitcast (i8* (%class.SendGridHello*)* @_ZNK13SendGridHello10class_nameEv to i8*), i8* bitcast (i8* (%class.SendGridHello*)* @_ZNK13SendGridHello10port_countEv to i8*), i8* bitcast (i8* (%class.SendGridHello*)* @_ZNK13SendGridHello10processingEv to i8*), i8* bitcast (i8* (%class.Element*)* @_ZNK7Element9flow_codeEv to i8*), i8* bitcast (i8* (%class.Element*)* @_ZNK7Element5flagsEv to i8*), i8* bitcast (i8* (%class.Element*, i8*)* @_ZN7Element4castEPKc to i8*), i8* bitcast (i8* (%class.Element*, i1, i32, i8*)* @_ZN7Element9port_castEbiPKc to i8*), i8* bitcast (i32 (%class.Element*)* @_ZNK7Element15configure_phaseEv to i8*), i8* bitcast (i32 (%class.SendGridHello*, %class.Vector.0*, %class.ErrorHandler*)* @_ZN13SendGridHello9configureER6VectorI6StringEP12ErrorHandler to i8*), i8* bitcast (void (%class.Element*)* @_ZN7Element12add_handlersEv to i8*), i8* bitcast (i32 (%class.SendGridHello*, %class.ErrorHandler*)* @_ZN13SendGridHello10initializeEP12ErrorHandler to i8*), i8* bitcast (void (%class.Element*, %class.Element*, %class.ErrorHandler*)* @_ZN7Element10take_stateEPS_P12ErrorHandler to i8*), i8* bitcast (%class.Element* (%class.Element*)* @_ZNK7Element15hotswap_elementEv to i8*), i8* bitcast (void (%class.Element*, i32)* @_ZN7Element7cleanupENS_12CleanupStageE to i8*), i8* bitcast (void (%class.String*, %class.Element*)* @_ZNK7Element11declarationEv to i8*), i8* bitcast (i1 (%class.Element*)* @_ZNK7Element20can_live_reconfigureEv to i8*), i8* bitcast (i32 (%class.Element*, %class.Vector.0*, %class.ErrorHandler*)* @_ZN7Element16live_reconfigureER6VectorI6StringEP12ErrorHandler to i8*), i8* bitcast (i32 (%class.Element*, i32, i8*)* @_ZN7Element5llrpcEjPv to i8*)] }, align 8
@.str = private unnamed_addr constant [7 x i8] c"PERIOD\00", align 1
@.str.1 = private unnamed_addr constant [7 x i8] c"JITTER\00", align 1
@.str.2 = private unnamed_addr constant [4 x i8] c"ETH\00", align 1
@.str.3 = private unnamed_addr constant [3 x i8] c"IP\00", align 1
@.str.4 = private unnamed_addr constant [30 x i8] c"period must be greater than 0\00", align 1
@.str.5 = private unnamed_addr constant [24 x i8] c"period must be positive\00", align 1
@.str.6 = private unnamed_addr constant [29 x i8] c"jitter is bigger than period\00", align 1
@.str.7 = private unnamed_addr constant [27 x i8] c"in %s: cannot make packet!\00", align 1
@.str.8 = private unnamed_addr constant [2 x i8] c"0\00", align 1
@.str.9 = private unnamed_addr constant [35 x i8] c"../../click/elements/grid/hello.cc\00", align 1
@__PRETTY_FUNCTION__._ZN13SendGridHello10make_helloEv = private unnamed_addr constant [36 x i8] c"Packet *SendGridHello::make_hello()\00", align 1
@.str.10 = private unnamed_addr constant [35 x i8] c"((uintptr_t) (p->data()) % 4) == 0\00", align 1
@_ZTVN10__cxxabiv120__si_class_type_infoE = external global i8*
@_ZTS13SendGridHello = constant [16 x i8] c"13SendGridHello\00"
@_ZTI7Element = external constant i8*
@_ZTI13SendGridHello = constant { i8*, i8*, i8* } { i8* bitcast (i8** getelementptr inbounds (i8*, i8** @_ZTVN10__cxxabiv120__si_class_type_infoE, i64 2) to i8*), i8* getelementptr inbounds ([16 x i8], [16 x i8]* @_ZTS13SendGridHello, i32 0, i32 0), i8* bitcast (i8** @_ZTI7Element to i8*) }
@.str.11 = private unnamed_addr constant [47 x i8] c"(unsigned) port < (unsigned) _nports[isoutput]\00", align 1
@.str.12 = private unnamed_addr constant [36 x i8] c"/usr/local/include/click/element.hh\00", align 1
@__PRETTY_FUNCTION__._ZNK7Element4portEbi = private unnamed_addr constant [52 x i8] c"const Element::Port &Element::port(bool, int) const\00", align 1
@.str.13 = private unnamed_addr constant [8 x i8] c"_e && p\00", align 1
@__PRETTY_FUNCTION__._ZNK7Element4Port4pushEP6Packet = private unnamed_addr constant [41 x i8] c"void Element::Port::push(Packet *) const\00", align 1
@.str.14 = private unnamed_addr constant [18 x i8] c"_r.memo->refcount\00", align 1
@.str.15 = private unnamed_addr constant [35 x i8] c"/usr/local/include/click/string.hh\00", align 1
@__PRETTY_FUNCTION__._ZNK6String5derefEv = private unnamed_addr constant [27 x i8] c"void String::deref() const\00", align 1
@.str.16 = private unnamed_addr constant [29 x i8] c"Packet::pull %d > length %d\0A\00", align 1
@_ZN13TimestampWarp4kindE = external global i32, align 4
@.str.17 = private unnamed_addr constant [14 x i8] c"SendGridHello\00", align 1
@_ZN7Element9PORTS_0_1E = external constant [0 x i8], align 1
@_ZN7Element4PUSHE = external constant [0 x i8], align 1
@.str.18 = private unnamed_addr constant [15 x i8] c"invalid number\00", align 1

@_ZN13SendGridHelloC1Ev = alias void (%class.SendGridHello*), void (%class.SendGridHello*)* @_ZN13SendGridHelloC2Ev
@_ZN13SendGridHelloD1Ev = alias void (%class.SendGridHello*), void (%class.SendGridHello*)* @_ZN13SendGridHelloD2Ev

; Function Attrs: noinline optnone uwtable
define void @_ZN13SendGridHelloC2Ev(%class.SendGridHello*) unnamed_addr #0 align 2 personality i8* bitcast (i32 (...)* @__gxx_personality_v0 to i8*) {
  %2 = alloca %class.SendGridHello*, align 8
  %3 = alloca i8*
  %4 = alloca i32
  store %class.SendGridHello* %0, %class.SendGridHello** %2, align 8
  %5 = load %class.SendGridHello*, %class.SendGridHello** %2, align 8
  %6 = bitcast %class.SendGridHello* %5 to %class.Element*
  call void @_ZN7ElementC2Ev(%class.Element* %6)
  %7 = bitcast %class.SendGridHello* %5 to i32 (...)***
  store i32 (...)** bitcast (i8** getelementptr inbounds ({ [29 x i8*] }, { [29 x i8*] }* @_ZTV13SendGridHello, i32 0, inrange i32 0, i32 2) to i32 (...)**), i32 (...)*** %7, align 8
  %8 = getelementptr inbounds %class.SendGridHello, %class.SendGridHello* %5, i32 0, i32 1
  invoke void @_ZN12EtherAddressC2Ev(%class.EtherAddress* %8)
          to label %9 unwind label %15

; <label>:9:                                      ; preds = %1
  %10 = getelementptr inbounds %class.SendGridHello, %class.SendGridHello* %5, i32 0, i32 2
  invoke void @_ZN9IPAddressC2Ev(%class.IPAddress* %10)
          to label %11 unwind label %15

; <label>:11:                                     ; preds = %9
  %12 = getelementptr inbounds %class.SendGridHello, %class.SendGridHello* %5, i32 0, i32 5
  %13 = bitcast %class.SendGridHello* %5 to %class.Element*
  invoke void @_ZN5TimerC1EP7Element(%class.Timer* %12, %class.Element* %13)
          to label %14 unwind label %15

; <label>:14:                                     ; preds = %11
  ret void

; <label>:15:                                     ; preds = %11, %9, %1
  %16 = landingpad { i8*, i32 }
          cleanup
  %17 = extractvalue { i8*, i32 } %16, 0
  store i8* %17, i8** %3, align 8
  %18 = extractvalue { i8*, i32 } %16, 1
  store i32 %18, i32* %4, align 4
  %19 = bitcast %class.SendGridHello* %5 to %class.Element*
  call void @_ZN7ElementD2Ev(%class.Element* %19) #9
  br label %20

; <label>:20:                                     ; preds = %15
  %21 = load i8*, i8** %3, align 8
  %22 = load i32, i32* %4, align 4
  %23 = insertvalue { i8*, i32 } undef, i8* %21, 0
  %24 = insertvalue { i8*, i32 } %23, i32 %22, 1
  resume { i8*, i32 } %24
}

declare void @_ZN7ElementC2Ev(%class.Element*) unnamed_addr #1

; Function Attrs: noinline nounwind optnone uwtable
define linkonce_odr void @_ZN12EtherAddressC2Ev(%class.EtherAddress*) unnamed_addr #2 comdat align 2 {
  %2 = alloca %class.EtherAddress*, align 8
  store %class.EtherAddress* %0, %class.EtherAddress** %2, align 8
  %3 = load %class.EtherAddress*, %class.EtherAddress** %2, align 8
  %4 = getelementptr inbounds %class.EtherAddress, %class.EtherAddress* %3, i32 0, i32 0
  %5 = getelementptr inbounds [3 x i16], [3 x i16]* %4, i64 0, i64 2
  store i16 0, i16* %5, align 1
  %6 = getelementptr inbounds %class.EtherAddress, %class.EtherAddress* %3, i32 0, i32 0
  %7 = getelementptr inbounds [3 x i16], [3 x i16]* %6, i64 0, i64 1
  store i16 0, i16* %7, align 1
  %8 = getelementptr inbounds %class.EtherAddress, %class.EtherAddress* %3, i32 0, i32 0
  %9 = getelementptr inbounds [3 x i16], [3 x i16]* %8, i64 0, i64 0
  store i16 0, i16* %9, align 1
  ret void
}

declare i32 @__gxx_personality_v0(...)

; Function Attrs: noinline nounwind optnone uwtable
define linkonce_odr void @_ZN9IPAddressC2Ev(%class.IPAddress*) unnamed_addr #2 comdat align 2 {
  %2 = alloca %class.IPAddress*, align 8
  store %class.IPAddress* %0, %class.IPAddress** %2, align 8
  %3 = load %class.IPAddress*, %class.IPAddress** %2, align 8
  %4 = getelementptr inbounds %class.IPAddress, %class.IPAddress* %3, i32 0, i32 0
  store i32 0, i32* %4, align 4
  ret void
}

declare void @_ZN5TimerC1EP7Element(%class.Timer*, %class.Element*) unnamed_addr #1

; Function Attrs: nounwind
declare void @_ZN7ElementD2Ev(%class.Element*) unnamed_addr #3

; Function Attrs: noinline nounwind optnone uwtable
define void @_ZN13SendGridHelloD2Ev(%class.SendGridHello*) unnamed_addr #2 align 2 {
  %2 = alloca %class.SendGridHello*, align 8
  store %class.SendGridHello* %0, %class.SendGridHello** %2, align 8
  %3 = load %class.SendGridHello*, %class.SendGridHello** %2, align 8
  %4 = bitcast %class.SendGridHello* %3 to i32 (...)***
  store i32 (...)** bitcast (i8** getelementptr inbounds ({ [29 x i8*] }, { [29 x i8*] }* @_ZTV13SendGridHello, i32 0, inrange i32 0, i32 2) to i32 (...)**), i32 (...)*** %4, align 8
  %5 = getelementptr inbounds %class.SendGridHello, %class.SendGridHello* %3, i32 0, i32 5
  call void @_ZN5TimerD2Ev(%class.Timer* %5) #9
  %6 = bitcast %class.SendGridHello* %3 to %class.Element*
  call void @_ZN7ElementD2Ev(%class.Element* %6) #9
  ret void
}

; Function Attrs: noinline nounwind optnone uwtable
define linkonce_odr void @_ZN5TimerD2Ev(%class.Timer*) unnamed_addr #2 comdat align 2 personality i8* bitcast (i32 (...)* @__gxx_personality_v0 to i8*) {
  %2 = alloca %class.Timer*, align 8
  store %class.Timer* %0, %class.Timer** %2, align 8
  %3 = load %class.Timer*, %class.Timer** %2, align 8
  %4 = invoke zeroext i1 @_ZNK5Timer9scheduledEv(%class.Timer* %3)
          to label %5 unwind label %9

; <label>:5:                                      ; preds = %1
  br i1 %4, label %6, label %8

; <label>:6:                                      ; preds = %5
  invoke void @_ZN5Timer10unscheduleEv(%class.Timer* %3)
          to label %7 unwind label %9

; <label>:7:                                      ; preds = %6
  br label %8

; <label>:8:                                      ; preds = %7, %5
  ret void

; <label>:9:                                      ; preds = %6, %1
  %10 = landingpad { i8*, i32 }
          catch i8* null
  %11 = extractvalue { i8*, i32 } %10, 0
  call void @__clang_call_terminate(i8* %11) #10
  unreachable
}

; Function Attrs: noinline nounwind optnone uwtable
define void @_ZN13SendGridHelloD0Ev(%class.SendGridHello*) unnamed_addr #2 align 2 {
  %2 = alloca %class.SendGridHello*, align 8
  store %class.SendGridHello* %0, %class.SendGridHello** %2, align 8
  %3 = load %class.SendGridHello*, %class.SendGridHello** %2, align 8
  call void @_ZN13SendGridHelloD1Ev(%class.SendGridHello* %3) #9
  %4 = bitcast %class.SendGridHello* %3 to i8*
  call void @_ZdlPv(i8* %4) #11
  ret void
}

; Function Attrs: nobuiltin nounwind
declare void @_ZdlPv(i8*) #4

; Function Attrs: noinline optnone uwtable
define i32 @_ZN13SendGridHello9configureER6VectorI6StringEP12ErrorHandler(%class.SendGridHello*, %class.Vector.0* dereferenceable(16), %class.ErrorHandler*) unnamed_addr #0 align 2 personality i8* bitcast (i32 (...)* @__gxx_personality_v0 to i8*) {
  %4 = alloca i32, align 4
  %5 = alloca %class.SendGridHello*, align 8
  %6 = alloca %class.Vector.0*, align 8
  %7 = alloca %class.ErrorHandler*, align 8
  %8 = alloca i32, align 4
  %9 = alloca %class.Args, align 8
  %10 = alloca i8*
  %11 = alloca i32
  store %class.SendGridHello* %0, %class.SendGridHello** %5, align 8
  store %class.Vector.0* %1, %class.Vector.0** %6, align 8
  store %class.ErrorHandler* %2, %class.ErrorHandler** %7, align 8
  %12 = load %class.SendGridHello*, %class.SendGridHello** %5, align 8
  %13 = load %class.Vector.0*, %class.Vector.0** %6, align 8
  %14 = bitcast %class.SendGridHello* %12 to %class.Element*
  %15 = load %class.ErrorHandler*, %class.ErrorHandler** %7, align 8
  call void @_ZN4ArgsC1ERK6VectorI6StringEPK7ElementP12ErrorHandler(%class.Args* %9, %class.Vector.0* dereferenceable(16) %13, %class.Element* %14, %class.ErrorHandler* %15)
  %16 = getelementptr inbounds %class.SendGridHello, %class.SendGridHello* %12, i32 0, i32 3
  %17 = invoke dereferenceable(112) %class.Args* @_ZN4Args7read_mpIiEERS_PKcRT_(%class.Args* %9, i8* getelementptr inbounds ([7 x i8], [7 x i8]* @.str, i32 0, i32 0), i32* dereferenceable(4) %16)
          to label %18 unwind label %34

; <label>:18:                                     ; preds = %3
  %19 = getelementptr inbounds %class.SendGridHello, %class.SendGridHello* %12, i32 0, i32 4
  %20 = invoke dereferenceable(112) %class.Args* @_ZN4Args7read_mpIiEERS_PKcRT_(%class.Args* %17, i8* getelementptr inbounds ([7 x i8], [7 x i8]* @.str.1, i32 0, i32 0), i32* dereferenceable(4) %19)
          to label %21 unwind label %34

; <label>:21:                                     ; preds = %18
  %22 = getelementptr inbounds %class.SendGridHello, %class.SendGridHello* %12, i32 0, i32 1
  %23 = invoke dereferenceable(112) %class.Args* @_ZN4Args7read_mpI12EtherAddressEERS_PKcRT_(%class.Args* %20, i8* getelementptr inbounds ([4 x i8], [4 x i8]* @.str.2, i32 0, i32 0), %class.EtherAddress* dereferenceable(6) %22)
          to label %24 unwind label %34

; <label>:24:                                     ; preds = %21
  %25 = getelementptr inbounds %class.SendGridHello, %class.SendGridHello* %12, i32 0, i32 2
  %26 = invoke dereferenceable(112) %class.Args* @_ZN4Args7read_mpI9IPAddressEERS_PKcRT_(%class.Args* %23, i8* getelementptr inbounds ([3 x i8], [3 x i8]* @.str.3, i32 0, i32 0), %class.IPAddress* dereferenceable(4) %25)
          to label %27 unwind label %34

; <label>:27:                                     ; preds = %24
  %28 = invoke i32 @_ZN4Args8completeEv(%class.Args* %26)
          to label %29 unwind label %34

; <label>:29:                                     ; preds = %27
  call void @_ZN4ArgsD1Ev(%class.Args* %9) #9
  store i32 %28, i32* %8, align 4
  %30 = load i32, i32* %8, align 4
  %31 = icmp slt i32 %30, 0
  br i1 %31, label %32, label %38

; <label>:32:                                     ; preds = %29
  %33 = load i32, i32* %8, align 4
  store i32 %33, i32* %4, align 4
  br label %63

; <label>:34:                                     ; preds = %27, %24, %21, %18, %3
  %35 = landingpad { i8*, i32 }
          cleanup
  %36 = extractvalue { i8*, i32 } %35, 0
  store i8* %36, i8** %10, align 8
  %37 = extractvalue { i8*, i32 } %35, 1
  store i32 %37, i32* %11, align 4
  call void @_ZN4ArgsD1Ev(%class.Args* %9) #9
  br label %65

; <label>:38:                                     ; preds = %29
  %39 = getelementptr inbounds %class.SendGridHello, %class.SendGridHello* %12, i32 0, i32 3
  %40 = load i32, i32* %39, align 8
  %41 = icmp sle i32 %40, 0
  br i1 %41, label %42, label %45

; <label>:42:                                     ; preds = %38
  %43 = load %class.ErrorHandler*, %class.ErrorHandler** %7, align 8
  %44 = call i32 (%class.ErrorHandler*, i8*, ...) @_ZN12ErrorHandler5errorEPKcz(%class.ErrorHandler* %43, i8* getelementptr inbounds ([30 x i8], [30 x i8]* @.str.4, i32 0, i32 0))
  store i32 %44, i32* %4, align 4
  br label %63

; <label>:45:                                     ; preds = %38
  %46 = getelementptr inbounds %class.SendGridHello, %class.SendGridHello* %12, i32 0, i32 4
  %47 = load i32, i32* %46, align 4
  %48 = icmp slt i32 %47, 0
  br i1 %48, label %49, label %52

; <label>:49:                                     ; preds = %45
  %50 = load %class.ErrorHandler*, %class.ErrorHandler** %7, align 8
  %51 = call i32 (%class.ErrorHandler*, i8*, ...) @_ZN12ErrorHandler5errorEPKcz(%class.ErrorHandler* %50, i8* getelementptr inbounds ([24 x i8], [24 x i8]* @.str.5, i32 0, i32 0))
  store i32 %51, i32* %4, align 4
  br label %63

; <label>:52:                                     ; preds = %45
  %53 = getelementptr inbounds %class.SendGridHello, %class.SendGridHello* %12, i32 0, i32 4
  %54 = load i32, i32* %53, align 4
  %55 = getelementptr inbounds %class.SendGridHello, %class.SendGridHello* %12, i32 0, i32 3
  %56 = load i32, i32* %55, align 8
  %57 = icmp sgt i32 %54, %56
  br i1 %57, label %58, label %61

; <label>:58:                                     ; preds = %52
  %59 = load %class.ErrorHandler*, %class.ErrorHandler** %7, align 8
  %60 = call i32 (%class.ErrorHandler*, i8*, ...) @_ZN12ErrorHandler5errorEPKcz(%class.ErrorHandler* %59, i8* getelementptr inbounds ([29 x i8], [29 x i8]* @.str.6, i32 0, i32 0))
  store i32 %60, i32* %4, align 4
  br label %63

; <label>:61:                                     ; preds = %52
  %62 = load i32, i32* %8, align 4
  store i32 %62, i32* %4, align 4
  br label %63

; <label>:63:                                     ; preds = %61, %58, %49, %42, %32
  %64 = load i32, i32* %4, align 4
  ret i32 %64

; <label>:65:                                     ; preds = %34
  %66 = load i8*, i8** %10, align 8
  %67 = load i32, i32* %11, align 4
  %68 = insertvalue { i8*, i32 } undef, i8* %66, 0
  %69 = insertvalue { i8*, i32 } %68, i32 %67, 1
  resume { i8*, i32 } %69
}

declare void @_ZN4ArgsC1ERK6VectorI6StringEPK7ElementP12ErrorHandler(%class.Args*, %class.Vector.0* dereferenceable(16), %class.Element*, %class.ErrorHandler*) unnamed_addr #1

; Function Attrs: noinline optnone uwtable
define linkonce_odr dereferenceable(112) %class.Args* @_ZN4Args7read_mpIiEERS_PKcRT_(%class.Args*, i8*, i32* dereferenceable(4)) #0 comdat align 2 {
  %4 = alloca %class.Args*, align 8
  %5 = alloca i8*, align 8
  %6 = alloca i32*, align 8
  store %class.Args* %0, %class.Args** %4, align 8
  store i8* %1, i8** %5, align 8
  store i32* %2, i32** %6, align 8
  %7 = load %class.Args*, %class.Args** %4, align 8
  %8 = load i8*, i8** %5, align 8
  %9 = load i32*, i32** %6, align 8
  %10 = call dereferenceable(112) %class.Args* @_ZN4Args4readIiEERS_PKciRT_(%class.Args* %7, i8* %8, i32 3, i32* dereferenceable(4) %9)
  ret %class.Args* %10
}

; Function Attrs: noinline optnone uwtable
define linkonce_odr dereferenceable(112) %class.Args* @_ZN4Args7read_mpI12EtherAddressEERS_PKcRT_(%class.Args*, i8*, %class.EtherAddress* dereferenceable(6)) #0 comdat align 2 {
  %4 = alloca %class.Args*, align 8
  %5 = alloca i8*, align 8
  %6 = alloca %class.EtherAddress*, align 8
  store %class.Args* %0, %class.Args** %4, align 8
  store i8* %1, i8** %5, align 8
  store %class.EtherAddress* %2, %class.EtherAddress** %6, align 8
  %7 = load %class.Args*, %class.Args** %4, align 8
  %8 = load i8*, i8** %5, align 8
  %9 = load %class.EtherAddress*, %class.EtherAddress** %6, align 8
  %10 = call dereferenceable(112) %class.Args* @_ZN4Args4readI12EtherAddressEERS_PKciRT_(%class.Args* %7, i8* %8, i32 3, %class.EtherAddress* dereferenceable(6) %9)
  ret %class.Args* %10
}

; Function Attrs: noinline optnone uwtable
define linkonce_odr dereferenceable(112) %class.Args* @_ZN4Args7read_mpI9IPAddressEERS_PKcRT_(%class.Args*, i8*, %class.IPAddress* dereferenceable(4)) #0 comdat align 2 {
  %4 = alloca %class.Args*, align 8
  %5 = alloca i8*, align 8
  %6 = alloca %class.IPAddress*, align 8
  store %class.Args* %0, %class.Args** %4, align 8
  store i8* %1, i8** %5, align 8
  store %class.IPAddress* %2, %class.IPAddress** %6, align 8
  %7 = load %class.Args*, %class.Args** %4, align 8
  %8 = load i8*, i8** %5, align 8
  %9 = load %class.IPAddress*, %class.IPAddress** %6, align 8
  %10 = call dereferenceable(112) %class.Args* @_ZN4Args4readI9IPAddressEERS_PKciRT_(%class.Args* %7, i8* %8, i32 3, %class.IPAddress* dereferenceable(4) %9)
  ret %class.Args* %10
}

declare i32 @_ZN4Args8completeEv(%class.Args*) #1

; Function Attrs: nounwind
declare void @_ZN4ArgsD1Ev(%class.Args*) unnamed_addr #3

declare i32 @_ZN12ErrorHandler5errorEPKcz(%class.ErrorHandler*, i8*, ...) #1

; Function Attrs: noinline optnone uwtable
define i32 @_ZN13SendGridHello10initializeEP12ErrorHandler(%class.SendGridHello*, %class.ErrorHandler*) unnamed_addr #0 align 2 {
  %3 = alloca %class.SendGridHello*, align 8
  %4 = alloca %class.ErrorHandler*, align 8
  store %class.SendGridHello* %0, %class.SendGridHello** %3, align 8
  store %class.ErrorHandler* %1, %class.ErrorHandler** %4, align 8
  %5 = load %class.SendGridHello*, %class.SendGridHello** %3, align 8
  %6 = getelementptr inbounds %class.SendGridHello, %class.SendGridHello* %5, i32 0, i32 5
  %7 = bitcast %class.SendGridHello* %5 to %class.Element*
  call void @_ZN5Timer10initializeEP7Elementb(%class.Timer* %6, %class.Element* %7, i1 zeroext false)
  %8 = getelementptr inbounds %class.SendGridHello, %class.SendGridHello* %5, i32 0, i32 5
  %9 = getelementptr inbounds %class.SendGridHello, %class.SendGridHello* %5, i32 0, i32 3
  %10 = load i32, i32* %9, align 8
  call void @_ZN5Timer19schedule_after_msecEj(%class.Timer* %8, i32 %10)
  ret i32 0
}

declare void @_ZN5Timer10initializeEP7Elementb(%class.Timer*, %class.Element*, i1 zeroext) #1

; Function Attrs: noinline optnone uwtable
define linkonce_odr void @_ZN5Timer19schedule_after_msecEj(%class.Timer*, i32) #0 comdat align 2 {
  %3 = alloca %class.Timer*, align 8
  %4 = alloca i32, align 4
  %5 = alloca %class.Timestamp, align 8
  store %class.Timer* %0, %class.Timer** %3, align 8
  store i32 %1, i32* %4, align 4
  %6 = load %class.Timer*, %class.Timer** %3, align 8
  %7 = load i32, i32* %4, align 4
  %8 = zext i32 %7 to i64
  %9 = call i64 @_ZN9Timestamp9make_msecEl(i64 %8)
  %10 = getelementptr inbounds %class.Timestamp, %class.Timestamp* %5, i32 0, i32 0
  %11 = getelementptr inbounds %"union.Timestamp::rep_t", %"union.Timestamp::rep_t"* %10, i32 0, i32 0
  store i64 %9, i64* %11, align 8
  call void @_ZN5Timer14schedule_afterERK9Timestamp(%class.Timer* %6, %class.Timestamp* dereferenceable(8) %5)
  ret void
}

; Function Attrs: noinline optnone uwtable
define void @_ZN13SendGridHello9run_timerEP5Timer(%class.SendGridHello*, %class.Timer*) unnamed_addr #0 align 2 {
  %3 = alloca %class.SendGridHello*, align 8
  %4 = alloca %class.Timer*, align 8
  %5 = alloca i32, align 4
  %6 = alloca double, align 8
  %7 = alloca i32, align 4
  store %class.SendGridHello* %0, %class.SendGridHello** %3, align 8
  store %class.Timer* %1, %class.Timer** %4, align 8
  %8 = load %class.SendGridHello*, %class.SendGridHello** %3, align 8
  %9 = bitcast %class.SendGridHello* %8 to %class.Element*
  %10 = call dereferenceable(16) %"class.Element::Port"* @_ZNK7Element6outputEi(%class.Element* %9, i32 0)
  %11 = call %class.Packet* @_ZN13SendGridHello10make_helloEv(%class.SendGridHello* %8)
  call void @_ZNK7Element4Port4pushEP6Packet(%"class.Element::Port"* %10, %class.Packet* %11)
  %12 = call i32 @_Z12click_randomv()
  store i32 %12, i32* %5, align 4
  %13 = load i32, i32* %5, align 4
  %14 = lshr i32 %13, 1
  %15 = uitofp i32 %14 to double
  store double %15, double* %6, align 8
  %16 = getelementptr inbounds %class.SendGridHello, %class.SendGridHello* %8, i32 0, i32 4
  %17 = load i32, i32* %16, align 4
  %18 = sitofp i32 %17 to double
  %19 = load double, double* %6, align 8
  %20 = fmul double %18, %19
  %21 = fdiv double %20, 0x41DFFFFFFFC00000
  %22 = fptosi double %21 to i32
  store i32 %22, i32* %7, align 4
  %23 = load i32, i32* %5, align 4
  %24 = and i32 %23, 1
  %25 = icmp ne i32 %24, 0
  br i1 %25, label %26, label %29

; <label>:26:                                     ; preds = %2
  %27 = load i32, i32* %7, align 4
  %28 = mul nsw i32 %27, -1
  store i32 %28, i32* %7, align 4
  br label %29

; <label>:29:                                     ; preds = %26, %2
  %30 = getelementptr inbounds %class.SendGridHello, %class.SendGridHello* %8, i32 0, i32 5
  %31 = getelementptr inbounds %class.SendGridHello, %class.SendGridHello* %8, i32 0, i32 3
  %32 = load i32, i32* %31, align 8
  %33 = load i32, i32* %7, align 4
  %34 = add nsw i32 %32, %33
  call void @_ZN5Timer19schedule_after_msecEj(%class.Timer* %30, i32 %34)
  ret void
}

; Function Attrs: noinline optnone uwtable
define linkonce_odr dereferenceable(16) %"class.Element::Port"* @_ZNK7Element6outputEi(%class.Element*, i32) #0 comdat align 2 {
  %3 = alloca %class.Element*, align 8
  %4 = alloca i32, align 4
  store %class.Element* %0, %class.Element** %3, align 8
  store i32 %1, i32* %4, align 4
  %5 = load %class.Element*, %class.Element** %3, align 8
  %6 = load i32, i32* %4, align 4
  %7 = call dereferenceable(16) %"class.Element::Port"* @_ZNK7Element4portEbi(%class.Element* %5, i1 zeroext true, i32 %6)
  ret %"class.Element::Port"* %7
}

; Function Attrs: noinline optnone uwtable
define linkonce_odr void @_ZNK7Element4Port4pushEP6Packet(%"class.Element::Port"*, %class.Packet*) #0 comdat align 2 {
  %3 = alloca %"class.Element::Port"*, align 8
  %4 = alloca %class.Packet*, align 8
  store %"class.Element::Port"* %0, %"class.Element::Port"** %3, align 8
  store %class.Packet* %1, %class.Packet** %4, align 8
  %5 = load %"class.Element::Port"*, %"class.Element::Port"** %3, align 8
  %6 = getelementptr inbounds %"class.Element::Port", %"class.Element::Port"* %5, i32 0, i32 0
  %7 = load %class.Element*, %class.Element** %6, align 8
  %8 = icmp ne %class.Element* %7, null
  br i1 %8, label %9, label %12

; <label>:9:                                      ; preds = %2
  %10 = load %class.Packet*, %class.Packet** %4, align 8
  %11 = icmp ne %class.Packet* %10, null
  br label %12

; <label>:12:                                     ; preds = %9, %2
  %13 = phi i1 [ false, %2 ], [ %11, %9 ]
  br i1 %13, label %14, label %15

; <label>:14:                                     ; preds = %12
  br label %17

; <label>:15:                                     ; preds = %12
  call void @__assert_fail(i8* getelementptr inbounds ([8 x i8], [8 x i8]* @.str.13, i32 0, i32 0), i8* getelementptr inbounds ([36 x i8], [36 x i8]* @.str.12, i32 0, i32 0), i32 611, i8* getelementptr inbounds ([41 x i8], [41 x i8]* @__PRETTY_FUNCTION__._ZNK7Element4Port4pushEP6Packet, i32 0, i32 0)) #10
  unreachable
                                                  ; No predecessors!
  br label %17

; <label>:17:                                     ; preds = %16, %14
  %18 = getelementptr inbounds %"class.Element::Port", %"class.Element::Port"* %5, i32 0, i32 0
  %19 = load %class.Element*, %class.Element** %18, align 8
  %20 = bitcast %class.Element* %19 to void (%class.Element*, i32, %class.Packet*)***
  %21 = load void (%class.Element*, i32, %class.Packet*)**, void (%class.Element*, i32, %class.Packet*)*** %20, align 8
  %22 = getelementptr inbounds void (%class.Element*, i32, %class.Packet*)*, void (%class.Element*, i32, %class.Packet*)** %21, i64 2
  %23 = load void (%class.Element*, i32, %class.Packet*)*, void (%class.Element*, i32, %class.Packet*)** %22, align 8
  %24 = getelementptr inbounds %"class.Element::Port", %"class.Element::Port"* %5, i32 0, i32 1
  %25 = load i32, i32* %24, align 8
  %26 = load %class.Packet*, %class.Packet** %4, align 8
  call void %23(%class.Element* %19, i32 %25, %class.Packet* %26)
  ret void
}

; Function Attrs: noinline optnone uwtable
define %class.Packet* @_ZN13SendGridHello10make_helloEv(%class.SendGridHello*) #0 align 2 personality i8* bitcast (i32 (...)* @__gxx_personality_v0 to i8*) {
  %2 = alloca %class.SendGridHello*, align 8
  %3 = alloca i32, align 4
  %4 = alloca %class.WritablePacket*, align 8
  %5 = alloca %class.String, align 8
  %6 = alloca i8*
  %7 = alloca i32
  %8 = alloca %class.Timestamp, align 8
  %9 = alloca %struct.click_ether*, align 8
  %10 = alloca %struct.grid_hdr*, align 8
  store %class.SendGridHello* %0, %class.SendGridHello** %2, align 8
  %11 = load %class.SendGridHello*, %class.SendGridHello** %2, align 8
  store i32 74, i32* %3, align 4
  %12 = load i32, i32* %3, align 4
  %13 = add nsw i32 %12, 2
  %14 = call %class.WritablePacket* @_ZN6Packet4makeEj(i32 %13)
  store %class.WritablePacket* %14, %class.WritablePacket** %4, align 8
  %15 = load %class.WritablePacket*, %class.WritablePacket** %4, align 8
  %16 = icmp eq %class.WritablePacket* %15, null
  br i1 %16, label %17, label %26

; <label>:17:                                     ; preds = %1
  %18 = bitcast %class.SendGridHello* %11 to %class.Element*
  call void @_ZNK7Element4nameEv(%class.String* sret %5, %class.Element* %18)
  %19 = invoke i8* @_ZNK6String5c_strEv(%class.String* %5)
          to label %20 unwind label %22

; <label>:20:                                     ; preds = %17
  invoke void (i8*, ...) @click_chatter(i8* getelementptr inbounds ([27 x i8], [27 x i8]* @.str.7, i32 0, i32 0), i8* %19)
          to label %21 unwind label %22

; <label>:21:                                     ; preds = %20
  call void @_ZN6StringD2Ev(%class.String* %5) #9
  call void @__assert_fail(i8* getelementptr inbounds ([2 x i8], [2 x i8]* @.str.8, i32 0, i32 0), i8* getelementptr inbounds ([35 x i8], [35 x i8]* @.str.9, i32 0, i32 0), i32 89, i8* getelementptr inbounds ([36 x i8], [36 x i8]* @__PRETTY_FUNCTION__._ZN13SendGridHello10make_helloEv, i32 0, i32 0)) #10
  unreachable

; <label>:22:                                     ; preds = %20, %17
  %23 = landingpad { i8*, i32 }
          cleanup
  %24 = extractvalue { i8*, i32 } %23, 0
  store i8* %24, i8** %6, align 8
  %25 = extractvalue { i8*, i32 } %23, 1
  store i32 %25, i32* %7, align 4
  call void @_ZN6StringD2Ev(%class.String* %5) #9
  br label %79

; <label>:26:                                     ; preds = %1
  %27 = load %class.WritablePacket*, %class.WritablePacket** %4, align 8
  %28 = call i8* @_ZNK14WritablePacket4dataEv(%class.WritablePacket* %27)
  %29 = ptrtoint i8* %28 to i64
  %30 = urem i64 %29, 4
  %31 = icmp eq i64 %30, 0
  br i1 %31, label %32, label %33

; <label>:32:                                     ; preds = %26
  br label %35

; <label>:33:                                     ; preds = %26
  call void @__assert_fail(i8* getelementptr inbounds ([35 x i8], [35 x i8]* @.str.10, i32 0, i32 0), i8* getelementptr inbounds ([35 x i8], [35 x i8]* @.str.9, i32 0, i32 0), i32 91, i8* getelementptr inbounds ([36 x i8], [36 x i8]* @__PRETTY_FUNCTION__._ZN13SendGridHello10make_helloEv, i32 0, i32 0)) #10
  unreachable
                                                  ; No predecessors!
  br label %35

; <label>:35:                                     ; preds = %34, %32
  %36 = load %class.WritablePacket*, %class.WritablePacket** %4, align 8
  %37 = bitcast %class.WritablePacket* %36 to %class.Packet*
  call void @_ZN6Packet4pullEj(%class.Packet* %37, i32 2)
  %38 = load %class.WritablePacket*, %class.WritablePacket** %4, align 8
  %39 = call i8* @_ZNK14WritablePacket4dataEv(%class.WritablePacket* %38)
  %40 = load %class.WritablePacket*, %class.WritablePacket** %4, align 8
  %41 = bitcast %class.WritablePacket* %40 to %class.Packet*
  %42 = call i32 @_ZNK6Packet6lengthEv(%class.Packet* %41)
  %43 = zext i32 %42 to i64
  call void @llvm.memset.p0i8.i64(i8* %39, i8 0, i64 %43, i32 1, i1 false)
  %44 = load %class.WritablePacket*, %class.WritablePacket** %4, align 8
  %45 = bitcast %class.WritablePacket* %44 to %class.Packet*
  %46 = call i64 @_ZN9Timestamp3nowEv()
  %47 = getelementptr inbounds %class.Timestamp, %class.Timestamp* %8, i32 0, i32 0
  %48 = getelementptr inbounds %"union.Timestamp::rep_t", %"union.Timestamp::rep_t"* %47, i32 0, i32 0
  store i64 %46, i64* %48, align 8
  call void @_ZN6Packet18set_timestamp_annoERK9Timestamp(%class.Packet* %45, %class.Timestamp* dereferenceable(8) %8)
  %49 = load %class.WritablePacket*, %class.WritablePacket** %4, align 8
  %50 = call i8* @_ZNK14WritablePacket4dataEv(%class.WritablePacket* %49)
  %51 = bitcast i8* %50 to %struct.click_ether*
  store %struct.click_ether* %51, %struct.click_ether** %9, align 8
  %52 = load %struct.click_ether*, %struct.click_ether** %9, align 8
  %53 = getelementptr inbounds %struct.click_ether, %struct.click_ether* %52, i32 0, i32 0
  %54 = getelementptr inbounds [6 x i8], [6 x i8]* %53, i32 0, i32 0
  call void @llvm.memset.p0i8.i64(i8* %54, i8 -1, i64 6, i32 1, i1 false)
  %55 = call zeroext i16 @htons(i16 zeroext 32767) #12
  %56 = load %struct.click_ether*, %struct.click_ether** %9, align 8
  %57 = getelementptr inbounds %struct.click_ether, %struct.click_ether* %56, i32 0, i32 2
  store i16 %55, i16* %57, align 1
  %58 = load %struct.click_ether*, %struct.click_ether** %9, align 8
  %59 = getelementptr inbounds %struct.click_ether, %struct.click_ether* %58, i32 0, i32 1
  %60 = getelementptr inbounds [6 x i8], [6 x i8]* %59, i32 0, i32 0
  %61 = getelementptr inbounds %class.SendGridHello, %class.SendGridHello* %11, i32 0, i32 1
  %62 = call i8* @_ZN12EtherAddress4dataEv(%class.EtherAddress* %61)
  call void @llvm.memcpy.p0i8.p0i8.i64(i8* %60, i8* %62, i64 6, i32 1, i1 false)
  %63 = load %struct.click_ether*, %struct.click_ether** %9, align 8
  %64 = getelementptr inbounds %struct.click_ether, %struct.click_ether* %63, i64 1
  %65 = bitcast %struct.click_ether* %64 to %struct.grid_hdr*
  store %struct.grid_hdr* %65, %struct.grid_hdr** %10, align 8
  %66 = load %struct.grid_hdr*, %struct.grid_hdr** %10, align 8
  %67 = getelementptr inbounds %struct.grid_hdr, %struct.grid_hdr* %66, i32 0, i32 1
  store i8 60, i8* %67, align 4
  %68 = call zeroext i16 @htons(i16 zeroext 60) #12
  %69 = load %struct.grid_hdr*, %struct.grid_hdr** %10, align 8
  %70 = getelementptr inbounds %struct.grid_hdr, %struct.grid_hdr* %69, i32 0, i32 17
  store i16 %68, i16* %70, align 4
  %71 = load %struct.grid_hdr*, %struct.grid_hdr** %10, align 8
  %72 = getelementptr inbounds %struct.grid_hdr, %struct.grid_hdr* %71, i32 0, i32 2
  store i8 1, i8* %72, align 1
  %73 = getelementptr inbounds %class.SendGridHello, %class.SendGridHello* %11, i32 0, i32 2
  %74 = call i32 @_ZNK9IPAddresscvjEv(%class.IPAddress* %73)
  %75 = load %struct.grid_hdr*, %struct.grid_hdr** %10, align 8
  %76 = getelementptr inbounds %struct.grid_hdr, %struct.grid_hdr* %75, i32 0, i32 5
  store i32 %74, i32* %76, align 4
  %77 = load %class.WritablePacket*, %class.WritablePacket** %4, align 8
  %78 = bitcast %class.WritablePacket* %77 to %class.Packet*
  ret %class.Packet* %78

; <label>:79:                                     ; preds = %22
  %80 = load i8*, i8** %6, align 8
  %81 = load i32, i32* %7, align 4
  %82 = insertvalue { i8*, i32 } undef, i8* %80, 0
  %83 = insertvalue { i8*, i32 } %82, i32 %81, 1
  resume { i8*, i32 } %83
}

; Function Attrs: noinline nounwind optnone uwtable
define linkonce_odr i32 @_Z12click_randomv() #2 comdat {
  %1 = call i64 @random() #9
  %2 = trunc i64 %1 to i32
  ret i32 %2
}

; Function Attrs: noinline optnone uwtable
define linkonce_odr %class.WritablePacket* @_ZN6Packet4makeEj(i32) #0 comdat align 2 {
  %2 = alloca i32, align 4
  store i32 %0, i32* %2, align 4
  %3 = load i32, i32* %2, align 4
  %4 = call %class.WritablePacket* @_ZN6Packet4makeEjPKvjj(i32 28, i8* null, i32 %3, i32 0)
  ret %class.WritablePacket* %4
}

declare void @click_chatter(i8*, ...) #1

declare void @_ZNK7Element4nameEv(%class.String* sret, %class.Element*) #1

; Function Attrs: noinline optnone uwtable
define linkonce_odr i8* @_ZNK6String5c_strEv(%class.String*) #0 comdat align 2 {
  %2 = alloca %class.String*, align 8
  %3 = alloca i8*, align 8
  %4 = alloca i8*, align 8
  store %class.String* %0, %class.String** %2, align 8
  %5 = load %class.String*, %class.String** %2, align 8
  %6 = getelementptr inbounds %class.String, %class.String* %5, i32 0, i32 0
  %7 = getelementptr inbounds %"struct.String::rep_t", %"struct.String::rep_t"* %6, i32 0, i32 0
  %8 = load i8*, i8** %7, align 8
  %9 = getelementptr inbounds %class.String, %class.String* %5, i32 0, i32 0
  %10 = getelementptr inbounds %"struct.String::rep_t", %"struct.String::rep_t"* %9, i32 0, i32 1
  %11 = load i32, i32* %10, align 8
  %12 = sext i32 %11 to i64
  %13 = getelementptr inbounds i8, i8* %8, i64 %12
  store i8* %13, i8** %3, align 8
  %14 = getelementptr inbounds %class.String, %class.String* %5, i32 0, i32 0
  %15 = getelementptr inbounds %"struct.String::rep_t", %"struct.String::rep_t"* %14, i32 0, i32 2
  %16 = load %"struct.String::memo_t"*, %"struct.String::memo_t"** %15, align 8
  %17 = icmp ne %"struct.String::memo_t"* %16, null
  br i1 %17, label %18, label %33

; <label>:18:                                     ; preds = %1
  %19 = load i8*, i8** %3, align 8
  %20 = getelementptr inbounds %class.String, %class.String* %5, i32 0, i32 0
  %21 = getelementptr inbounds %"struct.String::rep_t", %"struct.String::rep_t"* %20, i32 0, i32 2
  %22 = load %"struct.String::memo_t"*, %"struct.String::memo_t"** %21, align 8
  %23 = getelementptr inbounds %"struct.String::memo_t", %"struct.String::memo_t"* %22, i32 0, i32 3
  %24 = getelementptr inbounds [8 x i8], [8 x i8]* %23, i32 0, i32 0
  %25 = getelementptr inbounds %class.String, %class.String* %5, i32 0, i32 0
  %26 = getelementptr inbounds %"struct.String::rep_t", %"struct.String::rep_t"* %25, i32 0, i32 2
  %27 = load %"struct.String::memo_t"*, %"struct.String::memo_t"** %26, align 8
  %28 = getelementptr inbounds %"struct.String::memo_t", %"struct.String::memo_t"* %27, i32 0, i32 2
  %29 = load volatile i32, i32* %28, align 4
  %30 = zext i32 %29 to i64
  %31 = getelementptr inbounds i8, i8* %24, i64 %30
  %32 = icmp uge i8* %19, %31
  br i1 %32, label %38, label %33

; <label>:33:                                     ; preds = %18, %1
  %34 = load i8*, i8** %3, align 8
  %35 = load i8, i8* %34, align 1
  %36 = sext i8 %35 to i32
  %37 = icmp ne i32 %36, 0
  br i1 %37, label %38, label %49

; <label>:38:                                     ; preds = %33, %18
  %39 = call i8* @_ZN6String20append_uninitializedEi(%class.String* %5, i32 1)
  store i8* %39, i8** %4, align 8
  %40 = load i8*, i8** %4, align 8
  %41 = icmp ne i8* %40, null
  br i1 %41, label %42, label %48

; <label>:42:                                     ; preds = %38
  %43 = load i8*, i8** %4, align 8
  store i8 0, i8* %43, align 1
  %44 = getelementptr inbounds %class.String, %class.String* %5, i32 0, i32 0
  %45 = getelementptr inbounds %"struct.String::rep_t", %"struct.String::rep_t"* %44, i32 0, i32 1
  %46 = load i32, i32* %45, align 8
  %47 = add nsw i32 %46, -1
  store i32 %47, i32* %45, align 8
  br label %48

; <label>:48:                                     ; preds = %42, %38
  br label %49

; <label>:49:                                     ; preds = %48, %33
  %50 = getelementptr inbounds %class.String, %class.String* %5, i32 0, i32 0
  %51 = getelementptr inbounds %"struct.String::rep_t", %"struct.String::rep_t"* %50, i32 0, i32 0
  %52 = load i8*, i8** %51, align 8
  ret i8* %52
}

; Function Attrs: noinline nounwind optnone uwtable
define linkonce_odr void @_ZN6StringD2Ev(%class.String*) unnamed_addr #2 comdat align 2 personality i8* bitcast (i32 (...)* @__gxx_personality_v0 to i8*) {
  %2 = alloca %class.String*, align 8
  store %class.String* %0, %class.String** %2, align 8
  %3 = load %class.String*, %class.String** %2, align 8
  invoke void @_ZNK6String5derefEv(%class.String* %3)
          to label %4 unwind label %5

; <label>:4:                                      ; preds = %1
  ret void

; <label>:5:                                      ; preds = %1
  %6 = landingpad { i8*, i32 }
          catch i8* null
  %7 = extractvalue { i8*, i32 } %6, 0
  call void @__clang_call_terminate(i8* %7) #10
  unreachable
}

; Function Attrs: noreturn nounwind
declare void @__assert_fail(i8*, i8*, i32, i8*) #5

; Function Attrs: noinline optnone uwtable
define linkonce_odr i8* @_ZNK14WritablePacket4dataEv(%class.WritablePacket*) #0 comdat align 2 {
  %2 = alloca %class.WritablePacket*, align 8
  store %class.WritablePacket* %0, %class.WritablePacket** %2, align 8
  %3 = load %class.WritablePacket*, %class.WritablePacket** %2, align 8
  %4 = bitcast %class.WritablePacket* %3 to %class.Packet*
  %5 = call i8* @_ZNK6Packet4dataEv(%class.Packet* %4)
  ret i8* %5
}

; Function Attrs: noinline optnone uwtable
define linkonce_odr void @_ZN6Packet4pullEj(%class.Packet*, i32) #0 comdat align 2 {
  %3 = alloca %class.Packet*, align 8
  %4 = alloca i32, align 4
  store %class.Packet* %0, %class.Packet** %3, align 8
  store i32 %1, i32* %4, align 4
  %5 = load %class.Packet*, %class.Packet** %3, align 8
  %6 = load i32, i32* %4, align 4
  %7 = call i32 @_ZNK6Packet6lengthEv(%class.Packet* %5)
  %8 = icmp ugt i32 %6, %7
  br i1 %8, label %9, label %13

; <label>:9:                                      ; preds = %2
  %10 = load i32, i32* %4, align 4
  %11 = call i32 @_ZNK6Packet6lengthEv(%class.Packet* %5)
  call void (i8*, ...) @click_chatter(i8* getelementptr inbounds ([29 x i8], [29 x i8]* @.str.16, i32 0, i32 0), i32 %10, i32 %11)
  %12 = call i32 @_ZNK6Packet6lengthEv(%class.Packet* %5)
  store i32 %12, i32* %4, align 4
  br label %13

; <label>:13:                                     ; preds = %9, %2
  %14 = load i32, i32* %4, align 4
  %15 = getelementptr inbounds %class.Packet, %class.Packet* %5, i32 0, i32 3
  %16 = load i8*, i8** %15, align 8
  %17 = zext i32 %14 to i64
  %18 = getelementptr inbounds i8, i8* %16, i64 %17
  store i8* %18, i8** %15, align 8
  ret void
}

; Function Attrs: noinline nounwind optnone uwtable
define linkonce_odr i32 @_ZNK6Packet6lengthEv(%class.Packet*) #2 comdat align 2 {
  %2 = alloca %class.Packet*, align 8
  store %class.Packet* %0, %class.Packet** %2, align 8
  %3 = load %class.Packet*, %class.Packet** %2, align 8
  %4 = getelementptr inbounds %class.Packet, %class.Packet* %3, i32 0, i32 4
  %5 = load i8*, i8** %4, align 8
  %6 = getelementptr inbounds %class.Packet, %class.Packet* %3, i32 0, i32 3
  %7 = load i8*, i8** %6, align 8
  %8 = ptrtoint i8* %5 to i64
  %9 = ptrtoint i8* %7 to i64
  %10 = sub i64 %8, %9
  %11 = trunc i64 %10 to i32
  ret i32 %11
}

; Function Attrs: argmemonly nounwind
declare void @llvm.memset.p0i8.i64(i8* nocapture writeonly, i8, i64, i32, i1) #6

; Function Attrs: noinline optnone uwtable
define linkonce_odr void @_ZN6Packet18set_timestamp_annoERK9Timestamp(%class.Packet*, %class.Timestamp* dereferenceable(8)) #0 comdat align 2 {
  %3 = alloca %class.Packet*, align 8
  %4 = alloca %class.Timestamp*, align 8
  store %class.Packet* %0, %class.Packet** %3, align 8
  store %class.Timestamp* %1, %class.Timestamp** %4, align 8
  %5 = load %class.Packet*, %class.Packet** %3, align 8
  %6 = load %class.Timestamp*, %class.Timestamp** %4, align 8
  %7 = call dereferenceable(8) %class.Timestamp* @_ZN6Packet14timestamp_annoEv(%class.Packet* %5)
  %8 = bitcast %class.Timestamp* %7 to i8*
  %9 = bitcast %class.Timestamp* %6 to i8*
  call void @llvm.memcpy.p0i8.p0i8.i64(i8* %8, i8* %9, i64 8, i32 8, i1 false)
  ret void
}

; Function Attrs: noinline optnone uwtable
define linkonce_odr i64 @_ZN9Timestamp3nowEv() #0 comdat align 2 {
  %1 = alloca %class.Timestamp, align 8
  %2 = alloca %struct.uninitialized_type, align 1
  call void @_ZN9TimestampC2ERK18uninitialized_type(%class.Timestamp* %1, %struct.uninitialized_type* dereferenceable(1) %2)
  call void @_ZN9Timestamp10assign_nowEv(%class.Timestamp* %1)
  %3 = getelementptr inbounds %class.Timestamp, %class.Timestamp* %1, i32 0, i32 0
  %4 = getelementptr inbounds %"union.Timestamp::rep_t", %"union.Timestamp::rep_t"* %3, i32 0, i32 0
  %5 = load i64, i64* %4, align 8
  ret i64 %5
}

; Function Attrs: nounwind readnone
declare zeroext i16 @htons(i16 zeroext) #7

; Function Attrs: noinline nounwind optnone uwtable
define linkonce_odr i8* @_ZN12EtherAddress4dataEv(%class.EtherAddress*) #2 comdat align 2 {
  %2 = alloca %class.EtherAddress*, align 8
  store %class.EtherAddress* %0, %class.EtherAddress** %2, align 8
  %3 = load %class.EtherAddress*, %class.EtherAddress** %2, align 8
  %4 = getelementptr inbounds %class.EtherAddress, %class.EtherAddress* %3, i32 0, i32 0
  %5 = getelementptr inbounds [3 x i16], [3 x i16]* %4, i32 0, i32 0
  %6 = bitcast i16* %5 to i8*
  ret i8* %6
}

; Function Attrs: argmemonly nounwind
declare void @llvm.memcpy.p0i8.p0i8.i64(i8* nocapture writeonly, i8* nocapture readonly, i64, i32, i1) #6

; Function Attrs: noinline nounwind optnone uwtable
define linkonce_odr i32 @_ZNK9IPAddresscvjEv(%class.IPAddress*) #2 comdat align 2 {
  %2 = alloca %class.IPAddress*, align 8
  store %class.IPAddress* %0, %class.IPAddress** %2, align 8
  %3 = load %class.IPAddress*, %class.IPAddress** %2, align 8
  %4 = getelementptr inbounds %class.IPAddress, %class.IPAddress* %3, i32 0, i32 0
  %5 = load i32, i32* %4, align 4
  ret i32 %5
}

declare void @_ZN7Element4pushEiP6Packet(%class.Element*, i32, %class.Packet*) unnamed_addr #1

declare %class.Packet* @_ZN7Element4pullEi(%class.Element*, i32) unnamed_addr #1

declare %class.Packet* @_ZN7Element13simple_actionEP6Packet(%class.Element*, %class.Packet*) unnamed_addr #1

declare zeroext i1 @_ZN7Element8run_taskEP4Task(%class.Element*, %class.Task*) unnamed_addr #1

declare void @_ZN7Element8selectedEii(%class.Element*, i32, i32) unnamed_addr #1

declare void @_ZN7Element8selectedEi(%class.Element*, i32) unnamed_addr #1

; Function Attrs: noinline nounwind optnone uwtable
define linkonce_odr i8* @_ZNK13SendGridHello10class_nameEv(%class.SendGridHello*) unnamed_addr #2 comdat align 2 {
  %2 = alloca %class.SendGridHello*, align 8
  store %class.SendGridHello* %0, %class.SendGridHello** %2, align 8
  %3 = load %class.SendGridHello*, %class.SendGridHello** %2, align 8
  ret i8* getelementptr inbounds ([14 x i8], [14 x i8]* @.str.17, i32 0, i32 0)
}

; Function Attrs: noinline nounwind optnone uwtable
define linkonce_odr i8* @_ZNK13SendGridHello10port_countEv(%class.SendGridHello*) unnamed_addr #2 comdat align 2 {
  %2 = alloca %class.SendGridHello*, align 8
  store %class.SendGridHello* %0, %class.SendGridHello** %2, align 8
  %3 = load %class.SendGridHello*, %class.SendGridHello** %2, align 8
  ret i8* getelementptr inbounds ([0 x i8], [0 x i8]* @_ZN7Element9PORTS_0_1E, i32 0, i32 0)
}

; Function Attrs: noinline nounwind optnone uwtable
define linkonce_odr i8* @_ZNK13SendGridHello10processingEv(%class.SendGridHello*) unnamed_addr #2 comdat align 2 {
  %2 = alloca %class.SendGridHello*, align 8
  store %class.SendGridHello* %0, %class.SendGridHello** %2, align 8
  %3 = load %class.SendGridHello*, %class.SendGridHello** %2, align 8
  ret i8* getelementptr inbounds ([0 x i8], [0 x i8]* @_ZN7Element4PUSHE, i32 0, i32 0)
}

declare i8* @_ZNK7Element9flow_codeEv(%class.Element*) unnamed_addr #1

declare i8* @_ZNK7Element5flagsEv(%class.Element*) unnamed_addr #1

declare i8* @_ZN7Element4castEPKc(%class.Element*, i8*) unnamed_addr #1

declare i8* @_ZN7Element9port_castEbiPKc(%class.Element*, i1 zeroext, i32, i8*) unnamed_addr #1

declare i32 @_ZNK7Element15configure_phaseEv(%class.Element*) unnamed_addr #1

declare void @_ZN7Element12add_handlersEv(%class.Element*) unnamed_addr #1

declare void @_ZN7Element10take_stateEPS_P12ErrorHandler(%class.Element*, %class.Element*, %class.ErrorHandler*) unnamed_addr #1

declare %class.Element* @_ZNK7Element15hotswap_elementEv(%class.Element*) unnamed_addr #1

declare void @_ZN7Element7cleanupENS_12CleanupStageE(%class.Element*, i32) unnamed_addr #1

declare void @_ZNK7Element11declarationEv(%class.String* sret, %class.Element*) unnamed_addr #1

declare zeroext i1 @_ZNK7Element20can_live_reconfigureEv(%class.Element*) unnamed_addr #1

declare i32 @_ZN7Element16live_reconfigureER6VectorI6StringEP12ErrorHandler(%class.Element*, %class.Vector.0* dereferenceable(16), %class.ErrorHandler*) unnamed_addr #1

declare i32 @_ZN7Element5llrpcEjPv(%class.Element*, i32, i8*) unnamed_addr #1

; Function Attrs: noinline nounwind optnone uwtable
define linkonce_odr zeroext i1 @_ZNK5Timer9scheduledEv(%class.Timer*) #2 comdat align 2 {
  %2 = alloca %class.Timer*, align 8
  store %class.Timer* %0, %class.Timer** %2, align 8
  %3 = load %class.Timer*, %class.Timer** %2, align 8
  %4 = getelementptr inbounds %class.Timer, %class.Timer* %3, i32 0, i32 0
  %5 = load i32, i32* %4, align 8
  %6 = icmp ne i32 %5, 0
  ret i1 %6
}

; Function Attrs: noinline noreturn nounwind
define linkonce_odr hidden void @__clang_call_terminate(i8*) #8 comdat {
  %2 = call i8* @__cxa_begin_catch(i8* %0) #9
  call void @_ZSt9terminatev() #10
  unreachable
}

declare i8* @__cxa_begin_catch(i8*)

declare void @_ZSt9terminatev()

declare void @_ZN5Timer10unscheduleEv(%class.Timer*) #1

declare void @_ZN5Timer14schedule_afterERK9Timestamp(%class.Timer*, %class.Timestamp* dereferenceable(8)) #1

; Function Attrs: noinline optnone uwtable
define linkonce_odr i64 @_ZN9Timestamp9make_msecEl(i64) #0 comdat align 2 {
  %2 = alloca %class.Timestamp, align 8
  %3 = alloca i64, align 8
  %4 = alloca %struct.uninitialized_type, align 1
  store i64 %0, i64* %3, align 8
  call void @_ZN9TimestampC2ERK18uninitialized_type(%class.Timestamp* %2, %struct.uninitialized_type* dereferenceable(1) %4)
  %5 = load i64, i64* %3, align 8
  %6 = mul nsw i64 %5, 1000000
  %7 = getelementptr inbounds %class.Timestamp, %class.Timestamp* %2, i32 0, i32 0
  %8 = bitcast %"union.Timestamp::rep_t"* %7 to i64*
  store i64 %6, i64* %8, align 8
  %9 = getelementptr inbounds %class.Timestamp, %class.Timestamp* %2, i32 0, i32 0
  %10 = getelementptr inbounds %"union.Timestamp::rep_t", %"union.Timestamp::rep_t"* %9, i32 0, i32 0
  %11 = load i64, i64* %10, align 8
  ret i64 %11
}

; Function Attrs: noinline nounwind optnone uwtable
define linkonce_odr void @_ZN9TimestampC2ERK18uninitialized_type(%class.Timestamp*, %struct.uninitialized_type* dereferenceable(1)) unnamed_addr #2 comdat align 2 {
  %3 = alloca %class.Timestamp*, align 8
  %4 = alloca %struct.uninitialized_type*, align 8
  store %class.Timestamp* %0, %class.Timestamp** %3, align 8
  store %struct.uninitialized_type* %1, %struct.uninitialized_type** %4, align 8
  %5 = load %class.Timestamp*, %class.Timestamp** %3, align 8
  %6 = getelementptr inbounds %class.Timestamp, %class.Timestamp* %5, i32 0, i32 0
  %7 = load %struct.uninitialized_type*, %struct.uninitialized_type** %4, align 8
  ret void
}

; Function Attrs: noinline nounwind optnone uwtable
define linkonce_odr dereferenceable(16) %"class.Element::Port"* @_ZNK7Element4portEbi(%class.Element*, i1 zeroext, i32) #2 comdat align 2 {
  %4 = alloca %class.Element*, align 8
  %5 = alloca i8, align 1
  %6 = alloca i32, align 4
  store %class.Element* %0, %class.Element** %4, align 8
  %7 = zext i1 %1 to i8
  store i8 %7, i8* %5, align 1
  store i32 %2, i32* %6, align 4
  %8 = load %class.Element*, %class.Element** %4, align 8
  %9 = load i32, i32* %6, align 4
  %10 = getelementptr inbounds %class.Element, %class.Element* %8, i32 0, i32 3
  %11 = load i8, i8* %5, align 1
  %12 = trunc i8 %11 to i1
  %13 = zext i1 %12 to i64
  %14 = getelementptr inbounds [2 x i32], [2 x i32]* %10, i64 0, i64 %13
  %15 = load i32, i32* %14, align 4
  %16 = icmp ult i32 %9, %15
  br i1 %16, label %17, label %18

; <label>:17:                                     ; preds = %3
  br label %20

; <label>:18:                                     ; preds = %3
  call void @__assert_fail(i8* getelementptr inbounds ([47 x i8], [47 x i8]* @.str.11, i32 0, i32 0), i8* getelementptr inbounds ([36 x i8], [36 x i8]* @.str.12, i32 0, i32 0), i32 437, i8* getelementptr inbounds ([52 x i8], [52 x i8]* @__PRETTY_FUNCTION__._ZNK7Element4portEbi, i32 0, i32 0)) #10
  unreachable
                                                  ; No predecessors!
  br label %20

; <label>:20:                                     ; preds = %19, %17
  %21 = getelementptr inbounds %class.Element, %class.Element* %8, i32 0, i32 1
  %22 = load i8, i8* %5, align 1
  %23 = trunc i8 %22 to i1
  %24 = zext i1 %23 to i64
  %25 = getelementptr inbounds [2 x %"class.Element::Port"*], [2 x %"class.Element::Port"*]* %21, i64 0, i64 %24
  %26 = load %"class.Element::Port"*, %"class.Element::Port"** %25, align 8
  %27 = load i32, i32* %6, align 4
  %28 = sext i32 %27 to i64
  %29 = getelementptr inbounds %"class.Element::Port", %"class.Element::Port"* %26, i64 %28
  ret %"class.Element::Port"* %29
}

; Function Attrs: nounwind
declare i64 @random() #3

declare %class.WritablePacket* @_ZN6Packet4makeEjPKvjj(i32, i8*, i32, i32) #1

declare i8* @_ZN6String20append_uninitializedEi(%class.String*, i32) #1

; Function Attrs: noinline optnone uwtable
define linkonce_odr void @_ZNK6String5derefEv(%class.String*) #0 comdat align 2 {
  %2 = alloca %class.String*, align 8
  store %class.String* %0, %class.String** %2, align 8
  %3 = load %class.String*, %class.String** %2, align 8
  %4 = getelementptr inbounds %class.String, %class.String* %3, i32 0, i32 0
  %5 = getelementptr inbounds %"struct.String::rep_t", %"struct.String::rep_t"* %4, i32 0, i32 2
  %6 = load %"struct.String::memo_t"*, %"struct.String::memo_t"** %5, align 8
  %7 = icmp ne %"struct.String::memo_t"* %6, null
  br i1 %7, label %8, label %31

; <label>:8:                                      ; preds = %1
  %9 = getelementptr inbounds %class.String, %class.String* %3, i32 0, i32 0
  %10 = getelementptr inbounds %"struct.String::rep_t", %"struct.String::rep_t"* %9, i32 0, i32 2
  %11 = load %"struct.String::memo_t"*, %"struct.String::memo_t"** %10, align 8
  %12 = getelementptr inbounds %"struct.String::memo_t", %"struct.String::memo_t"* %11, i32 0, i32 0
  %13 = load volatile i32, i32* %12, align 4
  %14 = icmp ne i32 %13, 0
  br i1 %14, label %15, label %16

; <label>:15:                                     ; preds = %8
  br label %18

; <label>:16:                                     ; preds = %8
  call void @__assert_fail(i8* getelementptr inbounds ([18 x i8], [18 x i8]* @.str.14, i32 0, i32 0), i8* getelementptr inbounds ([35 x i8], [35 x i8]* @.str.15, i32 0, i32 0), i32 272, i8* getelementptr inbounds ([27 x i8], [27 x i8]* @__PRETTY_FUNCTION__._ZNK6String5derefEv, i32 0, i32 0)) #10
  unreachable
                                                  ; No predecessors!
  br label %18

; <label>:18:                                     ; preds = %17, %15
  %19 = getelementptr inbounds %class.String, %class.String* %3, i32 0, i32 0
  %20 = getelementptr inbounds %"struct.String::rep_t", %"struct.String::rep_t"* %19, i32 0, i32 2
  %21 = load %"struct.String::memo_t"*, %"struct.String::memo_t"** %20, align 8
  %22 = getelementptr inbounds %"struct.String::memo_t", %"struct.String::memo_t"* %21, i32 0, i32 0
  %23 = call zeroext i1 @_ZN15atomic_uint32_t12dec_and_testERVj(i32* dereferenceable(4) %22)
  br i1 %23, label %24, label %28

; <label>:24:                                     ; preds = %18
  %25 = getelementptr inbounds %class.String, %class.String* %3, i32 0, i32 0
  %26 = getelementptr inbounds %"struct.String::rep_t", %"struct.String::rep_t"* %25, i32 0, i32 2
  %27 = load %"struct.String::memo_t"*, %"struct.String::memo_t"** %26, align 8
  call void @_ZN6String11delete_memoEPNS_6memo_tE(%"struct.String::memo_t"* %27)
  br label %28

; <label>:28:                                     ; preds = %24, %18
  %29 = getelementptr inbounds %class.String, %class.String* %3, i32 0, i32 0
  %30 = getelementptr inbounds %"struct.String::rep_t", %"struct.String::rep_t"* %29, i32 0, i32 2
  store %"struct.String::memo_t"* null, %"struct.String::memo_t"** %30, align 8
  br label %31

; <label>:31:                                     ; preds = %28, %1
  ret void
}

; Function Attrs: noinline nounwind optnone uwtable
define linkonce_odr zeroext i1 @_ZN15atomic_uint32_t12dec_and_testERVj(i32* dereferenceable(4)) #2 comdat align 2 {
  %2 = alloca i32*, align 8
  store i32* %0, i32** %2, align 8
  %3 = load i32*, i32** %2, align 8
  %4 = load volatile i32, i32* %3, align 4
  %5 = add i32 %4, -1
  store volatile i32 %5, i32* %3, align 4
  %6 = icmp eq i32 %5, 0
  ret i1 %6
}

declare void @_ZN6String11delete_memoEPNS_6memo_tE(%"struct.String::memo_t"*) #1

; Function Attrs: noinline nounwind optnone uwtable
define linkonce_odr i8* @_ZNK6Packet4dataEv(%class.Packet*) #2 comdat align 2 {
  %2 = alloca %class.Packet*, align 8
  store %class.Packet* %0, %class.Packet** %2, align 8
  %3 = load %class.Packet*, %class.Packet** %2, align 8
  %4 = getelementptr inbounds %class.Packet, %class.Packet* %3, i32 0, i32 3
  %5 = load i8*, i8** %4, align 8
  ret i8* %5
}

; Function Attrs: noinline nounwind optnone uwtable
define linkonce_odr dereferenceable(8) %class.Timestamp* @_ZN6Packet14timestamp_annoEv(%class.Packet*) #2 comdat align 2 {
  %2 = alloca %class.Packet*, align 8
  store %class.Packet* %0, %class.Packet** %2, align 8
  %3 = load %class.Packet*, %class.Packet** %2, align 8
  %4 = getelementptr inbounds %class.Packet, %class.Packet* %3, i32 0, i32 6
  %5 = getelementptr inbounds %"struct.Packet::AllAnno", %"struct.Packet::AllAnno"* %4, i32 0, i32 5
  %6 = bitcast [8 x i8]* %5 to %class.Timestamp*
  ret %class.Timestamp* %6
}

; Function Attrs: noinline optnone uwtable
define linkonce_odr void @_ZN9Timestamp10assign_nowEv(%class.Timestamp*) #0 comdat align 2 {
  %2 = alloca %class.Timestamp*, align 8
  store %class.Timestamp* %0, %class.Timestamp** %2, align 8
  %3 = load %class.Timestamp*, %class.Timestamp** %2, align 8
  call void @_ZN9Timestamp10assign_nowEbbb(%class.Timestamp* %3, i1 zeroext false, i1 zeroext false, i1 zeroext false)
  ret void
}

; Function Attrs: noinline optnone uwtable
define linkonce_odr void @_ZN9Timestamp10assign_nowEbbb(%class.Timestamp*, i1 zeroext, i1 zeroext, i1 zeroext) #0 comdat align 2 {
  %5 = alloca %class.Timestamp*, align 8
  %6 = alloca i8, align 1
  %7 = alloca i8, align 1
  %8 = alloca i8, align 1
  %9 = alloca %struct.timespec, align 8
  %10 = alloca %struct.timespec*, align 8
  store %class.Timestamp* %0, %class.Timestamp** %5, align 8
  %11 = zext i1 %1 to i8
  store i8 %11, i8* %6, align 1
  %12 = zext i1 %2 to i8
  store i8 %12, i8* %7, align 1
  %13 = zext i1 %3 to i8
  store i8 %13, i8* %8, align 1
  %14 = load %class.Timestamp*, %class.Timestamp** %5, align 8
  store %struct.timespec* %9, %struct.timespec** %10, align 8
  %15 = load i8, i8* %7, align 1
  %16 = trunc i8 %15 to i1
  br i1 %16, label %17, label %20

; <label>:17:                                     ; preds = %4
  %18 = load %struct.timespec*, %struct.timespec** %10, align 8
  %19 = call i32 @clock_gettime(i32 1, %struct.timespec* %18) #9
  br label %23

; <label>:20:                                     ; preds = %4
  %21 = load %struct.timespec*, %struct.timespec** %10, align 8
  %22 = call i32 @clock_gettime(i32 0, %struct.timespec* %21) #9
  br label %23

; <label>:23:                                     ; preds = %20, %17
  %24 = load %struct.timespec*, %struct.timespec** %10, align 8
  %25 = getelementptr inbounds %struct.timespec, %struct.timespec* %24, i32 0, i32 0
  %26 = load i64, i64* %25, align 8
  %27 = trunc i64 %26 to i32
  %28 = load %struct.timespec*, %struct.timespec** %10, align 8
  %29 = getelementptr inbounds %struct.timespec, %struct.timespec* %28, i32 0, i32 1
  %30 = load i64, i64* %29, align 8
  %31 = trunc i64 %30 to i32
  %32 = call i32 @_ZN9Timestamp14nsec_to_subsecEj(i32 %31)
  call void @_ZN9Timestamp6assignEij(%class.Timestamp* %14, i32 %27, i32 %32)
  %33 = load i8, i8* %8, align 1
  %34 = trunc i8 %33 to i1
  br i1 %34, label %41, label %35

; <label>:35:                                     ; preds = %23
  %36 = load i32, i32* @_ZN13TimestampWarp4kindE, align 4
  %37 = icmp ne i32 %36, 0
  br i1 %37, label %38, label %41

; <label>:38:                                     ; preds = %35
  %39 = load i8, i8* %7, align 1
  %40 = trunc i8 %39 to i1
  call void @_ZN9Timestamp4warpEbb(%class.Timestamp* %14, i1 zeroext %40, i1 zeroext true)
  br label %41

; <label>:41:                                     ; preds = %38, %35, %23
  ret void
}

; Function Attrs: nounwind
declare i32 @clock_gettime(i32, %struct.timespec*) #3

; Function Attrs: noinline nounwind optnone uwtable
define linkonce_odr void @_ZN9Timestamp6assignEij(%class.Timestamp*, i32, i32) #2 comdat align 2 {
  %4 = alloca %class.Timestamp*, align 8
  %5 = alloca i32, align 4
  %6 = alloca i32, align 4
  store %class.Timestamp* %0, %class.Timestamp** %4, align 8
  store i32 %1, i32* %5, align 4
  store i32 %2, i32* %6, align 4
  %7 = load %class.Timestamp*, %class.Timestamp** %4, align 8
  %8 = load i32, i32* %5, align 4
  %9 = sext i32 %8 to i64
  %10 = mul nsw i64 %9, 1000000000
  %11 = load i32, i32* %6, align 4
  %12 = zext i32 %11 to i64
  %13 = add nsw i64 %10, %12
  %14 = getelementptr inbounds %class.Timestamp, %class.Timestamp* %7, i32 0, i32 0
  %15 = bitcast %"union.Timestamp::rep_t"* %14 to i64*
  store i64 %13, i64* %15, align 8
  ret void
}

; Function Attrs: noinline nounwind optnone uwtable
define linkonce_odr i32 @_ZN9Timestamp14nsec_to_subsecEj(i32) #2 comdat align 2 {
  %2 = alloca i32, align 4
  store i32 %0, i32* %2, align 4
  %3 = load i32, i32* %2, align 4
  %4 = udiv i32 %3, 1
  ret i32 %4
}

declare void @_ZN9Timestamp4warpEbb(%class.Timestamp*, i1 zeroext, i1 zeroext) #1

; Function Attrs: noinline optnone uwtable
define linkonce_odr dereferenceable(112) %class.Args* @_ZN4Args4readIiEERS_PKciRT_(%class.Args*, i8*, i32, i32* dereferenceable(4)) #0 comdat align 2 {
  %5 = alloca %class.Args*, align 8
  %6 = alloca i8*, align 8
  %7 = alloca i32, align 4
  %8 = alloca i32*, align 8
  store %class.Args* %0, %class.Args** %5, align 8
  store i8* %1, i8** %6, align 8
  store i32 %2, i32* %7, align 4
  store i32* %3, i32** %8, align 8
  %9 = load %class.Args*, %class.Args** %5, align 8
  %10 = load i8*, i8** %6, align 8
  %11 = load i32, i32* %7, align 4
  %12 = load i32*, i32** %8, align 8
  call void @_Z14args_base_readIiEvP4ArgsPKciRT_(%class.Args* %9, i8* %10, i32 %11, i32* dereferenceable(4) %12)
  ret %class.Args* %9
}

; Function Attrs: noinline optnone uwtable
define linkonce_odr void @_Z14args_base_readIiEvP4ArgsPKciRT_(%class.Args*, i8*, i32, i32* dereferenceable(4)) #0 comdat {
  %5 = alloca %class.Args*, align 8
  %6 = alloca i8*, align 8
  %7 = alloca i32, align 4
  %8 = alloca i32*, align 8
  store %class.Args* %0, %class.Args** %5, align 8
  store i8* %1, i8** %6, align 8
  store i32 %2, i32* %7, align 4
  store i32* %3, i32** %8, align 8
  %9 = load %class.Args*, %class.Args** %5, align 8
  %10 = load i8*, i8** %6, align 8
  %11 = load i32, i32* %7, align 4
  %12 = load i32*, i32** %8, align 8
  call void @_ZN4Args9base_readIiEEvPKciRT_(%class.Args* %9, i8* %10, i32 %11, i32* dereferenceable(4) %12)
  ret void
}

; Function Attrs: noinline optnone uwtable
define linkonce_odr void @_ZN4Args9base_readIiEEvPKciRT_(%class.Args*, i8*, i32, i32* dereferenceable(4)) #0 comdat align 2 personality i8* bitcast (i32 (...)* @__gxx_personality_v0 to i8*) {
  %5 = alloca %class.Args*, align 8
  %6 = alloca i8*, align 8
  %7 = alloca i32, align 4
  %8 = alloca i32*, align 8
  %9 = alloca %"struct.Args::Slot"*, align 8
  %10 = alloca %class.String, align 8
  %11 = alloca i8*
  %12 = alloca i32
  %13 = alloca i32*, align 8
  %14 = alloca %struct.DefaultArg, align 4
  store %class.Args* %0, %class.Args** %5, align 8
  store i8* %1, i8** %6, align 8
  store i32 %2, i32* %7, align 4
  store i32* %3, i32** %8, align 8
  %15 = load %class.Args*, %class.Args** %5, align 8
  %16 = load i8*, i8** %6, align 8
  %17 = load i32, i32* %7, align 4
  call void @_ZN4Args4findEPKciRPNS_4SlotE(%class.String* sret %10, %class.Args* %15, i8* %16, i32 %17, %"struct.Args::Slot"** dereferenceable(8) %9)
  %18 = invoke { i64, i64 } @_ZNK6StringcvMS_KFivEEv(%class.String* %10)
          to label %19 unwind label %41

; <label>:19:                                     ; preds = %4
  %20 = extractvalue { i64, i64 } %18, 0
  %21 = icmp ne i64 %20, 0
  br i1 %21, label %22, label %45

; <label>:22:                                     ; preds = %19
  %23 = load i32*, i32** %8, align 8
  %24 = invoke i32* @_ZN17Args_parse_helperI10DefaultArgIiELb0EE4slotIi4ArgsEEPT_RS5_RT0_(i32* dereferenceable(4) %23, %class.Args* dereferenceable(112) %15)
          to label %25 unwind label %41

; <label>:25:                                     ; preds = %22
  store i32* %24, i32** %13, align 8
  %26 = load i32*, i32** %13, align 8
  %27 = icmp ne i32* %26, null
  br i1 %27, label %28, label %37

; <label>:28:                                     ; preds = %25
  %29 = bitcast %struct.DefaultArg* %14 to i8*
  call void @llvm.memset.p0i8.i64(i8* %29, i8 0, i64 8, i32 4, i1 false)
  invoke void @_ZN10DefaultArgIiEC2Ev(%struct.DefaultArg* %14)
          to label %30 unwind label %41

; <label>:30:                                     ; preds = %28
  %31 = load i32*, i32** %13, align 8
  %32 = getelementptr inbounds %struct.DefaultArg, %struct.DefaultArg* %14, i32 0, i32 0
  %33 = bitcast %class.IntArg* %32 to i64*
  %34 = load i64, i64* %33, align 4
  %35 = invoke zeroext i1 @_ZN17Args_parse_helperI10DefaultArgIiELb0EE5parseIi4ArgsEEbS1_RK6StringRT_RT0_(i64 %34, %class.String* dereferenceable(24) %10, i32* dereferenceable(4) %31, %class.Args* dereferenceable(112) %15)
          to label %36 unwind label %41

; <label>:36:                                     ; preds = %30
  br label %37

; <label>:37:                                     ; preds = %36, %25
  %38 = phi i1 [ false, %25 ], [ %35, %36 ]
  %39 = load %"struct.Args::Slot"*, %"struct.Args::Slot"** %9, align 8
  invoke void @_ZN4Args9postparseEbPNS_4SlotE(%class.Args* %15, i1 zeroext %38, %"struct.Args::Slot"* %39)
          to label %40 unwind label %41

; <label>:40:                                     ; preds = %37
  br label %45

; <label>:41:                                     ; preds = %37, %30, %28, %22, %4
  %42 = landingpad { i8*, i32 }
          cleanup
  %43 = extractvalue { i8*, i32 } %42, 0
  store i8* %43, i8** %11, align 8
  %44 = extractvalue { i8*, i32 } %42, 1
  store i32 %44, i32* %12, align 4
  call void @_ZN6StringD2Ev(%class.String* %10) #9
  br label %46

; <label>:45:                                     ; preds = %40, %19
  call void @_ZN6StringD2Ev(%class.String* %10) #9
  ret void

; <label>:46:                                     ; preds = %41
  %47 = load i8*, i8** %11, align 8
  %48 = load i32, i32* %12, align 4
  %49 = insertvalue { i8*, i32 } undef, i8* %47, 0
  %50 = insertvalue { i8*, i32 } %49, i32 %48, 1
  resume { i8*, i32 } %50
}

declare void @_ZN4Args4findEPKciRPNS_4SlotE(%class.String* sret, %class.Args*, i8*, i32, %"struct.Args::Slot"** dereferenceable(8)) #1

; Function Attrs: noinline nounwind optnone uwtable
define linkonce_odr { i64, i64 } @_ZNK6StringcvMS_KFivEEv(%class.String*) #2 comdat align 2 {
  %2 = alloca %class.String*, align 8
  store %class.String* %0, %class.String** %2, align 8
  %3 = load %class.String*, %class.String** %2, align 8
  %4 = getelementptr inbounds %class.String, %class.String* %3, i32 0, i32 0
  %5 = getelementptr inbounds %"struct.String::rep_t", %"struct.String::rep_t"* %4, i32 0, i32 1
  %6 = load i32, i32* %5, align 8
  %7 = icmp ne i32 %6, 0
  %8 = zext i1 %7 to i64
  %9 = select i1 %7, { i64, i64 } { i64 ptrtoint (i32 (%class.String*)* @_ZNK6String6lengthEv to i64), i64 0 }, { i64, i64 } zeroinitializer
  ret { i64, i64 } %9
}

; Function Attrs: noinline optnone uwtable
define linkonce_odr i32* @_ZN17Args_parse_helperI10DefaultArgIiELb0EE4slotIi4ArgsEEPT_RS5_RT0_(i32* dereferenceable(4), %class.Args* dereferenceable(112)) #0 comdat align 2 {
  %3 = alloca i32*, align 8
  %4 = alloca %class.Args*, align 8
  store i32* %0, i32** %3, align 8
  store %class.Args* %1, %class.Args** %4, align 8
  %5 = load %class.Args*, %class.Args** %4, align 8
  %6 = load i32*, i32** %3, align 8
  %7 = call i32* @_ZN4Args4slotIiEEPT_RS1_(%class.Args* %5, i32* dereferenceable(4) %6)
  ret i32* %7
}

declare void @_ZN4Args9postparseEbPNS_4SlotE(%class.Args*, i1 zeroext, %"struct.Args::Slot"*) #1

; Function Attrs: noinline optnone uwtable
define linkonce_odr zeroext i1 @_ZN17Args_parse_helperI10DefaultArgIiELb0EE5parseIi4ArgsEEbS1_RK6StringRT_RT0_(i64, %class.String* dereferenceable(24), i32* dereferenceable(4), %class.Args* dereferenceable(112)) #0 comdat align 2 {
  %5 = alloca %struct.DefaultArg, align 4
  %6 = alloca %class.String*, align 8
  %7 = alloca i32*, align 8
  %8 = alloca %class.Args*, align 8
  %9 = getelementptr inbounds %struct.DefaultArg, %struct.DefaultArg* %5, i32 0, i32 0
  %10 = bitcast %class.IntArg* %9 to i64*
  store i64 %0, i64* %10, align 4
  store %class.String* %1, %class.String** %6, align 8
  store i32* %2, i32** %7, align 8
  store %class.Args* %3, %class.Args** %8, align 8
  %11 = bitcast %struct.DefaultArg* %5 to %class.IntArg*
  %12 = load %class.String*, %class.String** %6, align 8
  %13 = load i32*, i32** %7, align 8
  %14 = load %class.Args*, %class.Args** %8, align 8
  %15 = bitcast %class.Args* %14 to %class.ArgContext*
  %16 = call zeroext i1 @_ZN6IntArg5parseIiEEbRK6StringRT_RK10ArgContext(%class.IntArg* %11, %class.String* dereferenceable(24) %12, i32* dereferenceable(4) %13, %class.ArgContext* dereferenceable(32) %15)
  ret i1 %16
}

; Function Attrs: noinline optnone uwtable
define linkonce_odr void @_ZN10DefaultArgIiEC2Ev(%struct.DefaultArg*) unnamed_addr #0 comdat align 2 {
  %2 = alloca %struct.DefaultArg*, align 8
  store %struct.DefaultArg* %0, %struct.DefaultArg** %2, align 8
  %3 = load %struct.DefaultArg*, %struct.DefaultArg** %2, align 8
  %4 = bitcast %struct.DefaultArg* %3 to %class.IntArg*
  call void @_ZN6IntArgC2Ei(%class.IntArg* %4, i32 0)
  ret void
}

; Function Attrs: noinline nounwind optnone uwtable
define linkonce_odr i32 @_ZNK6String6lengthEv(%class.String*) #2 comdat align 2 {
  %2 = alloca %class.String*, align 8
  store %class.String* %0, %class.String** %2, align 8
  %3 = load %class.String*, %class.String** %2, align 8
  %4 = getelementptr inbounds %class.String, %class.String* %3, i32 0, i32 0
  %5 = getelementptr inbounds %"struct.String::rep_t", %"struct.String::rep_t"* %4, i32 0, i32 1
  %6 = load i32, i32* %5, align 8
  ret i32 %6
}

; Function Attrs: noinline optnone uwtable
define linkonce_odr i32* @_ZN4Args4slotIiEEPT_RS1_(%class.Args*, i32* dereferenceable(4)) #0 comdat align 2 {
  %3 = alloca %class.Args*, align 8
  %4 = alloca i32*, align 8
  store %class.Args* %0, %class.Args** %3, align 8
  store i32* %1, i32** %4, align 8
  %5 = load %class.Args*, %class.Args** %3, align 8
  %6 = load i32*, i32** %4, align 8
  %7 = bitcast i32* %6 to i8*
  %8 = call i8* @_ZN4Args11simple_slotEPvm(%class.Args* %5, i8* %7, i64 4)
  %9 = bitcast i8* %8 to i32*
  ret i32* %9
}

declare i8* @_ZN4Args11simple_slotEPvm(%class.Args*, i8*, i64) #1

; Function Attrs: noinline optnone uwtable
define linkonce_odr zeroext i1 @_ZN6IntArg5parseIiEEbRK6StringRT_RK10ArgContext(%class.IntArg*, %class.String* dereferenceable(24), i32* dereferenceable(4), %class.ArgContext* dereferenceable(32)) #0 comdat align 2 {
  %5 = alloca i1, align 1
  %6 = alloca %class.IntArg*, align 8
  %7 = alloca %class.String*, align 8
  %8 = alloca i32*, align 8
  %9 = alloca %class.ArgContext*, align 8
  %10 = alloca i32, align 4
  store %class.IntArg* %0, %class.IntArg** %6, align 8
  store %class.String* %1, %class.String** %7, align 8
  store i32* %2, i32** %8, align 8
  store %class.ArgContext* %3, %class.ArgContext** %9, align 8
  %11 = load %class.IntArg*, %class.IntArg** %6, align 8
  %12 = load %class.String*, %class.String** %7, align 8
  %13 = load %class.ArgContext*, %class.ArgContext** %9, align 8
  %14 = call zeroext i1 @_ZN6IntArg16parse_saturatingIiEEbRK6StringRT_RK10ArgContext(%class.IntArg* %11, %class.String* dereferenceable(24) %12, i32* dereferenceable(4) %10, %class.ArgContext* dereferenceable(32) %13)
  br i1 %14, label %15, label %23

; <label>:15:                                     ; preds = %4
  %16 = getelementptr inbounds %class.IntArg, %class.IntArg* %11, i32 0, i32 1
  %17 = load i32, i32* %16, align 4
  %18 = icmp ne i32 %17, 0
  br i1 %18, label %19, label %24

; <label>:19:                                     ; preds = %15
  %20 = getelementptr inbounds %class.IntArg, %class.IntArg* %11, i32 0, i32 1
  %21 = load i32, i32* %20, align 4
  %22 = icmp ne i32 %21, 34
  br i1 %22, label %23, label %24

; <label>:23:                                     ; preds = %19, %4
  store i1 false, i1* %5, align 1
  br label %35

; <label>:24:                                     ; preds = %19, %15
  %25 = getelementptr inbounds %class.IntArg, %class.IntArg* %11, i32 0, i32 1
  %26 = load i32, i32* %25, align 4
  %27 = icmp eq i32 %26, 34
  br i1 %27, label %28, label %32

; <label>:28:                                     ; preds = %24
  %29 = load %class.ArgContext*, %class.ArgContext** %9, align 8
  %30 = load i32, i32* %10, align 4
  %31 = sext i32 %30 to i64
  call void @_ZN6IntArg11range_errorERK10ArgContextbx(%class.IntArg* %11, %class.ArgContext* dereferenceable(32) %29, i1 zeroext true, i64 %31)
  store i1 false, i1* %5, align 1
  br label %35

; <label>:32:                                     ; preds = %24
  %33 = load i32, i32* %10, align 4
  %34 = load i32*, i32** %8, align 8
  store i32 %33, i32* %34, align 4
  store i1 true, i1* %5, align 1
  br label %35

; <label>:35:                                     ; preds = %32, %28, %23
  %36 = load i1, i1* %5, align 1
  ret i1 %36
}

; Function Attrs: noinline optnone uwtable
define linkonce_odr zeroext i1 @_ZN6IntArg16parse_saturatingIiEEbRK6StringRT_RK10ArgContext(%class.IntArg*, %class.String* dereferenceable(24), i32* dereferenceable(4), %class.ArgContext* dereferenceable(32)) #0 comdat align 2 {
  %5 = alloca i1, align 1
  %6 = alloca %class.IntArg*, align 8
  %7 = alloca %class.String*, align 8
  %8 = alloca i32*, align 8
  %9 = alloca %class.ArgContext*, align 8
  %10 = alloca i8, align 1
  %11 = alloca i32, align 4
  %12 = alloca [1 x i32], align 4
  store %class.IntArg* %0, %class.IntArg** %6, align 8
  store %class.String* %1, %class.String** %7, align 8
  store i32* %2, i32** %8, align 8
  store %class.ArgContext* %3, %class.ArgContext** %9, align 8
  %13 = load %class.IntArg*, %class.IntArg** %6, align 8
  store i8 1, i8* %10, align 1
  store i32 1, i32* %11, align 4
  %14 = load %class.String*, %class.String** %7, align 8
  %15 = call i8* @_ZNK6String5beginEv(%class.String* %14)
  %16 = load %class.String*, %class.String** %7, align 8
  %17 = call i8* @_ZNK6String3endEv(%class.String* %16)
  %18 = getelementptr inbounds [1 x i32], [1 x i32]* %12, i32 0, i32 0
  %19 = call i8* @_ZN6IntArg5parseEPKcS1_biPji(%class.IntArg* %13, i8* %15, i8* %17, i1 zeroext true, i32 4, i32* %18, i32 1)
  %20 = load %class.String*, %class.String** %7, align 8
  %21 = call i8* @_ZNK6String3endEv(%class.String* %20)
  %22 = icmp ne i8* %19, %21
  br i1 %22, label %23, label %25

; <label>:23:                                     ; preds = %4
  %24 = getelementptr inbounds %class.IntArg, %class.IntArg* %13, i32 0, i32 1
  store i32 22, i32* %24, align 4
  br label %25

; <label>:25:                                     ; preds = %23, %4
  %26 = getelementptr inbounds %class.IntArg, %class.IntArg* %13, i32 0, i32 1
  %27 = load i32, i32* %26, align 4
  %28 = icmp ne i32 %27, 0
  br i1 %28, label %29, label %35

; <label>:29:                                     ; preds = %25
  %30 = getelementptr inbounds %class.IntArg, %class.IntArg* %13, i32 0, i32 1
  %31 = load i32, i32* %30, align 4
  %32 = icmp ne i32 %31, 34
  br i1 %32, label %33, label %35

; <label>:33:                                     ; preds = %29
  %34 = load %class.ArgContext*, %class.ArgContext** %9, align 8
  call void (%class.ArgContext*, i8*, ...) @_ZNK10ArgContext5errorEPKcz(%class.ArgContext* %34, i8* getelementptr inbounds ([15 x i8], [15 x i8]* @.str.18, i32 0, i32 0))
  store i1 false, i1* %5, align 1
  br label %38

; <label>:35:                                     ; preds = %29, %25
  %36 = getelementptr inbounds [1 x i32], [1 x i32]* %12, i32 0, i32 0
  %37 = load i32*, i32** %8, align 8
  call void @_Z15extract_integerIjjEvPKT_RT0_(i32* %36, i32* dereferenceable(4) %37)
  store i1 true, i1* %5, align 1
  br label %38

; <label>:38:                                     ; preds = %35, %33
  %39 = load i1, i1* %5, align 1
  ret i1 %39
}

declare void @_ZN6IntArg11range_errorERK10ArgContextbx(%class.IntArg*, %class.ArgContext* dereferenceable(32), i1 zeroext, i64) #1

declare i8* @_ZN6IntArg5parseEPKcS1_biPji(%class.IntArg*, i8*, i8*, i1 zeroext, i32, i32*, i32) #1

; Function Attrs: noinline nounwind optnone uwtable
define linkonce_odr i8* @_ZNK6String5beginEv(%class.String*) #2 comdat align 2 {
  %2 = alloca %class.String*, align 8
  store %class.String* %0, %class.String** %2, align 8
  %3 = load %class.String*, %class.String** %2, align 8
  %4 = getelementptr inbounds %class.String, %class.String* %3, i32 0, i32 0
  %5 = getelementptr inbounds %"struct.String::rep_t", %"struct.String::rep_t"* %4, i32 0, i32 0
  %6 = load i8*, i8** %5, align 8
  ret i8* %6
}

; Function Attrs: noinline nounwind optnone uwtable
define linkonce_odr i8* @_ZNK6String3endEv(%class.String*) #2 comdat align 2 {
  %2 = alloca %class.String*, align 8
  store %class.String* %0, %class.String** %2, align 8
  %3 = load %class.String*, %class.String** %2, align 8
  %4 = getelementptr inbounds %class.String, %class.String* %3, i32 0, i32 0
  %5 = getelementptr inbounds %"struct.String::rep_t", %"struct.String::rep_t"* %4, i32 0, i32 0
  %6 = load i8*, i8** %5, align 8
  %7 = getelementptr inbounds %class.String, %class.String* %3, i32 0, i32 0
  %8 = getelementptr inbounds %"struct.String::rep_t", %"struct.String::rep_t"* %7, i32 0, i32 1
  %9 = load i32, i32* %8, align 8
  %10 = sext i32 %9 to i64
  %11 = getelementptr inbounds i8, i8* %6, i64 %10
  ret i8* %11
}

declare void @_ZNK10ArgContext5errorEPKcz(%class.ArgContext*, i8*, ...) #1

; Function Attrs: noinline optnone uwtable
define linkonce_odr void @_Z15extract_integerIjjEvPKT_RT0_(i32*, i32* dereferenceable(4)) #0 comdat {
  %3 = alloca i32*, align 8
  %4 = alloca i32*, align 8
  store i32* %0, i32** %3, align 8
  store i32* %1, i32** %4, align 8
  %5 = load i32*, i32** %3, align 8
  %6 = load i32*, i32** %4, align 8
  call void @_ZN22extract_integer_helperILi1EjjE7extractEPKjRj(i32* %5, i32* dereferenceable(4) %6)
  ret void
}

; Function Attrs: noinline nounwind optnone uwtable
define linkonce_odr void @_ZN22extract_integer_helperILi1EjjE7extractEPKjRj(i32*, i32* dereferenceable(4)) #2 comdat align 2 {
  %3 = alloca i32*, align 8
  %4 = alloca i32*, align 8
  store i32* %0, i32** %3, align 8
  store i32* %1, i32** %4, align 8
  %5 = load i32*, i32** %3, align 8
  %6 = getelementptr inbounds i32, i32* %5, i64 0
  %7 = load i32, i32* %6, align 4
  %8 = load i32*, i32** %4, align 8
  store i32 %7, i32* %8, align 4
  ret void
}

; Function Attrs: noinline nounwind optnone uwtable
define linkonce_odr void @_ZN6IntArgC2Ei(%class.IntArg*, i32) unnamed_addr #2 comdat align 2 {
  %3 = alloca %class.IntArg*, align 8
  %4 = alloca i32, align 4
  store %class.IntArg* %0, %class.IntArg** %3, align 8
  store i32 %1, i32* %4, align 4
  %5 = load %class.IntArg*, %class.IntArg** %3, align 8
  %6 = bitcast %class.IntArg* %5 to %class.NumArg*
  %7 = getelementptr inbounds %class.IntArg, %class.IntArg* %5, i32 0, i32 0
  %8 = load i32, i32* %4, align 4
  store i32 %8, i32* %7, align 4
  ret void
}

; Function Attrs: noinline optnone uwtable
define linkonce_odr dereferenceable(112) %class.Args* @_ZN4Args4readI12EtherAddressEERS_PKciRT_(%class.Args*, i8*, i32, %class.EtherAddress* dereferenceable(6)) #0 comdat align 2 {
  %5 = alloca %class.Args*, align 8
  %6 = alloca i8*, align 8
  %7 = alloca i32, align 4
  %8 = alloca %class.EtherAddress*, align 8
  store %class.Args* %0, %class.Args** %5, align 8
  store i8* %1, i8** %6, align 8
  store i32 %2, i32* %7, align 4
  store %class.EtherAddress* %3, %class.EtherAddress** %8, align 8
  %9 = load %class.Args*, %class.Args** %5, align 8
  %10 = load i8*, i8** %6, align 8
  %11 = load i32, i32* %7, align 4
  %12 = load %class.EtherAddress*, %class.EtherAddress** %8, align 8
  call void @_Z14args_base_readI12EtherAddressEvP4ArgsPKciRT_(%class.Args* %9, i8* %10, i32 %11, %class.EtherAddress* dereferenceable(6) %12)
  ret %class.Args* %9
}

; Function Attrs: noinline optnone uwtable
define linkonce_odr void @_Z14args_base_readI12EtherAddressEvP4ArgsPKciRT_(%class.Args*, i8*, i32, %class.EtherAddress* dereferenceable(6)) #0 comdat {
  %5 = alloca %class.Args*, align 8
  %6 = alloca i8*, align 8
  %7 = alloca i32, align 4
  %8 = alloca %class.EtherAddress*, align 8
  store %class.Args* %0, %class.Args** %5, align 8
  store i8* %1, i8** %6, align 8
  store i32 %2, i32* %7, align 4
  store %class.EtherAddress* %3, %class.EtherAddress** %8, align 8
  %9 = load %class.Args*, %class.Args** %5, align 8
  %10 = load i8*, i8** %6, align 8
  %11 = load i32, i32* %7, align 4
  %12 = load %class.EtherAddress*, %class.EtherAddress** %8, align 8
  call void @_ZN4Args9base_readI12EtherAddressEEvPKciRT_(%class.Args* %9, i8* %10, i32 %11, %class.EtherAddress* dereferenceable(6) %12)
  ret void
}

; Function Attrs: noinline optnone uwtable
define linkonce_odr void @_ZN4Args9base_readI12EtherAddressEEvPKciRT_(%class.Args*, i8*, i32, %class.EtherAddress* dereferenceable(6)) #0 comdat align 2 personality i8* bitcast (i32 (...)* @__gxx_personality_v0 to i8*) {
  %5 = alloca %class.Args*, align 8
  %6 = alloca i8*, align 8
  %7 = alloca i32, align 4
  %8 = alloca %class.EtherAddress*, align 8
  %9 = alloca %"struct.Args::Slot"*, align 8
  %10 = alloca %class.String, align 8
  %11 = alloca i8*
  %12 = alloca i32
  %13 = alloca %class.EtherAddress*, align 8
  %14 = alloca %struct.DefaultArg.20, align 4
  store %class.Args* %0, %class.Args** %5, align 8
  store i8* %1, i8** %6, align 8
  store i32 %2, i32* %7, align 4
  store %class.EtherAddress* %3, %class.EtherAddress** %8, align 8
  %15 = load %class.Args*, %class.Args** %5, align 8
  %16 = load i8*, i8** %6, align 8
  %17 = load i32, i32* %7, align 4
  call void @_ZN4Args4findEPKciRPNS_4SlotE(%class.String* sret %10, %class.Args* %15, i8* %16, i32 %17, %"struct.Args::Slot"** dereferenceable(8) %9)
  %18 = invoke { i64, i64 } @_ZNK6StringcvMS_KFivEEv(%class.String* %10)
          to label %19 unwind label %41

; <label>:19:                                     ; preds = %4
  %20 = extractvalue { i64, i64 } %18, 0
  %21 = icmp ne i64 %20, 0
  br i1 %21, label %22, label %45

; <label>:22:                                     ; preds = %19
  %23 = load %class.EtherAddress*, %class.EtherAddress** %8, align 8
  %24 = invoke %class.EtherAddress* @_ZN17Args_parse_helperI10DefaultArgI12EtherAddressELb1EE4slotIS1_4ArgsEEPT_RS6_RT0_(%class.EtherAddress* dereferenceable(6) %23, %class.Args* dereferenceable(112) %15)
          to label %25 unwind label %41

; <label>:25:                                     ; preds = %22
  store %class.EtherAddress* %24, %class.EtherAddress** %13, align 8
  %26 = load %class.EtherAddress*, %class.EtherAddress** %13, align 8
  %27 = icmp ne %class.EtherAddress* %26, null
  br i1 %27, label %28, label %37

; <label>:28:                                     ; preds = %25
  %29 = bitcast %struct.DefaultArg.20* %14 to i8*
  call void @llvm.memset.p0i8.i64(i8* %29, i8 0, i64 4, i32 4, i1 false)
  invoke void @_ZN10DefaultArgI12EtherAddressEC2Ev(%struct.DefaultArg.20* %14)
          to label %30 unwind label %41

; <label>:30:                                     ; preds = %28
  %31 = load %class.EtherAddress*, %class.EtherAddress** %13, align 8
  %32 = getelementptr inbounds %struct.DefaultArg.20, %struct.DefaultArg.20* %14, i32 0, i32 0
  %33 = getelementptr inbounds %class.EtherAddressArg, %class.EtherAddressArg* %32, i32 0, i32 0
  %34 = load i32, i32* %33, align 4
  %35 = invoke zeroext i1 @_ZN17Args_parse_helperI10DefaultArgI12EtherAddressELb1EE5parseIS1_4ArgsEEbS2_RK6StringRT_RT0_(i32 %34, %class.String* dereferenceable(24) %10, %class.EtherAddress* dereferenceable(6) %31, %class.Args* dereferenceable(112) %15)
          to label %36 unwind label %41

; <label>:36:                                     ; preds = %30
  br label %37

; <label>:37:                                     ; preds = %36, %25
  %38 = phi i1 [ false, %25 ], [ %35, %36 ]
  %39 = load %"struct.Args::Slot"*, %"struct.Args::Slot"** %9, align 8
  invoke void @_ZN4Args9postparseEbPNS_4SlotE(%class.Args* %15, i1 zeroext %38, %"struct.Args::Slot"* %39)
          to label %40 unwind label %41

; <label>:40:                                     ; preds = %37
  br label %45

; <label>:41:                                     ; preds = %37, %30, %28, %22, %4
  %42 = landingpad { i8*, i32 }
          cleanup
  %43 = extractvalue { i8*, i32 } %42, 0
  store i8* %43, i8** %11, align 8
  %44 = extractvalue { i8*, i32 } %42, 1
  store i32 %44, i32* %12, align 4
  call void @_ZN6StringD2Ev(%class.String* %10) #9
  br label %46

; <label>:45:                                     ; preds = %40, %19
  call void @_ZN6StringD2Ev(%class.String* %10) #9
  ret void

; <label>:46:                                     ; preds = %41
  %47 = load i8*, i8** %11, align 8
  %48 = load i32, i32* %12, align 4
  %49 = insertvalue { i8*, i32 } undef, i8* %47, 0
  %50 = insertvalue { i8*, i32 } %49, i32 %48, 1
  resume { i8*, i32 } %50
}

; Function Attrs: noinline nounwind optnone uwtable
define linkonce_odr %class.EtherAddress* @_ZN17Args_parse_helperI10DefaultArgI12EtherAddressELb1EE4slotIS1_4ArgsEEPT_RS6_RT0_(%class.EtherAddress* dereferenceable(6), %class.Args* dereferenceable(112)) #2 comdat align 2 {
  %3 = alloca %class.EtherAddress*, align 8
  %4 = alloca %class.Args*, align 8
  store %class.EtherAddress* %0, %class.EtherAddress** %3, align 8
  store %class.Args* %1, %class.Args** %4, align 8
  %5 = load %class.EtherAddress*, %class.EtherAddress** %3, align 8
  ret %class.EtherAddress* %5
}

; Function Attrs: noinline optnone uwtable
define linkonce_odr zeroext i1 @_ZN17Args_parse_helperI10DefaultArgI12EtherAddressELb1EE5parseIS1_4ArgsEEbS2_RK6StringRT_RT0_(i32, %class.String* dereferenceable(24), %class.EtherAddress* dereferenceable(6), %class.Args* dereferenceable(112)) #0 comdat align 2 {
  %5 = alloca %struct.DefaultArg.20, align 4
  %6 = alloca %class.String*, align 8
  %7 = alloca %class.EtherAddress*, align 8
  %8 = alloca %class.Args*, align 8
  %9 = getelementptr inbounds %struct.DefaultArg.20, %struct.DefaultArg.20* %5, i32 0, i32 0
  %10 = getelementptr inbounds %class.EtherAddressArg, %class.EtherAddressArg* %9, i32 0, i32 0
  store i32 %0, i32* %10, align 4
  store %class.String* %1, %class.String** %6, align 8
  store %class.EtherAddress* %2, %class.EtherAddress** %7, align 8
  store %class.Args* %3, %class.Args** %8, align 8
  %11 = bitcast %struct.DefaultArg.20* %5 to %class.EtherAddressArg*
  %12 = load %class.String*, %class.String** %6, align 8
  %13 = load %class.EtherAddress*, %class.EtherAddress** %7, align 8
  %14 = load %class.Args*, %class.Args** %8, align 8
  %15 = call zeroext i1 @_ZN15EtherAddressArg12direct_parseERK6StringR12EtherAddressR4Args(%class.EtherAddressArg* %11, %class.String* dereferenceable(24) %12, %class.EtherAddress* dereferenceable(6) %13, %class.Args* dereferenceable(112) %14)
  ret i1 %15
}

; Function Attrs: noinline optnone uwtable
define linkonce_odr void @_ZN10DefaultArgI12EtherAddressEC2Ev(%struct.DefaultArg.20*) unnamed_addr #0 comdat align 2 {
  %2 = alloca %struct.DefaultArg.20*, align 8
  store %struct.DefaultArg.20* %0, %struct.DefaultArg.20** %2, align 8
  %3 = load %struct.DefaultArg.20*, %struct.DefaultArg.20** %2, align 8
  %4 = bitcast %struct.DefaultArg.20* %3 to %class.EtherAddressArg*
  call void @_ZN15EtherAddressArgC2Ei(%class.EtherAddressArg* %4, i32 0)
  ret void
}

; Function Attrs: noinline optnone uwtable
define linkonce_odr zeroext i1 @_ZN15EtherAddressArg12direct_parseERK6StringR12EtherAddressR4Args(%class.EtherAddressArg*, %class.String* dereferenceable(24), %class.EtherAddress* dereferenceable(6), %class.Args* dereferenceable(112)) #0 comdat align 2 {
  %5 = alloca %class.EtherAddressArg*, align 8
  %6 = alloca %class.String*, align 8
  %7 = alloca %class.EtherAddress*, align 8
  %8 = alloca %class.Args*, align 8
  store %class.EtherAddressArg* %0, %class.EtherAddressArg** %5, align 8
  store %class.String* %1, %class.String** %6, align 8
  store %class.EtherAddress* %2, %class.EtherAddress** %7, align 8
  store %class.Args* %3, %class.Args** %8, align 8
  %9 = load %class.EtherAddressArg*, %class.EtherAddressArg** %5, align 8
  %10 = load %class.String*, %class.String** %6, align 8
  %11 = load %class.EtherAddress*, %class.EtherAddress** %7, align 8
  %12 = load %class.Args*, %class.Args** %8, align 8
  %13 = getelementptr inbounds %class.EtherAddressArg, %class.EtherAddressArg* %9, i32 0, i32 0
  %14 = load i32, i32* %13, align 4
  %15 = call zeroext i1 @_ZN15EtherAddressArg12direct_parseERK6StringR12EtherAddressR4Argsi(%class.String* dereferenceable(24) %10, %class.EtherAddress* dereferenceable(6) %11, %class.Args* dereferenceable(112) %12, i32 %14)
  ret i1 %15
}

declare zeroext i1 @_ZN15EtherAddressArg12direct_parseERK6StringR12EtherAddressR4Argsi(%class.String* dereferenceable(24), %class.EtherAddress* dereferenceable(6), %class.Args* dereferenceable(112), i32) #1

; Function Attrs: noinline nounwind optnone uwtable
define linkonce_odr void @_ZN15EtherAddressArgC2Ei(%class.EtherAddressArg*, i32) unnamed_addr #2 comdat align 2 {
  %3 = alloca %class.EtherAddressArg*, align 8
  %4 = alloca i32, align 4
  store %class.EtherAddressArg* %0, %class.EtherAddressArg** %3, align 8
  store i32 %1, i32* %4, align 4
  %5 = load %class.EtherAddressArg*, %class.EtherAddressArg** %3, align 8
  %6 = getelementptr inbounds %class.EtherAddressArg, %class.EtherAddressArg* %5, i32 0, i32 0
  %7 = load i32, i32* %4, align 4
  store i32 %7, i32* %6, align 4
  ret void
}

; Function Attrs: noinline optnone uwtable
define linkonce_odr dereferenceable(112) %class.Args* @_ZN4Args4readI9IPAddressEERS_PKciRT_(%class.Args*, i8*, i32, %class.IPAddress* dereferenceable(4)) #0 comdat align 2 {
  %5 = alloca %class.Args*, align 8
  %6 = alloca i8*, align 8
  %7 = alloca i32, align 4
  %8 = alloca %class.IPAddress*, align 8
  store %class.Args* %0, %class.Args** %5, align 8
  store i8* %1, i8** %6, align 8
  store i32 %2, i32* %7, align 4
  store %class.IPAddress* %3, %class.IPAddress** %8, align 8
  %9 = load %class.Args*, %class.Args** %5, align 8
  %10 = load i8*, i8** %6, align 8
  %11 = load i32, i32* %7, align 4
  %12 = load %class.IPAddress*, %class.IPAddress** %8, align 8
  call void @_Z14args_base_readI9IPAddressEvP4ArgsPKciRT_(%class.Args* %9, i8* %10, i32 %11, %class.IPAddress* dereferenceable(4) %12)
  ret %class.Args* %9
}

; Function Attrs: noinline optnone uwtable
define linkonce_odr void @_Z14args_base_readI9IPAddressEvP4ArgsPKciRT_(%class.Args*, i8*, i32, %class.IPAddress* dereferenceable(4)) #0 comdat {
  %5 = alloca %class.Args*, align 8
  %6 = alloca i8*, align 8
  %7 = alloca i32, align 4
  %8 = alloca %class.IPAddress*, align 8
  store %class.Args* %0, %class.Args** %5, align 8
  store i8* %1, i8** %6, align 8
  store i32 %2, i32* %7, align 4
  store %class.IPAddress* %3, %class.IPAddress** %8, align 8
  %9 = load %class.Args*, %class.Args** %5, align 8
  %10 = load i8*, i8** %6, align 8
  %11 = load i32, i32* %7, align 4
  %12 = load %class.IPAddress*, %class.IPAddress** %8, align 8
  call void @_ZN4Args9base_readI9IPAddressEEvPKciRT_(%class.Args* %9, i8* %10, i32 %11, %class.IPAddress* dereferenceable(4) %12)
  ret void
}

; Function Attrs: noinline optnone uwtable
define linkonce_odr void @_ZN4Args9base_readI9IPAddressEEvPKciRT_(%class.Args*, i8*, i32, %class.IPAddress* dereferenceable(4)) #0 comdat align 2 personality i8* bitcast (i32 (...)* @__gxx_personality_v0 to i8*) {
  %5 = alloca %class.Args*, align 8
  %6 = alloca i8*, align 8
  %7 = alloca i32, align 4
  %8 = alloca %class.IPAddress*, align 8
  %9 = alloca %"struct.Args::Slot"*, align 8
  %10 = alloca %class.String, align 8
  %11 = alloca i8*
  %12 = alloca i32
  %13 = alloca %class.IPAddress*, align 8
  %14 = alloca %struct.DefaultArg.21, align 1
  store %class.Args* %0, %class.Args** %5, align 8
  store i8* %1, i8** %6, align 8
  store i32 %2, i32* %7, align 4
  store %class.IPAddress* %3, %class.IPAddress** %8, align 8
  %15 = load %class.Args*, %class.Args** %5, align 8
  %16 = load i8*, i8** %6, align 8
  %17 = load i32, i32* %7, align 4
  call void @_ZN4Args4findEPKciRPNS_4SlotE(%class.String* sret %10, %class.Args* %15, i8* %16, i32 %17, %"struct.Args::Slot"** dereferenceable(8) %9)
  %18 = invoke { i64, i64 } @_ZNK6StringcvMS_KFivEEv(%class.String* %10)
          to label %19 unwind label %36

; <label>:19:                                     ; preds = %4
  %20 = extractvalue { i64, i64 } %18, 0
  %21 = icmp ne i64 %20, 0
  br i1 %21, label %22, label %40

; <label>:22:                                     ; preds = %19
  %23 = load %class.IPAddress*, %class.IPAddress** %8, align 8
  %24 = invoke %class.IPAddress* @_ZN17Args_parse_helperI10DefaultArgI9IPAddressELb0EE4slotIS1_4ArgsEEPT_RS6_RT0_(%class.IPAddress* dereferenceable(4) %23, %class.Args* dereferenceable(112) %15)
          to label %25 unwind label %36

; <label>:25:                                     ; preds = %22
  store %class.IPAddress* %24, %class.IPAddress** %13, align 8
  %26 = load %class.IPAddress*, %class.IPAddress** %13, align 8
  %27 = icmp ne %class.IPAddress* %26, null
  br i1 %27, label %28, label %32

; <label>:28:                                     ; preds = %25
  %29 = load %class.IPAddress*, %class.IPAddress** %13, align 8
  %30 = invoke zeroext i1 @_ZN17Args_parse_helperI10DefaultArgI9IPAddressELb0EE5parseIS1_4ArgsEEbS2_RK6StringRT_RT0_(%class.String* dereferenceable(24) %10, %class.IPAddress* dereferenceable(4) %29, %class.Args* dereferenceable(112) %15)
          to label %31 unwind label %36

; <label>:31:                                     ; preds = %28
  br label %32

; <label>:32:                                     ; preds = %31, %25
  %33 = phi i1 [ false, %25 ], [ %30, %31 ]
  %34 = load %"struct.Args::Slot"*, %"struct.Args::Slot"** %9, align 8
  invoke void @_ZN4Args9postparseEbPNS_4SlotE(%class.Args* %15, i1 zeroext %33, %"struct.Args::Slot"* %34)
          to label %35 unwind label %36

; <label>:35:                                     ; preds = %32
  br label %40

; <label>:36:                                     ; preds = %32, %28, %22, %4
  %37 = landingpad { i8*, i32 }
          cleanup
  %38 = extractvalue { i8*, i32 } %37, 0
  store i8* %38, i8** %11, align 8
  %39 = extractvalue { i8*, i32 } %37, 1
  store i32 %39, i32* %12, align 4
  call void @_ZN6StringD2Ev(%class.String* %10) #9
  br label %41

; <label>:40:                                     ; preds = %35, %19
  call void @_ZN6StringD2Ev(%class.String* %10) #9
  ret void

; <label>:41:                                     ; preds = %36
  %42 = load i8*, i8** %11, align 8
  %43 = load i32, i32* %12, align 4
  %44 = insertvalue { i8*, i32 } undef, i8* %42, 0
  %45 = insertvalue { i8*, i32 } %44, i32 %43, 1
  resume { i8*, i32 } %45
}

; Function Attrs: noinline optnone uwtable
define linkonce_odr %class.IPAddress* @_ZN17Args_parse_helperI10DefaultArgI9IPAddressELb0EE4slotIS1_4ArgsEEPT_RS6_RT0_(%class.IPAddress* dereferenceable(4), %class.Args* dereferenceable(112)) #0 comdat align 2 {
  %3 = alloca %class.IPAddress*, align 8
  %4 = alloca %class.Args*, align 8
  store %class.IPAddress* %0, %class.IPAddress** %3, align 8
  store %class.Args* %1, %class.Args** %4, align 8
  %5 = load %class.Args*, %class.Args** %4, align 8
  %6 = load %class.IPAddress*, %class.IPAddress** %3, align 8
  %7 = call %class.IPAddress* @_ZN4Args4slotI9IPAddressEEPT_RS2_(%class.Args* %5, %class.IPAddress* dereferenceable(4) %6)
  ret %class.IPAddress* %7
}

; Function Attrs: noinline optnone uwtable
define linkonce_odr zeroext i1 @_ZN17Args_parse_helperI10DefaultArgI9IPAddressELb0EE5parseIS1_4ArgsEEbS2_RK6StringRT_RT0_(%class.String* dereferenceable(24), %class.IPAddress* dereferenceable(4), %class.Args* dereferenceable(112)) #0 comdat align 2 {
  %4 = alloca %struct.DefaultArg.21, align 1
  %5 = alloca %class.String*, align 8
  %6 = alloca %class.IPAddress*, align 8
  %7 = alloca %class.Args*, align 8
  store %class.String* %0, %class.String** %5, align 8
  store %class.IPAddress* %1, %class.IPAddress** %6, align 8
  store %class.Args* %2, %class.Args** %7, align 8
  %8 = load %class.String*, %class.String** %5, align 8
  %9 = load %class.IPAddress*, %class.IPAddress** %6, align 8
  %10 = load %class.Args*, %class.Args** %7, align 8
  %11 = bitcast %class.Args* %10 to %class.ArgContext*
  %12 = call zeroext i1 @_ZN12IPAddressArg5parseERK6StringR9IPAddressRK10ArgContext(%class.String* dereferenceable(24) %8, %class.IPAddress* dereferenceable(4) %9, %class.ArgContext* dereferenceable(32) %11)
  ret i1 %12
}

; Function Attrs: noinline optnone uwtable
define linkonce_odr %class.IPAddress* @_ZN4Args4slotI9IPAddressEEPT_RS2_(%class.Args*, %class.IPAddress* dereferenceable(4)) #0 comdat align 2 {
  %3 = alloca %class.Args*, align 8
  %4 = alloca %class.IPAddress*, align 8
  store %class.Args* %0, %class.Args** %3, align 8
  store %class.IPAddress* %1, %class.IPAddress** %4, align 8
  %5 = load %class.Args*, %class.Args** %3, align 8
  %6 = load %class.IPAddress*, %class.IPAddress** %4, align 8
  %7 = bitcast %class.IPAddress* %6 to i8*
  %8 = call i8* @_ZN4Args11simple_slotEPvm(%class.Args* %5, i8* %7, i64 4)
  %9 = bitcast i8* %8 to %class.IPAddress*
  ret %class.IPAddress* %9
}

declare zeroext i1 @_ZN12IPAddressArg5parseERK6StringR9IPAddressRK10ArgContext(%class.String* dereferenceable(24), %class.IPAddress* dereferenceable(4), %class.ArgContext* dereferenceable(32)) #1

attributes #0 = { noinline optnone uwtable "correctly-rounded-divide-sqrt-fp-math"="false" "disable-tail-calls"="false" "less-precise-fpmad"="false" "no-frame-pointer-elim"="true" "no-frame-pointer-elim-non-leaf" "no-infs-fp-math"="false" "no-jump-tables"="false" "no-nans-fp-math"="false" "no-signed-zeros-fp-math"="false" "no-trapping-math"="false" "stack-protector-buffer-size"="8" "target-cpu"="x86-64" "target-features"="+fxsr,+mmx,+sse,+sse2,+x87" "unsafe-fp-math"="false" "use-soft-float"="false" }
attributes #1 = { "correctly-rounded-divide-sqrt-fp-math"="false" "disable-tail-calls"="false" "less-precise-fpmad"="false" "no-frame-pointer-elim"="true" "no-frame-pointer-elim-non-leaf" "no-infs-fp-math"="false" "no-nans-fp-math"="false" "no-signed-zeros-fp-math"="false" "no-trapping-math"="false" "stack-protector-buffer-size"="8" "target-cpu"="x86-64" "target-features"="+fxsr,+mmx,+sse,+sse2,+x87" "unsafe-fp-math"="false" "use-soft-float"="false" }
attributes #2 = { noinline nounwind optnone uwtable "correctly-rounded-divide-sqrt-fp-math"="false" "disable-tail-calls"="false" "less-precise-fpmad"="false" "no-frame-pointer-elim"="true" "no-frame-pointer-elim-non-leaf" "no-infs-fp-math"="false" "no-jump-tables"="false" "no-nans-fp-math"="false" "no-signed-zeros-fp-math"="false" "no-trapping-math"="false" "stack-protector-buffer-size"="8" "target-cpu"="x86-64" "target-features"="+fxsr,+mmx,+sse,+sse2,+x87" "unsafe-fp-math"="false" "use-soft-float"="false" }
attributes #3 = { nounwind "correctly-rounded-divide-sqrt-fp-math"="false" "disable-tail-calls"="false" "less-precise-fpmad"="false" "no-frame-pointer-elim"="true" "no-frame-pointer-elim-non-leaf" "no-infs-fp-math"="false" "no-nans-fp-math"="false" "no-signed-zeros-fp-math"="false" "no-trapping-math"="false" "stack-protector-buffer-size"="8" "target-cpu"="x86-64" "target-features"="+fxsr,+mmx,+sse,+sse2,+x87" "unsafe-fp-math"="false" "use-soft-float"="false" }
attributes #4 = { nobuiltin nounwind "correctly-rounded-divide-sqrt-fp-math"="false" "disable-tail-calls"="false" "less-precise-fpmad"="false" "no-frame-pointer-elim"="true" "no-frame-pointer-elim-non-leaf" "no-infs-fp-math"="false" "no-nans-fp-math"="false" "no-signed-zeros-fp-math"="false" "no-trapping-math"="false" "stack-protector-buffer-size"="8" "target-cpu"="x86-64" "target-features"="+fxsr,+mmx,+sse,+sse2,+x87" "unsafe-fp-math"="false" "use-soft-float"="false" }
attributes #5 = { noreturn nounwind "correctly-rounded-divide-sqrt-fp-math"="false" "disable-tail-calls"="false" "less-precise-fpmad"="false" "no-frame-pointer-elim"="true" "no-frame-pointer-elim-non-leaf" "no-infs-fp-math"="false" "no-nans-fp-math"="false" "no-signed-zeros-fp-math"="false" "no-trapping-math"="false" "stack-protector-buffer-size"="8" "target-cpu"="x86-64" "target-features"="+fxsr,+mmx,+sse,+sse2,+x87" "unsafe-fp-math"="false" "use-soft-float"="false" }
attributes #6 = { argmemonly nounwind }
attributes #7 = { nounwind readnone "correctly-rounded-divide-sqrt-fp-math"="false" "disable-tail-calls"="false" "less-precise-fpmad"="false" "no-frame-pointer-elim"="true" "no-frame-pointer-elim-non-leaf" "no-infs-fp-math"="false" "no-nans-fp-math"="false" "no-signed-zeros-fp-math"="false" "no-trapping-math"="false" "stack-protector-buffer-size"="8" "target-cpu"="x86-64" "target-features"="+fxsr,+mmx,+sse,+sse2,+x87" "unsafe-fp-math"="false" "use-soft-float"="false" }
attributes #8 = { noinline noreturn nounwind }
attributes #9 = { nounwind }
attributes #10 = { noreturn nounwind }
attributes #11 = { builtin nounwind }
attributes #12 = { nounwind readnone }

!llvm.module.flags = !{!0}
!llvm.ident = !{!1}

!0 = !{i32 1, !"wchar_size", i32 4}
!1 = !{!"clang version 6.0.0-1ubuntu2 (tags/RELEASE_600/final)"}
