; ModuleID = '../../click/lib/lexer.cc'
source_filename = "../../click/lib/lexer.cc"
target datalayout = "e-m:e-i64:64-f80:128-n8:16:32:64-S128"
target triple = "x86_64-pc-linux-gnu"

%class.ArgContext = type <{ %class.Element*, %class.ErrorHandler*, i8*, i8, [7 x i8] }>
%class.Element = type <{ i32 (...)**, [2 x %"class.Element::Port"*], [4 x %"class.Element::Port"], [2 x i32], %class.Router*, i32, [4 x i8] }>
%"class.Element::Port" = type <{ %class.Element*, i32, [4 x i8] }>
%class.Router = type { %class.Master*, %class.atomic_uint32_t, i32, i8, i32, %class.atomic_uint32_t, %class.Vector, %class.Vector.0, %class.Vector.0, %class.Vector.2, %class.Vector.5, %class.Vector.6, i32, %class.Vector.5, [2 x %class.Vector.5], %class.Vector.5, %class.Vector.8, %class.Vector.5, %class.Vector.0, %class.Vector.5, %class.Vector.5, %class.Vector.5, %class.Vector.5, %class.Handler**, i32, i32, %class.Vector.0, %class.Vector.12, %class.Element*, %class.String, %"struct.Router::notifier_signals_t"*, %class.HashMap_ArenaFactory*, %class.Router*, %class.ThreadSched*, %class.NameInfo*, %class.Vector.5, %class.Vector.0, %class.Router* }
%class.Master = type opaque
%class.atomic_uint32_t = type { i32 }
%class.Vector = type { %class.vector_memory }
%class.vector_memory = type { %struct.char_array*, i32, i32 }
%struct.char_array = type { [8 x i8] }
%class.Vector.2 = type { %class.vector_memory.3 }
%class.vector_memory.3 = type { %struct.char_array.4*, i32, i32 }
%struct.char_array.4 = type { [4 x i8] }
%class.Vector.6 = type { %class.vector_memory.7 }
%class.vector_memory.7 = type { %"struct.Router::element_landmark_t"*, i32, i32 }
%"struct.Router::element_landmark_t" = type { i32, %class.String }
%class.Vector.8 = type { %class.vector_memory.9 }
%class.vector_memory.9 = type { %struct.char_array.10*, i32, i32 }
%struct.char_array.10 = type { [16 x i8] }
%class.Handler = type <{ %class.String, %union.anon, %union.anon.11, i8*, i8*, i32, i32, i32, [4 x i8] }>
%union.anon = type { i32 (i32, %class.String*, %class.Element*, %class.Handler*, %class.ErrorHandler*)* }
%union.anon.11 = type { i32 (i32, %class.String*, %class.Element*, %class.Handler*, %class.ErrorHandler*)* }
%class.Vector.12 = type { %class.vector_memory }
%class.String = type { %"struct.String::rep_t" }
%"struct.String::rep_t" = type { i8*, i32, %"struct.String::memo_t"* }
%"struct.String::memo_t" = type { i32, i32, i32, [8 x i8] }
%"struct.Router::notifier_signals_t" = type { %class.String, i32, [128 x %class.atomic_uint32_t], %"struct.Router::notifier_signals_t"* }
%class.HashMap_ArenaFactory = type opaque
%class.ThreadSched = type { i32 (...)** }
%class.NameInfo = type opaque
%class.Vector.5 = type { %class.vector_memory.3 }
%class.Vector.0 = type { %class.vector_memory.1 }
%class.vector_memory.1 = type { %class.String*, i32, i32 }
%class.ErrorHandler = type <{ i32 (...)**, i32, [4 x i8] }>
%"class.Lexer::Compound" = type { %class.Element.base, %class.String, %class.String, i32, %class.VariableEnvironment, i32, i32, i32, i8, [3 x i8], %class.HashTable, %class.Vector.5, %class.Vector.0, %class.Vector.0, %class.Vector.0, %class.Vector.2, [2 x %class.Vector.5], i32, i32, %class.Vector.8 }
%class.Element.base = type <{ i32 (...)**, [2 x %"class.Element::Port"*], [4 x %"class.Element::Port"], [2 x i32], %class.Router*, i32 }>
%class.VariableEnvironment = type { %class.VariableExpander, %class.Vector.0, %class.Vector.0, i32, %class.VariableEnvironment* }
%class.VariableExpander = type { i32 (...)** }
%class.HashTable = type <{ %class.HashTable.13, i32, [4 x i8] }>
%class.HashTable.13 = type { %class.HashContainer, %class.SizedHashAllocator }
%class.HashContainer = type { %class.HashContainer_rep }
%class.HashContainer_rep = type { %"struct.HashTable<Pair<const String, int>, void>::elt"**, i32, i32, i64, %struct.libdivide_u32_t }
%"struct.HashTable<Pair<const String, int>, void>::elt" = type { %struct.Pair, %"struct.HashTable<Pair<const String, int>, void>::elt"* }
%struct.Pair = type <{ %class.String, i32, [4 x i8] }>
%struct.libdivide_u32_t = type { i32, i8 }
%class.SizedHashAllocator = type { %class.HashAllocator }
%class.HashAllocator = type { %"struct.HashAllocator::link"*, %"struct.HashAllocator::buffer"*, i64 }
%"struct.HashAllocator::link" = type { %"struct.HashAllocator::link"* }
%"struct.HashAllocator::buffer" = type { %"struct.HashAllocator::buffer"*, i64, i64 }
%"struct.Lexer::FileState" = type <{ %class.String, i8*, i8*, %class.String, %class.String, i32, [4 x i8] }>
%class.Lexer = type { i32 (...)**, %"struct.Lexer::FileState", i8, %class.LexerExtra*, [2 x %class.Lexeme], i32, [4 x i8], %class.HashTable, %class.Vector.14, i32, i32, %class.VariableEnvironment, %"class.Lexer::Compound"*, %"struct.Lexer::ParseState"*, i32, %class.Vector.16, i32, %class.Vector.0, %class.Vector.0, %class.ErrorHandler* }
%class.LexerExtra = type { i32 (...)** }
%class.Lexeme = type { i32, %class.String }
%class.Vector.14 = type { %class.vector_memory.15 }
%class.vector_memory.15 = type { %"struct.Lexer::ElementType"*, i32, i32 }
%"struct.Lexer::ElementType" = type <{ %class.Element* (i64)*, i64, %class.String, i32, [4 x i8] }>
%"struct.Lexer::ParseState" = type <{ i32, i32, %class.Vector.5, i32, [4 x i8], %"struct.Lexer::ElementState"*, %"struct.Lexer::ElementState"*, i8, i8, i8, [5 x i8], %class.Vector.5, i32, [4 x i8], %class.String, %class.HashTable, %"class.Lexer::Compound"*, %"class.Lexer::Compound"*, %"class.Lexer::Compound"*, i32, [4 x i8], %"struct.Lexer::ParseState"*, i32, [4 x i8] }>
%"struct.Lexer::ElementState" = type { %class.String, i32, i32, i8, %class.String, %class.String, i32, %"struct.Lexer::ElementState"* }
%class.Vector.16 = type { %class.vector_memory }
%"struct.Router::Connection" = type { [2 x %"struct.Router::Port"] }
%"struct.Router::Port" = type { i32, i32 }
%class.Bitvector = type { i32, i32*, [2 x i32] }
%"class.Bitvector::Bit" = type <{ i32*, i32, [4 x i8] }>
%class.LandmarkErrorHandler = type { %class.ErrorVeneer, %class.String }
%class.ErrorVeneer = type { %class.ErrorHandler.base, %class.ErrorHandler* }
%class.ErrorHandler.base = type <{ i32 (...)**, i32 }>
%class.IntArg = type { i32, i32 }
%class.ContextErrorHandler = type <{ %class.ErrorVeneer, %class.String, %class.String, %class.String, i8, [7 x i8] }>
%class.StringAccum = type { %"struct.StringAccum::rep_t" }
%"struct.StringAccum::rep_t" = type { i8*, i32, i32 }
%"class.Lexer::TunnelEnd" = type { %"struct.Router::Port", %class.Vector.17, i8, i8, %"class.Lexer::TunnelEnd"*, %"class.Lexer::TunnelEnd"* }
%class.Vector.17 = type { %class.vector_memory }
%class.HashTable_iterator = type { %class.HashTable_const_iterator }
%class.HashTable_const_iterator = type { %class.HashContainer_const_iterator }
%class.HashContainer_const_iterator = type { %"struct.HashTable<Pair<const String, int>, void>::elt"*, %"struct.HashTable<Pair<const String, int>, void>::elt"**, i32, %class.HashContainer* }
%class.ErrorElement = type { %class.Element.base, [4 x i8] }
%struct.__va_list_tag = type { i32, i32, i8*, i8* }
%class.HashContainer_iterator = type { %class.HashContainer_const_iterator }
%class.NumArg = type { i8 }
%class.Packet = type { %class.atomic_uint32_t, %class.Packet*, i8*, i8*, i8*, i8*, %"struct.Packet::AllAnno", void (i8*, i64, i8*)*, i8* }
%"struct.Packet::AllAnno" = type { %"union.Packet::Anno", i8*, i8*, i8*, i32, [8 x i8], %class.Packet*, %class.Packet* }
%"union.Packet::Anno" = type { [6 x i64] }
%class.Task = type { %struct.TaskLink.base, i32, i32, %"union.Task::Status", i1 (%class.Task*, i8*)*, i8*, %class.RouterThread*, %class.Element*, %"union.Task::Pending" }
%struct.TaskLink.base = type <{ %struct.TaskLink*, %struct.TaskLink*, i32 }>
%struct.TaskLink = type <{ %struct.TaskLink*, %struct.TaskLink*, i32, [4 x i8] }>
%"union.Task::Status" = type { i32 }
%class.RouterThread = type { %struct.TaskLink, i8, [7 x i8], %class.TimerSet, %class.SelectSet, [32 x i8], %class.Spinlock, %class.atomic_uint32_t, %class.atomic_uint32_t, %"union.Task::Pending", %"union.Task::Pending"*, %class.SpinlockIRQ, [31 x i8], %class.Master*, i32, i8, i32, i32, [40 x i8] }
%class.TimerSet = type <{ %class.Timestamp, i32, i32, i32, [4 x i8], %class.Vector.18, %class.Vector.19, %class.SimpleSpinlock, [7 x i8], %class.Timestamp, i32, [4 x i8] }>
%class.Vector.18 = type { %class.vector_memory.9 }
%class.Vector.19 = type { %class.vector_memory }
%class.SimpleSpinlock = type { i8 }
%class.Timestamp = type { %"union.Timestamp::rep_t" }
%"union.Timestamp::rep_t" = type { i64 }
%class.SelectSet = type { [2 x i32], i8, %class.Vector.20, %class.Vector.21 }
%class.Vector.20 = type { %class.vector_memory }
%class.Vector.21 = type { %class.vector_memory.22 }
%class.vector_memory.22 = type { %struct.char_array.23*, i32, i32 }
%struct.char_array.23 = type opaque
%class.Spinlock = type { i8 }
%class.SpinlockIRQ = type { i8 }
%"union.Task::Pending" = type { %class.Task* }
%class.Timer = type { i32, %class.Timestamp, %union.anon.24, i8*, %class.Element*, %class.RouterThread* }
%union.anon.24 = type { void (%class.Timer*, i8*)* }

$_ZN6StringC2ERKS_ = comdat any

$_ZN9HashTableI6StringiEC2ERKi = comdat any

$_ZN6VectorIiEC2Ev = comdat any

$_ZN6VectorI6StringEC2Ev = comdat any

$_ZN6VectorIjEC2Ev = comdat any

$_ZN6VectorIiED2Ev = comdat any

$_ZN6VectorIN6Router10ConnectionEEC2Ev = comdat any

$_ZN6VectorIjED2Ev = comdat any

$_ZN6VectorI6StringED2Ev = comdat any

$_ZN9HashTableI6StringiED2Ev = comdat any

$_ZN19VariableEnvironmentD2Ev = comdat any

$_ZN6StringD2Ev = comdat any

$_ZNK6StringcvMS_KFivEEv = comdat any

$_ZNK6String5c_strEv = comdat any

$_ZeqRK6StringPKc = comdat any

$_ZN6VectorIN6Router10ConnectionEE9push_backI13fast_argumentIS1_Lb1EEEENT_23enable_rvalue_referenceEOS1_ = comdat any

$_ZN6Router10ConnectionC2Eiiii = comdat any

$_ZN6VectorIiEixEi = comdat any

$_ZNK6VectorIiEixEi = comdat any

$_ZN9BitvectorC2Ei = comdat any

$_ZNK6VectorIN6Router10ConnectionEE5beginEv = comdat any

$_ZNK6VectorIN6Router10ConnectionEE3endEv = comdat any

$_ZNK6Router10ConnectionixEi = comdat any

$_ZN9BitvectorixEi = comdat any

$_ZN9Bitvector3BitaSEb = comdat any

$_ZNK9Bitvector4sizeEv = comdat any

$_ZNK9Bitvector3BitcvbEv = comdat any

$_ZN9BitvectorD2Ev = comdat any

$_ZN6VectorI6StringEixEi = comdat any

$_ZNK6VectorIiE4sizeEv = comdat any

$_ZNK6StringixEi = comdat any

$_ZN20LandmarkErrorHandlerD2Ev = comdat any

$_ZNK5Lexer8Compound16assign_argumentsERK6VectorI6StringEPS3_ = comdat any

$_ZNK5Lexer8Compound17overload_compoundEPS_ = comdat any

$_ZNK5Lexer8Compound4nameEv = comdat any

$_ZNK6VectorI6StringE4sizeEv = comdat any

$_ZNK5Lexer8Compound8landmarkEv = comdat any

$_ZN19ContextErrorHandlerD2Ev = comdat any

$_ZN6VectorIN5Lexer11ElementTypeEEixEi = comdat any

$_ZN11StringAccumC2Ev = comdat any

$_ZlsR11StringAccumRK6String = comdat any

$_ZN6StringC2EPKc = comdat any

$_ZlsR11StringAccumc = comdat any

$_ZlsR11StringAccumPKc = comdat any

$_ZNK6VectorI6StringEixEi = comdat any

$_ZlsR11StringAccumi = comdat any

$_ZN11StringAccumD2Ev = comdat any

$_ZNK5Lexer8Compound5scopeEv = comdat any

$_ZNK19VariableEnvironment6valuesEv = comdat any

$_ZN6VectorIiE9push_backEi = comdat any

$_Zpl6StringPKc = comdat any

$_Zpl6StringRKS_ = comdat any

$_ZN9HashTableI6StringiEixERKS0_ = comdat any

$_ZNK5Lexer12element_typeERK6String = comdat any

$_ZN6VectorIiE6resizeEii = comdat any

$_ZN6VectorIiE3endEv = comdat any

$_ZN6VectorIjEixEi = comdat any

$_ZN6VectorIN6Router10ConnectionEE5beginEv = comdat any

$_ZN6VectorIN6Router10ConnectionEE3endEv = comdat any

$_ZNK6String3endEv = comdat any

$_ZNK6String5beginEv = comdat any

$_ZN6String11make_stableEPKci = comdat any

$_ZN6StringC2Ev = comdat any

$_ZN6LexemeC2Ev = comdat any

$_ZN6LexemeD2Ev = comdat any

$_ZN6VectorIN5Lexer11ElementTypeEEC2Ev = comdat any

$_ZN6VectorIPN5Lexer9TunnelEndEEC2Ev = comdat any

$_ZN12ErrorHandler15default_handlerEv = comdat any

$_ZN6VectorIPN5Lexer9TunnelEndEED2Ev = comdat any

$_ZN6VectorIN5Lexer11ElementTypeEED2Ev = comdat any

$_ZN5Lexer9FileStateD2Ev = comdat any

$_ZNK6VectorIN5Lexer11ElementTypeEE4sizeEv = comdat any

$_ZNK5Lexer11ElementType8compoundEv = comdat any

$_ZN5Lexer8Compound5unuseEv = comdat any

$__clang_call_terminate = comdat any

$_ZN5Lexer9FileStateaSEOS0_ = comdat any

$_ZN5Lexer10ParseStateC2EiPS0_ = comdat any

$_ZN6VectorIPN5Lexer9TunnelEndEE5beginEv = comdat any

$_ZN6VectorIPN5Lexer9TunnelEndEE3endEv = comdat any

$_ZNK5Lexer9TunnelEnd4nextEv = comdat any

$_ZN5Lexer9TunnelEndD2Ev = comdat any

$_ZN6VectorIPN5Lexer9TunnelEndEE5clearEv = comdat any

$_ZN5Lexer10ParseStateD2Ev = comdat any

$_ZN6VectorI6StringE5clearEv = comdat any

$_ZN6LexemeaSEOS_ = comdat any

$_ZNK6String9substringEPKcS1_ = comdat any

$_ZN6StringaSERKS_ = comdat any

$_ZN6StringaSEOS_ = comdat any

$_ZNK6StringntEv = comdat any

$_ZNK6String6equalsEPKci = comdat any

$_ZN6LexemeC2EiRK6Stringb = comdat any

$_ZN6String6appendEPKci = comdat any

$_ZN6StringpLERKS_ = comdat any

$_ZNK6String7compactEv = comdat any

$_ZNK6Lexeme2isEi = comdat any

$_ZN5Lexer3lexEv = comdat any

$_ZN5Lexer8Compound15landmark_stringERK6Stringj = comdat any

$_ZN12ErrorHandler8xmessageERK6StringS2_PKcP13__va_list_tag = comdat any

$_ZNK6Lexeme6stringEv = comdat any

$_ZN6VectorIN5Lexer11ElementTypeEE9push_backI13fast_argumentIS1_Lb1EEEENT_23enable_rvalue_referenceEOS1_ = comdat any

$_ZN5Lexer11ElementTypeC2Ev = comdat any

$_ZN5Lexer11ElementTypeD2Ev = comdat any

$_ZN9HashTableI6StringiE3setERKS0_RKi = comdat any

$_ZneRK6StringS1_ = comdat any

$_ZN9HashTableI6StringiE5eraseERKS0_ = comdat any

$_ZNK9HashTableI6StringiE5beginEv = comdat any

$_ZNK24HashTable_const_iteratorI4PairIK6StringiEE4liveEv = comdat any

$_ZNK24HashTable_const_iteratorI4PairIK6StringiEE5valueEv = comdat any

$_ZneRK6StringPKc = comdat any

$_ZNK24HashTable_const_iteratorI4PairIK6StringiEE3keyEv = comdat any

$_ZN6VectorI6StringE9push_backERKS0_ = comdat any

$_ZN24HashTable_const_iteratorI4PairIK6StringiEEppEi = comdat any

$_ZN6Router4PortC2Ev = comdat any

$_ZNK5Lexer8Compound16element_landmarkEi = comdat any

$_ZNK5Lexer8Compound5depthEv = comdat any

$_ZNK5Lexer9TunnelEnd5otherEv = comdat any

$_ZN5Lexer9TunnelEnd9pair_withEPS0_ = comdat any

$_ZNK6String6lengthEv = comdat any

$_ZN6VectorIjE9push_backEj = comdat any

$_ZplPKcRK6String = comdat any

$_ZNK6String9substringEi = comdat any

$_ZN6IntArgC2Ei = comdat any

$_ZN6IntArg5parseIiEEbRK6StringRT_RK10ArgContext = comdat any

$_ZNK6VectorIN5Lexer11ElementTypeEEixEi = comdat any

$_ZN6String11make_stableEPKc = comdat any

$_ZN6StringC2EOS_ = comdat any

$_ZN6Lexeme6stringEv = comdat any

$_ZN5Lexer10ParseState14push_back_portEbi = comdat any

$_ZNK5Lexer10ParseState6nportsEb = comdat any

$_ZN5Lexer5unlexERK6Lexeme = comdat any

$_ZN5Lexer10ParseState13start_elementEv = comdat any

$_ZNK5Lexer10ParseState17first_element_setEv = comdat any

$_ZN6StringaSEPKc = comdat any

$_Z10click_swapIiEvRT_S1_ = comdat any

$_ZN5Lexer12ElementStateC2ERK6StringibS3_jPNS_10ParseStateE = comdat any

$_ZN5Lexer10lex_configEv = comdat any

$_ZN5Lexer10ParseState11clear_portsEb = comdat any

$_ZN6VectorIiE5beginEv = comdat any

$_ZN5Lexer12ElementStateD2Ev = comdat any

$_ZNK6VectorIiE5beginEv = comdat any

$_ZNK6VectorIiE3endEv = comdat any

$_ZN6VectorIiE4swapERS0_ = comdat any

$_ZNK6Lexeme4kindEv = comdat any

$_ZN5Lexer8Compound3useEv = comdat any

$_ZN5Lexer8Compound5scopeEv = comdat any

$_ZNK19VariableEnvironment4sizeEv = comdat any

$_ZNK5Lexer8Compound8nformalsEv = comdat any

$_ZN5Lexer8Compound6defineERK6StringS3_bPS_ = comdat any

$_ZN9HashTableI6StringiEaSERKS1_ = comdat any

$_ZN5Lexer8Compound17set_overload_typeEi = comdat any

$_ZN6VectorI6StringE5beginEv = comdat any

$_ZN6VectorI6StringE3endEv = comdat any

$_ZeqRK6StringS1_ = comdat any

$_ZNK12ErrorHandler7nerrorsEv = comdat any

$_ZN5Lexer9FileStateC2ERKS0_ = comdat any

$_ZNK5Lexer5ydoneEv = comdat any

$_ZN5Lexer9FileStateaSERKS0_ = comdat any

$_ZN7WordArg5parseERK6StringRS0_RK10ArgContext = comdat any

$_ZN9StringArg5parseERK6StringRS0_RK10ArgContext = comdat any

$_ZN5Lexer10ParseState19enter_element_stateEv = comdat any

$_ZN6VectorIiE5clearEv = comdat any

$_ZN6VectorIN6Router4PortEEC2Ev = comdat any

$_ZN6VectorIN6Router10ConnectionEEixEi = comdat any

$_ZN6Router10ConnectionixEi = comdat any

$_ZNK6VectorIN6Router4PortEE4sizeEv = comdat any

$_ZN6VectorIN6Router4PortEEixEi = comdat any

$_ZN6VectorIN6Router4PortEED2Ev = comdat any

$_ZNK19VariableEnvironment4nameEi = comdat any

$_ZNK19VariableEnvironment5valueEi = comdat any

$_ZNK6VectorIPN5Lexer9TunnelEndEE4sizeEv = comdat any

$_ZN6VectorIN6Router4PortEE9push_backES1_ = comdat any

$_ZNK6VectorIN6Router10ConnectionEE4sizeEv = comdat any

$_Z11click_qsortIN6Router10ConnectionEEiPT_m = comdat any

$_ZN6VectorIPN5Lexer9TunnelEndEEixEi = comdat any

$_ZN6VectorIPN5Lexer9TunnelEndEE6insertEPS2_S2_ = comdat any

$_ZNK5Lexer9TunnelEnd8isoutputEv = comdat any

$_ZNK5Lexer9TunnelEnd4portEv = comdat any

$_ZN5Lexer9TunnelEndC2ERKN6Router4PortEbPS0_ = comdat any

$_ZN6Router4PortC2Eii = comdat any

$_ZN6VectorIN6Router4PortEE4swapERS2_ = comdat any

$_ZNK5Lexer4errhEv = comdat any

$_ZN10LexerExtraD2Ev = comdat any

$_ZN10LexerExtraD0Ev = comdat any

$_ZN5Lexer8CompoundD2Ev = comdat any

$_ZN5Lexer8CompoundD0Ev = comdat any

$_ZNK5Lexer8Compound10class_nameEv = comdat any

$_ZNK6String6assignERKS_ = comdat any

$_ZNK6String11assign_memoEPKciPNS_6memo_tE = comdat any

$_ZN15atomic_uint32_t3incERVj = comdat any

$_ZN13vector_memoryI18sized_array_memoryILm4EEED2Ev = comdat any

$_ZN18sized_array_memoryILm4EE7destroyEPvm = comdat any

$_ZN13vector_memoryI18typed_array_memoryI6StringEED2Ev = comdat any

$_ZN18typed_array_memoryI6StringE7destroyEPS0_m = comdat any

$_ZN16VariableExpanderD2Ev = comdat any

$_ZNK6String5derefEv = comdat any

$_ZN15atomic_uint32_t12dec_and_testERVj = comdat any

$_ZN9Bitvector3BitC2ERji = comdat any

$_ZN11ErrorVeneerD2Ev = comdat any

$_ZN12ErrorHandlerD2Ev = comdat any

$_ZNK6VectorI6StringE5beginEv = comdat any

$_ZN11StringAccum5rep_tC2Ev = comdat any

$_ZN6String10empty_dataEv = comdat any

$_ZN11StringAccum6appendEPKci = comdat any

$_ZNK6String4dataEv = comdat any

$_ZN11StringAccum6appendEc = comdat any

$_ZN11StringAccum6appendEPKc = comdat any

$_ZN6String6appendEPKc = comdat any

$_ZN6String11absent_memoEv = comdat any

$_ZNK9HashTableI6StringiEixERKS0_ = comdat any

$_ZNK9HashTableI6StringiE4findERKS0_ = comdat any

$_ZNK24HashTable_const_iteratorI4PairIK6StringiEEcvMS4_KFbvEEv = comdat any

$_ZNK9HashTableI4PairIK6StringiEvE4findERS2_ = comdat any

$_ZNK13HashContainerIN9HashTableI4PairIK6StringiEvE3eltE21HashContainer_adapterIS6_EE4findERS3_ = comdat any

$_ZN24HashTable_const_iteratorI4PairIK6StringiEEC2ERK28HashContainer_const_iteratorIN9HashTableIS3_vE3eltE21HashContainer_adapterIS8_EE = comdat any

$_ZN13HashContainerIN9HashTableI4PairIK6StringiEvE3eltE21HashContainer_adapterIS6_EE4findERS3_ = comdat any

$_ZNK13HashContainerIN9HashTableI4PairIK6StringiEvE3eltE21HashContainer_adapterIS6_EE6bucketERS3_ = comdat any

$_ZN21HashContainer_adapterIN9HashTableI4PairIK6StringiEvE3eltEE9hashkeyeqERS3_S8_ = comdat any

$_ZN21HashContainer_adapterIN9HashTableI4PairIK6StringiEvE3eltEE7hashkeyEPKS6_ = comdat any

$_ZN22HashContainer_iteratorIN9HashTableI4PairIK6StringiEvE3eltE21HashContainer_adapterIS6_EEC2EP13HashContainerIS6_S8_EjPPS6_SD_ = comdat any

$_ZN21HashContainer_adapterIN9HashTableI4PairIK6StringiEvE3eltEE8hashnextEPS6_ = comdat any

$_Z8hashcodeI6StringEmRKT_ = comdat any

$_ZNK6String8hashcodeEv = comdat any

$_ZNK9HashTableI4PairIK6StringiEvE3elt7hashkeyEv = comdat any

$_ZNK4PairIK6StringiE7hashkeyEv = comdat any

$_ZN28HashContainer_const_iteratorIN9HashTableI4PairIK6StringiEvE3eltE21HashContainer_adapterIS6_EEC2EPK13HashContainerIS6_S8_EjPPS6_SE_ = comdat any

$_ZNK28HashContainer_const_iteratorIN9HashTableI4PairIK6StringiEvE3eltE21HashContainer_adapterIS6_EEcvMS9_KFPS6_vEEv = comdat any

$_ZNK28HashContainer_const_iteratorIN9HashTableI4PairIK6StringiEvE3eltE21HashContainer_adapterIS6_EE3getEv = comdat any

$_ZN13vector_memoryI18sized_array_memoryILm8EEED2Ev = comdat any

$_ZN18sized_array_memoryILm8EE7destroyEPvm = comdat any

$_ZN13vector_memoryI18typed_array_memoryIN5Lexer11ElementTypeEEED2Ev = comdat any

$_ZN18typed_array_memoryIN5Lexer11ElementTypeEE7destroyEPS1_m = comdat any

$_ZN9HashTableI6StringiEC2Ev = comdat any

$_ZN9HashTableI4PairIK6StringiEvEC2Ev = comdat any

$_ZN13HashContainerIN9HashTableI4PairIK6StringiEvE3eltE21HashContainer_adapterIS6_EEC2Ev = comdat any

$_ZN18SizedHashAllocatorILm40EEC2Ev = comdat any

$_ZN13HashContainerIN9HashTableI4PairIK6StringiEvE3eltE21HashContainer_adapterIS6_EED2Ev = comdat any

$_ZN6StringC2EPKciPNS_6memo_tE = comdat any

$_ZNK6String5emptyEv = comdat any

$_ZN6StringC2EPKcS1_ = comdat any

$_ZN6LexemeC2ERKS_ = comdat any

$_ZN5Lexer11next_lexemeEv = comdat any

$_ZNK6String4backEv = comdat any

$_ZN12ErrorHandler8xmessageERK6StringS2_S2_ = comdat any

$_ZN12ErrorHandler8xmessageERK6StringS2_ = comdat any

$_ZN12ErrorHandler18make_landmark_annoERK6String = comdat any

$_ZNK6VectorIjEixEi = comdat any

$_ZNK19VariableEnvironment5depthEv = comdat any

$_ZN6LexemeaSERKS_ = comdat any

$_ZNK6VectorIiE5emptyEv = comdat any

$_ZN6VectorIN6Router10ConnectionEED2Ev = comdat any

$_ZN13vector_memoryI18sized_array_memoryILm16EEED2Ev = comdat any

$_ZN18sized_array_memoryILm16EE7destroyEPvm = comdat any

$_ZN13vector_memoryI18typed_array_memoryI6StringEE5clearEv = comdat any

$_ZN18typed_array_memoryI6StringE13mark_noaccessEPS0_m = comdat any

$_ZN18sized_array_memoryILm24EE13mark_noaccessEPvm = comdat any

$_ZN13vector_memoryI18sized_array_memoryILm4EEE5clearEv = comdat any

$_ZN18sized_array_memoryILm4EE13mark_noaccessEPvm = comdat any

$_ZN13vector_memoryI18typed_array_memoryI6StringEE9push_backEPKS1_ = comdat any

$_ZN18typed_array_memoryI6StringE4castEPKS0_ = comdat any

$_ZN18typed_array_memoryI6StringE14mark_undefinedEPS0_m = comdat any

$_ZN18typed_array_memoryI6StringE4fillEPS0_mPKS0_ = comdat any

$_ZN13vector_memoryI18typed_array_memoryI6StringEE21reserve_and_push_backEiPKS1_ = comdat any

$_ZN18sized_array_memoryILm24EE14mark_undefinedEPvm = comdat any

$_ZNK13vector_memoryI18typed_array_memoryI6StringEE18need_argument_copyEPKS1_ = comdat any

$_ZN18typed_array_memoryI6StringE4moveEPS0_PKS0_m = comdat any

$_ZN13vector_memoryI18sized_array_memoryILm8EEEC2Ev = comdat any

$_ZN9HashTableI4PairIK6StringiEvED2Ev = comdat any

$_ZN13HashContainerIN9HashTableI4PairIK6StringiEvE3eltE21HashContainer_adapterIS6_EE5beginEv = comdat any

$_ZN13HashContainerIN9HashTableI4PairIK6StringiEvE3eltE21HashContainer_adapterIS6_EE5eraseER22HashContainer_iteratorIS6_S8_E = comdat any

$_ZN4PairIK6StringiED2Ev = comdat any

$_ZN13HashAllocator10deallocateEPv = comdat any

$_ZN18SizedHashAllocatorILm40EED2Ev = comdat any

$_ZN22HashContainer_iteratorIN9HashTableI4PairIK6StringiEvE3eltE21HashContainer_adapterIS6_EEC2EP13HashContainerIS6_S8_E = comdat any

$_ZN28HashContainer_const_iteratorIN9HashTableI4PairIK6StringiEvE3eltE21HashContainer_adapterIS6_EEppEi = comdat any

$_ZN28HashContainer_const_iteratorIN9HashTableI4PairIK6StringiEvE3eltE21HashContainer_adapterIS6_EEppEv = comdat any

$_ZN13HashContainerIN9HashTableI4PairIK6StringiEvE3eltE21HashContainer_adapterIS6_EE3setER22HashContainer_iteratorIS6_S8_EPS6_b = comdat any

$_ZNK13HashContainerIN9HashTableI4PairIK6StringiEvE3eltE21HashContainer_adapterIS6_EE10unbalancedEv = comdat any

$_ZN13HashContainerIN9HashTableI4PairIK6StringiEvE3eltE21HashContainer_adapterIS6_EE6rehashEj = comdat any

$_ZNK13HashContainerIN9HashTableI4PairIK6StringiEvE3eltE21HashContainer_adapterIS6_EE12bucket_countEv = comdat any

$_ZN13vector_memoryI18sized_array_memoryILm4EEEC2Ev = comdat any

$_ZN13vector_memoryI18typed_array_memoryI6StringEEC2Ev = comdat any

$_ZN13vector_memoryI18sized_array_memoryILm16EEEC2Ev = comdat any

$_ZN13vector_memoryI18sized_array_memoryILm16EEE19move_construct_backEP10char_arrayILm16EE = comdat any

$_ZN18sized_array_memoryILm16EE4castIN6Router10ConnectionEEEP10char_arrayILm16EEPT_ = comdat any

$_ZN18sized_array_memoryILm16EE14mark_undefinedEPvm = comdat any

$_ZN18sized_array_memoryILm16EE14move_constructEPvS1_ = comdat any

$_ZN13vector_memoryI18sized_array_memoryILm16EEE21reserve_and_push_backEiPK10char_arrayILm16EE = comdat any

$_ZNK13vector_memoryI18sized_array_memoryILm16EEE18need_argument_copyEPK10char_arrayILm16EE = comdat any

$_ZN18sized_array_memoryILm16EE13mark_noaccessEPvm = comdat any

$_ZN18sized_array_memoryILm16EE4moveEPvPKvm = comdat any

$_ZN13vector_memoryI18sized_array_memoryILm16EEE9push_backEPK10char_arrayILm16EE = comdat any

$_ZN18sized_array_memoryILm16EE4fillEPvmPKv = comdat any

$_ZN13vector_memoryI18sized_array_memoryILm4EEE9push_backEPK10char_arrayILm4EE = comdat any

$_ZN18sized_array_memoryILm4EE4castIiEEP10char_arrayILm4EEPT_ = comdat any

$_ZN18sized_array_memoryILm4EE14mark_undefinedEPvm = comdat any

$_ZN18sized_array_memoryILm4EE4fillEPvmPKv = comdat any

$_ZN13vector_memoryI18sized_array_memoryILm4EEE21reserve_and_push_backEiPK10char_arrayILm4EE = comdat any

$_ZNK13vector_memoryI18sized_array_memoryILm4EEE18need_argument_copyEPK10char_arrayILm4EE = comdat any

$_ZN18sized_array_memoryILm4EE4moveEPvPKvm = comdat any

$_ZN9HashTableI6StringiE11find_insertERKS0_ = comdat any

$_ZNK18HashTable_iteratorI4PairIK6StringiEE5valueEv = comdat any

$_ZN9HashTableI4PairIK6StringiEvE11find_insertERKS3_ = comdat any

$_ZN4PairIK6StringiEC2ERS1_i = comdat any

$_Z7hashkeyI4PairIK6StringiEENT_19key_const_referenceERKS4_ = comdat any

$_ZN13HashAllocator8allocateEv = comdat any

$_ZN4PairIK6StringiEC2ERKS2_ = comdat any

$_ZN18HashTable_iteratorI4PairIK6StringiEEC2ERK28HashContainer_const_iteratorIN9HashTableIS3_vE3eltE21HashContainer_adapterIS8_EE = comdat any

$_ZNK18HashTable_iteratorI4PairIK6StringiEEdeEv = comdat any

$_ZNK24HashTable_const_iteratorI4PairIK6StringiEEdeEv = comdat any

$_ZN13vector_memoryI18sized_array_memoryILm4EEE6resizeEiPK10char_arrayILm4EE = comdat any

$_ZN13vector_memoryI18typed_array_memoryIN5Lexer11ElementTypeEEEC2Ev = comdat any

$_ZN13vector_memoryI18sized_array_memoryILm8EEE5clearEv = comdat any

$_ZN18sized_array_memoryILm8EE13mark_noaccessEPvm = comdat any

$_ZN13vector_memoryI18typed_array_memoryIN5Lexer11ElementTypeEEE19move_construct_backEPS2_ = comdat any

$_ZN18typed_array_memoryIN5Lexer11ElementTypeEE4castEPS1_ = comdat any

$_ZN18typed_array_memoryIN5Lexer11ElementTypeEE14mark_undefinedEPS1_m = comdat any

$_ZN18typed_array_memoryIN5Lexer11ElementTypeEE14move_constructEPS1_S3_ = comdat any

$_ZN13vector_memoryI18typed_array_memoryIN5Lexer11ElementTypeEEE21reserve_and_push_backEiPKS2_ = comdat any

$_ZN18sized_array_memoryILm48EE14mark_undefinedEPvm = comdat any

$_Z10click_moveIRN5Lexer11ElementTypeEEON16remove_referenceIT_E4typeEOS4_ = comdat any

$_ZN5Lexer11ElementTypeC2EOS0_ = comdat any

$_ZNK13vector_memoryI18typed_array_memoryIN5Lexer11ElementTypeEEE18need_argument_copyEPKS2_ = comdat any

$_ZN5Lexer11ElementTypeC2ERKS0_ = comdat any

$_ZN18typed_array_memoryIN5Lexer11ElementTypeEE13mark_noaccessEPS1_m = comdat any

$_ZN18typed_array_memoryIN5Lexer11ElementTypeEE4moveEPS1_PKS1_m = comdat any

$_ZN13vector_memoryI18typed_array_memoryIN5Lexer11ElementTypeEEE9push_backEPKS2_ = comdat any

$_ZN18sized_array_memoryILm48EE13mark_noaccessEPvm = comdat any

$_ZN18typed_array_memoryIN5Lexer11ElementTypeEE4fillEPS1_mPKS1_ = comdat any

$_ZNK28HashContainer_const_iteratorIN9HashTableI4PairIK6StringiEvE3eltE21HashContainer_adapterIS6_EEptEv = comdat any

$_ZN9HashTableI4PairIK6StringiEvE5eraseERS2_ = comdat any

$_ZN13HashContainerIN9HashTableI4PairIK6StringiEvE3eltE21HashContainer_adapterIS6_EE5eraseERS3_ = comdat any

$_ZNK9HashTableI4PairIK6StringiEvE5beginEv = comdat any

$_ZNK13HashContainerIN9HashTableI4PairIK6StringiEvE3eltE21HashContainer_adapterIS6_EE5beginEv = comdat any

$_ZN28HashContainer_const_iteratorIN9HashTableI4PairIK6StringiEvE3eltE21HashContainer_adapterIS6_EEC2EPK13HashContainerIS6_S8_E = comdat any

$_ZN18sized_array_memoryILm4EE4castIjEEP10char_arrayILm4EEPT_ = comdat any

$_ZN6IntArg16parse_saturatingIiEEbRK6StringRT_RK10ArgContext = comdat any

$_Z15extract_integerIjjEvPKT_RT0_ = comdat any

$_ZN22extract_integer_helperILi1EjjE7extractEPKjRj = comdat any

$_ZN13vector_memoryI18sized_array_memoryILm4EEE4swapERS2_ = comdat any

$_ZN9HashTableI4PairIK6StringiEvEaSERKS4_ = comdat any

$_ZN9HashTableI4PairIK6StringiEvE5clearEv = comdat any

$_ZN9HashTableI4PairIK6StringiEvE13copy_elementsERKS4_ = comdat any

$_ZN13vector_memoryI18sized_array_memoryILm8EEE9push_backEPK10char_arrayILm8EE = comdat any

$_ZN18sized_array_memoryILm8EE4castIN6Router4PortEEEP10char_arrayILm8EEPT_ = comdat any

$_ZN18sized_array_memoryILm8EE14mark_undefinedEPvm = comdat any

$_ZN18sized_array_memoryILm8EE4fillEPvmPKv = comdat any

$_ZN13vector_memoryI18sized_array_memoryILm8EEE21reserve_and_push_backEiPK10char_arrayILm8EE = comdat any

$_ZNK13vector_memoryI18sized_array_memoryILm8EEE18need_argument_copyEPK10char_arrayILm8EE = comdat any

$_ZN18sized_array_memoryILm8EE4moveEPvPKvm = comdat any

$_Z13click_compareIN6Router10ConnectionEEiPKvS3_Pv = comdat any

$_ZNK6Router10ConnectionltERKS0_ = comdat any

$_ZNK6Router4PortltERKS0_ = comdat any

$_ZNK6Router4PorteqERKS0_ = comdat any

$_ZN13vector_memoryI18sized_array_memoryILm8EEE6insertEP10char_arrayILm8EEPKS4_ = comdat any

$_ZN18sized_array_memoryILm8EE4castIPN5Lexer9TunnelEndEEEP10char_arrayILm8EEPT_ = comdat any

$_ZN13vector_memoryI18sized_array_memoryILm8EEE5beginEv = comdat any

$_ZN13vector_memoryI18sized_array_memoryILm8EEE3endEv = comdat any

$_ZN13vector_memoryI18sized_array_memoryILm8EEE4swapERS2_ = comdat any

@.str = private unnamed_addr constant [2 x i8] c"0\00", align 1
@.str.1 = private unnamed_addr constant [25 x i8] c"../../click/lib/lexer.cc\00", align 1
@__PRETTY_FUNCTION__._ZN5Lexer24compound_element_factoryEm = private unnamed_addr constant [59 x i8] c"static Element *Lexer::compound_element_factory(uintptr_t)\00", align 1
@_ZTVN5Lexer8CompoundE = unnamed_addr constant { [29 x i8*] } { [29 x i8*] [i8* null, i8* bitcast ({ i8*, i8*, i8* }* @_ZTIN5Lexer8CompoundE to i8*), i8* bitcast (void (%"class.Lexer::Compound"*)* @_ZN5Lexer8CompoundD2Ev to i8*), i8* bitcast (void (%"class.Lexer::Compound"*)* @_ZN5Lexer8CompoundD0Ev to i8*), i8* bitcast (void (%class.Element*, i32, %class.Packet*)* @_ZN7Element4pushEiP6Packet to i8*), i8* bitcast (%class.Packet* (%class.Element*, i32)* @_ZN7Element4pullEi to i8*), i8* bitcast (%class.Packet* (%class.Element*, %class.Packet*)* @_ZN7Element13simple_actionEP6Packet to i8*), i8* bitcast (i1 (%class.Element*, %class.Task*)* @_ZN7Element8run_taskEP4Task to i8*), i8* bitcast (void (%class.Element*, %class.Timer*)* @_ZN7Element9run_timerEP5Timer to i8*), i8* bitcast (void (%class.Element*, i32, i32)* @_ZN7Element8selectedEii to i8*), i8* bitcast (void (%class.Element*, i32)* @_ZN7Element8selectedEi to i8*), i8* bitcast (i8* (%"class.Lexer::Compound"*)* @_ZNK5Lexer8Compound10class_nameEv to i8*), i8* bitcast (i8* (%class.Element*)* @_ZNK7Element10port_countEv to i8*), i8* bitcast (i8* (%class.Element*)* @_ZNK7Element10processingEv to i8*), i8* bitcast (i8* (%class.Element*)* @_ZNK7Element9flow_codeEv to i8*), i8* bitcast (i8* (%class.Element*)* @_ZNK7Element5flagsEv to i8*), i8* bitcast (i8* (%"class.Lexer::Compound"*, i8*)* @_ZN5Lexer8Compound4castEPKc to i8*), i8* bitcast (i8* (%class.Element*, i1, i32, i8*)* @_ZN7Element9port_castEbiPKc to i8*), i8* bitcast (i32 (%class.Element*)* @_ZNK7Element15configure_phaseEv to i8*), i8* bitcast (i32 (%class.Element*, %class.Vector.0*, %class.ErrorHandler*)* @_ZN7Element9configureER6VectorI6StringEP12ErrorHandler to i8*), i8* bitcast (void (%class.Element*)* @_ZN7Element12add_handlersEv to i8*), i8* bitcast (i32 (%class.Element*, %class.ErrorHandler*)* @_ZN7Element10initializeEP12ErrorHandler to i8*), i8* bitcast (void (%class.Element*, %class.Element*, %class.ErrorHandler*)* @_ZN7Element10take_stateEPS_P12ErrorHandler to i8*), i8* bitcast (%class.Element* (%class.Element*)* @_ZNK7Element15hotswap_elementEv to i8*), i8* bitcast (void (%class.Element*, i32)* @_ZN7Element7cleanupENS_12CleanupStageE to i8*), i8* bitcast (void (%class.String*, %class.Element*)* @_ZNK7Element11declarationEv to i8*), i8* bitcast (i1 (%class.Element*)* @_ZNK7Element20can_live_reconfigureEv to i8*), i8* bitcast (i32 (%class.Element*, %class.Vector.0*, %class.ErrorHandler*)* @_ZN7Element16live_reconfigureER6VectorI6StringEP12ErrorHandler to i8*), i8* bitcast (i32 (%class.Element*, i32, i8*)* @_ZN7Element5llrpcEjPv to i8*)] }, align 8
@.str.2 = private unnamed_addr constant [12 x i8] c"<anonymous>\00", align 1
@.str.3 = private unnamed_addr constant [16 x i8] c"Lexer::Compound\00", align 1
@.str.4 = private unnamed_addr constant [51 x i8] c"%<%s%> pseudoelement %<%s%> may only be used as %s\00", align 1
@_ZL10port_names = internal constant [2 x i8*] [i8* getelementptr inbounds ([6 x i8], [6 x i8]* @.str.6, i32 0, i32 0), i8* getelementptr inbounds ([7 x i8], [7 x i8]* @.str.7, i32 0, i32 0)], align 16
@.str.5 = private unnamed_addr constant [21 x i8] c"%<%s%> %s %d missing\00", align 1
@.str.6 = private unnamed_addr constant [6 x i8] c"input\00", align 1
@.str.7 = private unnamed_addr constant [7 x i8] c"output\00", align 1
@.str.8 = private unnamed_addr constant [62 x i8] c"_element_names[0] == \22input\22 && _element_names[1] == \22output\22\00", align 1
@__PRETTY_FUNCTION__._ZN5Lexer8Compound6finishEP12ErrorHandler = private unnamed_addr constant [45 x i8] c"void Lexer::Compound::finish(ErrorHandler *)\00", align 1
@.str.9 = private unnamed_addr constant [20 x i8] c"no match for %<%s%>\00", align 1
@.str.10 = private unnamed_addr constant [16 x i8] c"candidates are:\00", align 1
@.str.11 = private unnamed_addr constant [3 x i8] c"%s\00", align 1
@.str.12 = private unnamed_addr constant [3 x i8] c", \00", align 1
@.str.13 = private unnamed_addr constant [1 x i8] zeroinitializer, align 1
@.str.14 = private unnamed_addr constant [6 x i8] c"<arg>\00", align 1
@.str.15 = private unnamed_addr constant [9 x i8] c"__REST__\00", align 1
@.str.16 = private unnamed_addr constant [4 x i8] c"...\00", align 1
@.str.17 = private unnamed_addr constant [12 x i8] c" argument, \00", align 1
@.str.18 = private unnamed_addr constant [13 x i8] c" arguments, \00", align 1
@.str.19 = private unnamed_addr constant [9 x i8] c" input, \00", align 1
@.str.20 = private unnamed_addr constant [10 x i8] c" inputs, \00", align 1
@.str.21 = private unnamed_addr constant [8 x i8] c" output\00", align 1
@.str.22 = private unnamed_addr constant [9 x i8] c" outputs\00", align 1
@__PRETTY_FUNCTION__._ZN5Lexer8Compound11expand_intoEPS_iR19VariableEnvironment = private unnamed_addr constant [71 x i8] c"void Lexer::Compound::expand_into(Lexer *, int, VariableEnvironment &)\00", align 1
@.str.23 = private unnamed_addr constant [2 x i8] c"/\00", align 1
@.str.24 = private unnamed_addr constant [8 x i8] c"element\00", align 1
@.str.25 = private unnamed_addr constant [27 x i8] c"%<%s%> is an element class\00", align 1
@.str.26 = private unnamed_addr constant [7 x i8] c"config\00", align 1
@_ZTV5Lexer = unnamed_addr constant { [4 x i8*] } { [4 x i8*] [i8* null, i8* bitcast ({ i8*, i8* }* @_ZTI5Lexer to i8*), i8* bitcast (void (%class.Lexer*)* @_ZN5LexerD1Ev to i8*), i8* bitcast (void (%class.Lexer*)* @_ZN5LexerD0Ev to i8*)] }, align 8
@.str.27 = private unnamed_addr constant [9 x i8] c"<tunnel>\00", align 1
@.str.28 = private unnamed_addr constant [6 x i8] c"Error\00", align 1
@.str.29 = private unnamed_addr constant [79 x i8] c"element_type(\22<tunnel>\22) == TUNNEL_TYPE && element_type(\22Error\22) == ERROR_TYPE\00", align 1
@__PRETTY_FUNCTION__._ZN5LexerC2Ev = private unnamed_addr constant [15 x i8] c"Lexer::Lexer()\00", align 1
@.str.30 = private unnamed_addr constant [31 x i8] c"unknown preprocessor directive\00", align 1
@.str.31 = private unnamed_addr constant [2 x i8] c"\22\00", align 1
@.str.32 = private unnamed_addr constant [13 x i8] c"elementclass\00", align 1
@.str.33 = private unnamed_addr constant [8 x i8] c"require\00", align 1
@.str.34 = private unnamed_addr constant [8 x i8] c"provide\00", align 1
@.str.35 = private unnamed_addr constant [7 x i8] c"define\00", align 1
@_ZZN5Lexer13lexeme_stringEiE5names = internal constant [90 x i8] c"identifier\00variable\00'->'\00'=>'\00'::'\00'||'\00'...'\00'elementclass'\00'require'\00'provide'\00'define'\00", align 16
@_ZZN5Lexer13lexeme_stringEiE7offsets = internal constant [12 x i8] c"\00\0B\14\19\1E#(.=GQZ", align 1
@.str.36 = private unnamed_addr constant [5 x i8] c"'%c'\00", align 1
@.str.37 = private unnamed_addr constant [8 x i8] c"'\5C%03d'\00", align 1
@.str.38 = private unnamed_addr constant [12 x i8] c"expected %s\00", align 1
@_ZN12ErrorHandler7e_errorE = external constant [0 x i8], align 1
@.str.39 = private unnamed_addr constant [26 x i8] c"syntax error near %<%#s%>\00", align 1
@.str.40 = private unnamed_addr constant [8 x i8] c"factory\00", align 1
@__PRETTY_FUNCTION__._ZN5Lexer16add_element_typeERK6StringPFP7ElementmEmb = private unnamed_addr constant [84 x i8] c"int Lexer::add_element_type(const String &, Lexer::ElementFactory, uintptr_t, bool)\00", align 1
@.str.41 = private unnamed_addr constant [29 x i8] c"unknown element class %<%s%>\00", align 1
@.str.42 = private unnamed_addr constant [21 x i8] c"!(*prev & ET_SCOPED)\00", align 1
@__PRETTY_FUNCTION__._ZN5Lexer19lexical_scoping_outEi = private unnamed_addr constant [37 x i8] c"void Lexer::lexical_scoping_out(int)\00", align 1
@.str.43 = private unnamed_addr constant [10 x i8] c"prev_hint\00", align 1
@__PRETTY_FUNCTION__._ZN5Lexer19remove_element_typeEiPi = private unnamed_addr constant [43 x i8] c"int Lexer::remove_element_type(int, int *)\00", align 1
@.str.44 = private unnamed_addr constant [18 x i8] c"connection tunnel\00", align 1
@.str.45 = private unnamed_addr constant [52 x i8] c"name && etype >= 0 && etype < _element_types.size()\00", align 1
@__PRETTY_FUNCTION__._ZN5Lexer11get_elementE6StringiRKS0_S2_j = private unnamed_addr constant [82 x i8] c"int Lexer::get_element(String, int, const String &, const String &, unsigned int)\00", align 1
@.str.46 = private unnamed_addr constant [44 x i8] c"element name %<%s%> has all-digit component\00", align 1
@.str.47 = private unnamed_addr constant [2 x i8] c";\00", align 1
@.str.48 = private unnamed_addr constant [2 x i8] c"@\00", align 1
@.str.49 = private unnamed_addr constant [12 x i8] c"at_pos >= 0\00", align 1
@__PRETTY_FUNCTION__._ZN5Lexer8Compound24deanonymize_element_nameEi = private unnamed_addr constant [54 x i8] c"String Lexer::Compound::deanonymize_element_name(int)\00", align 1
@blank_args = external global %class.ArgContext, align 8
@.str.50 = private unnamed_addr constant [20 x i8] c"##no-such-element##\00", align 1
@.str.51 = private unnamed_addr constant [4 x i8] c"@%d\00", align 1
@.str.52 = private unnamed_addr constant [8 x i8] c"<tunnel\00", align 1
@.str.53 = private unnamed_addr constant [2 x i8] c">\00", align 1
@.str.54 = private unnamed_addr constant [6 x i8] c"<null\00", align 1
@.str.55 = private unnamed_addr constant [10 x i8] c"<unknown>\00", align 1
@.str.56 = private unnamed_addr constant [44 x i8] c"syntax error: port number should be integer\00", align 1
@.str.57 = private unnamed_addr constant [35 x i8] c"syntax error: expected port number\00", align 1
@.str.58 = private unnamed_addr constant [29 x i8] c"syntax error: expected %<,%>\00", align 1
@.str.59 = private unnamed_addr constant [29 x i8] c"_ps->state == _ps->s_element\00", align 1
@__PRETTY_FUNCTION__._ZN5Lexer13yelement_nameEv = private unnamed_addr constant [28 x i8] c"void Lexer::yelement_name()\00", align 1
@.str.60 = private unnamed_addr constant [55 x i8] c"suggest %<input %s%> or %<[0] %s%> to start connection\00", align 1
@.str.61 = private unnamed_addr constant [22 x i8] c"stranded port ignored\00", align 1
@.str.62 = private unnamed_addr constant [36 x i8] c"missing element type in declaration\00", align 1
@.str.63 = private unnamed_addr constant [50 x i8] c"configuration string ignored on element reference\00", align 1
@.str.64 = private unnamed_addr constant [34 x i8] c"_ps->state == _ps->s_next_element\00", align 1
@__PRETTY_FUNCTION__._ZN5Lexer13yelement_nextEv = private unnamed_addr constant [28 x i8] c"void Lexer::yelement_next()\00", align 1
@.str.65 = private unnamed_addr constant [45 x i8] c"implicit ports used in the middle of a chain\00", align 1
@.str.66 = private unnamed_addr constant [34 x i8] c"class %<%s%> used as element name\00", align 1
@.str.67 = private unnamed_addr constant [26 x i8] c"undeclared element %<%s%>\00", align 1
@.str.68 = private unnamed_addr constant [32 x i8] c"redeclaration of element %<%s%>\00", align 1
@.str.69 = private unnamed_addr constant [40 x i8] c"element %<%s%> previously declared here\00", align 1
@.str.70 = private unnamed_addr constant [37 x i8] c"output ports ignored at end of chain\00", align 1
@.str.71 = private unnamed_addr constant [38 x i8] c"input ports ignored at start of chain\00", align 1
@.str.72 = private unnamed_addr constant [51 x i8] c"at most one expandable port allowed per connection\00", align 1
@.str.73 = private unnamed_addr constant [54 x i8] c"syntax error: many-to-many connections require %<=>%>\00", align 1
@.str.74 = private unnamed_addr constant [55 x i8] c"connection mismatch: %d outputs connected to %d inputs\00", align 1
@.str.75 = private unnamed_addr constant [63 x i8] c"connection mismatch: %d or more outputs connected to %d inputs\00", align 1
@.str.76 = private unnamed_addr constant [63 x i8] c"connection mismatch: %d outputs connected to %d or more inputs\00", align 1
@_ZZN5Lexer23yconnection_connect_allER6VectorIiES2_iE4port = private unnamed_addr constant [2 x i32] [i32 -1, i32 -1], align 4
@.str.77 = private unnamed_addr constant [31 x i8] c"_ps->state == _ps->s_connector\00", align 1
@__PRETTY_FUNCTION__._ZN5Lexer21yconnection_connectorEv = private unnamed_addr constant [36 x i8] c"void Lexer::yconnection_connector()\00", align 1
@.str.78 = private unnamed_addr constant [27 x i8] c"expected element type name\00", align 1
@.str.79 = private unnamed_addr constant [18 x i8] c"expected variable\00", align 1
@.str.80 = private unnamed_addr constant [24 x i8] c"expected %<,%> or %<|%>\00", align 1
@.str.81 = private unnamed_addr constant [43 x i8] c"cannot extend unknown element class %<%s%>\00", align 1
@.str.82 = private unnamed_addr constant [55 x i8] c"%<...%> should occur last, after one or more compounds\00", align 1
@.str.83 = private unnamed_addr constant [48 x i8] c"maximum compound element nesting depth exceeded\00", align 1
@.str.84 = private unnamed_addr constant [50 x i8] c"_ps->state == ParseState::s_compound_elementclass\00", align 1
@__PRETTY_FUNCTION__._ZN5Lexer13ycompound_endERK6Lexeme = private unnamed_addr constant [42 x i8] c"void Lexer::ycompound_end(const Lexeme &)\00", align 1
@.str.85 = private unnamed_addr constant [45 x i8] c"maximum element group nesting depth exceeded\00", align 1
@.str.86 = private unnamed_addr constant [18 x i8] c"<anonymous group>\00", align 1
@.str.87 = private unnamed_addr constant [12 x i8] c"!_unlex_pos\00", align 1
@__PRETTY_FUNCTION__._ZN5Lexer16yrequire_libraryERK6String = private unnamed_addr constant [45 x i8] c"void Lexer::yrequire_library(const String &)\00", align 1
@.str.88 = private unnamed_addr constant [47 x i8] c"%<require library%> must be used at file scope\00", align 1
@.str.89 = private unnamed_addr constant [2 x i8] c".\00", align 1
@.str.90 = private unnamed_addr constant [5 x i8] c"conf\00", align 1
@.str.91 = private unnamed_addr constant [44 x i8] c"library %<%#s%> not found in CLICKPATH/conf\00", align 1
@.str.92 = private unnamed_addr constant [15 x i8] c"compact_config\00", align 1
@.str.93 = private unnamed_addr constant [8 x i8] c"package\00", align 1
@.str.94 = private unnamed_addr constant [8 x i8] c"library\00", align 1
@.str.95 = private unnamed_addr constant [28 x i8] c"syntax error at requirement\00", align 1
@.str.96 = private unnamed_addr constant [43 x i8] c"bad %<define%> declaration: not a variable\00", align 1
@.str.97 = private unnamed_addr constant [15 x i8] c"expected %<)%>\00", align 1
@.str.98 = private unnamed_addr constant [15 x i8] c"expected %<}%>\00", align 1
@.str.99 = private unnamed_addr constant [50 x i8] c"_ps->_type == ParseState::t_file && !_ps->_parent\00", align 1
@__PRETTY_FUNCTION__._ZN5Lexer10ystatementEv = private unnamed_addr constant [25 x i8] c"void Lexer::ystatement()\00", align 1
@.str.100 = private unnamed_addr constant [5 x i8] c"name\00", align 1
@__PRETTY_FUNCTION__._ZN5Lexer23expand_compound_elementEiR19VariableEnvironment = private unnamed_addr constant [64 x i8] c"void Lexer::expand_compound_element(int, VariableEnvironment &)\00", align 1
@.str.101 = private unnamed_addr constant [32 x i8] c"failed to create element %<%s%>\00", align 1
@.str.102 = private unnamed_addr constant [7 x i8] c"/input\00", align 1
@.str.103 = private unnamed_addr constant [23 x i8] c"%<%s%> input %d unused\00", align 1
@.str.104 = private unnamed_addr constant [23 x i8] c"%<%s%> has no input %d\00", align 1
@.str.105 = private unnamed_addr constant [8 x i8] c"/output\00", align 1
@.str.106 = private unnamed_addr constant [24 x i8] c"%<%s%> has no output %d\00", align 1
@.str.107 = private unnamed_addr constant [24 x i8] c"%<%s%> output %d unused\00", align 1
@.str.108 = private unnamed_addr constant [33 x i8] c"tunnel %<%s -> %s%> %s %d unused\00", align 1
@.str.109 = private unnamed_addr constant [18 x i8] c"%<%s%> used as %s\00", align 1
@_ZTV10LexerExtra = unnamed_addr constant { [5 x i8*] } { [5 x i8*] [i8* null, i8* bitcast ({ i8*, i8* }* @_ZTI10LexerExtra to i8*), i8* bitcast (void (%class.LexerExtra*)* @_ZN10LexerExtraD2Ev to i8*), i8* bitcast (void (%class.LexerExtra*)* @_ZN10LexerExtraD0Ev to i8*), i8* bitcast (void (%class.LexerExtra*, %class.String*, %class.String*, %class.ErrorHandler*)* @_ZN10LexerExtra7requireE6StringS0_P12ErrorHandler to i8*)] }, align 8
@_ZTVN10__cxxabiv117__class_type_infoE = external global i8*
@_ZTS10LexerExtra = constant [13 x i8] c"10LexerExtra\00"
@_ZTI10LexerExtra = constant { i8*, i8* } { i8* bitcast (i8** getelementptr inbounds (i8*, i8** @_ZTVN10__cxxabiv117__class_type_infoE, i64 2) to i8*), i8* getelementptr inbounds ([13 x i8], [13 x i8]* @_ZTS10LexerExtra, i32 0, i32 0) }
@_ZTVN10__cxxabiv120__si_class_type_infoE = external global i8*
@_ZTSN5Lexer8CompoundE = constant [18 x i8] c"N5Lexer8CompoundE\00"
@_ZTI7Element = external constant i8*
@_ZTIN5Lexer8CompoundE = constant { i8*, i8*, i8* } { i8* bitcast (i8** getelementptr inbounds (i8*, i8** @_ZTVN10__cxxabiv120__si_class_type_infoE, i64 2) to i8*), i8* getelementptr inbounds ([18 x i8], [18 x i8]* @_ZTSN5Lexer8CompoundE, i32 0, i32 0), i8* bitcast (i8** @_ZTI7Element to i8*) }
@_ZTS5Lexer = constant [7 x i8] c"5Lexer\00"
@_ZTI5Lexer = constant { i8*, i8* } { i8* bitcast (i8** getelementptr inbounds (i8*, i8** @_ZTVN10__cxxabiv117__class_type_infoE, i64 2) to i8*), i8* getelementptr inbounds ([7 x i8], [7 x i8]* @_ZTS5Lexer, i32 0, i32 0) }
@_ZTV19VariableEnvironment = external unnamed_addr constant { [5 x i8*] }
@.str.110 = private unnamed_addr constant [18 x i8] c"_r.memo->refcount\00", align 1
@.str.111 = private unnamed_addr constant [35 x i8] c"/usr/local/include/click/string.hh\00", align 1
@__PRETTY_FUNCTION__._ZNK6String5derefEv = private unnamed_addr constant [27 x i8] c"void String::deref() const\00", align 1
@.str.112 = private unnamed_addr constant [7 x i8] c"n >= 0\00", align 1
@.str.113 = private unnamed_addr constant [38 x i8] c"/usr/local/include/click/bitvector.hh\00", align 1
@__PRETTY_FUNCTION__._ZN9BitvectorC2Ei = private unnamed_addr constant [26 x i8] c"Bitvector::Bitvector(int)\00", align 1
@.str.114 = private unnamed_addr constant [16 x i8] c"i >= 0 && i < 2\00", align 1
@.str.115 = private unnamed_addr constant [35 x i8] c"/usr/local/include/click/router.hh\00", align 1
@__PRETTY_FUNCTION__._ZNK6Router10ConnectionixEi = private unnamed_addr constant [62 x i8] c"const Router::Port &Router::Connection::operator[](int) const\00", align 1
@.str.116 = private unnamed_addr constant [20 x i8] c"i >= 0 && i <= _max\00", align 1
@__PRETTY_FUNCTION__._ZN9BitvectorixEi = private unnamed_addr constant [42 x i8] c"Bitvector::Bit Bitvector::operator[](int)\00", align 1
@_ZTV20LandmarkErrorHandler = external unnamed_addr constant { [9 x i8*] }
@_ZTV19ContextErrorHandler = external unnamed_addr constant { [9 x i8*] }
@_ZN6String9null_dataE = external constant i8, align 1
@.str.117 = private unnamed_addr constant [9 x i8] c"len >= 0\00", align 1
@.str.118 = private unnamed_addr constant [37 x i8] c"/usr/local/include/click/straccum.hh\00", align 1
@__PRETTY_FUNCTION__._ZN11StringAccum6appendEPKci = private unnamed_addr constant [44 x i8] c"void StringAccum::append(const char *, int)\00", align 1
@.str.119 = private unnamed_addr constant [2 x i8] c" \00", align 1
@.str.120 = private unnamed_addr constant [28 x i8] c"redeclaration of %s%s%<%s%>\00", align 1
@.str.121 = private unnamed_addr constant [32 x i8] c"%<%s%> previously declared here\00", align 1
@_ZN12ErrorHandler19the_default_handlerE = external global %class.ErrorHandler*, align 8
@.str.122 = private unnamed_addr constant [22 x i8] c"!branchfree || d != 1\00", align 1
@.str.123 = private unnamed_addr constant [37 x i8] c"/usr/local/include/click/libdivide.h\00", align 1
@__PRETTY_FUNCTION__._ZL26libdivide_internal_u32_genji = private unnamed_addr constant [65 x i8] c"struct libdivide_u32_t libdivide_internal_u32_gen(uint32_t, int)\00", align 1
@.str.124 = private unnamed_addr constant [19 x i8] c"rem > 0 && rem < d\00", align 1
@.str.125 = private unnamed_addr constant [2 x i8] c":\00", align 1
@.str.126 = private unnamed_addr constant [2 x i8] c"l\00", align 1
@.str.127 = private unnamed_addr constant [33 x i8] c"(unsigned) i < (unsigned) vm_.n_\00", align 1
@.str.128 = private unnamed_addr constant [35 x i8] c"/usr/local/include/click/vector.hh\00", align 1
@__PRETTY_FUNCTION__._ZNK6VectorIjEixEi = private unnamed_addr constant [86 x i8] c"const T &Vector<unsigned int>::operator[](Vector::size_type) const [T = unsigned int]\00", align 1
@.str.129 = private unnamed_addr constant [83 x i8] c"!_other && !d->_other && _isoutput == !d->_isoutput && _port.port == d->_port.port\00", align 1
@__PRETTY_FUNCTION__._ZN5Lexer9TunnelEnd9pair_withEPS0_ = private unnamed_addr constant [53 x i8] c"void Lexer::TunnelEnd::pair_with(Lexer::TunnelEnd *)\00", align 1
@.str.130 = private unnamed_addr constant [40 x i8] c"isoutput || elements[cur_epos + 2] == 0\00", align 1
@__PRETTY_FUNCTION__._ZN5Lexer10ParseState14push_back_portEbi = private unnamed_addr constant [50 x i8] c"void Lexer::ParseState::push_back_port(bool, int)\00", align 1
@.str.131 = private unnamed_addr constant [24 x i8] c"_unlex_pos < UNLEX_SIZE\00", align 1
@.str.132 = private unnamed_addr constant [34 x i8] c"/usr/local/include/click/lexer.hh\00", align 1
@__PRETTY_FUNCTION__._ZN5Lexer5unlexERK6Lexeme = private unnamed_addr constant [34 x i8] c"void Lexer::unlex(const Lexeme &)\00", align 1
@__PRETTY_FUNCTION__._ZN5Lexer10lex_configEv = private unnamed_addr constant [27 x i8] c"String Lexer::lex_config()\00", align 1
@__PRETTY_FUNCTION__._ZN5Lexer10ParseState11clear_portsEb = private unnamed_addr constant [42 x i8] c"void Lexer::ParseState::clear_ports(bool)\00", align 1
@.str.133 = private unnamed_addr constant [40 x i8] c"!isformal || _nformals == _scope.size()\00", align 1
@__PRETTY_FUNCTION__._ZN5Lexer8Compound6defineERK6StringS3_bPS_ = private unnamed_addr constant [76 x i8] c"void Lexer::Compound::define(const String &, const String &, bool, Lexer *)\00", align 1
@.str.134 = private unnamed_addr constant [35 x i8] c"parameter %<$%s%> multiply defined\00", align 1
@.str.135 = private unnamed_addr constant [54 x i8] c"repeated keyword parameter %<%s%> in compound element\00", align 1
@.str.136 = private unnamed_addr constant [106 x i8] c"compound element parameters out of order\0A(The correct order is %<[positional], [keywords], [__REST__]%>.)\00", align 1
@__PRETTY_FUNCTION__._ZN6Router10ConnectionixEi = private unnamed_addr constant [50 x i8] c"Router::Port &Router::Connection::operator[](int)\00", align 1
@.str.137 = private unnamed_addr constant [11 x i8] c"!_refcount\00", align 1
@__PRETTY_FUNCTION__._ZN5Lexer8CompoundD2Ev = private unnamed_addr constant [37 x i8] c"virtual Lexer::Compound::~Compound()\00", align 1
@__PRETTY_FUNCTION__._ZN6VectorIiEixEi = private unnamed_addr constant [56 x i8] c"T &Vector<int>::operator[](Vector::size_type) [T = int]\00", align 1
@__PRETTY_FUNCTION__._ZNK6VectorI6StringEixEi = private unnamed_addr constant [74 x i8] c"const T &Vector<String>::operator[](Vector::size_type) const [T = String]\00", align 1
@__PRETTY_FUNCTION__._ZNK6VectorIiEixEi = private unnamed_addr constant [68 x i8] c"const T &Vector<int>::operator[](Vector::size_type) const [T = int]\00", align 1
@__PRETTY_FUNCTION__._ZN6VectorI6StringEixEi = private unnamed_addr constant [62 x i8] c"T &Vector<String>::operator[](Vector::size_type) [T = String]\00", align 1
@__PRETTY_FUNCTION__._ZN6VectorIN5Lexer11ElementTypeEEixEi = private unnamed_addr constant [86 x i8] c"T &Vector<Lexer::ElementType>::operator[](Vector::size_type) [T = Lexer::ElementType]\00", align 1
@.str.138 = private unnamed_addr constant [35 x i8] c"/usr/local/include/click/vector.cc\00", align 1
@__PRETTY_FUNCTION__._ZN13vector_memoryI18sized_array_memoryILm4EEE6resizeEiPK10char_arrayILm4EE = private unnamed_addr constant [135 x i8] c"void vector_memory<sized_array_memory<4> >::resize(vector_memory::size_type, const vector_memory::type *) [AM = sized_array_memory<4>]\00", align 1
@__PRETTY_FUNCTION__._ZN6VectorIjEixEi = private unnamed_addr constant [74 x i8] c"T &Vector<unsigned int>::operator[](Vector::size_type) [T = unsigned int]\00", align 1
@.str.139 = private unnamed_addr constant [15 x i8] c"invalid number\00", align 1
@__PRETTY_FUNCTION__._ZNK6VectorIN5Lexer11ElementTypeEEixEi = private unnamed_addr constant [98 x i8] c"const T &Vector<Lexer::ElementType>::operator[](Vector::size_type) const [T = Lexer::ElementType]\00", align 1
@__PRETTY_FUNCTION__._ZN6VectorIN6Router10ConnectionEEixEi = private unnamed_addr constant [86 x i8] c"T &Vector<Router::Connection>::operator[](Vector::size_type) [T = Router::Connection]\00", align 1
@__PRETTY_FUNCTION__._ZN6VectorIN6Router4PortEEixEi = private unnamed_addr constant [74 x i8] c"T &Vector<Router::Port>::operator[](Vector::size_type) [T = Router::Port]\00", align 1
@__PRETTY_FUNCTION__._ZN6VectorIPN5Lexer9TunnelEndEEixEi = private unnamed_addr constant [86 x i8] c"T &Vector<Lexer::TunnelEnd *>::operator[](Vector::size_type) [T = Lexer::TunnelEnd *]\00", align 1
@.str.140 = private unnamed_addr constant [29 x i8] c"it >= begin() && it <= end()\00", align 1
@__PRETTY_FUNCTION__._ZN13vector_memoryI18sized_array_memoryILm8EEE6insertEP10char_arrayILm8EEPKS4_ = private unnamed_addr constant [166 x i8] c"typename vector_memory<AM>::iterator vector_memory<sized_array_memory<8> >::insert(vector_memory::iterator, const vector_memory::type *) [AM = sized_array_memory<8>]\00", align 1

@_ZN5Lexer8CompoundC1ERK6StringS3_P19VariableEnvironment = alias void (%"class.Lexer::Compound"*, %class.String*, %class.String*, %class.VariableEnvironment*), void (%"class.Lexer::Compound"*, %class.String*, %class.String*, %class.VariableEnvironment*)* @_ZN5Lexer8CompoundC2ERK6StringS3_P19VariableEnvironment
@_ZN5Lexer9FileStateC1ERK6StringS3_ = alias void (%"struct.Lexer::FileState"*, %class.String*, %class.String*), void (%"struct.Lexer::FileState"*, %class.String*, %class.String*)* @_ZN5Lexer9FileStateC2ERK6StringS3_
@_ZN5LexerC1Ev = alias void (%class.Lexer*), void (%class.Lexer*)* @_ZN5LexerC2Ev
@_ZN5LexerD1Ev = alias void (%class.Lexer*), void (%class.Lexer*)* @_ZN5LexerD2Ev

; Function Attrs: noinline nounwind optnone uwtable
define %class.Element* @_ZN5Lexer24compound_element_factoryEm(i64) #0 align 2 {
  %2 = alloca %class.Element*, align 8
  %3 = alloca i64, align 8
  store i64 %0, i64* %3, align 8
  call void @__assert_fail(i8* getelementptr inbounds ([2 x i8], [2 x i8]* @.str, i32 0, i32 0), i8* getelementptr inbounds ([25 x i8], [25 x i8]* @.str.1, i32 0, i32 0), i32 75, i8* getelementptr inbounds ([59 x i8], [59 x i8]* @__PRETTY_FUNCTION__._ZN5Lexer24compound_element_factoryEm, i32 0, i32 0)) #12
  unreachable
                                                  ; No predecessors!
  %5 = load %class.Element*, %class.Element** %2, align 8
  ret %class.Element* %5
}

; Function Attrs: noreturn nounwind
declare void @__assert_fail(i8*, i8*, i32, i8*) #1

; Function Attrs: noinline optnone uwtable
define void @_ZN5Lexer8CompoundC2ERK6StringS3_P19VariableEnvironment(%"class.Lexer::Compound"*, %class.String* dereferenceable(24), %class.String* dereferenceable(24), %class.VariableEnvironment*) unnamed_addr #2 align 2 personality i8* bitcast (i32 (...)* @__gxx_personality_v0 to i8*) {
  %5 = alloca %"class.Lexer::Compound"*, align 8
  %6 = alloca %class.String*, align 8
  %7 = alloca %class.String*, align 8
  %8 = alloca %class.VariableEnvironment*, align 8
  %9 = alloca i8*
  %10 = alloca i32
  %11 = alloca i32, align 4
  store %"class.Lexer::Compound"* %0, %"class.Lexer::Compound"** %5, align 8
  store %class.String* %1, %class.String** %6, align 8
  store %class.String* %2, %class.String** %7, align 8
  store %class.VariableEnvironment* %3, %class.VariableEnvironment** %8, align 8
  %12 = load %"class.Lexer::Compound"*, %"class.Lexer::Compound"** %5, align 8
  %13 = bitcast %"class.Lexer::Compound"* %12 to %class.Element*
  call void @_ZN7ElementC2Ev(%class.Element* %13)
  %14 = bitcast %"class.Lexer::Compound"* %12 to i32 (...)***
  store i32 (...)** bitcast (i8** getelementptr inbounds ({ [29 x i8*] }, { [29 x i8*] }* @_ZTVN5Lexer8CompoundE, i32 0, inrange i32 0, i32 2) to i32 (...)**), i32 (...)*** %14, align 8
  %15 = getelementptr inbounds %"class.Lexer::Compound", %"class.Lexer::Compound"* %12, i32 0, i32 1
  %16 = load %class.String*, %class.String** %6, align 8
  invoke void @_ZN6StringC2ERKS_(%class.String* %15, %class.String* dereferenceable(24) %16)
          to label %17 unwind label %56

; <label>:17:                                     ; preds = %4
  %18 = getelementptr inbounds %"class.Lexer::Compound", %"class.Lexer::Compound"* %12, i32 0, i32 2
  %19 = load %class.String*, %class.String** %7, align 8
  invoke void @_ZN6StringC2ERKS_(%class.String* %18, %class.String* dereferenceable(24) %19)
          to label %20 unwind label %60

; <label>:20:                                     ; preds = %17
  %21 = getelementptr inbounds %"class.Lexer::Compound", %"class.Lexer::Compound"* %12, i32 0, i32 3
  store i32 -1, i32* %21, align 8
  %22 = getelementptr inbounds %"class.Lexer::Compound", %"class.Lexer::Compound"* %12, i32 0, i32 4
  %23 = load %class.VariableEnvironment*, %class.VariableEnvironment** %8, align 8
  invoke void @_ZN19VariableEnvironmentC1EPS_(%class.VariableEnvironment* %22, %class.VariableEnvironment* %23)
          to label %24 unwind label %64

; <label>:24:                                     ; preds = %20
  %25 = getelementptr inbounds %"class.Lexer::Compound", %"class.Lexer::Compound"* %12, i32 0, i32 5
  store i32 0, i32* %25, align 8
  %26 = getelementptr inbounds %"class.Lexer::Compound", %"class.Lexer::Compound"* %12, i32 0, i32 6
  store i32 0, i32* %26, align 4
  %27 = getelementptr inbounds %"class.Lexer::Compound", %"class.Lexer::Compound"* %12, i32 0, i32 7
  store i32 0, i32* %27, align 8
  %28 = getelementptr inbounds %"class.Lexer::Compound", %"class.Lexer::Compound"* %12, i32 0, i32 8
  %29 = load i8, i8* %28, align 4
  %30 = and i8 %29, -2
  store i8 %30, i8* %28, align 4
  %31 = getelementptr inbounds %"class.Lexer::Compound", %"class.Lexer::Compound"* %12, i32 0, i32 10
  store i32 -1, i32* %11, align 4
  invoke void @_ZN9HashTableI6StringiEC2ERKi(%class.HashTable* %31, i32* dereferenceable(4) %11)
          to label %32 unwind label %68

; <label>:32:                                     ; preds = %24
  %33 = getelementptr inbounds %"class.Lexer::Compound", %"class.Lexer::Compound"* %12, i32 0, i32 11
  invoke void @_ZN6VectorIiEC2Ev(%class.Vector.5* %33)
          to label %34 unwind label %72

; <label>:34:                                     ; preds = %32
  %35 = getelementptr inbounds %"class.Lexer::Compound", %"class.Lexer::Compound"* %12, i32 0, i32 12
  invoke void @_ZN6VectorI6StringEC2Ev(%class.Vector.0* %35)
          to label %36 unwind label %76

; <label>:36:                                     ; preds = %34
  %37 = getelementptr inbounds %"class.Lexer::Compound", %"class.Lexer::Compound"* %12, i32 0, i32 13
  invoke void @_ZN6VectorI6StringEC2Ev(%class.Vector.0* %37)
          to label %38 unwind label %80

; <label>:38:                                     ; preds = %36
  %39 = getelementptr inbounds %"class.Lexer::Compound", %"class.Lexer::Compound"* %12, i32 0, i32 14
  invoke void @_ZN6VectorI6StringEC2Ev(%class.Vector.0* %39)
          to label %40 unwind label %84

; <label>:40:                                     ; preds = %38
  %41 = getelementptr inbounds %"class.Lexer::Compound", %"class.Lexer::Compound"* %12, i32 0, i32 15
  invoke void @_ZN6VectorIjEC2Ev(%class.Vector.2* %41)
          to label %42 unwind label %88

; <label>:42:                                     ; preds = %40
  %43 = getelementptr inbounds %"class.Lexer::Compound", %"class.Lexer::Compound"* %12, i32 0, i32 16
  %44 = getelementptr inbounds [2 x %class.Vector.5], [2 x %class.Vector.5]* %43, i32 0, i32 0
  %45 = getelementptr inbounds %class.Vector.5, %class.Vector.5* %44, i64 2
  br label %46

; <label>:46:                                     ; preds = %48, %42
  %47 = phi %class.Vector.5* [ %44, %42 ], [ %49, %48 ]
  invoke void @_ZN6VectorIiEC2Ev(%class.Vector.5* %47)
          to label %48 unwind label %92

; <label>:48:                                     ; preds = %46
  %49 = getelementptr inbounds %class.Vector.5, %class.Vector.5* %47, i64 1
  %50 = icmp eq %class.Vector.5* %49, %45
  br i1 %50, label %51, label %46

; <label>:51:                                     ; preds = %48
  %52 = getelementptr inbounds %"class.Lexer::Compound", %"class.Lexer::Compound"* %12, i32 0, i32 17
  store i32 0, i32* %52, align 8
  %53 = getelementptr inbounds %"class.Lexer::Compound", %"class.Lexer::Compound"* %12, i32 0, i32 18
  store i32 1, i32* %53, align 4
  %54 = getelementptr inbounds %"class.Lexer::Compound", %"class.Lexer::Compound"* %12, i32 0, i32 19
  invoke void @_ZN6VectorIN6Router10ConnectionEEC2Ev(%class.Vector.8* %54)
          to label %55 unwind label %102

; <label>:55:                                     ; preds = %51
  ret void

; <label>:56:                                     ; preds = %4
  %57 = landingpad { i8*, i32 }
          cleanup
  %58 = extractvalue { i8*, i32 } %57, 0
  store i8* %58, i8** %9, align 8
  %59 = extractvalue { i8*, i32 } %57, 1
  store i32 %59, i32* %10, align 4
  br label %122

; <label>:60:                                     ; preds = %17
  %61 = landingpad { i8*, i32 }
          cleanup
  %62 = extractvalue { i8*, i32 } %61, 0
  store i8* %62, i8** %9, align 8
  %63 = extractvalue { i8*, i32 } %61, 1
  store i32 %63, i32* %10, align 4
  br label %121

; <label>:64:                                     ; preds = %20
  %65 = landingpad { i8*, i32 }
          cleanup
  %66 = extractvalue { i8*, i32 } %65, 0
  store i8* %66, i8** %9, align 8
  %67 = extractvalue { i8*, i32 } %65, 1
  store i32 %67, i32* %10, align 4
  br label %120

; <label>:68:                                     ; preds = %24
  %69 = landingpad { i8*, i32 }
          cleanup
  %70 = extractvalue { i8*, i32 } %69, 0
  store i8* %70, i8** %9, align 8
  %71 = extractvalue { i8*, i32 } %69, 1
  store i32 %71, i32* %10, align 4
  br label %119

; <label>:72:                                     ; preds = %32
  %73 = landingpad { i8*, i32 }
          cleanup
  %74 = extractvalue { i8*, i32 } %73, 0
  store i8* %74, i8** %9, align 8
  %75 = extractvalue { i8*, i32 } %73, 1
  store i32 %75, i32* %10, align 4
  br label %118

; <label>:76:                                     ; preds = %34
  %77 = landingpad { i8*, i32 }
          cleanup
  %78 = extractvalue { i8*, i32 } %77, 0
  store i8* %78, i8** %9, align 8
  %79 = extractvalue { i8*, i32 } %77, 1
  store i32 %79, i32* %10, align 4
  br label %117

; <label>:80:                                     ; preds = %36
  %81 = landingpad { i8*, i32 }
          cleanup
  %82 = extractvalue { i8*, i32 } %81, 0
  store i8* %82, i8** %9, align 8
  %83 = extractvalue { i8*, i32 } %81, 1
  store i32 %83, i32* %10, align 4
  br label %116

; <label>:84:                                     ; preds = %38
  %85 = landingpad { i8*, i32 }
          cleanup
  %86 = extractvalue { i8*, i32 } %85, 0
  store i8* %86, i8** %9, align 8
  %87 = extractvalue { i8*, i32 } %85, 1
  store i32 %87, i32* %10, align 4
  br label %115

; <label>:88:                                     ; preds = %40
  %89 = landingpad { i8*, i32 }
          cleanup
  %90 = extractvalue { i8*, i32 } %89, 0
  store i8* %90, i8** %9, align 8
  %91 = extractvalue { i8*, i32 } %89, 1
  store i32 %91, i32* %10, align 4
  br label %114

; <label>:92:                                     ; preds = %46
  %93 = landingpad { i8*, i32 }
          cleanup
  %94 = extractvalue { i8*, i32 } %93, 0
  store i8* %94, i8** %9, align 8
  %95 = extractvalue { i8*, i32 } %93, 1
  store i32 %95, i32* %10, align 4
  %96 = icmp eq %class.Vector.5* %44, %47
  br i1 %96, label %101, label %97

; <label>:97:                                     ; preds = %97, %92
  %98 = phi %class.Vector.5* [ %47, %92 ], [ %99, %97 ]
  %99 = getelementptr inbounds %class.Vector.5, %class.Vector.5* %98, i64 -1
  call void @_ZN6VectorIiED2Ev(%class.Vector.5* %99) #9
  %100 = icmp eq %class.Vector.5* %99, %44
  br i1 %100, label %101, label %97

; <label>:101:                                    ; preds = %97, %92
  br label %113

; <label>:102:                                    ; preds = %51
  %103 = landingpad { i8*, i32 }
          cleanup
  %104 = extractvalue { i8*, i32 } %103, 0
  store i8* %104, i8** %9, align 8
  %105 = extractvalue { i8*, i32 } %103, 1
  store i32 %105, i32* %10, align 4
  %106 = getelementptr inbounds [2 x %class.Vector.5], [2 x %class.Vector.5]* %43, i32 0, i32 0
  %107 = getelementptr inbounds %class.Vector.5, %class.Vector.5* %106, i64 2
  br label %108

; <label>:108:                                    ; preds = %108, %102
  %109 = phi %class.Vector.5* [ %107, %102 ], [ %110, %108 ]
  %110 = getelementptr inbounds %class.Vector.5, %class.Vector.5* %109, i64 -1
  call void @_ZN6VectorIiED2Ev(%class.Vector.5* %110) #9
  %111 = icmp eq %class.Vector.5* %110, %106
  br i1 %111, label %112, label %108

; <label>:112:                                    ; preds = %108
  br label %113

; <label>:113:                                    ; preds = %112, %101
  call void @_ZN6VectorIjED2Ev(%class.Vector.2* %41) #9
  br label %114

; <label>:114:                                    ; preds = %113, %88
  call void @_ZN6VectorI6StringED2Ev(%class.Vector.0* %39) #9
  br label %115

; <label>:115:                                    ; preds = %114, %84
  call void @_ZN6VectorI6StringED2Ev(%class.Vector.0* %37) #9
  br label %116

; <label>:116:                                    ; preds = %115, %80
  call void @_ZN6VectorI6StringED2Ev(%class.Vector.0* %35) #9
  br label %117

; <label>:117:                                    ; preds = %116, %76
  call void @_ZN6VectorIiED2Ev(%class.Vector.5* %33) #9
  br label %118

; <label>:118:                                    ; preds = %117, %72
  call void @_ZN9HashTableI6StringiED2Ev(%class.HashTable* %31) #9
  br label %119

; <label>:119:                                    ; preds = %118, %68
  call void @_ZN19VariableEnvironmentD2Ev(%class.VariableEnvironment* %22) #9
  br label %120

; <label>:120:                                    ; preds = %119, %64
  call void @_ZN6StringD2Ev(%class.String* %18) #9
  br label %121

; <label>:121:                                    ; preds = %120, %60
  call void @_ZN6StringD2Ev(%class.String* %15) #9
  br label %122

; <label>:122:                                    ; preds = %121, %56
  %123 = bitcast %"class.Lexer::Compound"* %12 to %class.Element*
  call void @_ZN7ElementD2Ev(%class.Element* %123) #9
  br label %124

; <label>:124:                                    ; preds = %122
  %125 = load i8*, i8** %9, align 8
  %126 = load i32, i32* %10, align 4
  %127 = insertvalue { i8*, i32 } undef, i8* %125, 0
  %128 = insertvalue { i8*, i32 } %127, i32 %126, 1
  resume { i8*, i32 } %128
}

declare void @_ZN7ElementC2Ev(%class.Element*) unnamed_addr #3

; Function Attrs: noinline optnone uwtable
define linkonce_odr void @_ZN6StringC2ERKS_(%class.String*, %class.String* dereferenceable(24)) unnamed_addr #2 comdat align 2 {
  %3 = alloca %class.String*, align 8
  %4 = alloca %class.String*, align 8
  store %class.String* %0, %class.String** %3, align 8
  store %class.String* %1, %class.String** %4, align 8
  %5 = load %class.String*, %class.String** %3, align 8
  %6 = getelementptr inbounds %class.String, %class.String* %5, i32 0, i32 0
  %7 = load %class.String*, %class.String** %4, align 8
  call void @_ZNK6String6assignERKS_(%class.String* %5, %class.String* dereferenceable(24) %7)
  ret void
}

declare i32 @__gxx_personality_v0(...)

declare void @_ZN19VariableEnvironmentC1EPS_(%class.VariableEnvironment*, %class.VariableEnvironment*) unnamed_addr #3

; Function Attrs: noinline optnone uwtable
define linkonce_odr void @_ZN9HashTableI6StringiEC2ERKi(%class.HashTable*, i32* dereferenceable(4)) unnamed_addr #2 comdat align 2 {
  %3 = alloca %class.HashTable*, align 8
  %4 = alloca i32*, align 8
  store %class.HashTable* %0, %class.HashTable** %3, align 8
  store i32* %1, i32** %4, align 8
  %5 = load %class.HashTable*, %class.HashTable** %3, align 8
  %6 = getelementptr inbounds %class.HashTable, %class.HashTable* %5, i32 0, i32 0
  call void @_ZN9HashTableI4PairIK6StringiEvEC2Ev(%class.HashTable.13* %6)
  %7 = getelementptr inbounds %class.HashTable, %class.HashTable* %5, i32 0, i32 1
  %8 = load i32*, i32** %4, align 8
  %9 = load i32, i32* %8, align 4
  store i32 %9, i32* %7, align 8
  ret void
}

; Function Attrs: noinline optnone uwtable
define linkonce_odr void @_ZN6VectorIiEC2Ev(%class.Vector.5*) unnamed_addr #2 comdat align 2 {
  %2 = alloca %class.Vector.5*, align 8
  store %class.Vector.5* %0, %class.Vector.5** %2, align 8
  %3 = load %class.Vector.5*, %class.Vector.5** %2, align 8
  %4 = getelementptr inbounds %class.Vector.5, %class.Vector.5* %3, i32 0, i32 0
  call void @_ZN13vector_memoryI18sized_array_memoryILm4EEEC2Ev(%class.vector_memory.3* %4)
  ret void
}

; Function Attrs: noinline optnone uwtable
define linkonce_odr void @_ZN6VectorI6StringEC2Ev(%class.Vector.0*) unnamed_addr #2 comdat align 2 {
  %2 = alloca %class.Vector.0*, align 8
  store %class.Vector.0* %0, %class.Vector.0** %2, align 8
  %3 = load %class.Vector.0*, %class.Vector.0** %2, align 8
  %4 = getelementptr inbounds %class.Vector.0, %class.Vector.0* %3, i32 0, i32 0
  call void @_ZN13vector_memoryI18typed_array_memoryI6StringEEC2Ev(%class.vector_memory.1* %4)
  ret void
}

; Function Attrs: noinline optnone uwtable
define linkonce_odr void @_ZN6VectorIjEC2Ev(%class.Vector.2*) unnamed_addr #2 comdat align 2 {
  %2 = alloca %class.Vector.2*, align 8
  store %class.Vector.2* %0, %class.Vector.2** %2, align 8
  %3 = load %class.Vector.2*, %class.Vector.2** %2, align 8
  %4 = getelementptr inbounds %class.Vector.2, %class.Vector.2* %3, i32 0, i32 0
  call void @_ZN13vector_memoryI18sized_array_memoryILm4EEEC2Ev(%class.vector_memory.3* %4)
  ret void
}

; Function Attrs: noinline nounwind optnone uwtable
define linkonce_odr void @_ZN6VectorIiED2Ev(%class.Vector.5*) unnamed_addr #0 comdat align 2 {
  %2 = alloca %class.Vector.5*, align 8
  store %class.Vector.5* %0, %class.Vector.5** %2, align 8
  %3 = load %class.Vector.5*, %class.Vector.5** %2, align 8
  %4 = getelementptr inbounds %class.Vector.5, %class.Vector.5* %3, i32 0, i32 0
  call void @_ZN13vector_memoryI18sized_array_memoryILm4EEED2Ev(%class.vector_memory.3* %4) #9
  ret void
}

; Function Attrs: noinline optnone uwtable
define linkonce_odr void @_ZN6VectorIN6Router10ConnectionEEC2Ev(%class.Vector.8*) unnamed_addr #2 comdat align 2 {
  %2 = alloca %class.Vector.8*, align 8
  store %class.Vector.8* %0, %class.Vector.8** %2, align 8
  %3 = load %class.Vector.8*, %class.Vector.8** %2, align 8
  %4 = getelementptr inbounds %class.Vector.8, %class.Vector.8* %3, i32 0, i32 0
  call void @_ZN13vector_memoryI18sized_array_memoryILm16EEEC2Ev(%class.vector_memory.9* %4)
  ret void
}

; Function Attrs: noinline nounwind optnone uwtable
define linkonce_odr void @_ZN6VectorIjED2Ev(%class.Vector.2*) unnamed_addr #0 comdat align 2 {
  %2 = alloca %class.Vector.2*, align 8
  store %class.Vector.2* %0, %class.Vector.2** %2, align 8
  %3 = load %class.Vector.2*, %class.Vector.2** %2, align 8
  %4 = getelementptr inbounds %class.Vector.2, %class.Vector.2* %3, i32 0, i32 0
  call void @_ZN13vector_memoryI18sized_array_memoryILm4EEED2Ev(%class.vector_memory.3* %4) #9
  ret void
}

; Function Attrs: noinline nounwind optnone uwtable
define linkonce_odr void @_ZN6VectorI6StringED2Ev(%class.Vector.0*) unnamed_addr #0 comdat align 2 {
  %2 = alloca %class.Vector.0*, align 8
  store %class.Vector.0* %0, %class.Vector.0** %2, align 8
  %3 = load %class.Vector.0*, %class.Vector.0** %2, align 8
  %4 = getelementptr inbounds %class.Vector.0, %class.Vector.0* %3, i32 0, i32 0
  call void @_ZN13vector_memoryI18typed_array_memoryI6StringEED2Ev(%class.vector_memory.1* %4) #9
  ret void
}

; Function Attrs: noinline nounwind optnone uwtable
define linkonce_odr void @_ZN9HashTableI6StringiED2Ev(%class.HashTable*) unnamed_addr #0 comdat align 2 {
  %2 = alloca %class.HashTable*, align 8
  store %class.HashTable* %0, %class.HashTable** %2, align 8
  %3 = load %class.HashTable*, %class.HashTable** %2, align 8
  %4 = getelementptr inbounds %class.HashTable, %class.HashTable* %3, i32 0, i32 0
  call void @_ZN9HashTableI4PairIK6StringiEvED2Ev(%class.HashTable.13* %4) #9
  ret void
}

; Function Attrs: noinline nounwind optnone uwtable
define linkonce_odr void @_ZN19VariableEnvironmentD2Ev(%class.VariableEnvironment*) unnamed_addr #0 comdat align 2 {
  %2 = alloca %class.VariableEnvironment*, align 8
  store %class.VariableEnvironment* %0, %class.VariableEnvironment** %2, align 8
  %3 = load %class.VariableEnvironment*, %class.VariableEnvironment** %2, align 8
  %4 = bitcast %class.VariableEnvironment* %3 to i32 (...)***
  store i32 (...)** bitcast (i8** getelementptr inbounds ({ [5 x i8*] }, { [5 x i8*] }* @_ZTV19VariableEnvironment, i32 0, inrange i32 0, i32 2) to i32 (...)**), i32 (...)*** %4, align 8
  %5 = getelementptr inbounds %class.VariableEnvironment, %class.VariableEnvironment* %3, i32 0, i32 2
  call void @_ZN6VectorI6StringED2Ev(%class.Vector.0* %5) #9
  %6 = getelementptr inbounds %class.VariableEnvironment, %class.VariableEnvironment* %3, i32 0, i32 1
  call void @_ZN6VectorI6StringED2Ev(%class.Vector.0* %6) #9
  %7 = bitcast %class.VariableEnvironment* %3 to %class.VariableExpander*
  call void @_ZN16VariableExpanderD2Ev(%class.VariableExpander* %7) #9
  ret void
}

; Function Attrs: noinline nounwind optnone uwtable
define linkonce_odr void @_ZN6StringD2Ev(%class.String*) unnamed_addr #0 comdat align 2 personality i8* bitcast (i32 (...)* @__gxx_personality_v0 to i8*) {
  %2 = alloca %class.String*, align 8
  store %class.String* %0, %class.String** %2, align 8
  %3 = load %class.String*, %class.String** %2, align 8
  invoke void @_ZNK6String5derefEv(%class.String* %3)
          to label %4 unwind label %5

; <label>:4:                                      ; preds = %1
  ret void

; <label>:5:                                      ; preds = %1
  %6 = landingpad { i8*, i32 }
          catch i8* null
  %7 = extractvalue { i8*, i32 } %6, 0
  call void @__clang_call_terminate(i8* %7) #12
  unreachable
}

; Function Attrs: nounwind
declare void @_ZN7ElementD2Ev(%class.Element*) unnamed_addr #4

; Function Attrs: noinline optnone uwtable
define i8* @_ZN5Lexer8Compound20printable_name_c_strEv(%"class.Lexer::Compound"*) #2 align 2 {
  %2 = alloca i8*, align 8
  %3 = alloca %"class.Lexer::Compound"*, align 8
  store %"class.Lexer::Compound"* %0, %"class.Lexer::Compound"** %3, align 8
  %4 = load %"class.Lexer::Compound"*, %"class.Lexer::Compound"** %3, align 8
  %5 = getelementptr inbounds %"class.Lexer::Compound", %"class.Lexer::Compound"* %4, i32 0, i32 1
  %6 = call { i64, i64 } @_ZNK6StringcvMS_KFivEEv(%class.String* %5)
  %7 = extractvalue { i64, i64 } %6, 0
  %8 = icmp ne i64 %7, 0
  br i1 %8, label %9, label %12

; <label>:9:                                      ; preds = %1
  %10 = getelementptr inbounds %"class.Lexer::Compound", %"class.Lexer::Compound"* %4, i32 0, i32 1
  %11 = call i8* @_ZNK6String5c_strEv(%class.String* %10)
  store i8* %11, i8** %2, align 8
  br label %13

; <label>:12:                                     ; preds = %1
  store i8* getelementptr inbounds ([12 x i8], [12 x i8]* @.str.2, i32 0, i32 0), i8** %2, align 8
  br label %13

; <label>:13:                                     ; preds = %12, %9
  %14 = load i8*, i8** %2, align 8
  ret i8* %14
}

; Function Attrs: noinline nounwind optnone uwtable
define linkonce_odr { i64, i64 } @_ZNK6StringcvMS_KFivEEv(%class.String*) #0 comdat align 2 {
  %2 = alloca %class.String*, align 8
  store %class.String* %0, %class.String** %2, align 8
  %3 = load %class.String*, %class.String** %2, align 8
  %4 = getelementptr inbounds %class.String, %class.String* %3, i32 0, i32 0
  %5 = getelementptr inbounds %"struct.String::rep_t", %"struct.String::rep_t"* %4, i32 0, i32 1
  %6 = load i32, i32* %5, align 8
  %7 = icmp ne i32 %6, 0
  %8 = zext i1 %7 to i64
  %9 = select i1 %7, { i64, i64 } { i64 ptrtoint (i32 (%class.String*)* @_ZNK6String6lengthEv to i64), i64 0 }, { i64, i64 } zeroinitializer
  ret { i64, i64 } %9
}

; Function Attrs: noinline optnone uwtable
define linkonce_odr i8* @_ZNK6String5c_strEv(%class.String*) #2 comdat align 2 {
  %2 = alloca %class.String*, align 8
  %3 = alloca i8*, align 8
  %4 = alloca i8*, align 8
  store %class.String* %0, %class.String** %2, align 8
  %5 = load %class.String*, %class.String** %2, align 8
  %6 = getelementptr inbounds %class.String, %class.String* %5, i32 0, i32 0
  %7 = getelementptr inbounds %"struct.String::rep_t", %"struct.String::rep_t"* %6, i32 0, i32 0
  %8 = load i8*, i8** %7, align 8
  %9 = getelementptr inbounds %class.String, %class.String* %5, i32 0, i32 0
  %10 = getelementptr inbounds %"struct.String::rep_t", %"struct.String::rep_t"* %9, i32 0, i32 1
  %11 = load i32, i32* %10, align 8
  %12 = sext i32 %11 to i64
  %13 = getelementptr inbounds i8, i8* %8, i64 %12
  store i8* %13, i8** %3, align 8
  %14 = getelementptr inbounds %class.String, %class.String* %5, i32 0, i32 0
  %15 = getelementptr inbounds %"struct.String::rep_t", %"struct.String::rep_t"* %14, i32 0, i32 2
  %16 = load %"struct.String::memo_t"*, %"struct.String::memo_t"** %15, align 8
  %17 = icmp ne %"struct.String::memo_t"* %16, null
  br i1 %17, label %18, label %33

; <label>:18:                                     ; preds = %1
  %19 = load i8*, i8** %3, align 8
  %20 = getelementptr inbounds %class.String, %class.String* %5, i32 0, i32 0
  %21 = getelementptr inbounds %"struct.String::rep_t", %"struct.String::rep_t"* %20, i32 0, i32 2
  %22 = load %"struct.String::memo_t"*, %"struct.String::memo_t"** %21, align 8
  %23 = getelementptr inbounds %"struct.String::memo_t", %"struct.String::memo_t"* %22, i32 0, i32 3
  %24 = getelementptr inbounds [8 x i8], [8 x i8]* %23, i32 0, i32 0
  %25 = getelementptr inbounds %class.String, %class.String* %5, i32 0, i32 0
  %26 = getelementptr inbounds %"struct.String::rep_t", %"struct.String::rep_t"* %25, i32 0, i32 2
  %27 = load %"struct.String::memo_t"*, %"struct.String::memo_t"** %26, align 8
  %28 = getelementptr inbounds %"struct.String::memo_t", %"struct.String::memo_t"* %27, i32 0, i32 2
  %29 = load volatile i32, i32* %28, align 4
  %30 = zext i32 %29 to i64
  %31 = getelementptr inbounds i8, i8* %24, i64 %30
  %32 = icmp uge i8* %19, %31
  br i1 %32, label %38, label %33

; <label>:33:                                     ; preds = %18, %1
  %34 = load i8*, i8** %3, align 8
  %35 = load i8, i8* %34, align 1
  %36 = sext i8 %35 to i32
  %37 = icmp ne i32 %36, 0
  br i1 %37, label %38, label %49

; <label>:38:                                     ; preds = %33, %18
  %39 = call i8* @_ZN6String20append_uninitializedEi(%class.String* %5, i32 1)
  store i8* %39, i8** %4, align 8
  %40 = load i8*, i8** %4, align 8
  %41 = icmp ne i8* %40, null
  br i1 %41, label %42, label %48

; <label>:42:                                     ; preds = %38
  %43 = load i8*, i8** %4, align 8
  store i8 0, i8* %43, align 1
  %44 = getelementptr inbounds %class.String, %class.String* %5, i32 0, i32 0
  %45 = getelementptr inbounds %"struct.String::rep_t", %"struct.String::rep_t"* %44, i32 0, i32 1
  %46 = load i32, i32* %45, align 8
  %47 = add nsw i32 %46, -1
  store i32 %47, i32* %45, align 8
  br label %48

; <label>:48:                                     ; preds = %42, %38
  br label %49

; <label>:49:                                     ; preds = %48, %33
  %50 = getelementptr inbounds %class.String, %class.String* %5, i32 0, i32 0
  %51 = getelementptr inbounds %"struct.String::rep_t", %"struct.String::rep_t"* %50, i32 0, i32 0
  %52 = load i8*, i8** %51, align 8
  ret i8* %52
}

; Function Attrs: noinline optnone uwtable
define i8* @_ZN5Lexer8Compound4castEPKc(%"class.Lexer::Compound"*, i8*) unnamed_addr #2 align 2 {
  %3 = alloca i8*, align 8
  %4 = alloca %"class.Lexer::Compound"*, align 8
  %5 = alloca i8*, align 8
  store %"class.Lexer::Compound"* %0, %"class.Lexer::Compound"** %4, align 8
  store i8* %1, i8** %5, align 8
  %6 = load %"class.Lexer::Compound"*, %"class.Lexer::Compound"** %4, align 8
  %7 = load i8*, i8** %5, align 8
  %8 = call i32 @strcmp(i8* %7, i8* getelementptr inbounds ([16 x i8], [16 x i8]* @.str.3, i32 0, i32 0)) #13
  %9 = icmp eq i32 %8, 0
  br i1 %9, label %14, label %10

; <label>:10:                                     ; preds = %2
  %11 = getelementptr inbounds %"class.Lexer::Compound", %"class.Lexer::Compound"* %6, i32 0, i32 1
  %12 = load i8*, i8** %5, align 8
  %13 = call zeroext i1 @_ZeqRK6StringPKc(%class.String* dereferenceable(24) %11, i8* %12)
  br i1 %13, label %14, label %16

; <label>:14:                                     ; preds = %10, %2
  %15 = bitcast %"class.Lexer::Compound"* %6 to i8*
  store i8* %15, i8** %3, align 8
  br label %17

; <label>:16:                                     ; preds = %10
  store i8* null, i8** %3, align 8
  br label %17

; <label>:17:                                     ; preds = %16, %14
  %18 = load i8*, i8** %3, align 8
  ret i8* %18
}

; Function Attrs: nounwind readonly
declare i32 @strcmp(i8*, i8*) #5

; Function Attrs: noinline optnone uwtable
define linkonce_odr zeroext i1 @_ZeqRK6StringPKc(%class.String* dereferenceable(24), i8*) #2 comdat {
  %3 = alloca i1, align 1
  %4 = alloca %class.String*, align 8
  %5 = alloca i8*, align 8
  store %class.String* %0, %class.String** %4, align 8
  store i8* %1, i8** %5, align 8
  %6 = load i8*, i8** %5, align 8
  %7 = icmp ne i8* %6, null
  br i1 %7, label %8, label %16

; <label>:8:                                      ; preds = %2
  br i1 false, label %9, label %16

; <label>:9:                                      ; preds = %8
  %10 = load %class.String*, %class.String** %4, align 8
  %11 = load i8*, i8** %5, align 8
  %12 = load i8*, i8** %5, align 8
  %13 = call i64 @strlen(i8* %12) #13
  %14 = trunc i64 %13 to i32
  %15 = call zeroext i1 @_ZNK6String6equalsEPKci(%class.String* %10, i8* %11, i32 %14)
  store i1 %15, i1* %3, align 1
  br label %20

; <label>:16:                                     ; preds = %8, %2
  %17 = load %class.String*, %class.String** %4, align 8
  %18 = load i8*, i8** %5, align 8
  %19 = call zeroext i1 @_ZNK6String6equalsEPKci(%class.String* %17, i8* %18, i32 -1)
  store i1 %19, i1* %3, align 1
  br label %20

; <label>:20:                                     ; preds = %16, %9
  %21 = load i1, i1* %3, align 1
  ret i1 %21
}

; Function Attrs: noinline optnone uwtable
define void @_ZN5Lexer8Compound7connectEiiii(%"class.Lexer::Compound"*, i32, i32, i32, i32) #2 align 2 {
  %6 = alloca %"class.Lexer::Compound"*, align 8
  %7 = alloca i32, align 4
  %8 = alloca i32, align 4
  %9 = alloca i32, align 4
  %10 = alloca i32, align 4
  %11 = alloca %"struct.Router::Connection", align 4
  store %"class.Lexer::Compound"* %0, %"class.Lexer::Compound"** %6, align 8
  store i32 %1, i32* %7, align 4
  store i32 %2, i32* %8, align 4
  store i32 %3, i32* %9, align 4
  store i32 %4, i32* %10, align 4
  %12 = load %"class.Lexer::Compound"*, %"class.Lexer::Compound"** %6, align 8
  %13 = load i32, i32* %8, align 4
  %14 = icmp slt i32 %13, 0
  br i1 %14, label %15, label %16

; <label>:15:                                     ; preds = %5
  store i32 0, i32* %8, align 4
  br label %16

; <label>:16:                                     ; preds = %15, %5
  %17 = load i32, i32* %10, align 4
  %18 = icmp slt i32 %17, 0
  br i1 %18, label %19, label %20

; <label>:19:                                     ; preds = %16
  store i32 0, i32* %10, align 4
  br label %20

; <label>:20:                                     ; preds = %19, %16
  %21 = getelementptr inbounds %"class.Lexer::Compound", %"class.Lexer::Compound"* %12, i32 0, i32 19
  %22 = load i32, i32* %7, align 4
  %23 = load i32, i32* %8, align 4
  %24 = load i32, i32* %9, align 4
  %25 = load i32, i32* %10, align 4
  call void @_ZN6Router10ConnectionC2Eiiii(%"struct.Router::Connection"* %11, i32 %22, i32 %23, i32 %24, i32 %25)
  call void @_ZN6VectorIN6Router10ConnectionEE9push_backI13fast_argumentIS1_Lb1EEEENT_23enable_rvalue_referenceEOS1_(%class.Vector.8* %21, %"struct.Router::Connection"* dereferenceable(16) %11)
  %26 = getelementptr inbounds %"class.Lexer::Compound", %"class.Lexer::Compound"* %12, i32 0, i32 16
  %27 = getelementptr inbounds [2 x %class.Vector.5], [2 x %class.Vector.5]* %26, i64 0, i64 0
  %28 = load i32, i32* %9, align 4
  %29 = call dereferenceable(4) i32* @_ZN6VectorIiEixEi(%class.Vector.5* %27, i32 %28)
  %30 = load i32, i32* %29, align 4
  %31 = load i32, i32* %10, align 4
  %32 = icmp sle i32 %30, %31
  br i1 %32, label %33, label %40

; <label>:33:                                     ; preds = %20
  %34 = load i32, i32* %10, align 4
  %35 = add nsw i32 %34, 1
  %36 = getelementptr inbounds %"class.Lexer::Compound", %"class.Lexer::Compound"* %12, i32 0, i32 16
  %37 = getelementptr inbounds [2 x %class.Vector.5], [2 x %class.Vector.5]* %36, i64 0, i64 0
  %38 = load i32, i32* %9, align 4
  %39 = call dereferenceable(4) i32* @_ZN6VectorIiEixEi(%class.Vector.5* %37, i32 %38)
  store i32 %35, i32* %39, align 4
  br label %40

; <label>:40:                                     ; preds = %33, %20
  %41 = getelementptr inbounds %"class.Lexer::Compound", %"class.Lexer::Compound"* %12, i32 0, i32 16
  %42 = getelementptr inbounds [2 x %class.Vector.5], [2 x %class.Vector.5]* %41, i64 0, i64 1
  %43 = load i32, i32* %7, align 4
  %44 = call dereferenceable(4) i32* @_ZN6VectorIiEixEi(%class.Vector.5* %42, i32 %43)
  %45 = load i32, i32* %44, align 4
  %46 = load i32, i32* %8, align 4
  %47 = icmp sle i32 %45, %46
  br i1 %47, label %48, label %55

; <label>:48:                                     ; preds = %40
  %49 = load i32, i32* %8, align 4
  %50 = add nsw i32 %49, 1
  %51 = getelementptr inbounds %"class.Lexer::Compound", %"class.Lexer::Compound"* %12, i32 0, i32 16
  %52 = getelementptr inbounds [2 x %class.Vector.5], [2 x %class.Vector.5]* %51, i64 0, i64 1
  %53 = load i32, i32* %7, align 4
  %54 = call dereferenceable(4) i32* @_ZN6VectorIiEixEi(%class.Vector.5* %52, i32 %53)
  store i32 %50, i32* %54, align 4
  br label %55

; <label>:55:                                     ; preds = %48, %40
  ret void
}

; Function Attrs: noinline optnone uwtable
define linkonce_odr void @_ZN6VectorIN6Router10ConnectionEE9push_backI13fast_argumentIS1_Lb1EEEENT_23enable_rvalue_referenceEOS1_(%class.Vector.8*, %"struct.Router::Connection"* dereferenceable(16)) #2 comdat align 2 {
  %3 = alloca %class.Vector.8*, align 8
  %4 = alloca %"struct.Router::Connection"*, align 8
  store %class.Vector.8* %0, %class.Vector.8** %3, align 8
  store %"struct.Router::Connection"* %1, %"struct.Router::Connection"** %4, align 8
  %5 = load %class.Vector.8*, %class.Vector.8** %3, align 8
  %6 = getelementptr inbounds %class.Vector.8, %class.Vector.8* %5, i32 0, i32 0
  %7 = load %"struct.Router::Connection"*, %"struct.Router::Connection"** %4, align 8
  %8 = call %struct.char_array.10* @_ZN18sized_array_memoryILm16EE4castIN6Router10ConnectionEEEP10char_arrayILm16EEPT_(%"struct.Router::Connection"* %7)
  call void @_ZN13vector_memoryI18sized_array_memoryILm16EEE19move_construct_backEP10char_arrayILm16EE(%class.vector_memory.9* %6, %struct.char_array.10* %8)
  ret void
}

; Function Attrs: noinline optnone uwtable
define linkonce_odr void @_ZN6Router10ConnectionC2Eiiii(%"struct.Router::Connection"*, i32, i32, i32, i32) unnamed_addr #2 comdat align 2 {
  %6 = alloca %"struct.Router::Connection"*, align 8
  %7 = alloca i32, align 4
  %8 = alloca i32, align 4
  %9 = alloca i32, align 4
  %10 = alloca i32, align 4
  %11 = alloca %"struct.Router::Port", align 4
  %12 = alloca %"struct.Router::Port", align 4
  store %"struct.Router::Connection"* %0, %"struct.Router::Connection"** %6, align 8
  store i32 %1, i32* %7, align 4
  store i32 %2, i32* %8, align 4
  store i32 %3, i32* %9, align 4
  store i32 %4, i32* %10, align 4
  %13 = load %"struct.Router::Connection"*, %"struct.Router::Connection"** %6, align 8
  %14 = getelementptr inbounds %"struct.Router::Connection", %"struct.Router::Connection"* %13, i32 0, i32 0
  %15 = getelementptr inbounds [2 x %"struct.Router::Port"], [2 x %"struct.Router::Port"]* %14, i32 0, i32 0
  %16 = getelementptr inbounds %"struct.Router::Port", %"struct.Router::Port"* %15, i64 2
  br label %17

; <label>:17:                                     ; preds = %17, %5
  %18 = phi %"struct.Router::Port"* [ %15, %5 ], [ %19, %17 ]
  call void @_ZN6Router4PortC2Ev(%"struct.Router::Port"* %18)
  %19 = getelementptr inbounds %"struct.Router::Port", %"struct.Router::Port"* %18, i64 1
  %20 = icmp eq %"struct.Router::Port"* %19, %16
  br i1 %20, label %21, label %17

; <label>:21:                                     ; preds = %17
  %22 = load i32, i32* %9, align 4
  %23 = load i32, i32* %10, align 4
  call void @_ZN6Router4PortC2Eii(%"struct.Router::Port"* %11, i32 %22, i32 %23)
  %24 = getelementptr inbounds %"struct.Router::Connection", %"struct.Router::Connection"* %13, i32 0, i32 0
  %25 = getelementptr inbounds [2 x %"struct.Router::Port"], [2 x %"struct.Router::Port"]* %24, i64 0, i64 0
  %26 = bitcast %"struct.Router::Port"* %25 to i8*
  %27 = bitcast %"struct.Router::Port"* %11 to i8*
  call void @llvm.memcpy.p0i8.p0i8.i64(i8* %26, i8* %27, i64 8, i32 4, i1 false)
  %28 = load i32, i32* %7, align 4
  %29 = load i32, i32* %8, align 4
  call void @_ZN6Router4PortC2Eii(%"struct.Router::Port"* %12, i32 %28, i32 %29)
  %30 = getelementptr inbounds %"struct.Router::Connection", %"struct.Router::Connection"* %13, i32 0, i32 0
  %31 = getelementptr inbounds [2 x %"struct.Router::Port"], [2 x %"struct.Router::Port"]* %30, i64 0, i64 1
  %32 = bitcast %"struct.Router::Port"* %31 to i8*
  %33 = bitcast %"struct.Router::Port"* %12 to i8*
  call void @llvm.memcpy.p0i8.p0i8.i64(i8* %32, i8* %33, i64 8, i32 4, i1 false)
  ret void
}

; Function Attrs: noinline nounwind optnone uwtable
define linkonce_odr dereferenceable(4) i32* @_ZN6VectorIiEixEi(%class.Vector.5*, i32) #0 comdat align 2 {
  %3 = alloca %class.Vector.5*, align 8
  %4 = alloca i32, align 4
  store %class.Vector.5* %0, %class.Vector.5** %3, align 8
  store i32 %1, i32* %4, align 4
  %5 = load %class.Vector.5*, %class.Vector.5** %3, align 8
  %6 = load i32, i32* %4, align 4
  %7 = getelementptr inbounds %class.Vector.5, %class.Vector.5* %5, i32 0, i32 0
  %8 = getelementptr inbounds %class.vector_memory.3, %class.vector_memory.3* %7, i32 0, i32 1
  %9 = load i32, i32* %8, align 8
  %10 = icmp ult i32 %6, %9
  br i1 %10, label %11, label %12

; <label>:11:                                     ; preds = %2
  br label %14

; <label>:12:                                     ; preds = %2
  call void @__assert_fail(i8* getelementptr inbounds ([33 x i8], [33 x i8]* @.str.127, i32 0, i32 0), i8* getelementptr inbounds ([35 x i8], [35 x i8]* @.str.128, i32 0, i32 0), i32 288, i8* getelementptr inbounds ([56 x i8], [56 x i8]* @__PRETTY_FUNCTION__._ZN6VectorIiEixEi, i32 0, i32 0)) #12
  unreachable
                                                  ; No predecessors!
  br label %14

; <label>:14:                                     ; preds = %13, %11
  %15 = getelementptr inbounds %class.Vector.5, %class.Vector.5* %5, i32 0, i32 0
  %16 = getelementptr inbounds %class.vector_memory.3, %class.vector_memory.3* %15, i32 0, i32 0
  %17 = load %struct.char_array.4*, %struct.char_array.4** %16, align 8
  %18 = load i32, i32* %4, align 4
  %19 = sext i32 %18 to i64
  %20 = getelementptr inbounds %struct.char_array.4, %struct.char_array.4* %17, i64 %19
  %21 = bitcast %struct.char_array.4* %20 to i32*
  ret i32* %21
}

; Function Attrs: noinline optnone uwtable
define i32 @_ZNK5Lexer8Compound19check_pseudoelementEibPKcP12ErrorHandler(%"class.Lexer::Compound"*, i32, i1 zeroext, i8*, %class.ErrorHandler*) #2 align 2 personality i8* bitcast (i32 (...)* @__gxx_personality_v0 to i8*) {
  %6 = alloca %"class.Lexer::Compound"*, align 8
  %7 = alloca i32, align 4
  %8 = alloca i8, align 1
  %9 = alloca i8*, align 8
  %10 = alloca %class.ErrorHandler*, align 8
  %11 = alloca %class.Bitvector, align 8
  %12 = alloca %"struct.Router::Connection"*, align 8
  %13 = alloca i8*
  %14 = alloca i32
  %15 = alloca %"class.Bitvector::Bit", align 8
  %16 = alloca i32, align 4
  %17 = alloca %"class.Bitvector::Bit", align 8
  store %"class.Lexer::Compound"* %0, %"class.Lexer::Compound"** %6, align 8
  store i32 %1, i32* %7, align 4
  %18 = zext i1 %2 to i8
  store i8 %18, i8* %8, align 1
  store i8* %3, i8** %9, align 8
  store %class.ErrorHandler* %4, %class.ErrorHandler** %10, align 8
  %19 = load %"class.Lexer::Compound"*, %"class.Lexer::Compound"** %6, align 8
  %20 = getelementptr inbounds %"class.Lexer::Compound", %"class.Lexer::Compound"* %19, i32 0, i32 16
  %21 = load i8, i8* %8, align 1
  %22 = trunc i8 %21 to i1
  %23 = zext i1 %22 to i32
  %24 = sub nsw i32 1, %23
  %25 = sext i32 %24 to i64
  %26 = getelementptr inbounds [2 x %class.Vector.5], [2 x %class.Vector.5]* %20, i64 0, i64 %25
  %27 = load i32, i32* %7, align 4
  %28 = call dereferenceable(4) i32* @_ZNK6VectorIiEixEi(%class.Vector.5* %26, i32 %27)
  %29 = load i32, i32* %28, align 4
  call void @_ZN9BitvectorC2Ei(%class.Bitvector* %11, i32 %29)
  %30 = getelementptr inbounds %"class.Lexer::Compound", %"class.Lexer::Compound"* %19, i32 0, i32 19
  %31 = invoke %"struct.Router::Connection"* @_ZNK6VectorIN6Router10ConnectionEE5beginEv(%class.Vector.8* %30)
          to label %32 unwind label %70

; <label>:32:                                     ; preds = %5
  store %"struct.Router::Connection"* %31, %"struct.Router::Connection"** %12, align 8
  br label %33

; <label>:33:                                     ; preds = %75, %32
  %34 = load %"struct.Router::Connection"*, %"struct.Router::Connection"** %12, align 8
  %35 = getelementptr inbounds %"class.Lexer::Compound", %"class.Lexer::Compound"* %19, i32 0, i32 19
  %36 = invoke %"struct.Router::Connection"* @_ZNK6VectorIN6Router10ConnectionEE3endEv(%class.Vector.8* %35)
          to label %37 unwind label %70

; <label>:37:                                     ; preds = %33
  %38 = icmp ne %"struct.Router::Connection"* %34, %36
  br i1 %38, label %39, label %78

; <label>:39:                                     ; preds = %37
  %40 = load %"struct.Router::Connection"*, %"struct.Router::Connection"** %12, align 8
  %41 = load i8, i8* %8, align 1
  %42 = trunc i8 %41 to i1
  %43 = zext i1 %42 to i32
  %44 = sub nsw i32 1, %43
  %45 = invoke dereferenceable(8) %"struct.Router::Port"* @_ZNK6Router10ConnectionixEi(%"struct.Router::Connection"* %40, i32 %44)
          to label %46 unwind label %70

; <label>:46:                                     ; preds = %39
  %47 = getelementptr inbounds %"struct.Router::Port", %"struct.Router::Port"* %45, i32 0, i32 0
  %48 = load i32, i32* %47, align 4
  %49 = load i32, i32* %7, align 4
  %50 = icmp eq i32 %48, %49
  br i1 %50, label %51, label %74

; <label>:51:                                     ; preds = %46
  %52 = load %"struct.Router::Connection"*, %"struct.Router::Connection"** %12, align 8
  %53 = load i8, i8* %8, align 1
  %54 = trunc i8 %53 to i1
  %55 = zext i1 %54 to i32
  %56 = sub nsw i32 1, %55
  %57 = invoke dereferenceable(8) %"struct.Router::Port"* @_ZNK6Router10ConnectionixEi(%"struct.Router::Connection"* %52, i32 %56)
          to label %58 unwind label %70

; <label>:58:                                     ; preds = %51
  %59 = getelementptr inbounds %"struct.Router::Port", %"struct.Router::Port"* %57, i32 0, i32 1
  %60 = load i32, i32* %59, align 4
  %61 = invoke { i32*, i32 } @_ZN9BitvectorixEi(%class.Bitvector* %11, i32 %60)
          to label %62 unwind label %70

; <label>:62:                                     ; preds = %58
  %63 = bitcast %"class.Bitvector::Bit"* %15 to { i32*, i32 }*
  %64 = getelementptr inbounds { i32*, i32 }, { i32*, i32 }* %63, i32 0, i32 0
  %65 = extractvalue { i32*, i32 } %61, 0
  store i32* %65, i32** %64, align 8
  %66 = getelementptr inbounds { i32*, i32 }, { i32*, i32 }* %63, i32 0, i32 1
  %67 = extractvalue { i32*, i32 } %61, 1
  store i32 %67, i32* %66, align 8
  %68 = invoke dereferenceable(16) %"class.Bitvector::Bit"* @_ZN9Bitvector3BitaSEb(%"class.Bitvector::Bit"* %15, i1 zeroext true)
          to label %69 unwind label %70

; <label>:69:                                     ; preds = %62
  br label %74

; <label>:70:                                     ; preds = %138, %123, %115, %112, %107, %89, %78, %62, %58, %51, %39, %33, %5
  %71 = landingpad { i8*, i32 }
          cleanup
  %72 = extractvalue { i8*, i32 } %71, 0
  store i8* %72, i8** %13, align 8
  %73 = extractvalue { i8*, i32 } %71, 1
  store i32 %73, i32* %14, align 4
  call void @_ZN9BitvectorD2Ev(%class.Bitvector* %11) #9
  br label %141

; <label>:74:                                     ; preds = %69, %46
  br label %75

; <label>:75:                                     ; preds = %74
  %76 = load %"struct.Router::Connection"*, %"struct.Router::Connection"** %12, align 8
  %77 = getelementptr inbounds %"struct.Router::Connection", %"struct.Router::Connection"* %76, i32 1
  store %"struct.Router::Connection"* %77, %"struct.Router::Connection"** %12, align 8
  br label %33

; <label>:78:                                     ; preds = %37
  %79 = getelementptr inbounds %"class.Lexer::Compound", %"class.Lexer::Compound"* %19, i32 0, i32 16
  %80 = load i8, i8* %8, align 1
  %81 = trunc i8 %80 to i1
  %82 = zext i1 %81 to i64
  %83 = getelementptr inbounds [2 x %class.Vector.5], [2 x %class.Vector.5]* %79, i64 0, i64 %82
  %84 = load i32, i32* %7, align 4
  %85 = invoke dereferenceable(4) i32* @_ZNK6VectorIiEixEi(%class.Vector.5* %83, i32 %84)
          to label %86 unwind label %70

; <label>:86:                                     ; preds = %78
  %87 = load i32, i32* %85, align 4
  %88 = icmp ne i32 %87, 0
  br i1 %88, label %89, label %106

; <label>:89:                                     ; preds = %86
  %90 = load %class.ErrorHandler*, %class.ErrorHandler** %10, align 8
  %91 = load i8*, i8** %9, align 8
  %92 = load i8, i8* %8, align 1
  %93 = trunc i8 %92 to i1
  %94 = zext i1 %93 to i64
  %95 = getelementptr inbounds [2 x i8*], [2 x i8*]* @_ZL10port_names, i64 0, i64 %94
  %96 = load i8*, i8** %95, align 8
  %97 = load i8, i8* %8, align 1
  %98 = trunc i8 %97 to i1
  %99 = zext i1 %98 to i32
  %100 = sub nsw i32 1, %99
  %101 = sext i32 %100 to i64
  %102 = getelementptr inbounds [2 x i8*], [2 x i8*]* @_ZL10port_names, i64 0, i64 %101
  %103 = load i8*, i8** %102, align 8
  %104 = invoke i32 (%class.ErrorHandler*, i8*, ...) @_ZN12ErrorHandler5errorEPKcz(%class.ErrorHandler* %90, i8* getelementptr inbounds ([51 x i8], [51 x i8]* @.str.4, i32 0, i32 0), i8* %91, i8* %96, i8* %103)
          to label %105 unwind label %70

; <label>:105:                                    ; preds = %89
  br label %106

; <label>:106:                                    ; preds = %105, %86
  store i32 0, i32* %16, align 4
  br label %107

; <label>:107:                                    ; preds = %135, %106
  %108 = load i32, i32* %16, align 4
  %109 = invoke i32 @_ZNK9Bitvector4sizeEv(%class.Bitvector* %11)
          to label %110 unwind label %70

; <label>:110:                                    ; preds = %107
  %111 = icmp slt i32 %108, %109
  br i1 %111, label %112, label %138

; <label>:112:                                    ; preds = %110
  %113 = load i32, i32* %16, align 4
  %114 = invoke { i32*, i32 } @_ZN9BitvectorixEi(%class.Bitvector* %11, i32 %113)
          to label %115 unwind label %70

; <label>:115:                                    ; preds = %112
  %116 = bitcast %"class.Bitvector::Bit"* %17 to { i32*, i32 }*
  %117 = getelementptr inbounds { i32*, i32 }, { i32*, i32 }* %116, i32 0, i32 0
  %118 = extractvalue { i32*, i32 } %114, 0
  store i32* %118, i32** %117, align 8
  %119 = getelementptr inbounds { i32*, i32 }, { i32*, i32 }* %116, i32 0, i32 1
  %120 = extractvalue { i32*, i32 } %114, 1
  store i32 %120, i32* %119, align 8
  %121 = invoke zeroext i1 @_ZNK9Bitvector3BitcvbEv(%"class.Bitvector::Bit"* %17)
          to label %122 unwind label %70

; <label>:122:                                    ; preds = %115
  br i1 %121, label %134, label %123

; <label>:123:                                    ; preds = %122
  %124 = load %class.ErrorHandler*, %class.ErrorHandler** %10, align 8
  %125 = load i8*, i8** %9, align 8
  %126 = load i8, i8* %8, align 1
  %127 = trunc i8 %126 to i1
  %128 = zext i1 %127 to i64
  %129 = getelementptr inbounds [2 x i8*], [2 x i8*]* @_ZL10port_names, i64 0, i64 %128
  %130 = load i8*, i8** %129, align 8
  %131 = load i32, i32* %16, align 4
  %132 = invoke i32 (%class.ErrorHandler*, i8*, ...) @_ZN12ErrorHandler5errorEPKcz(%class.ErrorHandler* %124, i8* getelementptr inbounds ([21 x i8], [21 x i8]* @.str.5, i32 0, i32 0), i8* %125, i8* %130, i32 %131)
          to label %133 unwind label %70

; <label>:133:                                    ; preds = %123
  br label %134

; <label>:134:                                    ; preds = %133, %122
  br label %135

; <label>:135:                                    ; preds = %134
  %136 = load i32, i32* %16, align 4
  %137 = add nsw i32 %136, 1
  store i32 %137, i32* %16, align 4
  br label %107

; <label>:138:                                    ; preds = %110
  %139 = invoke i32 @_ZNK9Bitvector4sizeEv(%class.Bitvector* %11)
          to label %140 unwind label %70

; <label>:140:                                    ; preds = %138
  call void @_ZN9BitvectorD2Ev(%class.Bitvector* %11) #9
  ret i32 %139

; <label>:141:                                    ; preds = %70
  %142 = load i8*, i8** %13, align 8
  %143 = load i32, i32* %14, align 4
  %144 = insertvalue { i8*, i32 } undef, i8* %142, 0
  %145 = insertvalue { i8*, i32 } %144, i32 %143, 1
  resume { i8*, i32 } %145
}

; Function Attrs: noinline nounwind optnone uwtable
define linkonce_odr dereferenceable(4) i32* @_ZNK6VectorIiEixEi(%class.Vector.5*, i32) #0 comdat align 2 {
  %3 = alloca %class.Vector.5*, align 8
  %4 = alloca i32, align 4
  store %class.Vector.5* %0, %class.Vector.5** %3, align 8
  store i32 %1, i32* %4, align 4
  %5 = load %class.Vector.5*, %class.Vector.5** %3, align 8
  %6 = load i32, i32* %4, align 4
  %7 = getelementptr inbounds %class.Vector.5, %class.Vector.5* %5, i32 0, i32 0
  %8 = getelementptr inbounds %class.vector_memory.3, %class.vector_memory.3* %7, i32 0, i32 1
  %9 = load i32, i32* %8, align 8
  %10 = icmp ult i32 %6, %9
  br i1 %10, label %11, label %12

; <label>:11:                                     ; preds = %2
  br label %14

; <label>:12:                                     ; preds = %2
  call void @__assert_fail(i8* getelementptr inbounds ([33 x i8], [33 x i8]* @.str.127, i32 0, i32 0), i8* getelementptr inbounds ([35 x i8], [35 x i8]* @.str.128, i32 0, i32 0), i32 295, i8* getelementptr inbounds ([68 x i8], [68 x i8]* @__PRETTY_FUNCTION__._ZNK6VectorIiEixEi, i32 0, i32 0)) #12
  unreachable
                                                  ; No predecessors!
  br label %14

; <label>:14:                                     ; preds = %13, %11
  %15 = getelementptr inbounds %class.Vector.5, %class.Vector.5* %5, i32 0, i32 0
  %16 = getelementptr inbounds %class.vector_memory.3, %class.vector_memory.3* %15, i32 0, i32 0
  %17 = load %struct.char_array.4*, %struct.char_array.4** %16, align 8
  %18 = load i32, i32* %4, align 4
  %19 = sext i32 %18 to i64
  %20 = getelementptr inbounds %struct.char_array.4, %struct.char_array.4* %17, i64 %19
  %21 = bitcast %struct.char_array.4* %20 to i32*
  ret i32* %21
}

; Function Attrs: noinline optnone uwtable
define linkonce_odr void @_ZN9BitvectorC2Ei(%class.Bitvector*, i32) unnamed_addr #2 comdat align 2 {
  %3 = alloca %class.Bitvector*, align 8
  %4 = alloca i32, align 4
  store %class.Bitvector* %0, %class.Bitvector** %3, align 8
  store i32 %1, i32* %4, align 4
  %5 = load %class.Bitvector*, %class.Bitvector** %3, align 8
  %6 = getelementptr inbounds %class.Bitvector, %class.Bitvector* %5, i32 0, i32 1
  %7 = getelementptr inbounds %class.Bitvector, %class.Bitvector* %5, i32 0, i32 2
  %8 = getelementptr inbounds [2 x i32], [2 x i32]* %7, i32 0, i32 0
  store i32* %8, i32** %6, align 8
  %9 = load i32, i32* %4, align 4
  %10 = icmp sge i32 %9, 0
  br i1 %10, label %11, label %12

; <label>:11:                                     ; preds = %2
  br label %14

; <label>:12:                                     ; preds = %2
  call void @__assert_fail(i8* getelementptr inbounds ([7 x i8], [7 x i8]* @.str.112, i32 0, i32 0), i8* getelementptr inbounds ([38 x i8], [38 x i8]* @.str.113, i32 0, i32 0), i32 136, i8* getelementptr inbounds ([26 x i8], [26 x i8]* @__PRETTY_FUNCTION__._ZN9BitvectorC2Ei, i32 0, i32 0)) #12
  unreachable
                                                  ; No predecessors!
  br label %14

; <label>:14:                                     ; preds = %13, %11
  %15 = load i32, i32* %4, align 4
  %16 = icmp sle i32 %15, 64
  br i1 %16, label %17, label %24

; <label>:17:                                     ; preds = %14
  %18 = load i32, i32* %4, align 4
  %19 = sub nsw i32 %18, 1
  %20 = getelementptr inbounds %class.Bitvector, %class.Bitvector* %5, i32 0, i32 0
  store i32 %19, i32* %20, align 8
  %21 = getelementptr inbounds %class.Bitvector, %class.Bitvector* %5, i32 0, i32 2
  %22 = getelementptr inbounds [2 x i32], [2 x i32]* %21, i32 0, i32 0
  %23 = bitcast i32* %22 to i8*
  call void @llvm.memset.p0i8.i64(i8* %23, i8 0, i64 8, i32 8, i1 false)
  br label %27

; <label>:24:                                     ; preds = %14
  %25 = getelementptr inbounds %class.Bitvector, %class.Bitvector* %5, i32 0, i32 0
  store i32 -1, i32* %25, align 8
  %26 = load i32, i32* %4, align 4
  call void @_ZN9Bitvector6resizeEi(%class.Bitvector* %5, i32 %26)
  br label %27

; <label>:27:                                     ; preds = %24, %17
  ret void
}

; Function Attrs: noinline nounwind optnone uwtable
define linkonce_odr %"struct.Router::Connection"* @_ZNK6VectorIN6Router10ConnectionEE5beginEv(%class.Vector.8*) #0 comdat align 2 {
  %2 = alloca %class.Vector.8*, align 8
  store %class.Vector.8* %0, %class.Vector.8** %2, align 8
  %3 = load %class.Vector.8*, %class.Vector.8** %2, align 8
  %4 = getelementptr inbounds %class.Vector.8, %class.Vector.8* %3, i32 0, i32 0
  %5 = getelementptr inbounds %class.vector_memory.9, %class.vector_memory.9* %4, i32 0, i32 0
  %6 = load %struct.char_array.10*, %struct.char_array.10** %5, align 8
  %7 = bitcast %struct.char_array.10* %6 to %"struct.Router::Connection"*
  ret %"struct.Router::Connection"* %7
}

; Function Attrs: noinline nounwind optnone uwtable
define linkonce_odr %"struct.Router::Connection"* @_ZNK6VectorIN6Router10ConnectionEE3endEv(%class.Vector.8*) #0 comdat align 2 {
  %2 = alloca %class.Vector.8*, align 8
  store %class.Vector.8* %0, %class.Vector.8** %2, align 8
  %3 = load %class.Vector.8*, %class.Vector.8** %2, align 8
  %4 = getelementptr inbounds %class.Vector.8, %class.Vector.8* %3, i32 0, i32 0
  %5 = getelementptr inbounds %class.vector_memory.9, %class.vector_memory.9* %4, i32 0, i32 0
  %6 = load %struct.char_array.10*, %struct.char_array.10** %5, align 8
  %7 = bitcast %struct.char_array.10* %6 to %"struct.Router::Connection"*
  %8 = getelementptr inbounds %class.Vector.8, %class.Vector.8* %3, i32 0, i32 0
  %9 = getelementptr inbounds %class.vector_memory.9, %class.vector_memory.9* %8, i32 0, i32 1
  %10 = load i32, i32* %9, align 8
  %11 = sext i32 %10 to i64
  %12 = getelementptr inbounds %"struct.Router::Connection", %"struct.Router::Connection"* %7, i64 %11
  ret %"struct.Router::Connection"* %12
}

; Function Attrs: noinline nounwind optnone uwtable
define linkonce_odr dereferenceable(8) %"struct.Router::Port"* @_ZNK6Router10ConnectionixEi(%"struct.Router::Connection"*, i32) #0 comdat align 2 {
  %3 = alloca %"struct.Router::Connection"*, align 8
  %4 = alloca i32, align 4
  store %"struct.Router::Connection"* %0, %"struct.Router::Connection"** %3, align 8
  store i32 %1, i32* %4, align 4
  %5 = load %"struct.Router::Connection"*, %"struct.Router::Connection"** %3, align 8
  %6 = load i32, i32* %4, align 4
  %7 = icmp sge i32 %6, 0
  br i1 %7, label %8, label %11

; <label>:8:                                      ; preds = %2
  %9 = load i32, i32* %4, align 4
  %10 = icmp slt i32 %9, 2
  br label %11

; <label>:11:                                     ; preds = %8, %2
  %12 = phi i1 [ false, %2 ], [ %10, %8 ]
  br i1 %12, label %13, label %14

; <label>:13:                                     ; preds = %11
  br label %16

; <label>:14:                                     ; preds = %11
  call void @__assert_fail(i8* getelementptr inbounds ([16 x i8], [16 x i8]* @.str.114, i32 0, i32 0), i8* getelementptr inbounds ([35 x i8], [35 x i8]* @.str.115, i32 0, i32 0), i32 180, i8* getelementptr inbounds ([62 x i8], [62 x i8]* @__PRETTY_FUNCTION__._ZNK6Router10ConnectionixEi, i32 0, i32 0)) #12
  unreachable
                                                  ; No predecessors!
  br label %16

; <label>:16:                                     ; preds = %15, %13
  %17 = getelementptr inbounds %"struct.Router::Connection", %"struct.Router::Connection"* %5, i32 0, i32 0
  %18 = load i32, i32* %4, align 4
  %19 = sext i32 %18 to i64
  %20 = getelementptr inbounds [2 x %"struct.Router::Port"], [2 x %"struct.Router::Port"]* %17, i64 0, i64 %19
  ret %"struct.Router::Port"* %20
}

; Function Attrs: noinline optnone uwtable
define linkonce_odr { i32*, i32 } @_ZN9BitvectorixEi(%class.Bitvector*, i32) #2 comdat align 2 {
  %3 = alloca %"class.Bitvector::Bit", align 8
  %4 = alloca %class.Bitvector*, align 8
  %5 = alloca i32, align 4
  store %class.Bitvector* %0, %class.Bitvector** %4, align 8
  store i32 %1, i32* %5, align 4
  %6 = load %class.Bitvector*, %class.Bitvector** %4, align 8
  %7 = load i32, i32* %5, align 4
  %8 = icmp sge i32 %7, 0
  br i1 %8, label %9, label %14

; <label>:9:                                      ; preds = %2
  %10 = load i32, i32* %5, align 4
  %11 = getelementptr inbounds %class.Bitvector, %class.Bitvector* %6, i32 0, i32 0
  %12 = load i32, i32* %11, align 8
  %13 = icmp sle i32 %10, %12
  br label %14

; <label>:14:                                     ; preds = %9, %2
  %15 = phi i1 [ false, %2 ], [ %13, %9 ]
  br i1 %15, label %16, label %17

; <label>:16:                                     ; preds = %14
  br label %19

; <label>:17:                                     ; preds = %14
  call void @__assert_fail(i8* getelementptr inbounds ([20 x i8], [20 x i8]* @.str.116, i32 0, i32 0), i8* getelementptr inbounds ([38 x i8], [38 x i8]* @.str.113, i32 0, i32 0), i32 196, i8* getelementptr inbounds ([42 x i8], [42 x i8]* @__PRETTY_FUNCTION__._ZN9BitvectorixEi, i32 0, i32 0)) #12
  unreachable
                                                  ; No predecessors!
  br label %19

; <label>:19:                                     ; preds = %18, %16
  %20 = getelementptr inbounds %class.Bitvector, %class.Bitvector* %6, i32 0, i32 1
  %21 = load i32*, i32** %20, align 8
  %22 = load i32, i32* %5, align 4
  %23 = ashr i32 %22, 5
  %24 = sext i32 %23 to i64
  %25 = getelementptr inbounds i32, i32* %21, i64 %24
  %26 = load i32, i32* %5, align 4
  %27 = and i32 %26, 31
  call void @_ZN9Bitvector3BitC2ERji(%"class.Bitvector::Bit"* %3, i32* dereferenceable(4) %25, i32 %27)
  %28 = bitcast %"class.Bitvector::Bit"* %3 to { i32*, i32 }*
  %29 = load { i32*, i32 }, { i32*, i32 }* %28, align 8
  ret { i32*, i32 } %29
}

; Function Attrs: noinline nounwind optnone uwtable
define linkonce_odr dereferenceable(16) %"class.Bitvector::Bit"* @_ZN9Bitvector3BitaSEb(%"class.Bitvector::Bit"*, i1 zeroext) #0 comdat align 2 {
  %3 = alloca %"class.Bitvector::Bit"*, align 8
  %4 = alloca i8, align 1
  store %"class.Bitvector::Bit"* %0, %"class.Bitvector::Bit"** %3, align 8
  %5 = zext i1 %1 to i8
  store i8 %5, i8* %4, align 1
  %6 = load %"class.Bitvector::Bit"*, %"class.Bitvector::Bit"** %3, align 8
  %7 = load i8, i8* %4, align 1
  %8 = trunc i8 %7 to i1
  br i1 %8, label %9, label %16

; <label>:9:                                      ; preds = %2
  %10 = getelementptr inbounds %"class.Bitvector::Bit", %"class.Bitvector::Bit"* %6, i32 0, i32 1
  %11 = load i32, i32* %10, align 8
  %12 = getelementptr inbounds %"class.Bitvector::Bit", %"class.Bitvector::Bit"* %6, i32 0, i32 0
  %13 = load i32*, i32** %12, align 8
  %14 = load i32, i32* %13, align 4
  %15 = or i32 %14, %11
  store i32 %15, i32* %13, align 4
  br label %24

; <label>:16:                                     ; preds = %2
  %17 = getelementptr inbounds %"class.Bitvector::Bit", %"class.Bitvector::Bit"* %6, i32 0, i32 1
  %18 = load i32, i32* %17, align 8
  %19 = xor i32 %18, -1
  %20 = getelementptr inbounds %"class.Bitvector::Bit", %"class.Bitvector::Bit"* %6, i32 0, i32 0
  %21 = load i32*, i32** %20, align 8
  %22 = load i32, i32* %21, align 4
  %23 = and i32 %22, %19
  store i32 %23, i32* %21, align 4
  br label %24

; <label>:24:                                     ; preds = %16, %9
  ret %"class.Bitvector::Bit"* %6
}

declare i32 @_ZN12ErrorHandler5errorEPKcz(%class.ErrorHandler*, i8*, ...) #3

; Function Attrs: noinline nounwind optnone uwtable
define linkonce_odr i32 @_ZNK9Bitvector4sizeEv(%class.Bitvector*) #0 comdat align 2 {
  %2 = alloca %class.Bitvector*, align 8
  store %class.Bitvector* %0, %class.Bitvector** %2, align 8
  %3 = load %class.Bitvector*, %class.Bitvector** %2, align 8
  %4 = getelementptr inbounds %class.Bitvector, %class.Bitvector* %3, i32 0, i32 0
  %5 = load i32, i32* %4, align 8
  %6 = add nsw i32 %5, 1
  ret i32 %6
}

; Function Attrs: noinline nounwind optnone uwtable
define linkonce_odr zeroext i1 @_ZNK9Bitvector3BitcvbEv(%"class.Bitvector::Bit"*) #0 comdat align 2 {
  %2 = alloca %"class.Bitvector::Bit"*, align 8
  store %"class.Bitvector::Bit"* %0, %"class.Bitvector::Bit"** %2, align 8
  %3 = load %"class.Bitvector::Bit"*, %"class.Bitvector::Bit"** %2, align 8
  %4 = getelementptr inbounds %"class.Bitvector::Bit", %"class.Bitvector::Bit"* %3, i32 0, i32 0
  %5 = load i32*, i32** %4, align 8
  %6 = load i32, i32* %5, align 4
  %7 = getelementptr inbounds %"class.Bitvector::Bit", %"class.Bitvector::Bit"* %3, i32 0, i32 1
  %8 = load i32, i32* %7, align 8
  %9 = and i32 %6, %8
  %10 = icmp ne i32 %9, 0
  ret i1 %10
}

; Function Attrs: noinline nounwind optnone uwtable
define linkonce_odr void @_ZN9BitvectorD2Ev(%class.Bitvector*) unnamed_addr #0 comdat align 2 {
  %2 = alloca %class.Bitvector*, align 8
  store %class.Bitvector* %0, %class.Bitvector** %2, align 8
  %3 = load %class.Bitvector*, %class.Bitvector** %2, align 8
  %4 = getelementptr inbounds %class.Bitvector, %class.Bitvector* %3, i32 0, i32 1
  %5 = load i32*, i32** %4, align 8
  %6 = getelementptr inbounds %class.Bitvector, %class.Bitvector* %3, i32 0, i32 2
  %7 = getelementptr inbounds [2 x i32], [2 x i32]* %6, i32 0, i32 0
  %8 = icmp ne i32* %5, %7
  br i1 %8, label %9, label %16

; <label>:9:                                      ; preds = %1
  %10 = getelementptr inbounds %class.Bitvector, %class.Bitvector* %3, i32 0, i32 1
  %11 = load i32*, i32** %10, align 8
  %12 = icmp eq i32* %11, null
  br i1 %12, label %15, label %13

; <label>:13:                                     ; preds = %9
  %14 = bitcast i32* %11 to i8*
  call void @_ZdaPv(i8* %14) #14
  br label %15

; <label>:15:                                     ; preds = %13, %9
  br label %16

; <label>:16:                                     ; preds = %15, %1
  ret void
}

; Function Attrs: noinline optnone uwtable
define void @_ZN5Lexer8Compound6finishEP12ErrorHandler(%"class.Lexer::Compound"*, %class.ErrorHandler*) #2 align 2 personality i8* bitcast (i32 (...)* @__gxx_personality_v0 to i8*) {
  %3 = alloca %"class.Lexer::Compound"*, align 8
  %4 = alloca %class.ErrorHandler*, align 8
  %5 = alloca %class.LandmarkErrorHandler, align 8
  %6 = alloca i8*
  %7 = alloca i32
  %8 = alloca i32, align 4
  %9 = alloca %class.String, align 8
  store %"class.Lexer::Compound"* %0, %"class.Lexer::Compound"** %3, align 8
  store %class.ErrorHandler* %1, %class.ErrorHandler** %4, align 8
  %10 = load %"class.Lexer::Compound"*, %"class.Lexer::Compound"** %3, align 8
  %11 = getelementptr inbounds %"class.Lexer::Compound", %"class.Lexer::Compound"* %10, i32 0, i32 12
  %12 = call dereferenceable(24) %class.String* @_ZN6VectorI6StringEixEi(%class.Vector.0* %11, i32 0)
  %13 = call zeroext i1 @_ZeqRK6StringPKc(%class.String* dereferenceable(24) %12, i8* getelementptr inbounds ([6 x i8], [6 x i8]* @.str.6, i32 0, i32 0))
  br i1 %13, label %14, label %18

; <label>:14:                                     ; preds = %2
  %15 = getelementptr inbounds %"class.Lexer::Compound", %"class.Lexer::Compound"* %10, i32 0, i32 12
  %16 = call dereferenceable(24) %class.String* @_ZN6VectorI6StringEixEi(%class.Vector.0* %15, i32 1)
  %17 = call zeroext i1 @_ZeqRK6StringPKc(%class.String* dereferenceable(24) %16, i8* getelementptr inbounds ([7 x i8], [7 x i8]* @.str.7, i32 0, i32 0))
  br label %18

; <label>:18:                                     ; preds = %14, %2
  %19 = phi i1 [ false, %2 ], [ %17, %14 ]
  br i1 %19, label %20, label %21

; <label>:20:                                     ; preds = %18
  br label %23

; <label>:21:                                     ; preds = %18
  call void @__assert_fail(i8* getelementptr inbounds ([62 x i8], [62 x i8]* @.str.8, i32 0, i32 0), i8* getelementptr inbounds ([25 x i8], [25 x i8]* @.str.1, i32 0, i32 0), i32 280, i8* getelementptr inbounds ([45 x i8], [45 x i8]* @__PRETTY_FUNCTION__._ZN5Lexer8Compound6finishEP12ErrorHandler, i32 0, i32 0)) #12
  unreachable
                                                  ; No predecessors!
  br label %23

; <label>:23:                                     ; preds = %22, %20
  %24 = load %class.ErrorHandler*, %class.ErrorHandler** %4, align 8
  %25 = getelementptr inbounds %"class.Lexer::Compound", %"class.Lexer::Compound"* %10, i32 0, i32 2
  call void @_ZN20LandmarkErrorHandlerC1EP12ErrorHandlerRK6String(%class.LandmarkErrorHandler* %5, %class.ErrorHandler* %24, %class.String* dereferenceable(24) %25)
  %26 = invoke i8* @_ZN5Lexer8Compound20printable_name_c_strEv(%"class.Lexer::Compound"* %10)
          to label %27 unwind label %56

; <label>:27:                                     ; preds = %23
  %28 = bitcast %class.LandmarkErrorHandler* %5 to %class.ErrorHandler*
  %29 = invoke i32 @_ZNK5Lexer8Compound19check_pseudoelementEibPKcP12ErrorHandler(%"class.Lexer::Compound"* %10, i32 0, i1 zeroext false, i8* %26, %class.ErrorHandler* %28)
          to label %30 unwind label %56

; <label>:30:                                     ; preds = %27
  %31 = getelementptr inbounds %"class.Lexer::Compound", %"class.Lexer::Compound"* %10, i32 0, i32 6
  store i32 %29, i32* %31, align 4
  %32 = invoke i8* @_ZN5Lexer8Compound20printable_name_c_strEv(%"class.Lexer::Compound"* %10)
          to label %33 unwind label %56

; <label>:33:                                     ; preds = %30
  %34 = bitcast %class.LandmarkErrorHandler* %5 to %class.ErrorHandler*
  %35 = invoke i32 @_ZNK5Lexer8Compound19check_pseudoelementEibPKcP12ErrorHandler(%"class.Lexer::Compound"* %10, i32 1, i1 zeroext true, i8* %32, %class.ErrorHandler* %34)
          to label %36 unwind label %56

; <label>:36:                                     ; preds = %33
  %37 = getelementptr inbounds %"class.Lexer::Compound", %"class.Lexer::Compound"* %10, i32 0, i32 7
  store i32 %35, i32* %37, align 8
  store i32 0, i32* %8, align 4
  br label %38

; <label>:38:                                     ; preds = %61, %36
  %39 = load i32, i32* %8, align 4
  %40 = getelementptr inbounds %"class.Lexer::Compound", %"class.Lexer::Compound"* %10, i32 0, i32 11
  %41 = invoke i32 @_ZNK6VectorIiE4sizeEv(%class.Vector.5* %40)
          to label %42 unwind label %56

; <label>:42:                                     ; preds = %38
  %43 = icmp slt i32 %39, %41
  br i1 %43, label %44, label %64

; <label>:44:                                     ; preds = %42
  %45 = getelementptr inbounds %"class.Lexer::Compound", %"class.Lexer::Compound"* %10, i32 0, i32 12
  %46 = load i32, i32* %8, align 4
  %47 = invoke dereferenceable(24) %class.String* @_ZN6VectorI6StringEixEi(%class.Vector.0* %45, i32 %46)
          to label %48 unwind label %56

; <label>:48:                                     ; preds = %44
  %49 = invoke signext i8 @_ZNK6StringixEi(%class.String* %47, i32 0)
          to label %50 unwind label %56

; <label>:50:                                     ; preds = %48
  %51 = sext i8 %49 to i32
  %52 = icmp eq i32 %51, 59
  br i1 %52, label %53, label %60

; <label>:53:                                     ; preds = %50
  %54 = load i32, i32* %8, align 4
  invoke void @_ZN5Lexer8Compound24deanonymize_element_nameEi(%class.String* sret %9, %"class.Lexer::Compound"* %10, i32 %54)
          to label %55 unwind label %56

; <label>:55:                                     ; preds = %53
  call void @_ZN6StringD2Ev(%class.String* %9) #9
  br label %60

; <label>:56:                                     ; preds = %53, %48, %44, %38, %33, %30, %27, %23
  %57 = landingpad { i8*, i32 }
          cleanup
  %58 = extractvalue { i8*, i32 } %57, 0
  store i8* %58, i8** %6, align 8
  %59 = extractvalue { i8*, i32 } %57, 1
  store i32 %59, i32* %7, align 4
  call void @_ZN20LandmarkErrorHandlerD2Ev(%class.LandmarkErrorHandler* %5) #9
  br label %65

; <label>:60:                                     ; preds = %55, %50
  br label %61

; <label>:61:                                     ; preds = %60
  %62 = load i32, i32* %8, align 4
  %63 = add nsw i32 %62, 1
  store i32 %63, i32* %8, align 4
  br label %38

; <label>:64:                                     ; preds = %42
  call void @_ZN20LandmarkErrorHandlerD2Ev(%class.LandmarkErrorHandler* %5) #9
  ret void

; <label>:65:                                     ; preds = %56
  %66 = load i8*, i8** %6, align 8
  %67 = load i32, i32* %7, align 4
  %68 = insertvalue { i8*, i32 } undef, i8* %66, 0
  %69 = insertvalue { i8*, i32 } %68, i32 %67, 1
  resume { i8*, i32 } %69
}

; Function Attrs: noinline nounwind optnone uwtable
define linkonce_odr dereferenceable(24) %class.String* @_ZN6VectorI6StringEixEi(%class.Vector.0*, i32) #0 comdat align 2 {
  %3 = alloca %class.Vector.0*, align 8
  %4 = alloca i32, align 4
  store %class.Vector.0* %0, %class.Vector.0** %3, align 8
  store i32 %1, i32* %4, align 4
  %5 = load %class.Vector.0*, %class.Vector.0** %3, align 8
  %6 = load i32, i32* %4, align 4
  %7 = getelementptr inbounds %class.Vector.0, %class.Vector.0* %5, i32 0, i32 0
  %8 = getelementptr inbounds %class.vector_memory.1, %class.vector_memory.1* %7, i32 0, i32 1
  %9 = load i32, i32* %8, align 8
  %10 = icmp ult i32 %6, %9
  br i1 %10, label %11, label %12

; <label>:11:                                     ; preds = %2
  br label %14

; <label>:12:                                     ; preds = %2
  call void @__assert_fail(i8* getelementptr inbounds ([33 x i8], [33 x i8]* @.str.127, i32 0, i32 0), i8* getelementptr inbounds ([35 x i8], [35 x i8]* @.str.128, i32 0, i32 0), i32 288, i8* getelementptr inbounds ([62 x i8], [62 x i8]* @__PRETTY_FUNCTION__._ZN6VectorI6StringEixEi, i32 0, i32 0)) #12
  unreachable
                                                  ; No predecessors!
  br label %14

; <label>:14:                                     ; preds = %13, %11
  %15 = getelementptr inbounds %class.Vector.0, %class.Vector.0* %5, i32 0, i32 0
  %16 = getelementptr inbounds %class.vector_memory.1, %class.vector_memory.1* %15, i32 0, i32 0
  %17 = load %class.String*, %class.String** %16, align 8
  %18 = load i32, i32* %4, align 4
  %19 = sext i32 %18 to i64
  %20 = getelementptr inbounds %class.String, %class.String* %17, i64 %19
  ret %class.String* %20
}

declare void @_ZN20LandmarkErrorHandlerC1EP12ErrorHandlerRK6String(%class.LandmarkErrorHandler*, %class.ErrorHandler*, %class.String* dereferenceable(24)) unnamed_addr #3

; Function Attrs: noinline nounwind optnone uwtable
define linkonce_odr i32 @_ZNK6VectorIiE4sizeEv(%class.Vector.5*) #0 comdat align 2 {
  %2 = alloca %class.Vector.5*, align 8
  store %class.Vector.5* %0, %class.Vector.5** %2, align 8
  %3 = load %class.Vector.5*, %class.Vector.5** %2, align 8
  %4 = getelementptr inbounds %class.Vector.5, %class.Vector.5* %3, i32 0, i32 0
  %5 = getelementptr inbounds %class.vector_memory.3, %class.vector_memory.3* %4, i32 0, i32 1
  %6 = load i32, i32* %5, align 8
  ret i32 %6
}

; Function Attrs: noinline nounwind optnone uwtable
define linkonce_odr signext i8 @_ZNK6StringixEi(%class.String*, i32) #0 comdat align 2 {
  %3 = alloca %class.String*, align 8
  %4 = alloca i32, align 4
  store %class.String* %0, %class.String** %3, align 8
  store i32 %1, i32* %4, align 4
  %5 = load %class.String*, %class.String** %3, align 8
  %6 = getelementptr inbounds %class.String, %class.String* %5, i32 0, i32 0
  %7 = getelementptr inbounds %"struct.String::rep_t", %"struct.String::rep_t"* %6, i32 0, i32 0
  %8 = load i8*, i8** %7, align 8
  %9 = load i32, i32* %4, align 4
  %10 = sext i32 %9 to i64
  %11 = getelementptr inbounds i8, i8* %8, i64 %10
  %12 = load i8, i8* %11, align 1
  ret i8 %12
}

; Function Attrs: noinline optnone uwtable
define void @_ZN5Lexer8Compound24deanonymize_element_nameEi(%class.String* noalias sret, %"class.Lexer::Compound"*, i32) #2 align 2 personality i8* bitcast (i32 (...)* @__gxx_personality_v0 to i8*) {
  %4 = alloca %"class.Lexer::Compound"*, align 8
  %5 = alloca i32, align 4
  %6 = alloca i1, align 1
  %7 = alloca i8*
  %8 = alloca i32
  %9 = alloca i32, align 4
  %10 = alloca %class.String, align 8
  %11 = alloca i8*, align 8
  %12 = alloca i8*, align 8
  %13 = alloca i32, align 4
  %14 = alloca %class.IntArg, align 4
  %15 = alloca %class.String, align 8
  %16 = alloca %class.String, align 8
  %17 = alloca %class.String, align 8
  %18 = alloca %class.String, align 8
  store %"class.Lexer::Compound"* %1, %"class.Lexer::Compound"** %4, align 8
  store i32 %2, i32* %5, align 4
  %19 = load %"class.Lexer::Compound"*, %"class.Lexer::Compound"** %4, align 8
  store i1 false, i1* %6, align 1
  %20 = getelementptr inbounds %"class.Lexer::Compound", %"class.Lexer::Compound"* %19, i32 0, i32 12
  %21 = load i32, i32* %5, align 4
  %22 = call dereferenceable(24) %class.String* @_ZN6VectorI6StringEixEi(%class.Vector.0* %20, i32 %21)
  call void @_ZNK6String9substringEi(%class.String* sret %0, %class.String* %22, i32 1)
  %23 = getelementptr inbounds %"class.Lexer::Compound", %"class.Lexer::Compound"* %19, i32 0, i32 10
  %24 = invoke dereferenceable(4) i32* @_ZN9HashTableI6StringiEixERKS0_(%class.HashTable* %23, %class.String* dereferenceable(24) %0)
          to label %25 unwind label %35

; <label>:25:                                     ; preds = %3
  %26 = load i32, i32* %24, align 4
  %27 = icmp sge i32 %26, 0
  br i1 %27, label %28, label %113

; <label>:28:                                     ; preds = %25
  %29 = invoke i32 @_ZNK6String10find_rightEci(%class.String* %0, i8 signext 64, i32 2147483647)
          to label %30 unwind label %35

; <label>:30:                                     ; preds = %28
  store i32 %29, i32* %9, align 4
  %31 = load i32, i32* %9, align 4
  %32 = icmp sge i32 %31, 0
  br i1 %32, label %33, label %34

; <label>:33:                                     ; preds = %30
  br label %40

; <label>:34:                                     ; preds = %30
  call void @__assert_fail(i8* getelementptr inbounds ([12 x i8], [12 x i8]* @.str.49, i32 0, i32 0), i8* getelementptr inbounds ([25 x i8], [25 x i8]* @.str.1, i32 0, i32 0), i32 1147, i8* getelementptr inbounds ([54 x i8], [54 x i8]* @__PRETTY_FUNCTION__._ZN5Lexer8Compound24deanonymize_element_nameEi, i32 0, i32 0)) #12
  unreachable

; <label>:35:                                     ; preds = %120, %116, %113, %40, %28, %3
  %36 = landingpad { i8*, i32 }
          cleanup
  %37 = extractvalue { i8*, i32 } %36, 0
  store i8* %37, i8** %7, align 8
  %38 = extractvalue { i8*, i32 } %36, 1
  store i32 %38, i32* %8, align 4
  br label %126
                                                  ; No predecessors!
  br label %40

; <label>:40:                                     ; preds = %39, %33
  %41 = load i32, i32* %9, align 4
  %42 = add nsw i32 %41, 1
  invoke void @_ZNK6String9substringEii(%class.String* sret %10, %class.String* %0, i32 0, i32 %42)
          to label %43 unwind label %35

; <label>:43:                                     ; preds = %40
  %44 = invoke i8* @_ZNK6String5beginEv(%class.String* %0)
          to label %45 unwind label %67

; <label>:45:                                     ; preds = %43
  %46 = load i32, i32* %9, align 4
  %47 = sext i32 %46 to i64
  %48 = getelementptr inbounds i8, i8* %44, i64 %47
  %49 = getelementptr inbounds i8, i8* %48, i64 1
  store i8* %49, i8** %11, align 8
  %50 = load i8*, i8** %11, align 8
  store i8* %50, i8** %12, align 8
  br label %51

; <label>:51:                                     ; preds = %64, %45
  %52 = load i8*, i8** %12, align 8
  %53 = invoke i8* @_ZNK6String3endEv(%class.String* %0)
          to label %54 unwind label %67

; <label>:54:                                     ; preds = %51
  %55 = icmp ult i8* %52, %53
  br i1 %55, label %56, label %62

; <label>:56:                                     ; preds = %54
  %57 = load i8*, i8** %12, align 8
  %58 = load i8, i8* %57, align 1
  %59 = zext i8 %58 to i32
  %60 = call i32 @isdigit(i32 %59) #13
  %61 = icmp ne i32 %60, 0
  br label %62

; <label>:62:                                     ; preds = %56, %54
  %63 = phi i1 [ false, %54 ], [ %61, %56 ]
  br i1 %63, label %64, label %71

; <label>:64:                                     ; preds = %62
  %65 = load i8*, i8** %12, align 8
  %66 = getelementptr inbounds i8, i8* %65, i32 1
  store i8* %66, i8** %12, align 8
  br label %51

; <label>:67:                                     ; preds = %87, %78, %72, %71, %51, %43
  %68 = landingpad { i8*, i32 }
          cleanup
  %69 = extractvalue { i8*, i32 } %68, 0
  store i8* %69, i8** %7, align 8
  %70 = extractvalue { i8*, i32 } %68, 1
  store i32 %70, i32* %8, align 4
  br label %112

; <label>:71:                                     ; preds = %62
  store i32 0, i32* %13, align 4
  invoke void @_ZN6IntArgC2Ei(%class.IntArg* %14, i32 10)
          to label %72 unwind label %67

; <label>:72:                                     ; preds = %71
  %73 = load i8*, i8** %11, align 8
  %74 = load i8*, i8** %12, align 8
  invoke void @_ZNK6String9substringEPKcS1_(%class.String* sret %15, %class.String* %0, i8* %73, i8* %74)
          to label %75 unwind label %67

; <label>:75:                                     ; preds = %72
  %76 = invoke zeroext i1 @_ZN6IntArg5parseIiEEbRK6StringRT_RK10ArgContext(%class.IntArg* %14, %class.String* dereferenceable(24) %15, i32* dereferenceable(4) %13, %class.ArgContext* dereferenceable(32) @blank_args)
          to label %77 unwind label %94

; <label>:77:                                     ; preds = %75
  call void @_ZN6StringD2Ev(%class.String* %15) #9
  br label %78

; <label>:78:                                     ; preds = %90, %77
  %79 = load i32, i32* %13, align 4
  %80 = add nsw i32 %79, 1
  store i32 %80, i32* %13, align 4
  invoke void @_ZN6StringC2ERKS_(%class.String* %17, %class.String* dereferenceable(24) %10)
          to label %81 unwind label %67

; <label>:81:                                     ; preds = %78
  %82 = load i32, i32* %13, align 4
  invoke void @_ZN6StringC1Ei(%class.String* %18, i32 %82)
          to label %83 unwind label %98

; <label>:83:                                     ; preds = %81
  invoke void @_Zpl6StringRKS_(%class.String* sret %16, %class.String* %17, %class.String* dereferenceable(24) %18)
          to label %84 unwind label %102

; <label>:84:                                     ; preds = %83
  %85 = invoke dereferenceable(24) %class.String* @_ZN6StringaSEOS_(%class.String* %0, %class.String* dereferenceable(24) %16)
          to label %86 unwind label %106

; <label>:86:                                     ; preds = %84
  call void @_ZN6StringD2Ev(%class.String* %16) #9
  call void @_ZN6StringD2Ev(%class.String* %18) #9
  call void @_ZN6StringD2Ev(%class.String* %17) #9
  br label %87

; <label>:87:                                     ; preds = %86
  %88 = getelementptr inbounds %"class.Lexer::Compound", %"class.Lexer::Compound"* %19, i32 0, i32 10
  %89 = invoke dereferenceable(4) i32* @_ZN9HashTableI6StringiEixERKS0_(%class.HashTable* %88, %class.String* dereferenceable(24) %0)
          to label %90 unwind label %67

; <label>:90:                                     ; preds = %87
  %91 = load i32, i32* %89, align 4
  %92 = icmp sge i32 %91, 0
  br i1 %92, label %78, label %93

; <label>:93:                                     ; preds = %90
  call void @_ZN6StringD2Ev(%class.String* %10) #9
  br label %113

; <label>:94:                                     ; preds = %75
  %95 = landingpad { i8*, i32 }
          cleanup
  %96 = extractvalue { i8*, i32 } %95, 0
  store i8* %96, i8** %7, align 8
  %97 = extractvalue { i8*, i32 } %95, 1
  store i32 %97, i32* %8, align 4
  call void @_ZN6StringD2Ev(%class.String* %15) #9
  br label %112

; <label>:98:                                     ; preds = %81
  %99 = landingpad { i8*, i32 }
          cleanup
  %100 = extractvalue { i8*, i32 } %99, 0
  store i8* %100, i8** %7, align 8
  %101 = extractvalue { i8*, i32 } %99, 1
  store i32 %101, i32* %8, align 4
  br label %111

; <label>:102:                                    ; preds = %83
  %103 = landingpad { i8*, i32 }
          cleanup
  %104 = extractvalue { i8*, i32 } %103, 0
  store i8* %104, i8** %7, align 8
  %105 = extractvalue { i8*, i32 } %103, 1
  store i32 %105, i32* %8, align 4
  br label %110

; <label>:106:                                    ; preds = %84
  %107 = landingpad { i8*, i32 }
          cleanup
  %108 = extractvalue { i8*, i32 } %107, 0
  store i8* %108, i8** %7, align 8
  %109 = extractvalue { i8*, i32 } %107, 1
  store i32 %109, i32* %8, align 4
  call void @_ZN6StringD2Ev(%class.String* %16) #9
  br label %110

; <label>:110:                                    ; preds = %106, %102
  call void @_ZN6StringD2Ev(%class.String* %18) #9
  br label %111

; <label>:111:                                    ; preds = %110, %98
  call void @_ZN6StringD2Ev(%class.String* %17) #9
  br label %112

; <label>:112:                                    ; preds = %111, %94, %67
  call void @_ZN6StringD2Ev(%class.String* %10) #9
  br label %126

; <label>:113:                                    ; preds = %93, %25
  %114 = getelementptr inbounds %"class.Lexer::Compound", %"class.Lexer::Compound"* %19, i32 0, i32 10
  %115 = invoke zeroext i1 @_ZN9HashTableI6StringiE3setERKS0_RKi(%class.HashTable* %114, %class.String* dereferenceable(24) %0, i32* dereferenceable(4) %5)
          to label %116 unwind label %35

; <label>:116:                                    ; preds = %113
  %117 = getelementptr inbounds %"class.Lexer::Compound", %"class.Lexer::Compound"* %19, i32 0, i32 12
  %118 = load i32, i32* %5, align 4
  %119 = invoke dereferenceable(24) %class.String* @_ZN6VectorI6StringEixEi(%class.Vector.0* %117, i32 %118)
          to label %120 unwind label %35

; <label>:120:                                    ; preds = %116
  %121 = invoke dereferenceable(24) %class.String* @_ZN6StringaSERKS_(%class.String* %119, %class.String* dereferenceable(24) %0)
          to label %122 unwind label %35

; <label>:122:                                    ; preds = %120
  store i1 true, i1* %6, align 1
  %123 = load i1, i1* %6, align 1
  br i1 %123, label %125, label %124

; <label>:124:                                    ; preds = %122
  call void @_ZN6StringD2Ev(%class.String* %0) #9
  br label %125

; <label>:125:                                    ; preds = %124, %122
  ret void

; <label>:126:                                    ; preds = %112, %35
  call void @_ZN6StringD2Ev(%class.String* %0) #9
  br label %127

; <label>:127:                                    ; preds = %126
  %128 = load i8*, i8** %7, align 8
  %129 = load i32, i32* %8, align 4
  %130 = insertvalue { i8*, i32 } undef, i8* %128, 0
  %131 = insertvalue { i8*, i32 } %130, i32 %129, 1
  resume { i8*, i32 } %131
}

; Function Attrs: noinline nounwind optnone uwtable
define linkonce_odr void @_ZN20LandmarkErrorHandlerD2Ev(%class.LandmarkErrorHandler*) unnamed_addr #0 comdat align 2 {
  %2 = alloca %class.LandmarkErrorHandler*, align 8
  store %class.LandmarkErrorHandler* %0, %class.LandmarkErrorHandler** %2, align 8
  %3 = load %class.LandmarkErrorHandler*, %class.LandmarkErrorHandler** %2, align 8
  %4 = bitcast %class.LandmarkErrorHandler* %3 to i32 (...)***
  store i32 (...)** bitcast (i8** getelementptr inbounds ({ [9 x i8*] }, { [9 x i8*] }* @_ZTV20LandmarkErrorHandler, i32 0, inrange i32 0, i32 2) to i32 (...)**), i32 (...)*** %4, align 8
  %5 = getelementptr inbounds %class.LandmarkErrorHandler, %class.LandmarkErrorHandler* %3, i32 0, i32 1
  call void @_ZN6StringD2Ev(%class.String* %5) #9
  %6 = bitcast %class.LandmarkErrorHandler* %3 to %class.ErrorVeneer*
  call void @_ZN11ErrorVeneerD2Ev(%class.ErrorVeneer* %6) #9
  ret void
}

; Function Attrs: noinline optnone uwtable
define i32 @_ZN5Lexer8Compound7resolveEPS_iiiR6VectorI6StringEP12ErrorHandlerRKS3_(%"class.Lexer::Compound"*, %class.Lexer*, i32, i32, i32, %class.Vector.0* dereferenceable(16), %class.ErrorHandler*, %class.String* dereferenceable(24)) #2 align 2 personality i8* bitcast (i32 (...)* @__gxx_personality_v0 to i8*) {
  %9 = alloca i32, align 4
  %10 = alloca %"class.Lexer::Compound"*, align 8
  %11 = alloca %class.Lexer*, align 8
  %12 = alloca i32, align 4
  %13 = alloca i32, align 4
  %14 = alloca i32, align 4
  %15 = alloca %class.Vector.0*, align 8
  %16 = alloca %class.ErrorHandler*, align 8
  %17 = alloca %class.String*, align 8
  %18 = alloca %"class.Lexer::Compound"*, align 8
  %19 = alloca i32, align 4
  %20 = alloca i32, align 4
  %21 = alloca %"class.Lexer::Compound"*, align 8
  %22 = alloca %class.String, align 8
  %23 = alloca i8*
  %24 = alloca i32
  %25 = alloca %class.ContextErrorHandler, align 8
  %26 = alloca %class.String, align 8
  store %"class.Lexer::Compound"* %0, %"class.Lexer::Compound"** %10, align 8
  store %class.Lexer* %1, %class.Lexer** %11, align 8
  store i32 %2, i32* %12, align 4
  store i32 %3, i32* %13, align 4
  store i32 %4, i32* %14, align 4
  store %class.Vector.0* %5, %class.Vector.0** %15, align 8
  store %class.ErrorHandler* %6, %class.ErrorHandler** %16, align 8
  store %class.String* %7, %class.String** %17, align 8
  %27 = load %"class.Lexer::Compound"*, %"class.Lexer::Compound"** %10, align 8
  store %"class.Lexer::Compound"* %27, %"class.Lexer::Compound"** %18, align 8
  store i32 -1, i32* %19, align 4
  store i32 0, i32* %20, align 4
  br label %28

; <label>:28:                                     ; preds = %82, %8
  %29 = load %"class.Lexer::Compound"*, %"class.Lexer::Compound"** %18, align 8
  %30 = icmp ne %"class.Lexer::Compound"* %29, null
  br i1 %30, label %31, label %83

; <label>:31:                                     ; preds = %28
  %32 = load i32, i32* %20, align 4
  %33 = add nsw i32 %32, 1
  store i32 %33, i32* %20, align 4
  %34 = load %"class.Lexer::Compound"*, %"class.Lexer::Compound"** %18, align 8
  %35 = getelementptr inbounds %"class.Lexer::Compound", %"class.Lexer::Compound"* %34, i32 0, i32 6
  %36 = load i32, i32* %35, align 4
  %37 = load i32, i32* %13, align 4
  %38 = icmp eq i32 %36, %37
  br i1 %38, label %39, label %53

; <label>:39:                                     ; preds = %31
  %40 = load %"class.Lexer::Compound"*, %"class.Lexer::Compound"** %18, align 8
  %41 = getelementptr inbounds %"class.Lexer::Compound", %"class.Lexer::Compound"* %40, i32 0, i32 7
  %42 = load i32, i32* %41, align 8
  %43 = load i32, i32* %14, align 4
  %44 = icmp eq i32 %42, %43
  br i1 %44, label %45, label %53

; <label>:45:                                     ; preds = %39
  %46 = load %"class.Lexer::Compound"*, %"class.Lexer::Compound"** %18, align 8
  %47 = load %class.Vector.0*, %class.Vector.0** %15, align 8
  %48 = load %class.Vector.0*, %class.Vector.0** %15, align 8
  %49 = call i32 @_ZNK5Lexer8Compound16assign_argumentsERK6VectorI6StringEPS3_(%"class.Lexer::Compound"* %46, %class.Vector.0* dereferenceable(16) %47, %class.Vector.0* %48)
  %50 = icmp sge i32 %49, 0
  br i1 %50, label %51, label %53

; <label>:51:                                     ; preds = %45
  %52 = load i32, i32* %12, align 4
  store i32 %52, i32* %9, align 4
  br label %157

; <label>:53:                                     ; preds = %45, %39, %31
  %54 = load %"class.Lexer::Compound"*, %"class.Lexer::Compound"** %18, align 8
  %55 = load %class.Vector.0*, %class.Vector.0** %15, align 8
  %56 = call i32 @_ZNK5Lexer8Compound16assign_argumentsERK6VectorI6StringEPS3_(%"class.Lexer::Compound"* %54, %class.Vector.0* dereferenceable(16) %55, %class.Vector.0* null)
  %57 = icmp sge i32 %56, 0
  br i1 %57, label %58, label %60

; <label>:58:                                     ; preds = %53
  %59 = load i32, i32* %12, align 4
  store i32 %59, i32* %19, align 4
  br label %60

; <label>:60:                                     ; preds = %58, %53
  br label %61

; <label>:61:                                     ; preds = %60
  %62 = load %"class.Lexer::Compound"*, %"class.Lexer::Compound"** %18, align 8
  %63 = load %class.Lexer*, %class.Lexer** %11, align 8
  %64 = call %"class.Lexer::Compound"* @_ZNK5Lexer8Compound17overload_compoundEPS_(%"class.Lexer::Compound"* %62, %class.Lexer* %63)
  store %"class.Lexer::Compound"* %64, %"class.Lexer::Compound"** %21, align 8
  %65 = load %"class.Lexer::Compound"*, %"class.Lexer::Compound"** %21, align 8
  %66 = icmp ne %"class.Lexer::Compound"* %65, null
  br i1 %66, label %67, label %72

; <label>:67:                                     ; preds = %61
  %68 = load %"class.Lexer::Compound"*, %"class.Lexer::Compound"** %18, align 8
  %69 = getelementptr inbounds %"class.Lexer::Compound", %"class.Lexer::Compound"* %68, i32 0, i32 3
  %70 = load i32, i32* %69, align 8
  store i32 %70, i32* %12, align 4
  %71 = load %"class.Lexer::Compound"*, %"class.Lexer::Compound"** %21, align 8
  store %"class.Lexer::Compound"* %71, %"class.Lexer::Compound"** %18, align 8
  br label %82

; <label>:72:                                     ; preds = %61
  %73 = load %"class.Lexer::Compound"*, %"class.Lexer::Compound"** %18, align 8
  %74 = getelementptr inbounds %"class.Lexer::Compound", %"class.Lexer::Compound"* %73, i32 0, i32 3
  %75 = load i32, i32* %74, align 8
  %76 = icmp sge i32 %75, 0
  br i1 %76, label %77, label %81

; <label>:77:                                     ; preds = %72
  %78 = load %"class.Lexer::Compound"*, %"class.Lexer::Compound"** %18, align 8
  %79 = getelementptr inbounds %"class.Lexer::Compound", %"class.Lexer::Compound"* %78, i32 0, i32 3
  %80 = load i32, i32* %79, align 8
  store i32 %80, i32* %9, align 4
  br label %157

; <label>:81:                                     ; preds = %72
  br label %83

; <label>:82:                                     ; preds = %67
  br label %28

; <label>:83:                                     ; preds = %81, %28
  %84 = load i32, i32* %20, align 4
  %85 = icmp ne i32 %84, 1
  br i1 %85, label %89, label %86

; <label>:86:                                     ; preds = %83
  %87 = load i32, i32* %19, align 4
  %88 = icmp slt i32 %87, 0
  br i1 %88, label %89, label %134

; <label>:89:                                     ; preds = %86, %83
  %90 = load %class.ErrorHandler*, %class.ErrorHandler** %16, align 8
  %91 = load %class.String*, %class.String** %17, align 8
  %92 = call dereferenceable(24) %class.String* @_ZNK5Lexer8Compound4nameEv(%"class.Lexer::Compound"* %27)
  %93 = load %class.Vector.0*, %class.Vector.0** %15, align 8
  %94 = call i32 @_ZNK6VectorI6StringE4sizeEv(%class.Vector.0* %93)
  %95 = load i32, i32* %13, align 4
  %96 = load i32, i32* %14, align 4
  call void @_ZN5Lexer8Compound9signatureERK6StringPK6VectorIS1_Eiii(%class.String* sret %22, %class.String* dereferenceable(24) %92, %class.Vector.0* null, i32 %94, i32 %95, i32 %96)
  %97 = invoke i8* @_ZNK6String5c_strEv(%class.String* %22)
          to label %98 unwind label %120

; <label>:98:                                     ; preds = %89
  %99 = invoke i32 (%class.ErrorHandler*, %class.String*, i8*, ...) @_ZN12ErrorHandler6lerrorERK6StringPKcz(%class.ErrorHandler* %90, %class.String* dereferenceable(24) %91, i8* getelementptr inbounds ([20 x i8], [20 x i8]* @.str.9, i32 0, i32 0), i8* %97)
          to label %100 unwind label %120

; <label>:100:                                    ; preds = %98
  call void @_ZN6StringD2Ev(%class.String* %22) #9
  %101 = load %class.ErrorHandler*, %class.ErrorHandler** %16, align 8
  call void (%class.ContextErrorHandler*, %class.ErrorHandler*, i8*, ...) @_ZN19ContextErrorHandlerC1EP12ErrorHandlerPKcz(%class.ContextErrorHandler* %25, %class.ErrorHandler* %101, i8* getelementptr inbounds ([16 x i8], [16 x i8]* @.str.10, i32 0, i32 0))
  store %"class.Lexer::Compound"* %27, %"class.Lexer::Compound"** %18, align 8
  br label %102

; <label>:102:                                    ; preds = %119, %100
  %103 = load %"class.Lexer::Compound"*, %"class.Lexer::Compound"** %18, align 8
  %104 = icmp ne %"class.Lexer::Compound"* %103, null
  br i1 %104, label %105, label %132

; <label>:105:                                    ; preds = %102
  %106 = bitcast %class.ContextErrorHandler* %25 to %class.ErrorHandler*
  %107 = load %"class.Lexer::Compound"*, %"class.Lexer::Compound"** %18, align 8
  %108 = invoke dereferenceable(24) %class.String* @_ZNK5Lexer8Compound8landmarkEv(%"class.Lexer::Compound"* %107)
          to label %109 unwind label %124

; <label>:109:                                    ; preds = %105
  %110 = load %"class.Lexer::Compound"*, %"class.Lexer::Compound"** %18, align 8
  invoke void @_ZNK5Lexer8Compound9signatureEv(%class.String* sret %26, %"class.Lexer::Compound"* %110)
          to label %111 unwind label %124

; <label>:111:                                    ; preds = %109
  %112 = invoke i8* @_ZNK6String5c_strEv(%class.String* %26)
          to label %113 unwind label %128

; <label>:113:                                    ; preds = %111
  invoke void (%class.ErrorHandler*, %class.String*, i8*, ...) @_ZN12ErrorHandler8lmessageERK6StringPKcz(%class.ErrorHandler* %106, %class.String* dereferenceable(24) %108, i8* getelementptr inbounds ([3 x i8], [3 x i8]* @.str.11, i32 0, i32 0), i8* %112)
          to label %114 unwind label %128

; <label>:114:                                    ; preds = %113
  call void @_ZN6StringD2Ev(%class.String* %26) #9
  br label %115

; <label>:115:                                    ; preds = %114
  %116 = load %"class.Lexer::Compound"*, %"class.Lexer::Compound"** %18, align 8
  %117 = load %class.Lexer*, %class.Lexer** %11, align 8
  %118 = invoke %"class.Lexer::Compound"* @_ZNK5Lexer8Compound17overload_compoundEPS_(%"class.Lexer::Compound"* %116, %class.Lexer* %117)
          to label %119 unwind label %124

; <label>:119:                                    ; preds = %115
  store %"class.Lexer::Compound"* %118, %"class.Lexer::Compound"** %18, align 8
  br label %102

; <label>:120:                                    ; preds = %98, %89
  %121 = landingpad { i8*, i32 }
          cleanup
  %122 = extractvalue { i8*, i32 } %121, 0
  store i8* %122, i8** %23, align 8
  %123 = extractvalue { i8*, i32 } %121, 1
  store i32 %123, i32* %24, align 4
  call void @_ZN6StringD2Ev(%class.String* %22) #9
  br label %159

; <label>:124:                                    ; preds = %115, %109, %105
  %125 = landingpad { i8*, i32 }
          cleanup
  %126 = extractvalue { i8*, i32 } %125, 0
  store i8* %126, i8** %23, align 8
  %127 = extractvalue { i8*, i32 } %125, 1
  store i32 %127, i32* %24, align 4
  br label %133

; <label>:128:                                    ; preds = %113, %111
  %129 = landingpad { i8*, i32 }
          cleanup
  %130 = extractvalue { i8*, i32 } %129, 0
  store i8* %130, i8** %23, align 8
  %131 = extractvalue { i8*, i32 } %129, 1
  store i32 %131, i32* %24, align 4
  call void @_ZN6StringD2Ev(%class.String* %26) #9
  br label %133

; <label>:132:                                    ; preds = %102
  call void @_ZN19ContextErrorHandlerD2Ev(%class.ContextErrorHandler* %25) #9
  br label %134

; <label>:133:                                    ; preds = %128, %124
  call void @_ZN19ContextErrorHandlerD2Ev(%class.ContextErrorHandler* %25) #9
  br label %159

; <label>:134:                                    ; preds = %132, %86
  %135 = load i32, i32* %19, align 4
  %136 = icmp sge i32 %135, 0
  br i1 %136, label %137, label %145

; <label>:137:                                    ; preds = %134
  %138 = load %class.Lexer*, %class.Lexer** %11, align 8
  %139 = getelementptr inbounds %class.Lexer, %class.Lexer* %138, i32 0, i32 8
  %140 = load i32, i32* %19, align 4
  %141 = call dereferenceable(48) %"struct.Lexer::ElementType"* @_ZN6VectorIN5Lexer11ElementTypeEEixEi(%class.Vector.14* %139, i32 %140)
  %142 = getelementptr inbounds %"struct.Lexer::ElementType", %"struct.Lexer::ElementType"* %141, i32 0, i32 1
  %143 = load i64, i64* %142, align 8
  %144 = inttoptr i64 %143 to %"class.Lexer::Compound"*
  br label %146

; <label>:145:                                    ; preds = %134
  br label %146

; <label>:146:                                    ; preds = %145, %137
  %147 = phi %"class.Lexer::Compound"* [ %144, %137 ], [ null, %145 ]
  store %"class.Lexer::Compound"* %147, %"class.Lexer::Compound"** %18, align 8
  %148 = load %"class.Lexer::Compound"*, %"class.Lexer::Compound"** %18, align 8
  %149 = icmp ne %"class.Lexer::Compound"* %148, null
  br i1 %149, label %150, label %155

; <label>:150:                                    ; preds = %146
  %151 = load %"class.Lexer::Compound"*, %"class.Lexer::Compound"** %18, align 8
  %152 = load %class.Vector.0*, %class.Vector.0** %15, align 8
  %153 = load %class.Vector.0*, %class.Vector.0** %15, align 8
  %154 = call i32 @_ZNK5Lexer8Compound16assign_argumentsERK6VectorI6StringEPS3_(%"class.Lexer::Compound"* %151, %class.Vector.0* dereferenceable(16) %152, %class.Vector.0* %153)
  br label %155

; <label>:155:                                    ; preds = %150, %146
  %156 = load i32, i32* %19, align 4
  store i32 %156, i32* %9, align 4
  br label %157

; <label>:157:                                    ; preds = %155, %77, %51
  %158 = load i32, i32* %9, align 4
  ret i32 %158

; <label>:159:                                    ; preds = %133, %120
  %160 = load i8*, i8** %23, align 8
  %161 = load i32, i32* %24, align 4
  %162 = insertvalue { i8*, i32 } undef, i8* %160, 0
  %163 = insertvalue { i8*, i32 } %162, i32 %161, 1
  resume { i8*, i32 } %163
}

; Function Attrs: noinline optnone uwtable
define linkonce_odr i32 @_ZNK5Lexer8Compound16assign_argumentsERK6VectorI6StringEPS3_(%"class.Lexer::Compound"*, %class.Vector.0* dereferenceable(16), %class.Vector.0*) #2 comdat align 2 {
  %4 = alloca %"class.Lexer::Compound"*, align 8
  %5 = alloca %class.Vector.0*, align 8
  %6 = alloca %class.Vector.0*, align 8
  store %"class.Lexer::Compound"* %0, %"class.Lexer::Compound"** %4, align 8
  store %class.Vector.0* %1, %class.Vector.0** %5, align 8
  store %class.Vector.0* %2, %class.Vector.0** %6, align 8
  %7 = load %"class.Lexer::Compound"*, %"class.Lexer::Compound"** %4, align 8
  %8 = load %class.Vector.0*, %class.Vector.0** %5, align 8
  %9 = getelementptr inbounds %"class.Lexer::Compound", %"class.Lexer::Compound"* %7, i32 0, i32 4
  %10 = call dereferenceable(16) %class.Vector.0* @_ZNK19VariableEnvironment6valuesEv(%class.VariableEnvironment* %9)
  %11 = call %class.String* @_ZNK6VectorI6StringE5beginEv(%class.Vector.0* %10)
  %12 = getelementptr inbounds %"class.Lexer::Compound", %"class.Lexer::Compound"* %7, i32 0, i32 4
  %13 = call dereferenceable(16) %class.Vector.0* @_ZNK19VariableEnvironment6valuesEv(%class.VariableEnvironment* %12)
  %14 = call %class.String* @_ZNK6VectorI6StringE5beginEv(%class.Vector.0* %13)
  %15 = getelementptr inbounds %"class.Lexer::Compound", %"class.Lexer::Compound"* %7, i32 0, i32 5
  %16 = load i32, i32* %15, align 8
  %17 = sext i32 %16 to i64
  %18 = getelementptr inbounds %class.String, %class.String* %14, i64 %17
  %19 = load %class.Vector.0*, %class.Vector.0** %6, align 8
  %20 = call i32 @_Z19cp_assign_argumentsRK6VectorI6StringEPKS0_S5_PS1_(%class.Vector.0* dereferenceable(16) %8, %class.String* %11, %class.String* %18, %class.Vector.0* %19)
  ret i32 %20
}

; Function Attrs: noinline optnone uwtable
define linkonce_odr %"class.Lexer::Compound"* @_ZNK5Lexer8Compound17overload_compoundEPS_(%"class.Lexer::Compound"*, %class.Lexer*) #2 comdat align 2 {
  %3 = alloca %"class.Lexer::Compound"*, align 8
  %4 = alloca %"class.Lexer::Compound"*, align 8
  %5 = alloca %class.Lexer*, align 8
  store %"class.Lexer::Compound"* %0, %"class.Lexer::Compound"** %4, align 8
  store %class.Lexer* %1, %class.Lexer** %5, align 8
  %6 = load %"class.Lexer::Compound"*, %"class.Lexer::Compound"** %4, align 8
  %7 = getelementptr inbounds %"class.Lexer::Compound", %"class.Lexer::Compound"* %6, i32 0, i32 3
  %8 = load i32, i32* %7, align 8
  %9 = icmp sge i32 %8, 0
  br i1 %9, label %10, label %28

; <label>:10:                                     ; preds = %2
  %11 = load %class.Lexer*, %class.Lexer** %5, align 8
  %12 = getelementptr inbounds %class.Lexer, %class.Lexer* %11, i32 0, i32 8
  %13 = getelementptr inbounds %"class.Lexer::Compound", %"class.Lexer::Compound"* %6, i32 0, i32 3
  %14 = load i32, i32* %13, align 8
  %15 = call dereferenceable(48) %"struct.Lexer::ElementType"* @_ZN6VectorIN5Lexer11ElementTypeEEixEi(%class.Vector.14* %12, i32 %14)
  %16 = getelementptr inbounds %"struct.Lexer::ElementType", %"struct.Lexer::ElementType"* %15, i32 0, i32 0
  %17 = load %class.Element* (i64)*, %class.Element* (i64)** %16, align 8
  %18 = icmp eq %class.Element* (i64)* %17, @_ZN5Lexer24compound_element_factoryEm
  br i1 %18, label %19, label %28

; <label>:19:                                     ; preds = %10
  %20 = load %class.Lexer*, %class.Lexer** %5, align 8
  %21 = getelementptr inbounds %class.Lexer, %class.Lexer* %20, i32 0, i32 8
  %22 = getelementptr inbounds %"class.Lexer::Compound", %"class.Lexer::Compound"* %6, i32 0, i32 3
  %23 = load i32, i32* %22, align 8
  %24 = call dereferenceable(48) %"struct.Lexer::ElementType"* @_ZN6VectorIN5Lexer11ElementTypeEEixEi(%class.Vector.14* %21, i32 %23)
  %25 = getelementptr inbounds %"struct.Lexer::ElementType", %"struct.Lexer::ElementType"* %24, i32 0, i32 1
  %26 = load i64, i64* %25, align 8
  %27 = inttoptr i64 %26 to %"class.Lexer::Compound"*
  store %"class.Lexer::Compound"* %27, %"class.Lexer::Compound"** %3, align 8
  br label %29

; <label>:28:                                     ; preds = %10, %2
  store %"class.Lexer::Compound"* null, %"class.Lexer::Compound"** %3, align 8
  br label %29

; <label>:29:                                     ; preds = %28, %19
  %30 = load %"class.Lexer::Compound"*, %"class.Lexer::Compound"** %3, align 8
  ret %"class.Lexer::Compound"* %30
}

declare i32 @_ZN12ErrorHandler6lerrorERK6StringPKcz(%class.ErrorHandler*, %class.String* dereferenceable(24), i8*, ...) #3

; Function Attrs: noinline optnone uwtable
define void @_ZN5Lexer8Compound9signatureERK6StringPK6VectorIS1_Eiii(%class.String* noalias sret, %class.String* dereferenceable(24), %class.Vector.0*, i32, i32, i32) #2 align 2 personality i8* bitcast (i32 (...)* @__gxx_personality_v0 to i8*) {
  %7 = alloca %class.String*, align 8
  %8 = alloca %class.Vector.0*, align 8
  %9 = alloca i32, align 4
  %10 = alloca i32, align 4
  %11 = alloca i32, align 4
  %12 = alloca %class.StringAccum, align 8
  %13 = alloca %class.String, align 8
  %14 = alloca i8*
  %15 = alloca i32
  %16 = alloca i32, align 4
  %17 = alloca i8*, align 8
  %18 = alloca i8*, align 8
  %19 = alloca i8*, align 8
  store %class.String* %1, %class.String** %7, align 8
  store %class.Vector.0* %2, %class.Vector.0** %8, align 8
  store i32 %3, i32* %9, align 4
  store i32 %4, i32* %10, align 4
  store i32 %5, i32* %11, align 4
  call void @_ZN11StringAccumC2Ev(%class.StringAccum* %12)
  %20 = load %class.String*, %class.String** %7, align 8
  %21 = invoke { i64, i64 } @_ZNK6StringcvMS_KFivEEv(%class.String* %20)
          to label %22 unwind label %55

; <label>:22:                                     ; preds = %6
  %23 = extractvalue { i64, i64 } %21, 0
  %24 = icmp ne i64 %23, 0
  br i1 %24, label %25, label %28

; <label>:25:                                     ; preds = %22
  %26 = load %class.String*, %class.String** %7, align 8
  invoke void @_ZN6StringC2ERKS_(%class.String* %13, %class.String* dereferenceable(24) %26)
          to label %27 unwind label %55

; <label>:27:                                     ; preds = %25
  br label %30

; <label>:28:                                     ; preds = %22
  invoke void @_ZN6StringC2EPKc(%class.String* %13, i8* getelementptr inbounds ([12 x i8], [12 x i8]* @.str.2, i32 0, i32 0))
          to label %29 unwind label %55

; <label>:29:                                     ; preds = %28
  br label %30

; <label>:30:                                     ; preds = %29, %27
  %31 = invoke dereferenceable(16) %class.StringAccum* @_ZlsR11StringAccumRK6String(%class.StringAccum* dereferenceable(16) %12, %class.String* dereferenceable(24) %13)
          to label %32 unwind label %59

; <label>:32:                                     ; preds = %30
  call void @_ZN6StringD2Ev(%class.String* %13) #9
  %33 = load %class.Vector.0*, %class.Vector.0** %8, align 8
  %34 = icmp ne %class.Vector.0* %33, null
  br i1 %34, label %35, label %98

; <label>:35:                                     ; preds = %32
  %36 = load %class.Vector.0*, %class.Vector.0** %8, align 8
  %37 = invoke i32 @_ZNK6VectorI6StringE4sizeEv(%class.Vector.0* %36)
          to label %38 unwind label %55

; <label>:38:                                     ; preds = %35
  %39 = icmp ne i32 %37, 0
  br i1 %39, label %40, label %98

; <label>:40:                                     ; preds = %38
  %41 = invoke dereferenceable(16) %class.StringAccum* @_ZlsR11StringAccumc(%class.StringAccum* dereferenceable(16) %12, i8 signext 40)
          to label %42 unwind label %55

; <label>:42:                                     ; preds = %40
  store i32 0, i32* %16, align 4
  br label %43

; <label>:43:                                     ; preds = %92, %42
  %44 = load i32, i32* %16, align 4
  %45 = load %class.Vector.0*, %class.Vector.0** %8, align 8
  %46 = invoke i32 @_ZNK6VectorI6StringE4sizeEv(%class.Vector.0* %45)
          to label %47 unwind label %55

; <label>:47:                                     ; preds = %43
  %48 = icmp slt i32 %44, %46
  br i1 %48, label %49, label %95

; <label>:49:                                     ; preds = %47
  %50 = load i32, i32* %16, align 4
  %51 = icmp ne i32 %50, 0
  br i1 %51, label %52, label %63

; <label>:52:                                     ; preds = %49
  %53 = invoke dereferenceable(16) %class.StringAccum* @_ZlsR11StringAccumPKc(%class.StringAccum* dereferenceable(16) %12, i8* getelementptr inbounds ([3 x i8], [3 x i8]* @.str.12, i32 0, i32 0))
          to label %54 unwind label %55

; <label>:54:                                     ; preds = %52
  br label %63

; <label>:55:                                     ; preds = %139, %137, %134, %131, %128, %125, %121, %118, %98, %95, %87, %83, %80, %77, %73, %70, %67, %63, %52, %43, %40, %35, %28, %25, %6
  %56 = landingpad { i8*, i32 }
          cleanup
  %57 = extractvalue { i8*, i32 } %56, 0
  store i8* %57, i8** %14, align 8
  %58 = extractvalue { i8*, i32 } %56, 1
  store i32 %58, i32* %15, align 4
  br label %141

; <label>:59:                                     ; preds = %30
  %60 = landingpad { i8*, i32 }
          cleanup
  %61 = extractvalue { i8*, i32 } %60, 0
  store i8* %61, i8** %14, align 8
  %62 = extractvalue { i8*, i32 } %60, 1
  store i32 %62, i32* %15, align 4
  call void @_ZN6StringD2Ev(%class.String* %13) #9
  br label %141

; <label>:63:                                     ; preds = %54, %49
  %64 = load %class.Vector.0*, %class.Vector.0** %8, align 8
  %65 = load i32, i32* %16, align 4
  %66 = invoke dereferenceable(24) %class.String* @_ZNK6VectorI6StringEixEi(%class.Vector.0* %64, i32 %65)
          to label %67 unwind label %55

; <label>:67:                                     ; preds = %63
  %68 = invoke zeroext i1 @_ZeqRK6StringPKc(%class.String* dereferenceable(24) %66, i8* getelementptr inbounds ([1 x i8], [1 x i8]* @.str.13, i32 0, i32 0))
          to label %69 unwind label %55

; <label>:69:                                     ; preds = %67
  br i1 %68, label %70, label %73

; <label>:70:                                     ; preds = %69
  %71 = invoke dereferenceable(16) %class.StringAccum* @_ZlsR11StringAccumPKc(%class.StringAccum* dereferenceable(16) %12, i8* getelementptr inbounds ([6 x i8], [6 x i8]* @.str.14, i32 0, i32 0))
          to label %72 unwind label %55

; <label>:72:                                     ; preds = %70
  br label %91

; <label>:73:                                     ; preds = %69
  %74 = load %class.Vector.0*, %class.Vector.0** %8, align 8
  %75 = load i32, i32* %16, align 4
  %76 = invoke dereferenceable(24) %class.String* @_ZNK6VectorI6StringEixEi(%class.Vector.0* %74, i32 %75)
          to label %77 unwind label %55

; <label>:77:                                     ; preds = %73
  %78 = invoke zeroext i1 @_ZeqRK6StringPKc(%class.String* dereferenceable(24) %76, i8* getelementptr inbounds ([9 x i8], [9 x i8]* @.str.15, i32 0, i32 0))
          to label %79 unwind label %55

; <label>:79:                                     ; preds = %77
  br i1 %78, label %80, label %83

; <label>:80:                                     ; preds = %79
  %81 = invoke dereferenceable(16) %class.StringAccum* @_ZlsR11StringAccumPKc(%class.StringAccum* dereferenceable(16) %12, i8* getelementptr inbounds ([4 x i8], [4 x i8]* @.str.16, i32 0, i32 0))
          to label %82 unwind label %55

; <label>:82:                                     ; preds = %80
  br label %90

; <label>:83:                                     ; preds = %79
  %84 = load %class.Vector.0*, %class.Vector.0** %8, align 8
  %85 = load i32, i32* %16, align 4
  %86 = invoke dereferenceable(24) %class.String* @_ZNK6VectorI6StringEixEi(%class.Vector.0* %84, i32 %85)
          to label %87 unwind label %55

; <label>:87:                                     ; preds = %83
  %88 = invoke dereferenceable(16) %class.StringAccum* @_ZlsR11StringAccumRK6String(%class.StringAccum* dereferenceable(16) %12, %class.String* dereferenceable(24) %86)
          to label %89 unwind label %55

; <label>:89:                                     ; preds = %87
  br label %90

; <label>:90:                                     ; preds = %89, %82
  br label %91

; <label>:91:                                     ; preds = %90, %72
  br label %92

; <label>:92:                                     ; preds = %91
  %93 = load i32, i32* %16, align 4
  %94 = add nsw i32 %93, 1
  store i32 %94, i32* %16, align 4
  br label %43

; <label>:95:                                     ; preds = %47
  %96 = invoke dereferenceable(16) %class.StringAccum* @_ZlsR11StringAccumc(%class.StringAccum* dereferenceable(16) %12, i8 signext 41)
          to label %97 unwind label %55

; <label>:97:                                     ; preds = %95
  br label %98

; <label>:98:                                     ; preds = %97, %38, %32
  %99 = load i32, i32* %9, align 4
  %100 = icmp eq i32 %99, 1
  %101 = zext i1 %100 to i64
  %102 = select i1 %100, i8* getelementptr inbounds ([12 x i8], [12 x i8]* @.str.17, i32 0, i32 0), i8* getelementptr inbounds ([13 x i8], [13 x i8]* @.str.18, i32 0, i32 0)
  store i8* %102, i8** %17, align 8
  %103 = load i32, i32* %10, align 4
  %104 = icmp eq i32 %103, 1
  %105 = zext i1 %104 to i64
  %106 = select i1 %104, i8* getelementptr inbounds ([9 x i8], [9 x i8]* @.str.19, i32 0, i32 0), i8* getelementptr inbounds ([10 x i8], [10 x i8]* @.str.20, i32 0, i32 0)
  store i8* %106, i8** %18, align 8
  %107 = load i32, i32* %11, align 4
  %108 = icmp eq i32 %107, 1
  %109 = zext i1 %108 to i64
  %110 = select i1 %108, i8* getelementptr inbounds ([8 x i8], [8 x i8]* @.str.21, i32 0, i32 0), i8* getelementptr inbounds ([9 x i8], [9 x i8]* @.str.22, i32 0, i32 0)
  store i8* %110, i8** %19, align 8
  %111 = invoke dereferenceable(16) %class.StringAccum* @_ZlsR11StringAccumc(%class.StringAccum* dereferenceable(16) %12, i8 signext 91)
          to label %112 unwind label %55

; <label>:112:                                    ; preds = %98
  %113 = load %class.Vector.0*, %class.Vector.0** %8, align 8
  %114 = icmp ne %class.Vector.0* %113, null
  br i1 %114, label %125, label %115

; <label>:115:                                    ; preds = %112
  %116 = load i32, i32* %9, align 4
  %117 = icmp sgt i32 %116, 0
  br i1 %117, label %118, label %125

; <label>:118:                                    ; preds = %115
  %119 = load i32, i32* %9, align 4
  %120 = invoke dereferenceable(16) %class.StringAccum* @_ZlsR11StringAccumi(%class.StringAccum* dereferenceable(16) %12, i32 %119)
          to label %121 unwind label %55

; <label>:121:                                    ; preds = %118
  %122 = load i8*, i8** %17, align 8
  %123 = invoke dereferenceable(16) %class.StringAccum* @_ZlsR11StringAccumPKc(%class.StringAccum* dereferenceable(16) %120, i8* %122)
          to label %124 unwind label %55

; <label>:124:                                    ; preds = %121
  br label %125

; <label>:125:                                    ; preds = %124, %115, %112
  %126 = load i32, i32* %10, align 4
  %127 = invoke dereferenceable(16) %class.StringAccum* @_ZlsR11StringAccumi(%class.StringAccum* dereferenceable(16) %12, i32 %126)
          to label %128 unwind label %55

; <label>:128:                                    ; preds = %125
  %129 = load i8*, i8** %18, align 8
  %130 = invoke dereferenceable(16) %class.StringAccum* @_ZlsR11StringAccumPKc(%class.StringAccum* dereferenceable(16) %127, i8* %129)
          to label %131 unwind label %55

; <label>:131:                                    ; preds = %128
  %132 = load i32, i32* %11, align 4
  %133 = invoke dereferenceable(16) %class.StringAccum* @_ZlsR11StringAccumi(%class.StringAccum* dereferenceable(16) %130, i32 %132)
          to label %134 unwind label %55

; <label>:134:                                    ; preds = %131
  %135 = load i8*, i8** %19, align 8
  %136 = invoke dereferenceable(16) %class.StringAccum* @_ZlsR11StringAccumPKc(%class.StringAccum* dereferenceable(16) %133, i8* %135)
          to label %137 unwind label %55

; <label>:137:                                    ; preds = %134
  %138 = invoke dereferenceable(16) %class.StringAccum* @_ZlsR11StringAccumc(%class.StringAccum* dereferenceable(16) %12, i8 signext 93)
          to label %139 unwind label %55

; <label>:139:                                    ; preds = %137
  invoke void @_ZN11StringAccum11take_stringEv(%class.String* sret %0, %class.StringAccum* %12)
          to label %140 unwind label %55

; <label>:140:                                    ; preds = %139
  call void @_ZN11StringAccumD2Ev(%class.StringAccum* %12) #9
  ret void

; <label>:141:                                    ; preds = %59, %55
  call void @_ZN11StringAccumD2Ev(%class.StringAccum* %12) #9
  br label %142

; <label>:142:                                    ; preds = %141
  %143 = load i8*, i8** %14, align 8
  %144 = load i32, i32* %15, align 4
  %145 = insertvalue { i8*, i32 } undef, i8* %143, 0
  %146 = insertvalue { i8*, i32 } %145, i32 %144, 1
  resume { i8*, i32 } %146
}

; Function Attrs: noinline nounwind optnone uwtable
define linkonce_odr dereferenceable(24) %class.String* @_ZNK5Lexer8Compound4nameEv(%"class.Lexer::Compound"*) #0 comdat align 2 {
  %2 = alloca %"class.Lexer::Compound"*, align 8
  store %"class.Lexer::Compound"* %0, %"class.Lexer::Compound"** %2, align 8
  %3 = load %"class.Lexer::Compound"*, %"class.Lexer::Compound"** %2, align 8
  %4 = getelementptr inbounds %"class.Lexer::Compound", %"class.Lexer::Compound"* %3, i32 0, i32 1
  ret %class.String* %4
}

; Function Attrs: noinline nounwind optnone uwtable
define linkonce_odr i32 @_ZNK6VectorI6StringE4sizeEv(%class.Vector.0*) #0 comdat align 2 {
  %2 = alloca %class.Vector.0*, align 8
  store %class.Vector.0* %0, %class.Vector.0** %2, align 8
  %3 = load %class.Vector.0*, %class.Vector.0** %2, align 8
  %4 = getelementptr inbounds %class.Vector.0, %class.Vector.0* %3, i32 0, i32 0
  %5 = getelementptr inbounds %class.vector_memory.1, %class.vector_memory.1* %4, i32 0, i32 1
  %6 = load i32, i32* %5, align 8
  ret i32 %6
}

declare void @_ZN19ContextErrorHandlerC1EP12ErrorHandlerPKcz(%class.ContextErrorHandler*, %class.ErrorHandler*, i8*, ...) unnamed_addr #3

declare void @_ZN12ErrorHandler8lmessageERK6StringPKcz(%class.ErrorHandler*, %class.String* dereferenceable(24), i8*, ...) #3

; Function Attrs: noinline nounwind optnone uwtable
define linkonce_odr dereferenceable(24) %class.String* @_ZNK5Lexer8Compound8landmarkEv(%"class.Lexer::Compound"*) #0 comdat align 2 {
  %2 = alloca %"class.Lexer::Compound"*, align 8
  store %"class.Lexer::Compound"* %0, %"class.Lexer::Compound"** %2, align 8
  %3 = load %"class.Lexer::Compound"*, %"class.Lexer::Compound"** %2, align 8
  %4 = getelementptr inbounds %"class.Lexer::Compound", %"class.Lexer::Compound"* %3, i32 0, i32 2
  ret %class.String* %4
}

; Function Attrs: noinline optnone uwtable
define void @_ZNK5Lexer8Compound9signatureEv(%class.String* noalias sret, %"class.Lexer::Compound"*) #2 align 2 {
  %3 = alloca %"class.Lexer::Compound"*, align 8
  store %"class.Lexer::Compound"* %1, %"class.Lexer::Compound"** %3, align 8
  %4 = load %"class.Lexer::Compound"*, %"class.Lexer::Compound"** %3, align 8
  %5 = getelementptr inbounds %"class.Lexer::Compound", %"class.Lexer::Compound"* %4, i32 0, i32 1
  %6 = call dereferenceable(56) %class.VariableEnvironment* @_ZNK5Lexer8Compound5scopeEv(%"class.Lexer::Compound"* %4)
  %7 = call dereferenceable(16) %class.Vector.0* @_ZNK19VariableEnvironment6valuesEv(%class.VariableEnvironment* %6)
  %8 = getelementptr inbounds %"class.Lexer::Compound", %"class.Lexer::Compound"* %4, i32 0, i32 6
  %9 = load i32, i32* %8, align 4
  %10 = getelementptr inbounds %"class.Lexer::Compound", %"class.Lexer::Compound"* %4, i32 0, i32 7
  %11 = load i32, i32* %10, align 8
  call void @_ZN5Lexer8Compound9signatureERK6StringPK6VectorIS1_Eiii(%class.String* sret %0, %class.String* dereferenceable(24) %5, %class.Vector.0* %7, i32 -1, i32 %9, i32 %11)
  ret void
}

; Function Attrs: noinline nounwind optnone uwtable
define linkonce_odr void @_ZN19ContextErrorHandlerD2Ev(%class.ContextErrorHandler*) unnamed_addr #0 comdat align 2 {
  %2 = alloca %class.ContextErrorHandler*, align 8
  store %class.ContextErrorHandler* %0, %class.ContextErrorHandler** %2, align 8
  %3 = load %class.ContextErrorHandler*, %class.ContextErrorHandler** %2, align 8
  %4 = bitcast %class.ContextErrorHandler* %3 to i32 (...)***
  store i32 (...)** bitcast (i8** getelementptr inbounds ({ [9 x i8*] }, { [9 x i8*] }* @_ZTV19ContextErrorHandler, i32 0, inrange i32 0, i32 2) to i32 (...)**), i32 (...)*** %4, align 8
  %5 = getelementptr inbounds %class.ContextErrorHandler, %class.ContextErrorHandler* %3, i32 0, i32 3
  call void @_ZN6StringD2Ev(%class.String* %5) #9
  %6 = getelementptr inbounds %class.ContextErrorHandler, %class.ContextErrorHandler* %3, i32 0, i32 2
  call void @_ZN6StringD2Ev(%class.String* %6) #9
  %7 = getelementptr inbounds %class.ContextErrorHandler, %class.ContextErrorHandler* %3, i32 0, i32 1
  call void @_ZN6StringD2Ev(%class.String* %7) #9
  %8 = bitcast %class.ContextErrorHandler* %3 to %class.ErrorVeneer*
  call void @_ZN11ErrorVeneerD2Ev(%class.ErrorVeneer* %8) #9
  ret void
}

; Function Attrs: noinline nounwind optnone uwtable
define linkonce_odr dereferenceable(48) %"struct.Lexer::ElementType"* @_ZN6VectorIN5Lexer11ElementTypeEEixEi(%class.Vector.14*, i32) #0 comdat align 2 {
  %3 = alloca %class.Vector.14*, align 8
  %4 = alloca i32, align 4
  store %class.Vector.14* %0, %class.Vector.14** %3, align 8
  store i32 %1, i32* %4, align 4
  %5 = load %class.Vector.14*, %class.Vector.14** %3, align 8
  %6 = load i32, i32* %4, align 4
  %7 = getelementptr inbounds %class.Vector.14, %class.Vector.14* %5, i32 0, i32 0
  %8 = getelementptr inbounds %class.vector_memory.15, %class.vector_memory.15* %7, i32 0, i32 1
  %9 = load i32, i32* %8, align 8
  %10 = icmp ult i32 %6, %9
  br i1 %10, label %11, label %12

; <label>:11:                                     ; preds = %2
  br label %14

; <label>:12:                                     ; preds = %2
  call void @__assert_fail(i8* getelementptr inbounds ([33 x i8], [33 x i8]* @.str.127, i32 0, i32 0), i8* getelementptr inbounds ([35 x i8], [35 x i8]* @.str.128, i32 0, i32 0), i32 288, i8* getelementptr inbounds ([86 x i8], [86 x i8]* @__PRETTY_FUNCTION__._ZN6VectorIN5Lexer11ElementTypeEEixEi, i32 0, i32 0)) #12
  unreachable
                                                  ; No predecessors!
  br label %14

; <label>:14:                                     ; preds = %13, %11
  %15 = getelementptr inbounds %class.Vector.14, %class.Vector.14* %5, i32 0, i32 0
  %16 = getelementptr inbounds %class.vector_memory.15, %class.vector_memory.15* %15, i32 0, i32 0
  %17 = load %"struct.Lexer::ElementType"*, %"struct.Lexer::ElementType"** %16, align 8
  %18 = load i32, i32* %4, align 4
  %19 = sext i32 %18 to i64
  %20 = getelementptr inbounds %"struct.Lexer::ElementType", %"struct.Lexer::ElementType"* %17, i64 %19
  ret %"struct.Lexer::ElementType"* %20
}

; Function Attrs: noinline optnone uwtable
define linkonce_odr void @_ZN11StringAccumC2Ev(%class.StringAccum*) unnamed_addr #2 comdat align 2 {
  %2 = alloca %class.StringAccum*, align 8
  store %class.StringAccum* %0, %class.StringAccum** %2, align 8
  %3 = load %class.StringAccum*, %class.StringAccum** %2, align 8
  %4 = getelementptr inbounds %class.StringAccum, %class.StringAccum* %3, i32 0, i32 0
  call void @_ZN11StringAccum5rep_tC2Ev(%"struct.StringAccum::rep_t"* %4)
  ret void
}

; Function Attrs: noinline optnone uwtable
define linkonce_odr dereferenceable(16) %class.StringAccum* @_ZlsR11StringAccumRK6String(%class.StringAccum* dereferenceable(16), %class.String* dereferenceable(24)) #2 comdat {
  %3 = alloca %class.StringAccum*, align 8
  %4 = alloca %class.String*, align 8
  store %class.StringAccum* %0, %class.StringAccum** %3, align 8
  store %class.String* %1, %class.String** %4, align 8
  %5 = load %class.StringAccum*, %class.StringAccum** %3, align 8
  %6 = load %class.String*, %class.String** %4, align 8
  %7 = call i8* @_ZNK6String4dataEv(%class.String* %6)
  %8 = load %class.String*, %class.String** %4, align 8
  %9 = call i32 @_ZNK6String6lengthEv(%class.String* %8)
  call void @_ZN11StringAccum6appendEPKci(%class.StringAccum* %5, i8* %7, i32 %9)
  %10 = load %class.StringAccum*, %class.StringAccum** %3, align 8
  ret %class.StringAccum* %10
}

; Function Attrs: noinline optnone uwtable
define linkonce_odr void @_ZN6StringC2EPKc(%class.String*, i8*) unnamed_addr #2 comdat align 2 {
  %3 = alloca %class.String*, align 8
  %4 = alloca i8*, align 8
  store %class.String* %0, %class.String** %3, align 8
  store i8* %1, i8** %4, align 8
  %5 = load %class.String*, %class.String** %3, align 8
  %6 = getelementptr inbounds %class.String, %class.String* %5, i32 0, i32 0
  %7 = load i8*, i8** %4, align 8
  %8 = icmp ne i8* %7, null
  br i1 %8, label %9, label %15

; <label>:9:                                      ; preds = %2
  br i1 false, label %10, label %15

; <label>:10:                                     ; preds = %9
  %11 = load i8*, i8** %4, align 8
  %12 = load i8*, i8** %4, align 8
  %13 = call i64 @strlen(i8* %12) #13
  %14 = trunc i64 %13 to i32
  call void @_ZNK6String11assign_memoEPKciPNS_6memo_tE(%class.String* %5, i8* %11, i32 %14, %"struct.String::memo_t"* null)
  br label %17

; <label>:15:                                     ; preds = %9, %2
  %16 = load i8*, i8** %4, align 8
  call void @_ZN6String6assignEPKcib(%class.String* %5, i8* %16, i32 -1, i1 zeroext false)
  br label %17

; <label>:17:                                     ; preds = %15, %10
  ret void
}

; Function Attrs: noinline optnone uwtable
define linkonce_odr dereferenceable(16) %class.StringAccum* @_ZlsR11StringAccumc(%class.StringAccum* dereferenceable(16), i8 signext) #2 comdat {
  %3 = alloca %class.StringAccum*, align 8
  %4 = alloca i8, align 1
  store %class.StringAccum* %0, %class.StringAccum** %3, align 8
  store i8 %1, i8* %4, align 1
  %5 = load %class.StringAccum*, %class.StringAccum** %3, align 8
  %6 = load i8, i8* %4, align 1
  call void @_ZN11StringAccum6appendEc(%class.StringAccum* %5, i8 signext %6)
  %7 = load %class.StringAccum*, %class.StringAccum** %3, align 8
  ret %class.StringAccum* %7
}

; Function Attrs: noinline optnone uwtable
define linkonce_odr dereferenceable(16) %class.StringAccum* @_ZlsR11StringAccumPKc(%class.StringAccum* dereferenceable(16), i8*) #2 comdat {
  %3 = alloca %class.StringAccum*, align 8
  %4 = alloca i8*, align 8
  store %class.StringAccum* %0, %class.StringAccum** %3, align 8
  store i8* %1, i8** %4, align 8
  %5 = load %class.StringAccum*, %class.StringAccum** %3, align 8
  %6 = load i8*, i8** %4, align 8
  call void @_ZN11StringAccum6appendEPKc(%class.StringAccum* %5, i8* %6)
  %7 = load %class.StringAccum*, %class.StringAccum** %3, align 8
  ret %class.StringAccum* %7
}

; Function Attrs: noinline nounwind optnone uwtable
define linkonce_odr dereferenceable(24) %class.String* @_ZNK6VectorI6StringEixEi(%class.Vector.0*, i32) #0 comdat align 2 {
  %3 = alloca %class.Vector.0*, align 8
  %4 = alloca i32, align 4
  store %class.Vector.0* %0, %class.Vector.0** %3, align 8
  store i32 %1, i32* %4, align 4
  %5 = load %class.Vector.0*, %class.Vector.0** %3, align 8
  %6 = load i32, i32* %4, align 4
  %7 = getelementptr inbounds %class.Vector.0, %class.Vector.0* %5, i32 0, i32 0
  %8 = getelementptr inbounds %class.vector_memory.1, %class.vector_memory.1* %7, i32 0, i32 1
  %9 = load i32, i32* %8, align 8
  %10 = icmp ult i32 %6, %9
  br i1 %10, label %11, label %12

; <label>:11:                                     ; preds = %2
  br label %14

; <label>:12:                                     ; preds = %2
  call void @__assert_fail(i8* getelementptr inbounds ([33 x i8], [33 x i8]* @.str.127, i32 0, i32 0), i8* getelementptr inbounds ([35 x i8], [35 x i8]* @.str.128, i32 0, i32 0), i32 295, i8* getelementptr inbounds ([74 x i8], [74 x i8]* @__PRETTY_FUNCTION__._ZNK6VectorI6StringEixEi, i32 0, i32 0)) #12
  unreachable
                                                  ; No predecessors!
  br label %14

; <label>:14:                                     ; preds = %13, %11
  %15 = getelementptr inbounds %class.Vector.0, %class.Vector.0* %5, i32 0, i32 0
  %16 = getelementptr inbounds %class.vector_memory.1, %class.vector_memory.1* %15, i32 0, i32 0
  %17 = load %class.String*, %class.String** %16, align 8
  %18 = load i32, i32* %4, align 4
  %19 = sext i32 %18 to i64
  %20 = getelementptr inbounds %class.String, %class.String* %17, i64 %19
  ret %class.String* %20
}

; Function Attrs: noinline optnone uwtable
define linkonce_odr dereferenceable(16) %class.StringAccum* @_ZlsR11StringAccumi(%class.StringAccum* dereferenceable(16), i32) #2 comdat {
  %3 = alloca %class.StringAccum*, align 8
  %4 = alloca i32, align 4
  store %class.StringAccum* %0, %class.StringAccum** %3, align 8
  store i32 %1, i32* %4, align 4
  %5 = load %class.StringAccum*, %class.StringAccum** %3, align 8
  %6 = load i32, i32* %4, align 4
  %7 = sext i32 %6 to i64
  %8 = call dereferenceable(16) %class.StringAccum* @_ZlsR11StringAccuml(%class.StringAccum* dereferenceable(16) %5, i64 %7)
  ret %class.StringAccum* %8
}

declare void @_ZN11StringAccum11take_stringEv(%class.String* sret, %class.StringAccum*) #3

; Function Attrs: noinline nounwind optnone uwtable
define linkonce_odr void @_ZN11StringAccumD2Ev(%class.StringAccum*) unnamed_addr #0 comdat align 2 {
  %2 = alloca %class.StringAccum*, align 8
  store %class.StringAccum* %0, %class.StringAccum** %2, align 8
  %3 = load %class.StringAccum*, %class.StringAccum** %2, align 8
  %4 = getelementptr inbounds %class.StringAccum, %class.StringAccum* %3, i32 0, i32 0
  %5 = getelementptr inbounds %"struct.StringAccum::rep_t", %"struct.StringAccum::rep_t"* %4, i32 0, i32 2
  %6 = load i32, i32* %5, align 4
  %7 = icmp sgt i32 %6, 0
  br i1 %7, label %8, label %20

; <label>:8:                                      ; preds = %1
  %9 = getelementptr inbounds %class.StringAccum, %class.StringAccum* %3, i32 0, i32 0
  %10 = getelementptr inbounds %"struct.StringAccum::rep_t", %"struct.StringAccum::rep_t"* %9, i32 0, i32 2
  %11 = load i32, i32* %10, align 4
  %12 = add nsw i32 %11, 12
  %13 = getelementptr inbounds %class.StringAccum, %class.StringAccum* %3, i32 0, i32 0
  %14 = getelementptr inbounds %"struct.StringAccum::rep_t", %"struct.StringAccum::rep_t"* %13, i32 0, i32 0
  %15 = load i8*, i8** %14, align 8
  %16 = getelementptr inbounds i8, i8* %15, i64 -12
  %17 = icmp eq i8* %16, null
  br i1 %17, label %19, label %18

; <label>:18:                                     ; preds = %8
  call void @_ZdaPv(i8* %16) #14
  br label %19

; <label>:19:                                     ; preds = %18, %8
  br label %20

; <label>:20:                                     ; preds = %19, %1
  ret void
}

; Function Attrs: noinline nounwind optnone uwtable
define linkonce_odr dereferenceable(56) %class.VariableEnvironment* @_ZNK5Lexer8Compound5scopeEv(%"class.Lexer::Compound"*) #0 comdat align 2 {
  %2 = alloca %"class.Lexer::Compound"*, align 8
  store %"class.Lexer::Compound"* %0, %"class.Lexer::Compound"** %2, align 8
  %3 = load %"class.Lexer::Compound"*, %"class.Lexer::Compound"** %2, align 8
  %4 = getelementptr inbounds %"class.Lexer::Compound", %"class.Lexer::Compound"* %3, i32 0, i32 4
  ret %class.VariableEnvironment* %4
}

; Function Attrs: noinline nounwind optnone uwtable
define linkonce_odr dereferenceable(16) %class.Vector.0* @_ZNK19VariableEnvironment6valuesEv(%class.VariableEnvironment*) #0 comdat align 2 {
  %2 = alloca %class.VariableEnvironment*, align 8
  store %class.VariableEnvironment* %0, %class.VariableEnvironment** %2, align 8
  %3 = load %class.VariableEnvironment*, %class.VariableEnvironment** %2, align 8
  %4 = getelementptr inbounds %class.VariableEnvironment, %class.VariableEnvironment* %3, i32 0, i32 2
  ret %class.Vector.0* %4
}

; Function Attrs: noinline optnone uwtable
define void @_ZN5Lexer8Compound11expand_intoEPS_iR19VariableEnvironment(%"class.Lexer::Compound"*, %class.Lexer*, i32, %class.VariableEnvironment* dereferenceable(56)) #2 align 2 personality i8* bitcast (i32 (...)* @__gxx_personality_v0 to i8*) {
  %5 = alloca %"class.Lexer::Compound"*, align 8
  %6 = alloca %class.Lexer*, align 8
  %7 = alloca i32, align 4
  %8 = alloca %class.VariableEnvironment*, align 8
  %9 = alloca %class.ErrorHandler*, align 8
  %10 = alloca %class.String, align 8
  %11 = alloca i8*
  %12 = alloca i32
  %13 = alloca [3 x i32], align 4
  %14 = alloca %class.String, align 8
  %15 = alloca %class.Vector.5, align 8
  %16 = alloca %class.String, align 8
  %17 = alloca %class.String, align 8
  %18 = alloca i32, align 4
  %19 = alloca %class.String, align 8
  %20 = alloca %class.String, align 8
  %21 = alloca i32, align 4
  %22 = alloca %class.String, align 8
  %23 = alloca %class.String, align 8
  %24 = alloca %class.String, align 8
  %25 = alloca i32
  %26 = alloca %class.String, align 8
  %27 = alloca %class.String, align 8
  %28 = alloca %class.String, align 8
  %29 = alloca %class.String, align 8
  %30 = alloca %"struct.Router::Connection"*, align 8
  %31 = alloca i32, align 4
  store %"class.Lexer::Compound"* %0, %"class.Lexer::Compound"** %5, align 8
  store %class.Lexer* %1, %class.Lexer** %6, align 8
  store i32 %2, i32* %7, align 4
  store %class.VariableEnvironment* %3, %class.VariableEnvironment** %8, align 8
  %32 = load %"class.Lexer::Compound"*, %"class.Lexer::Compound"** %5, align 8
  %33 = getelementptr inbounds %"class.Lexer::Compound", %"class.Lexer::Compound"* %32, i32 0, i32 12
  %34 = call dereferenceable(24) %class.String* @_ZN6VectorI6StringEixEi(%class.Vector.0* %33, i32 0)
  %35 = call zeroext i1 @_ZeqRK6StringPKc(%class.String* dereferenceable(24) %34, i8* getelementptr inbounds ([6 x i8], [6 x i8]* @.str.6, i32 0, i32 0))
  br i1 %35, label %36, label %40

; <label>:36:                                     ; preds = %4
  %37 = getelementptr inbounds %"class.Lexer::Compound", %"class.Lexer::Compound"* %32, i32 0, i32 12
  %38 = call dereferenceable(24) %class.String* @_ZN6VectorI6StringEixEi(%class.Vector.0* %37, i32 1)
  %39 = call zeroext i1 @_ZeqRK6StringPKc(%class.String* dereferenceable(24) %38, i8* getelementptr inbounds ([7 x i8], [7 x i8]* @.str.7, i32 0, i32 0))
  br label %40

; <label>:40:                                     ; preds = %36, %4
  %41 = phi i1 [ false, %4 ], [ %39, %36 ]
  br i1 %41, label %42, label %43

; <label>:42:                                     ; preds = %40
  br label %45

; <label>:43:                                     ; preds = %40
  call void @__assert_fail(i8* getelementptr inbounds ([62 x i8], [62 x i8]* @.str.8, i32 0, i32 0), i8* getelementptr inbounds ([25 x i8], [25 x i8]* @.str.1, i32 0, i32 0), i32 386, i8* getelementptr inbounds ([71 x i8], [71 x i8]* @__PRETTY_FUNCTION__._ZN5Lexer8Compound11expand_intoEPS_iR19VariableEnvironment, i32 0, i32 0)) #12
  unreachable
                                                  ; No predecessors!
  br label %45

; <label>:45:                                     ; preds = %44, %42
  %46 = load %class.Lexer*, %class.Lexer** %6, align 8
  %47 = getelementptr inbounds %class.Lexer, %class.Lexer* %46, i32 0, i32 19
  %48 = load %class.ErrorHandler*, %class.ErrorHandler** %47, align 8
  store %class.ErrorHandler* %48, %class.ErrorHandler** %9, align 8
  %49 = load %class.Lexer*, %class.Lexer** %6, align 8
  %50 = getelementptr inbounds %class.Lexer, %class.Lexer* %49, i32 0, i32 12
  %51 = load %"class.Lexer::Compound"*, %"class.Lexer::Compound"** %50, align 8
  %52 = getelementptr inbounds %"class.Lexer::Compound", %"class.Lexer::Compound"* %51, i32 0, i32 12
  %53 = load i32, i32* %7, align 4
  %54 = call dereferenceable(24) %class.String* @_ZN6VectorI6StringEixEi(%class.Vector.0* %52, i32 %53)
  call void @_ZN6StringC2ERKS_(%class.String* %10, %class.String* dereferenceable(24) %54)
  %55 = load %class.Lexer*, %class.Lexer** %6, align 8
  %56 = getelementptr inbounds %class.Lexer, %class.Lexer* %55, i32 0, i32 12
  %57 = load %"class.Lexer::Compound"*, %"class.Lexer::Compound"** %56, align 8
  %58 = getelementptr inbounds %"class.Lexer::Compound", %"class.Lexer::Compound"* %57, i32 0, i32 11
  %59 = load i32, i32* %7, align 4
  %60 = invoke dereferenceable(4) i32* @_ZN6VectorIiEixEi(%class.Vector.5* %58, i32 %59)
          to label %61 unwind label %108

; <label>:61:                                     ; preds = %45
  store i32 0, i32* %60, align 4
  %62 = load %class.Lexer*, %class.Lexer** %6, align 8
  invoke void @_ZN6StringC2ERKS_(%class.String* %14, %class.String* dereferenceable(24) %10)
          to label %63 unwind label %108

; <label>:63:                                     ; preds = %61
  %64 = getelementptr inbounds [3 x i32], [3 x i32]* %13, i32 0, i32 0
  invoke void @_ZN5Lexer11add_tunnelsE6StringPi(%class.Lexer* %62, %class.String* %14, i32* %64)
          to label %65 unwind label %112

; <label>:65:                                     ; preds = %63
  call void @_ZN6StringD2Ev(%class.String* %14) #9
  invoke void @_ZN6VectorIiEC2Ev(%class.Vector.5* %15)
          to label %66 unwind label %108

; <label>:66:                                     ; preds = %65
  %67 = getelementptr inbounds [3 x i32], [3 x i32]* %13, i64 0, i64 1
  %68 = load i32, i32* %67, align 4
  invoke void @_ZN6VectorIiE9push_backEi(%class.Vector.5* %15, i32 %68)
          to label %69 unwind label %116

; <label>:69:                                     ; preds = %66
  %70 = getelementptr inbounds [3 x i32], [3 x i32]* %13, i64 0, i64 2
  %71 = load i32, i32* %70, align 4
  invoke void @_ZN6VectorIiE9push_backEi(%class.Vector.5* %15, i32 %71)
          to label %72 unwind label %116

; <label>:72:                                     ; preds = %69
  invoke void @_ZN6StringC2ERKS_(%class.String* %17, %class.String* dereferenceable(24) %10)
          to label %73 unwind label %116

; <label>:73:                                     ; preds = %72
  invoke void @_Zpl6StringPKc(%class.String* sret %16, %class.String* %17, i8* getelementptr inbounds ([2 x i8], [2 x i8]* @.str.23, i32 0, i32 0))
          to label %74 unwind label %120

; <label>:74:                                     ; preds = %73
  call void @_ZN6StringD2Ev(%class.String* %17) #9
  store i32 2, i32* %18, align 4
  br label %75

; <label>:75:                                     ; preds = %233, %74
  %76 = load i32, i32* %18, align 4
  %77 = getelementptr inbounds %"class.Lexer::Compound", %"class.Lexer::Compound"* %32, i32 0, i32 11
  %78 = invoke i32 @_ZNK6VectorIiE4sizeEv(%class.Vector.5* %77)
          to label %79 unwind label %124

; <label>:79:                                     ; preds = %75
  %80 = icmp slt i32 %76, %78
  br i1 %80, label %81, label %237

; <label>:81:                                     ; preds = %79
  invoke void @_ZN6StringC2ERKS_(%class.String* %20, %class.String* dereferenceable(24) %16)
          to label %82 unwind label %124

; <label>:82:                                     ; preds = %81
  %83 = getelementptr inbounds %"class.Lexer::Compound", %"class.Lexer::Compound"* %32, i32 0, i32 12
  %84 = load i32, i32* %18, align 4
  %85 = invoke dereferenceable(24) %class.String* @_ZN6VectorI6StringEixEi(%class.Vector.0* %83, i32 %84)
          to label %86 unwind label %128

; <label>:86:                                     ; preds = %82
  invoke void @_Zpl6StringRKS_(%class.String* sret %19, %class.String* %20, %class.String* dereferenceable(24) %85)
          to label %87 unwind label %128

; <label>:87:                                     ; preds = %86
  call void @_ZN6StringD2Ev(%class.String* %20) #9
  %88 = load %class.Lexer*, %class.Lexer** %6, align 8
  %89 = getelementptr inbounds %class.Lexer, %class.Lexer* %88, i32 0, i32 12
  %90 = load %"class.Lexer::Compound"*, %"class.Lexer::Compound"** %89, align 8
  %91 = getelementptr inbounds %"class.Lexer::Compound", %"class.Lexer::Compound"* %90, i32 0, i32 10
  %92 = invoke dereferenceable(4) i32* @_ZN9HashTableI6StringiEixERKS0_(%class.HashTable* %91, %class.String* dereferenceable(24) %19)
          to label %93 unwind label %132

; <label>:93:                                     ; preds = %87
  %94 = load i32, i32* %92, align 4
  store i32 %94, i32* %21, align 4
  %95 = load i32, i32* %21, align 4
  %96 = icmp sge i32 %95, 0
  br i1 %96, label %97, label %150

; <label>:97:                                     ; preds = %93
  %98 = load %class.ErrorHandler*, %class.ErrorHandler** %9, align 8
  invoke void @_ZN6StringC2ERKS_(%class.String* %22, %class.String* dereferenceable(24) %19)
          to label %99 unwind label %132

; <label>:99:                                     ; preds = %97
  %100 = load %class.Lexer*, %class.Lexer** %6, align 8
  %101 = load i32, i32* %7, align 4
  invoke void @_ZNK5Lexer16element_landmarkEi(%class.String* sret %23, %class.Lexer* %100, i32 %101)
          to label %102 unwind label %136

; <label>:102:                                    ; preds = %99
  %103 = load %class.Lexer*, %class.Lexer** %6, align 8
  %104 = load i32, i32* %21, align 4
  invoke void @_ZNK5Lexer16element_landmarkEi(%class.String* sret %24, %class.Lexer* %103, i32 %104)
          to label %105 unwind label %140

; <label>:105:                                    ; preds = %102
  invoke void @_ZL19redeclaration_errorP12ErrorHandlerPKc6StringRKS3_S5_(%class.ErrorHandler* %98, i8* getelementptr inbounds ([8 x i8], [8 x i8]* @.str.24, i32 0, i32 0), %class.String* %22, %class.String* dereferenceable(24) %23, %class.String* dereferenceable(24) %24)
          to label %106 unwind label %144

; <label>:106:                                    ; preds = %105
  call void @_ZN6StringD2Ev(%class.String* %24) #9
  call void @_ZN6StringD2Ev(%class.String* %23) #9
  call void @_ZN6StringD2Ev(%class.String* %22) #9
  invoke void @_ZN6VectorIiE9push_backEi(%class.Vector.5* %15, i32 -1)
          to label %107 unwind label %132

; <label>:107:                                    ; preds = %106
  store i32 4, i32* %25, align 4
  br label %230

; <label>:108:                                    ; preds = %65, %61, %45
  %109 = landingpad { i8*, i32 }
          cleanup
  %110 = extractvalue { i8*, i32 } %109, 0
  store i8* %110, i8** %11, align 8
  %111 = extractvalue { i8*, i32 } %109, 1
  store i32 %111, i32* %12, align 4
  br label %329

; <label>:112:                                    ; preds = %63
  %113 = landingpad { i8*, i32 }
          cleanup
  %114 = extractvalue { i8*, i32 } %113, 0
  store i8* %114, i8** %11, align 8
  %115 = extractvalue { i8*, i32 } %113, 1
  store i32 %115, i32* %12, align 4
  call void @_ZN6StringD2Ev(%class.String* %14) #9
  br label %329

; <label>:116:                                    ; preds = %72, %69, %66
  %117 = landingpad { i8*, i32 }
          cleanup
  %118 = extractvalue { i8*, i32 } %117, 0
  store i8* %118, i8** %11, align 8
  %119 = extractvalue { i8*, i32 } %117, 1
  store i32 %119, i32* %12, align 4
  br label %328

; <label>:120:                                    ; preds = %73
  %121 = landingpad { i8*, i32 }
          cleanup
  %122 = extractvalue { i8*, i32 } %121, 0
  store i8* %122, i8** %11, align 8
  %123 = extractvalue { i8*, i32 } %121, 1
  store i32 %123, i32* %12, align 4
  call void @_ZN6StringD2Ev(%class.String* %17) #9
  br label %328

; <label>:124:                                    ; preds = %318, %314, %308, %303, %294, %290, %286, %281, %277, %273, %267, %260, %257, %250, %247, %241, %237, %81, %75
  %125 = landingpad { i8*, i32 }
          cleanup
  %126 = extractvalue { i8*, i32 } %125, 0
  store i8* %126, i8** %11, align 8
  %127 = extractvalue { i8*, i32 } %125, 1
  store i32 %127, i32* %12, align 4
  br label %327

; <label>:128:                                    ; preds = %86, %82
  %129 = landingpad { i8*, i32 }
          cleanup
  %130 = extractvalue { i8*, i32 } %129, 0
  store i8* %130, i8** %11, align 8
  %131 = extractvalue { i8*, i32 } %129, 1
  store i32 %131, i32* %12, align 4
  call void @_ZN6StringD2Ev(%class.String* %20) #9
  br label %327

; <label>:132:                                    ; preds = %217, %192, %179, %177, %175, %168, %155, %150, %106, %97, %87
  %133 = landingpad { i8*, i32 }
          cleanup
  %134 = extractvalue { i8*, i32 } %133, 0
  store i8* %134, i8** %11, align 8
  %135 = extractvalue { i8*, i32 } %133, 1
  store i32 %135, i32* %12, align 4
  br label %236

; <label>:136:                                    ; preds = %99
  %137 = landingpad { i8*, i32 }
          cleanup
  %138 = extractvalue { i8*, i32 } %137, 0
  store i8* %138, i8** %11, align 8
  %139 = extractvalue { i8*, i32 } %137, 1
  store i32 %139, i32* %12, align 4
  br label %149

; <label>:140:                                    ; preds = %102
  %141 = landingpad { i8*, i32 }
          cleanup
  %142 = extractvalue { i8*, i32 } %141, 0
  store i8* %142, i8** %11, align 8
  %143 = extractvalue { i8*, i32 } %141, 1
  store i32 %143, i32* %12, align 4
  br label %148

; <label>:144:                                    ; preds = %105
  %145 = landingpad { i8*, i32 }
          cleanup
  %146 = extractvalue { i8*, i32 } %145, 0
  store i8* %146, i8** %11, align 8
  %147 = extractvalue { i8*, i32 } %145, 1
  store i32 %147, i32* %12, align 4
  call void @_ZN6StringD2Ev(%class.String* %24) #9
  br label %148

; <label>:148:                                    ; preds = %144, %140
  call void @_ZN6StringD2Ev(%class.String* %23) #9
  br label %149

; <label>:149:                                    ; preds = %148, %136
  call void @_ZN6StringD2Ev(%class.String* %22) #9
  br label %236

; <label>:150:                                    ; preds = %93
  %151 = load %class.Lexer*, %class.Lexer** %6, align 8
  %152 = invoke i32 @_ZNK5Lexer12element_typeERK6String(%class.Lexer* %151, %class.String* dereferenceable(24) %19)
          to label %153 unwind label %132

; <label>:153:                                    ; preds = %150
  %154 = icmp sge i32 %152, 0
  br i1 %154, label %155, label %168

; <label>:155:                                    ; preds = %153
  %156 = load %class.ErrorHandler*, %class.ErrorHandler** %9, align 8
  %157 = load %class.Lexer*, %class.Lexer** %6, align 8
  %158 = load i32, i32* %7, align 4
  invoke void @_ZNK5Lexer16element_landmarkEi(%class.String* sret %26, %class.Lexer* %157, i32 %158)
          to label %159 unwind label %132

; <label>:159:                                    ; preds = %155
  %160 = invoke i8* @_ZNK6String5c_strEv(%class.String* %19)
          to label %161 unwind label %164

; <label>:161:                                    ; preds = %159
  %162 = invoke i32 (%class.ErrorHandler*, %class.String*, i8*, ...) @_ZN12ErrorHandler6lerrorERK6StringPKcz(%class.ErrorHandler* %156, %class.String* dereferenceable(24) %26, i8* getelementptr inbounds ([27 x i8], [27 x i8]* @.str.25, i32 0, i32 0), i8* %160)
          to label %163 unwind label %164

; <label>:163:                                    ; preds = %161
  call void @_ZN6StringD2Ev(%class.String* %26) #9
  br label %168

; <label>:164:                                    ; preds = %161, %159
  %165 = landingpad { i8*, i32 }
          cleanup
  %166 = extractvalue { i8*, i32 } %165, 0
  store i8* %166, i8** %11, align 8
  %167 = extractvalue { i8*, i32 } %165, 1
  store i32 %167, i32* %12, align 4
  call void @_ZN6StringD2Ev(%class.String* %26) #9
  br label %236

; <label>:168:                                    ; preds = %163, %153
  %169 = getelementptr inbounds %"class.Lexer::Compound", %"class.Lexer::Compound"* %32, i32 0, i32 11
  %170 = load i32, i32* %18, align 4
  %171 = invoke dereferenceable(4) i32* @_ZN6VectorIiEixEi(%class.Vector.5* %169, i32 %170)
          to label %172 unwind label %132

; <label>:172:                                    ; preds = %168
  %173 = load i32, i32* %171, align 4
  %174 = icmp eq i32 %173, 0
  br i1 %174, label %175, label %192

; <label>:175:                                    ; preds = %172
  %176 = invoke i32 @_ZNK6VectorIiE4sizeEv(%class.Vector.5* %15)
          to label %177 unwind label %132

; <label>:177:                                    ; preds = %175
  %178 = add nsw i32 %176, 3
  invoke void @_ZN6VectorIiE6resizeEii(%class.Vector.5* %15, i32 %178, i32 0)
          to label %179 unwind label %132

; <label>:179:                                    ; preds = %177
  %180 = load %class.Lexer*, %class.Lexer** %6, align 8
  invoke void @_ZN6StringC2ERKS_(%class.String* %27, %class.String* dereferenceable(24) %19)
          to label %181 unwind label %132

; <label>:181:                                    ; preds = %179
  %182 = invoke i32* @_ZN6VectorIiE3endEv(%class.Vector.5* %15)
          to label %183 unwind label %188

; <label>:183:                                    ; preds = %181
  %184 = getelementptr inbounds i32, i32* %182, i64 -3
  invoke void @_ZN5Lexer11add_tunnelsE6StringPi(%class.Lexer* %180, %class.String* %27, i32* %184)
          to label %185 unwind label %188

; <label>:185:                                    ; preds = %183
  call void @_ZN6StringD2Ev(%class.String* %27) #9
  %186 = load i32, i32* %18, align 4
  %187 = add nsw i32 %186, 2
  store i32 %187, i32* %18, align 4
  br label %229

; <label>:188:                                    ; preds = %183, %181
  %189 = landingpad { i8*, i32 }
          cleanup
  %190 = extractvalue { i8*, i32 } %189, 0
  store i8* %190, i8** %11, align 8
  %191 = extractvalue { i8*, i32 } %189, 1
  store i32 %191, i32* %12, align 4
  call void @_ZN6StringD2Ev(%class.String* %27) #9
  br label %236

; <label>:192:                                    ; preds = %172
  %193 = load %class.Lexer*, %class.Lexer** %6, align 8
  invoke void @_ZN6StringC2ERKS_(%class.String* %28, %class.String* dereferenceable(24) %19)
          to label %194 unwind label %132

; <label>:194:                                    ; preds = %192
  %195 = getelementptr inbounds %"class.Lexer::Compound", %"class.Lexer::Compound"* %32, i32 0, i32 11
  %196 = load i32, i32* %18, align 4
  %197 = invoke dereferenceable(4) i32* @_ZN6VectorIiEixEi(%class.Vector.5* %195, i32 %196)
          to label %198 unwind label %220

; <label>:198:                                    ; preds = %194
  %199 = load i32, i32* %197, align 4
  %200 = getelementptr inbounds %"class.Lexer::Compound", %"class.Lexer::Compound"* %32, i32 0, i32 13
  %201 = load i32, i32* %18, align 4
  %202 = invoke dereferenceable(24) %class.String* @_ZN6VectorI6StringEixEi(%class.Vector.0* %200, i32 %201)
          to label %203 unwind label %220

; <label>:203:                                    ; preds = %198
  %204 = load %class.VariableEnvironment*, %class.VariableEnvironment** %8, align 8
  %205 = bitcast %class.VariableEnvironment* %204 to %class.VariableExpander*
  invoke void @_Z9cp_expandRK6StringRK16VariableExpanderbi(%class.String* sret %29, %class.String* dereferenceable(24) %202, %class.VariableExpander* dereferenceable(8) %205, i1 zeroext false, i32 0)
          to label %206 unwind label %220

; <label>:206:                                    ; preds = %203
  %207 = getelementptr inbounds %"class.Lexer::Compound", %"class.Lexer::Compound"* %32, i32 0, i32 14
  %208 = load i32, i32* %18, align 4
  %209 = invoke dereferenceable(24) %class.String* @_ZN6VectorI6StringEixEi(%class.Vector.0* %207, i32 %208)
          to label %210 unwind label %224

; <label>:210:                                    ; preds = %206
  %211 = getelementptr inbounds %"class.Lexer::Compound", %"class.Lexer::Compound"* %32, i32 0, i32 15
  %212 = load i32, i32* %18, align 4
  %213 = invoke dereferenceable(4) i32* @_ZN6VectorIjEixEi(%class.Vector.2* %211, i32 %212)
          to label %214 unwind label %224

; <label>:214:                                    ; preds = %210
  %215 = load i32, i32* %213, align 4
  %216 = invoke i32 @_ZN5Lexer11get_elementE6StringiRKS0_S2_j(%class.Lexer* %193, %class.String* %28, i32 %199, %class.String* dereferenceable(24) %29, %class.String* dereferenceable(24) %209, i32 %215)
          to label %217 unwind label %224

; <label>:217:                                    ; preds = %214
  store i32 %216, i32* %21, align 4
  call void @_ZN6StringD2Ev(%class.String* %29) #9
  call void @_ZN6StringD2Ev(%class.String* %28) #9
  %218 = load i32, i32* %21, align 4
  invoke void @_ZN6VectorIiE9push_backEi(%class.Vector.5* %15, i32 %218)
          to label %219 unwind label %132

; <label>:219:                                    ; preds = %217
  br label %229

; <label>:220:                                    ; preds = %203, %198, %194
  %221 = landingpad { i8*, i32 }
          cleanup
  %222 = extractvalue { i8*, i32 } %221, 0
  store i8* %222, i8** %11, align 8
  %223 = extractvalue { i8*, i32 } %221, 1
  store i32 %223, i32* %12, align 4
  br label %228

; <label>:224:                                    ; preds = %214, %210, %206
  %225 = landingpad { i8*, i32 }
          cleanup
  %226 = extractvalue { i8*, i32 } %225, 0
  store i8* %226, i8** %11, align 8
  %227 = extractvalue { i8*, i32 } %225, 1
  store i32 %227, i32* %12, align 4
  call void @_ZN6StringD2Ev(%class.String* %29) #9
  br label %228

; <label>:228:                                    ; preds = %224, %220
  call void @_ZN6StringD2Ev(%class.String* %28) #9
  br label %236

; <label>:229:                                    ; preds = %219, %185
  store i32 0, i32* %25, align 4
  br label %230

; <label>:230:                                    ; preds = %229, %107
  call void @_ZN6StringD2Ev(%class.String* %19) #9
  %231 = load i32, i32* %25, align 4
  switch i32 %231, label %335 [
    i32 0, label %232
    i32 4, label %233
  ]

; <label>:232:                                    ; preds = %230
  br label %233

; <label>:233:                                    ; preds = %232, %230
  %234 = load i32, i32* %18, align 4
  %235 = add nsw i32 %234, 1
  store i32 %235, i32* %18, align 4
  br label %75

; <label>:236:                                    ; preds = %228, %188, %164, %149, %132
  call void @_ZN6StringD2Ev(%class.String* %19) #9
  br label %327

; <label>:237:                                    ; preds = %79
  %238 = getelementptr inbounds %"class.Lexer::Compound", %"class.Lexer::Compound"* %32, i32 0, i32 19
  %239 = invoke %"struct.Router::Connection"* @_ZN6VectorIN6Router10ConnectionEE5beginEv(%class.Vector.8* %238)
          to label %240 unwind label %124

; <label>:240:                                    ; preds = %237
  store %"struct.Router::Connection"* %239, %"struct.Router::Connection"** %30, align 8
  br label %241

; <label>:241:                                    ; preds = %299, %240
  %242 = load %"struct.Router::Connection"*, %"struct.Router::Connection"** %30, align 8
  %243 = getelementptr inbounds %"class.Lexer::Compound", %"class.Lexer::Compound"* %32, i32 0, i32 19
  %244 = invoke %"struct.Router::Connection"* @_ZN6VectorIN6Router10ConnectionEE3endEv(%class.Vector.8* %243)
          to label %245 unwind label %124

; <label>:245:                                    ; preds = %241
  %246 = icmp ne %"struct.Router::Connection"* %242, %244
  br i1 %246, label %247, label %302

; <label>:247:                                    ; preds = %245
  %248 = load %"struct.Router::Connection"*, %"struct.Router::Connection"** %30, align 8
  %249 = invoke dereferenceable(8) %"struct.Router::Port"* @_ZNK6Router10ConnectionixEi(%"struct.Router::Connection"* %248, i32 0)
          to label %250 unwind label %124

; <label>:250:                                    ; preds = %247
  %251 = getelementptr inbounds %"struct.Router::Port", %"struct.Router::Port"* %249, i32 0, i32 0
  %252 = load i32, i32* %251, align 4
  %253 = invoke dereferenceable(4) i32* @_ZN6VectorIiEixEi(%class.Vector.5* %15, i32 %252)
          to label %254 unwind label %124

; <label>:254:                                    ; preds = %250
  %255 = load i32, i32* %253, align 4
  %256 = icmp sge i32 %255, 0
  br i1 %256, label %257, label %298

; <label>:257:                                    ; preds = %254
  %258 = load %"struct.Router::Connection"*, %"struct.Router::Connection"** %30, align 8
  %259 = invoke dereferenceable(8) %"struct.Router::Port"* @_ZNK6Router10ConnectionixEi(%"struct.Router::Connection"* %258, i32 1)
          to label %260 unwind label %124

; <label>:260:                                    ; preds = %257
  %261 = getelementptr inbounds %"struct.Router::Port", %"struct.Router::Port"* %259, i32 0, i32 0
  %262 = load i32, i32* %261, align 4
  %263 = invoke dereferenceable(4) i32* @_ZN6VectorIiEixEi(%class.Vector.5* %15, i32 %262)
          to label %264 unwind label %124

; <label>:264:                                    ; preds = %260
  %265 = load i32, i32* %263, align 4
  %266 = icmp sge i32 %265, 0
  br i1 %266, label %267, label %298

; <label>:267:                                    ; preds = %264
  %268 = load %class.Lexer*, %class.Lexer** %6, align 8
  %269 = getelementptr inbounds %class.Lexer, %class.Lexer* %268, i32 0, i32 12
  %270 = load %"class.Lexer::Compound"*, %"class.Lexer::Compound"** %269, align 8
  %271 = load %"struct.Router::Connection"*, %"struct.Router::Connection"** %30, align 8
  %272 = invoke dereferenceable(8) %"struct.Router::Port"* @_ZNK6Router10ConnectionixEi(%"struct.Router::Connection"* %271, i32 1)
          to label %273 unwind label %124

; <label>:273:                                    ; preds = %267
  %274 = getelementptr inbounds %"struct.Router::Port", %"struct.Router::Port"* %272, i32 0, i32 0
  %275 = load i32, i32* %274, align 4
  %276 = invoke dereferenceable(4) i32* @_ZN6VectorIiEixEi(%class.Vector.5* %15, i32 %275)
          to label %277 unwind label %124

; <label>:277:                                    ; preds = %273
  %278 = load i32, i32* %276, align 4
  %279 = load %"struct.Router::Connection"*, %"struct.Router::Connection"** %30, align 8
  %280 = invoke dereferenceable(8) %"struct.Router::Port"* @_ZNK6Router10ConnectionixEi(%"struct.Router::Connection"* %279, i32 1)
          to label %281 unwind label %124

; <label>:281:                                    ; preds = %277
  %282 = getelementptr inbounds %"struct.Router::Port", %"struct.Router::Port"* %280, i32 0, i32 1
  %283 = load i32, i32* %282, align 4
  %284 = load %"struct.Router::Connection"*, %"struct.Router::Connection"** %30, align 8
  %285 = invoke dereferenceable(8) %"struct.Router::Port"* @_ZNK6Router10ConnectionixEi(%"struct.Router::Connection"* %284, i32 0)
          to label %286 unwind label %124

; <label>:286:                                    ; preds = %281
  %287 = getelementptr inbounds %"struct.Router::Port", %"struct.Router::Port"* %285, i32 0, i32 0
  %288 = load i32, i32* %287, align 4
  %289 = invoke dereferenceable(4) i32* @_ZN6VectorIiEixEi(%class.Vector.5* %15, i32 %288)
          to label %290 unwind label %124

; <label>:290:                                    ; preds = %286
  %291 = load i32, i32* %289, align 4
  %292 = load %"struct.Router::Connection"*, %"struct.Router::Connection"** %30, align 8
  %293 = invoke dereferenceable(8) %"struct.Router::Port"* @_ZNK6Router10ConnectionixEi(%"struct.Router::Connection"* %292, i32 0)
          to label %294 unwind label %124

; <label>:294:                                    ; preds = %290
  %295 = getelementptr inbounds %"struct.Router::Port", %"struct.Router::Port"* %293, i32 0, i32 1
  %296 = load i32, i32* %295, align 4
  invoke void @_ZN5Lexer8Compound7connectEiiii(%"class.Lexer::Compound"* %270, i32 %278, i32 %283, i32 %291, i32 %296)
          to label %297 unwind label %124

; <label>:297:                                    ; preds = %294
  br label %298

; <label>:298:                                    ; preds = %297, %264, %254
  br label %299

; <label>:299:                                    ; preds = %298
  %300 = load %"struct.Router::Connection"*, %"struct.Router::Connection"** %30, align 8
  %301 = getelementptr inbounds %"struct.Router::Connection", %"struct.Router::Connection"* %300, i32 1
  store %"struct.Router::Connection"* %301, %"struct.Router::Connection"** %30, align 8
  br label %241

; <label>:302:                                    ; preds = %245
  store i32 2, i32* %31, align 4
  br label %303

; <label>:303:                                    ; preds = %323, %302
  %304 = load i32, i32* %31, align 4
  %305 = invoke i32 @_ZNK6VectorIiE4sizeEv(%class.Vector.5* %15)
          to label %306 unwind label %124

; <label>:306:                                    ; preds = %303
  %307 = icmp slt i32 %304, %305
  br i1 %307, label %308, label %326

; <label>:308:                                    ; preds = %306
  %309 = load i32, i32* %31, align 4
  %310 = invoke dereferenceable(4) i32* @_ZN6VectorIiEixEi(%class.Vector.5* %15, i32 %309)
          to label %311 unwind label %124

; <label>:311:                                    ; preds = %308
  %312 = load i32, i32* %310, align 4
  %313 = icmp sge i32 %312, 0
  br i1 %313, label %314, label %322

; <label>:314:                                    ; preds = %311
  %315 = load %class.Lexer*, %class.Lexer** %6, align 8
  %316 = load i32, i32* %31, align 4
  %317 = invoke dereferenceable(4) i32* @_ZN6VectorIiEixEi(%class.Vector.5* %15, i32 %316)
          to label %318 unwind label %124

; <label>:318:                                    ; preds = %314
  %319 = load i32, i32* %317, align 4
  %320 = load %class.VariableEnvironment*, %class.VariableEnvironment** %8, align 8
  invoke void @_ZN5Lexer23expand_compound_elementEiR19VariableEnvironment(%class.Lexer* %315, i32 %319, %class.VariableEnvironment* dereferenceable(56) %320)
          to label %321 unwind label %124

; <label>:321:                                    ; preds = %318
  br label %322

; <label>:322:                                    ; preds = %321, %311
  br label %323

; <label>:323:                                    ; preds = %322
  %324 = load i32, i32* %31, align 4
  %325 = add nsw i32 %324, 1
  store i32 %325, i32* %31, align 4
  br label %303

; <label>:326:                                    ; preds = %306
  call void @_ZN6StringD2Ev(%class.String* %16) #9
  call void @_ZN6VectorIiED2Ev(%class.Vector.5* %15) #9
  call void @_ZN6StringD2Ev(%class.String* %10) #9
  ret void

; <label>:327:                                    ; preds = %236, %128, %124
  call void @_ZN6StringD2Ev(%class.String* %16) #9
  br label %328

; <label>:328:                                    ; preds = %327, %120, %116
  call void @_ZN6VectorIiED2Ev(%class.Vector.5* %15) #9
  br label %329

; <label>:329:                                    ; preds = %328, %112, %108
  call void @_ZN6StringD2Ev(%class.String* %10) #9
  br label %330

; <label>:330:                                    ; preds = %329
  %331 = load i8*, i8** %11, align 8
  %332 = load i32, i32* %12, align 4
  %333 = insertvalue { i8*, i32 } undef, i8* %331, 0
  %334 = insertvalue { i8*, i32 } %333, i32 %332, 1
  resume { i8*, i32 } %334

; <label>:335:                                    ; preds = %230
  unreachable
}

; Function Attrs: noinline optnone uwtable
define void @_ZN5Lexer11add_tunnelsE6StringPi(%class.Lexer*, %class.String*, i32*) #2 align 2 personality i8* bitcast (i32 (...)* @__gxx_personality_v0 to i8*) {
  %4 = alloca %class.Lexer*, align 8
  %5 = alloca i32*, align 8
  %6 = alloca [4 x %class.String], align 16
  %7 = alloca i8*
  %8 = alloca i32
  %9 = alloca %class.String, align 8
  %10 = alloca %class.String, align 8
  %11 = alloca %class.String, align 8
  %12 = alloca %class.String, align 8
  %13 = alloca %class.String, align 8
  %14 = alloca %class.String, align 8
  %15 = alloca [4 x %"struct.Router::Port"], align 16
  %16 = alloca i8, align 1
  %17 = alloca i32, align 4
  %18 = alloca %class.String, align 8
  %19 = alloca %class.String, align 8
  %20 = alloca %class.String, align 8
  %21 = alloca %class.String, align 8
  %22 = alloca %class.String, align 8
  %23 = alloca %class.String, align 8
  %24 = alloca [4 x %"class.Lexer::TunnelEnd"*], align 16
  %25 = alloca i32, align 4
  %26 = alloca %class.String, align 8
  %27 = alloca %class.String, align 8
  %28 = alloca %class.String, align 8
  store %class.Lexer* %0, %class.Lexer** %4, align 8
  store i32* %2, i32** %5, align 8
  %29 = load %class.Lexer*, %class.Lexer** %4, align 8
  %30 = getelementptr inbounds [4 x %class.String], [4 x %class.String]* %6, i32 0, i32 0
  %31 = getelementptr inbounds %class.String, %class.String* %30, i64 4
  br label %32

; <label>:32:                                     ; preds = %34, %3
  %33 = phi %class.String* [ %30, %3 ], [ %35, %34 ]
  invoke void @_ZN6StringC2Ev(%class.String* %33)
          to label %34 unwind label %120

; <label>:34:                                     ; preds = %32
  %35 = getelementptr inbounds %class.String, %class.String* %33, i64 1
  %36 = icmp eq %class.String* %35, %31
  br i1 %36, label %37, label %32

; <label>:37:                                     ; preds = %34
  %38 = getelementptr inbounds [4 x %class.String], [4 x %class.String]* %6, i64 0, i64 3
  %39 = invoke dereferenceable(24) %class.String* @_ZN6StringaSERKS_(%class.String* %38, %class.String* dereferenceable(24) %1)
          to label %40 unwind label %130

; <label>:40:                                     ; preds = %37
  %41 = getelementptr inbounds [4 x %class.String], [4 x %class.String]* %6, i64 0, i64 0
  %42 = invoke dereferenceable(24) %class.String* @_ZN6StringaSERKS_(%class.String* %41, %class.String* dereferenceable(24) %39)
          to label %43 unwind label %130

; <label>:43:                                     ; preds = %40
  invoke void @_ZN6StringC2ERKS_(%class.String* %11, %class.String* dereferenceable(24) %1)
          to label %44 unwind label %130

; <label>:44:                                     ; preds = %43
  invoke void @_Zpl6StringPKc(%class.String* sret %10, %class.String* %11, i8* getelementptr inbounds ([2 x i8], [2 x i8]* @.str.23, i32 0, i32 0))
          to label %45 unwind label %134

; <label>:45:                                     ; preds = %44
  %46 = load i8*, i8** getelementptr inbounds ([2 x i8*], [2 x i8*]* @_ZL10port_names, i64 0, i64 0), align 16
  invoke void @_Zpl6StringPKc(%class.String* sret %9, %class.String* %10, i8* %46)
          to label %47 unwind label %138

; <label>:47:                                     ; preds = %45
  %48 = getelementptr inbounds [4 x %class.String], [4 x %class.String]* %6, i64 0, i64 1
  %49 = invoke dereferenceable(24) %class.String* @_ZN6StringaSEOS_(%class.String* %48, %class.String* dereferenceable(24) %9)
          to label %50 unwind label %142

; <label>:50:                                     ; preds = %47
  call void @_ZN6StringD2Ev(%class.String* %9) #9
  call void @_ZN6StringD2Ev(%class.String* %10) #9
  call void @_ZN6StringD2Ev(%class.String* %11) #9
  invoke void @_ZN6StringC2ERKS_(%class.String* %14, %class.String* dereferenceable(24) %1)
          to label %51 unwind label %130

; <label>:51:                                     ; preds = %50
  invoke void @_Zpl6StringPKc(%class.String* sret %13, %class.String* %14, i8* getelementptr inbounds ([2 x i8], [2 x i8]* @.str.23, i32 0, i32 0))
          to label %52 unwind label %148

; <label>:52:                                     ; preds = %51
  %53 = load i8*, i8** getelementptr inbounds ([2 x i8*], [2 x i8*]* @_ZL10port_names, i64 0, i64 1), align 8
  invoke void @_Zpl6StringPKc(%class.String* sret %12, %class.String* %13, i8* %53)
          to label %54 unwind label %152

; <label>:54:                                     ; preds = %52
  %55 = getelementptr inbounds [4 x %class.String], [4 x %class.String]* %6, i64 0, i64 2
  %56 = invoke dereferenceable(24) %class.String* @_ZN6StringaSEOS_(%class.String* %55, %class.String* dereferenceable(24) %12)
          to label %57 unwind label %156

; <label>:57:                                     ; preds = %54
  call void @_ZN6StringD2Ev(%class.String* %12) #9
  call void @_ZN6StringD2Ev(%class.String* %13) #9
  call void @_ZN6StringD2Ev(%class.String* %14) #9
  %58 = getelementptr inbounds [4 x %"struct.Router::Port"], [4 x %"struct.Router::Port"]* %15, i32 0, i32 0
  %59 = getelementptr inbounds %"struct.Router::Port", %"struct.Router::Port"* %58, i64 4
  br label %60

; <label>:60:                                     ; preds = %62, %57
  %61 = phi %"struct.Router::Port"* [ %58, %57 ], [ %63, %62 ]
  invoke void @_ZN6Router4PortC2Ev(%"struct.Router::Port"* %61)
          to label %62 unwind label %130

; <label>:62:                                     ; preds = %60
  %63 = getelementptr inbounds %"struct.Router::Port", %"struct.Router::Port"* %61, i64 1
  %64 = icmp eq %"struct.Router::Port"* %63, %59
  br i1 %64, label %65, label %60

; <label>:65:                                     ; preds = %62
  store i8 1, i8* %16, align 1
  store i32 0, i32* %17, align 4
  br label %66

; <label>:66:                                     ; preds = %191, %65
  %67 = load i32, i32* %17, align 4
  %68 = icmp slt i32 %67, 3
  br i1 %68, label %69, label %194

; <label>:69:                                     ; preds = %66
  %70 = load i32, i32* %17, align 4
  %71 = sext i32 %70 to i64
  %72 = getelementptr inbounds [4 x %class.String], [4 x %class.String]* %6, i64 0, i64 %71
  invoke void @_ZN6StringC2ERKS_(%class.String* %18, %class.String* dereferenceable(24) %72)
          to label %73 unwind label %130

; <label>:73:                                     ; preds = %69
  invoke void @_ZN6StringC2Ev(%class.String* %19)
          to label %74 unwind label %162

; <label>:74:                                     ; preds = %73
  invoke void @_ZN6StringC2Ev(%class.String* %20)
          to label %75 unwind label %166

; <label>:75:                                     ; preds = %74
  %76 = invoke i32 @_ZN5Lexer11get_elementE6StringiRKS0_S2_j(%class.Lexer* %29, %class.String* %18, i32 0, %class.String* dereferenceable(24) %19, %class.String* dereferenceable(24) %20, i32 0)
          to label %77 unwind label %170

; <label>:77:                                     ; preds = %75
  %78 = load i32*, i32** %5, align 8
  %79 = load i32, i32* %17, align 4
  %80 = sext i32 %79 to i64
  %81 = getelementptr inbounds i32, i32* %78, i64 %80
  store i32 %76, i32* %81, align 4
  %82 = load i32, i32* %17, align 4
  %83 = sext i32 %82 to i64
  %84 = getelementptr inbounds [4 x %"struct.Router::Port"], [4 x %"struct.Router::Port"]* %15, i64 0, i64 %83
  %85 = getelementptr inbounds %"struct.Router::Port", %"struct.Router::Port"* %84, i32 0, i32 0
  store i32 %76, i32* %85, align 8
  call void @_ZN6StringD2Ev(%class.String* %20) #9
  call void @_ZN6StringD2Ev(%class.String* %19) #9
  call void @_ZN6StringD2Ev(%class.String* %18) #9
  %86 = load i32, i32* %17, align 4
  %87 = sext i32 %86 to i64
  %88 = getelementptr inbounds [4 x %"struct.Router::Port"], [4 x %"struct.Router::Port"]* %15, i64 0, i64 %87
  %89 = getelementptr inbounds %"struct.Router::Port", %"struct.Router::Port"* %88, i32 0, i32 1
  store i32 0, i32* %89, align 4
  %90 = getelementptr inbounds %class.Lexer, %class.Lexer* %29, i32 0, i32 12
  %91 = load %"class.Lexer::Compound"*, %"class.Lexer::Compound"** %90, align 8
  %92 = getelementptr inbounds %"class.Lexer::Compound", %"class.Lexer::Compound"* %91, i32 0, i32 11
  %93 = load i32*, i32** %5, align 8
  %94 = load i32, i32* %17, align 4
  %95 = sext i32 %94 to i64
  %96 = getelementptr inbounds i32, i32* %93, i64 %95
  %97 = load i32, i32* %96, align 4
  %98 = invoke dereferenceable(4) i32* @_ZN6VectorIiEixEi(%class.Vector.5* %92, i32 %97)
          to label %99 unwind label %130

; <label>:99:                                     ; preds = %77
  %100 = load i32, i32* %98, align 4
  %101 = icmp ne i32 %100, 0
  br i1 %101, label %102, label %190

; <label>:102:                                    ; preds = %99
  %103 = getelementptr inbounds %class.Lexer, %class.Lexer* %29, i32 0, i32 19
  %104 = load %class.ErrorHandler*, %class.ErrorHandler** %103, align 8
  %105 = load i32, i32* %17, align 4
  %106 = sext i32 %105 to i64
  %107 = getelementptr inbounds [4 x %class.String], [4 x %class.String]* %6, i64 0, i64 %106
  invoke void @_ZN6StringC2ERKS_(%class.String* %21, %class.String* dereferenceable(24) %107)
          to label %108 unwind label %130

; <label>:108:                                    ; preds = %102
  %109 = getelementptr inbounds %class.Lexer, %class.Lexer* %29, i32 0, i32 1
  invoke void @_ZNK5Lexer9FileState8landmarkEv(%class.String* sret %22, %"struct.Lexer::FileState"* %109)
          to label %110 unwind label %176

; <label>:110:                                    ; preds = %108
  %111 = getelementptr inbounds %class.Lexer, %class.Lexer* %29, i32 0, i32 12
  %112 = load %"class.Lexer::Compound"*, %"class.Lexer::Compound"** %111, align 8
  %113 = load i32, i32* %17, align 4
  %114 = sext i32 %113 to i64
  %115 = getelementptr inbounds [4 x %"struct.Router::Port"], [4 x %"struct.Router::Port"]* %15, i64 0, i64 %114
  %116 = getelementptr inbounds %"struct.Router::Port", %"struct.Router::Port"* %115, i32 0, i32 0
  %117 = load i32, i32* %116, align 8
  invoke void @_ZNK5Lexer8Compound16element_landmarkEi(%class.String* sret %23, %"class.Lexer::Compound"* %112, i32 %117)
          to label %118 unwind label %180

; <label>:118:                                    ; preds = %110
  invoke void @_ZL19redeclaration_errorP12ErrorHandlerPKc6StringRKS3_S5_(%class.ErrorHandler* %104, i8* getelementptr inbounds ([8 x i8], [8 x i8]* @.str.24, i32 0, i32 0), %class.String* %21, %class.String* dereferenceable(24) %22, %class.String* dereferenceable(24) %23)
          to label %119 unwind label %184

; <label>:119:                                    ; preds = %118
  call void @_ZN6StringD2Ev(%class.String* %23) #9
  call void @_ZN6StringD2Ev(%class.String* %22) #9
  call void @_ZN6StringD2Ev(%class.String* %21) #9
  store i8 0, i8* %16, align 1
  br label %190

; <label>:120:                                    ; preds = %32
  %121 = landingpad { i8*, i32 }
          cleanup
  %122 = extractvalue { i8*, i32 } %121, 0
  store i8* %122, i8** %7, align 8
  %123 = extractvalue { i8*, i32 } %121, 1
  store i32 %123, i32* %8, align 4
  %124 = icmp eq %class.String* %30, %33
  br i1 %124, label %129, label %125

; <label>:125:                                    ; preds = %125, %120
  %126 = phi %class.String* [ %33, %120 ], [ %127, %125 ]
  %127 = getelementptr inbounds %class.String, %class.String* %126, i64 -1
  call void @_ZN6StringD2Ev(%class.String* %127) #9
  %128 = icmp eq %class.String* %127, %30
  br i1 %128, label %129, label %125

; <label>:129:                                    ; preds = %125, %120
  br label %297

; <label>:130:                                    ; preds = %274, %269, %230, %219, %211, %201, %102, %77, %69, %60, %50, %43, %40, %37
  %131 = landingpad { i8*, i32 }
          cleanup
  %132 = extractvalue { i8*, i32 } %131, 0
  store i8* %132, i8** %7, align 8
  %133 = extractvalue { i8*, i32 } %131, 1
  store i32 %133, i32* %8, align 4
  br label %289

; <label>:134:                                    ; preds = %44
  %135 = landingpad { i8*, i32 }
          cleanup
  %136 = extractvalue { i8*, i32 } %135, 0
  store i8* %136, i8** %7, align 8
  %137 = extractvalue { i8*, i32 } %135, 1
  store i32 %137, i32* %8, align 4
  br label %147

; <label>:138:                                    ; preds = %45
  %139 = landingpad { i8*, i32 }
          cleanup
  %140 = extractvalue { i8*, i32 } %139, 0
  store i8* %140, i8** %7, align 8
  %141 = extractvalue { i8*, i32 } %139, 1
  store i32 %141, i32* %8, align 4
  br label %146

; <label>:142:                                    ; preds = %47
  %143 = landingpad { i8*, i32 }
          cleanup
  %144 = extractvalue { i8*, i32 } %143, 0
  store i8* %144, i8** %7, align 8
  %145 = extractvalue { i8*, i32 } %143, 1
  store i32 %145, i32* %8, align 4
  call void @_ZN6StringD2Ev(%class.String* %9) #9
  br label %146

; <label>:146:                                    ; preds = %142, %138
  call void @_ZN6StringD2Ev(%class.String* %10) #9
  br label %147

; <label>:147:                                    ; preds = %146, %134
  call void @_ZN6StringD2Ev(%class.String* %11) #9
  br label %289

; <label>:148:                                    ; preds = %51
  %149 = landingpad { i8*, i32 }
          cleanup
  %150 = extractvalue { i8*, i32 } %149, 0
  store i8* %150, i8** %7, align 8
  %151 = extractvalue { i8*, i32 } %149, 1
  store i32 %151, i32* %8, align 4
  br label %161

; <label>:152:                                    ; preds = %52
  %153 = landingpad { i8*, i32 }
          cleanup
  %154 = extractvalue { i8*, i32 } %153, 0
  store i8* %154, i8** %7, align 8
  %155 = extractvalue { i8*, i32 } %153, 1
  store i32 %155, i32* %8, align 4
  br label %160

; <label>:156:                                    ; preds = %54
  %157 = landingpad { i8*, i32 }
          cleanup
  %158 = extractvalue { i8*, i32 } %157, 0
  store i8* %158, i8** %7, align 8
  %159 = extractvalue { i8*, i32 } %157, 1
  store i32 %159, i32* %8, align 4
  call void @_ZN6StringD2Ev(%class.String* %12) #9
  br label %160

; <label>:160:                                    ; preds = %156, %152
  call void @_ZN6StringD2Ev(%class.String* %13) #9
  br label %161

; <label>:161:                                    ; preds = %160, %148
  call void @_ZN6StringD2Ev(%class.String* %14) #9
  br label %289

; <label>:162:                                    ; preds = %73
  %163 = landingpad { i8*, i32 }
          cleanup
  %164 = extractvalue { i8*, i32 } %163, 0
  store i8* %164, i8** %7, align 8
  %165 = extractvalue { i8*, i32 } %163, 1
  store i32 %165, i32* %8, align 4
  br label %175

; <label>:166:                                    ; preds = %74
  %167 = landingpad { i8*, i32 }
          cleanup
  %168 = extractvalue { i8*, i32 } %167, 0
  store i8* %168, i8** %7, align 8
  %169 = extractvalue { i8*, i32 } %167, 1
  store i32 %169, i32* %8, align 4
  br label %174

; <label>:170:                                    ; preds = %75
  %171 = landingpad { i8*, i32 }
          cleanup
  %172 = extractvalue { i8*, i32 } %171, 0
  store i8* %172, i8** %7, align 8
  %173 = extractvalue { i8*, i32 } %171, 1
  store i32 %173, i32* %8, align 4
  call void @_ZN6StringD2Ev(%class.String* %20) #9
  br label %174

; <label>:174:                                    ; preds = %170, %166
  call void @_ZN6StringD2Ev(%class.String* %19) #9
  br label %175

; <label>:175:                                    ; preds = %174, %162
  call void @_ZN6StringD2Ev(%class.String* %18) #9
  br label %289

; <label>:176:                                    ; preds = %108
  %177 = landingpad { i8*, i32 }
          cleanup
  %178 = extractvalue { i8*, i32 } %177, 0
  store i8* %178, i8** %7, align 8
  %179 = extractvalue { i8*, i32 } %177, 1
  store i32 %179, i32* %8, align 4
  br label %189

; <label>:180:                                    ; preds = %110
  %181 = landingpad { i8*, i32 }
          cleanup
  %182 = extractvalue { i8*, i32 } %181, 0
  store i8* %182, i8** %7, align 8
  %183 = extractvalue { i8*, i32 } %181, 1
  store i32 %183, i32* %8, align 4
  br label %188

; <label>:184:                                    ; preds = %118
  %185 = landingpad { i8*, i32 }
          cleanup
  %186 = extractvalue { i8*, i32 } %185, 0
  store i8* %186, i8** %7, align 8
  %187 = extractvalue { i8*, i32 } %185, 1
  store i32 %187, i32* %8, align 4
  call void @_ZN6StringD2Ev(%class.String* %23) #9
  br label %188

; <label>:188:                                    ; preds = %184, %180
  call void @_ZN6StringD2Ev(%class.String* %22) #9
  br label %189

; <label>:189:                                    ; preds = %188, %176
  call void @_ZN6StringD2Ev(%class.String* %21) #9
  br label %289

; <label>:190:                                    ; preds = %119, %99
  br label %191

; <label>:191:                                    ; preds = %190
  %192 = load i32, i32* %17, align 4
  %193 = add nsw i32 %192, 1
  store i32 %193, i32* %17, align 4
  br label %66

; <label>:194:                                    ; preds = %66
  %195 = getelementptr inbounds [4 x %"struct.Router::Port"], [4 x %"struct.Router::Port"]* %15, i64 0, i64 0
  %196 = getelementptr inbounds [4 x %"struct.Router::Port"], [4 x %"struct.Router::Port"]* %15, i64 0, i64 3
  %197 = bitcast %"struct.Router::Port"* %196 to i8*
  %198 = bitcast %"struct.Router::Port"* %195 to i8*
  call void @llvm.memcpy.p0i8.p0i8.i64(i8* %197, i8* %198, i64 8, i32 4, i1 false)
  %199 = load i8, i8* %16, align 1
  %200 = trunc i8 %199 to i1
  br i1 %200, label %201, label %281

; <label>:201:                                    ; preds = %194
  %202 = getelementptr inbounds %class.Lexer, %class.Lexer* %29, i32 0, i32 12
  %203 = load %"class.Lexer::Compound"*, %"class.Lexer::Compound"** %202, align 8
  %204 = invoke i32 @_ZNK5Lexer8Compound5depthEv(%"class.Lexer::Compound"* %203)
          to label %205 unwind label %130

; <label>:205:                                    ; preds = %201
  %206 = icmp eq i32 %204, 0
  br i1 %206, label %207, label %281

; <label>:207:                                    ; preds = %205
  store i32 0, i32* %25, align 4
  br label %208

; <label>:208:                                    ; preds = %263, %207
  %209 = load i32, i32* %25, align 4
  %210 = icmp slt i32 %209, 4
  br i1 %210, label %211, label %266

; <label>:211:                                    ; preds = %208
  %212 = load i32, i32* %25, align 4
  %213 = sext i32 %212 to i64
  %214 = getelementptr inbounds [4 x %"struct.Router::Port"], [4 x %"struct.Router::Port"]* %15, i64 0, i64 %213
  %215 = load i32, i32* %25, align 4
  %216 = srem i32 %215, 2
  %217 = icmp ne i32 %216, 0
  %218 = invoke %"class.Lexer::TunnelEnd"* @_ZN5Lexer11find_tunnelERKN6Router4PortEbb(%class.Lexer* %29, %"struct.Router::Port"* dereferenceable(8) %214, i1 zeroext %217, i1 zeroext true)
          to label %219 unwind label %130

; <label>:219:                                    ; preds = %211
  %220 = load i32, i32* %25, align 4
  %221 = sext i32 %220 to i64
  %222 = getelementptr inbounds [4 x %"class.Lexer::TunnelEnd"*], [4 x %"class.Lexer::TunnelEnd"*]* %24, i64 0, i64 %221
  store %"class.Lexer::TunnelEnd"* %218, %"class.Lexer::TunnelEnd"** %222, align 8
  %223 = load i32, i32* %25, align 4
  %224 = sext i32 %223 to i64
  %225 = getelementptr inbounds [4 x %"class.Lexer::TunnelEnd"*], [4 x %"class.Lexer::TunnelEnd"*]* %24, i64 0, i64 %224
  %226 = load %"class.Lexer::TunnelEnd"*, %"class.Lexer::TunnelEnd"** %225, align 8
  %227 = invoke %"class.Lexer::TunnelEnd"* @_ZNK5Lexer9TunnelEnd5otherEv(%"class.Lexer::TunnelEnd"* %226)
          to label %228 unwind label %130

; <label>:228:                                    ; preds = %219
  %229 = icmp ne %"class.Lexer::TunnelEnd"* %227, null
  br i1 %229, label %230, label %262

; <label>:230:                                    ; preds = %228
  %231 = getelementptr inbounds %class.Lexer, %class.Lexer* %29, i32 0, i32 19
  %232 = load %class.ErrorHandler*, %class.ErrorHandler** %231, align 8
  %233 = load i32, i32* %25, align 4
  %234 = sext i32 %233 to i64
  %235 = getelementptr inbounds [4 x %class.String], [4 x %class.String]* %6, i64 0, i64 %234
  invoke void @_ZN6StringC2ERKS_(%class.String* %26, %class.String* dereferenceable(24) %235)
          to label %236 unwind label %130

; <label>:236:                                    ; preds = %230
  %237 = getelementptr inbounds %class.Lexer, %class.Lexer* %29, i32 0, i32 1
  invoke void @_ZNK5Lexer9FileState8landmarkEv(%class.String* sret %27, %"struct.Lexer::FileState"* %237)
          to label %238 unwind label %248

; <label>:238:                                    ; preds = %236
  %239 = getelementptr inbounds %class.Lexer, %class.Lexer* %29, i32 0, i32 12
  %240 = load %"class.Lexer::Compound"*, %"class.Lexer::Compound"** %239, align 8
  %241 = load i32, i32* %25, align 4
  %242 = sext i32 %241 to i64
  %243 = getelementptr inbounds [4 x %"struct.Router::Port"], [4 x %"struct.Router::Port"]* %15, i64 0, i64 %242
  %244 = getelementptr inbounds %"struct.Router::Port", %"struct.Router::Port"* %243, i32 0, i32 0
  %245 = load i32, i32* %244, align 8
  invoke void @_ZNK5Lexer8Compound16element_landmarkEi(%class.String* sret %28, %"class.Lexer::Compound"* %240, i32 %245)
          to label %246 unwind label %252

; <label>:246:                                    ; preds = %238
  invoke void @_ZL19redeclaration_errorP12ErrorHandlerPKc6StringRKS3_S5_(%class.ErrorHandler* %232, i8* getelementptr inbounds ([18 x i8], [18 x i8]* @.str.44, i32 0, i32 0), %class.String* %26, %class.String* dereferenceable(24) %27, %class.String* dereferenceable(24) %28)
          to label %247 unwind label %256

; <label>:247:                                    ; preds = %246
  call void @_ZN6StringD2Ev(%class.String* %28) #9
  call void @_ZN6StringD2Ev(%class.String* %27) #9
  call void @_ZN6StringD2Ev(%class.String* %26) #9
  store i8 0, i8* %16, align 1
  br label %262

; <label>:248:                                    ; preds = %236
  %249 = landingpad { i8*, i32 }
          cleanup
  %250 = extractvalue { i8*, i32 } %249, 0
  store i8* %250, i8** %7, align 8
  %251 = extractvalue { i8*, i32 } %249, 1
  store i32 %251, i32* %8, align 4
  br label %261

; <label>:252:                                    ; preds = %238
  %253 = landingpad { i8*, i32 }
          cleanup
  %254 = extractvalue { i8*, i32 } %253, 0
  store i8* %254, i8** %7, align 8
  %255 = extractvalue { i8*, i32 } %253, 1
  store i32 %255, i32* %8, align 4
  br label %260

; <label>:256:                                    ; preds = %246
  %257 = landingpad { i8*, i32 }
          cleanup
  %258 = extractvalue { i8*, i32 } %257, 0
  store i8* %258, i8** %7, align 8
  %259 = extractvalue { i8*, i32 } %257, 1
  store i32 %259, i32* %8, align 4
  call void @_ZN6StringD2Ev(%class.String* %28) #9
  br label %260

; <label>:260:                                    ; preds = %256, %252
  call void @_ZN6StringD2Ev(%class.String* %27) #9
  br label %261

; <label>:261:                                    ; preds = %260, %248
  call void @_ZN6StringD2Ev(%class.String* %26) #9
  br label %289

; <label>:262:                                    ; preds = %247, %228
  br label %263

; <label>:263:                                    ; preds = %262
  %264 = load i32, i32* %25, align 4
  %265 = add nsw i32 %264, 1
  store i32 %265, i32* %25, align 4
  br label %208

; <label>:266:                                    ; preds = %208
  %267 = load i8, i8* %16, align 1
  %268 = trunc i8 %267 to i1
  br i1 %268, label %269, label %280

; <label>:269:                                    ; preds = %266
  %270 = getelementptr inbounds [4 x %"class.Lexer::TunnelEnd"*], [4 x %"class.Lexer::TunnelEnd"*]* %24, i64 0, i64 0
  %271 = load %"class.Lexer::TunnelEnd"*, %"class.Lexer::TunnelEnd"** %270, align 16
  %272 = getelementptr inbounds [4 x %"class.Lexer::TunnelEnd"*], [4 x %"class.Lexer::TunnelEnd"*]* %24, i64 0, i64 1
  %273 = load %"class.Lexer::TunnelEnd"*, %"class.Lexer::TunnelEnd"** %272, align 8
  invoke void @_ZN5Lexer9TunnelEnd9pair_withEPS0_(%"class.Lexer::TunnelEnd"* %271, %"class.Lexer::TunnelEnd"* %273)
          to label %274 unwind label %130

; <label>:274:                                    ; preds = %269
  %275 = getelementptr inbounds [4 x %"class.Lexer::TunnelEnd"*], [4 x %"class.Lexer::TunnelEnd"*]* %24, i64 0, i64 2
  %276 = load %"class.Lexer::TunnelEnd"*, %"class.Lexer::TunnelEnd"** %275, align 16
  %277 = getelementptr inbounds [4 x %"class.Lexer::TunnelEnd"*], [4 x %"class.Lexer::TunnelEnd"*]* %24, i64 0, i64 3
  %278 = load %"class.Lexer::TunnelEnd"*, %"class.Lexer::TunnelEnd"** %277, align 8
  invoke void @_ZN5Lexer9TunnelEnd9pair_withEPS0_(%"class.Lexer::TunnelEnd"* %276, %"class.Lexer::TunnelEnd"* %278)
          to label %279 unwind label %130

; <label>:279:                                    ; preds = %274
  br label %280

; <label>:280:                                    ; preds = %279, %266
  br label %281

; <label>:281:                                    ; preds = %280, %205, %194
  %282 = getelementptr inbounds [4 x %class.String], [4 x %class.String]* %6, i32 0, i32 0
  %283 = getelementptr inbounds %class.String, %class.String* %282, i64 4
  br label %284

; <label>:284:                                    ; preds = %284, %281
  %285 = phi %class.String* [ %283, %281 ], [ %286, %284 ]
  %286 = getelementptr inbounds %class.String, %class.String* %285, i64 -1
  call void @_ZN6StringD2Ev(%class.String* %286) #9
  %287 = icmp eq %class.String* %286, %282
  br i1 %287, label %288, label %284

; <label>:288:                                    ; preds = %284
  ret void

; <label>:289:                                    ; preds = %261, %189, %175, %161, %147, %130
  %290 = getelementptr inbounds [4 x %class.String], [4 x %class.String]* %6, i32 0, i32 0
  %291 = getelementptr inbounds %class.String, %class.String* %290, i64 4
  br label %292

; <label>:292:                                    ; preds = %292, %289
  %293 = phi %class.String* [ %291, %289 ], [ %294, %292 ]
  %294 = getelementptr inbounds %class.String, %class.String* %293, i64 -1
  call void @_ZN6StringD2Ev(%class.String* %294) #9
  %295 = icmp eq %class.String* %294, %290
  br i1 %295, label %296, label %292

; <label>:296:                                    ; preds = %292
  br label %297

; <label>:297:                                    ; preds = %296, %129
  %298 = load i8*, i8** %7, align 8
  %299 = load i32, i32* %8, align 4
  %300 = insertvalue { i8*, i32 } undef, i8* %298, 0
  %301 = insertvalue { i8*, i32 } %300, i32 %299, 1
  resume { i8*, i32 } %301
}

; Function Attrs: noinline optnone uwtable
define linkonce_odr void @_ZN6VectorIiE9push_backEi(%class.Vector.5*, i32) #2 comdat align 2 {
  %3 = alloca %class.Vector.5*, align 8
  %4 = alloca i32, align 4
  store %class.Vector.5* %0, %class.Vector.5** %3, align 8
  store i32 %1, i32* %4, align 4
  %5 = load %class.Vector.5*, %class.Vector.5** %3, align 8
  %6 = getelementptr inbounds %class.Vector.5, %class.Vector.5* %5, i32 0, i32 0
  %7 = call %struct.char_array.4* @_ZN18sized_array_memoryILm4EE4castIiEEP10char_arrayILm4EEPT_(i32* %4)
  call void @_ZN13vector_memoryI18sized_array_memoryILm4EEE9push_backEPK10char_arrayILm4EE(%class.vector_memory.3* %6, %struct.char_array.4* %7)
  ret void
}

; Function Attrs: noinline optnone uwtable
define linkonce_odr void @_Zpl6StringPKc(%class.String* noalias sret, %class.String*, i8*) #2 comdat {
  %4 = alloca i8*, align 8
  store i8* %2, i8** %4, align 8
  %5 = load i8*, i8** %4, align 8
  call void @_ZN6String6appendEPKc(%class.String* %1, i8* %5)
  call void @_ZN6StringC2EOS_(%class.String* %0, %class.String* dereferenceable(24) %1)
  ret void
}

; Function Attrs: noinline optnone uwtable
define linkonce_odr void @_Zpl6StringRKS_(%class.String* noalias sret, %class.String*, %class.String* dereferenceable(24)) #2 comdat {
  %4 = alloca %class.String*, align 8
  store %class.String* %2, %class.String** %4, align 8
  %5 = load %class.String*, %class.String** %4, align 8
  %6 = call dereferenceable(24) %class.String* @_ZN6StringpLERKS_(%class.String* %1, %class.String* dereferenceable(24) %5)
  call void @_ZN6StringC2EOS_(%class.String* %0, %class.String* dereferenceable(24) %1)
  ret void
}

; Function Attrs: noinline optnone uwtable
define linkonce_odr dereferenceable(4) i32* @_ZN9HashTableI6StringiEixERKS0_(%class.HashTable*, %class.String* dereferenceable(24)) #2 comdat align 2 {
  %3 = alloca %class.HashTable*, align 8
  %4 = alloca %class.String*, align 8
  %5 = alloca %class.HashTable_iterator, align 8
  store %class.HashTable* %0, %class.HashTable** %3, align 8
  store %class.String* %1, %class.String** %4, align 8
  %6 = load %class.HashTable*, %class.HashTable** %3, align 8
  %7 = load %class.String*, %class.String** %4, align 8
  call void @_ZN9HashTableI6StringiE11find_insertERKS0_(%class.HashTable_iterator* sret %5, %class.HashTable* %6, %class.String* dereferenceable(24) %7)
  %8 = call dereferenceable(4) i32* @_ZNK18HashTable_iteratorI4PairIK6StringiEE5valueEv(%class.HashTable_iterator* %5)
  ret i32* %8
}

; Function Attrs: noinline optnone uwtable
define internal void @_ZL19redeclaration_errorP12ErrorHandlerPKc6StringRKS3_S5_(%class.ErrorHandler*, i8*, %class.String*, %class.String* dereferenceable(24), %class.String* dereferenceable(24)) #2 {
  %6 = alloca %class.ErrorHandler*, align 8
  %7 = alloca i8*, align 8
  %8 = alloca %class.String*, align 8
  %9 = alloca %class.String*, align 8
  %10 = alloca i8*, align 8
  store %class.ErrorHandler* %0, %class.ErrorHandler** %6, align 8
  store i8* %1, i8** %7, align 8
  store %class.String* %3, %class.String** %8, align 8
  store %class.String* %4, %class.String** %9, align 8
  %11 = load i8*, i8** %7, align 8
  %12 = icmp ne i8* %11, null
  br i1 %12, label %14, label %13

; <label>:13:                                     ; preds = %5
  store i8* getelementptr inbounds ([1 x i8], [1 x i8]* @.str.13, i32 0, i32 0), i8** %7, align 8
  br label %14

; <label>:14:                                     ; preds = %13, %5
  %15 = load i8*, i8** %7, align 8
  %16 = call i64 @strlen(i8* %15) #13
  %17 = icmp ne i64 %16, 0
  %18 = zext i1 %17 to i64
  %19 = select i1 %17, i8* getelementptr inbounds ([2 x i8], [2 x i8]* @.str.119, i32 0, i32 0), i8* getelementptr inbounds ([1 x i8], [1 x i8]* @.str.13, i32 0, i32 0)
  store i8* %19, i8** %10, align 8
  %20 = load %class.ErrorHandler*, %class.ErrorHandler** %6, align 8
  %21 = load %class.String*, %class.String** %8, align 8
  %22 = load i8*, i8** %7, align 8
  %23 = load i8*, i8** %10, align 8
  %24 = call i8* @_ZNK6String5c_strEv(%class.String* %2)
  %25 = call i32 (%class.ErrorHandler*, %class.String*, i8*, ...) @_ZN12ErrorHandler6lerrorERK6StringPKcz(%class.ErrorHandler* %20, %class.String* dereferenceable(24) %21, i8* getelementptr inbounds ([28 x i8], [28 x i8]* @.str.120, i32 0, i32 0), i8* %22, i8* %23, i8* %24)
  %26 = load %class.ErrorHandler*, %class.ErrorHandler** %6, align 8
  %27 = load %class.String*, %class.String** %9, align 8
  %28 = call i8* @_ZNK6String5c_strEv(%class.String* %2)
  %29 = call i32 (%class.ErrorHandler*, %class.String*, i8*, ...) @_ZN12ErrorHandler6lerrorERK6StringPKcz(%class.ErrorHandler* %26, %class.String* dereferenceable(24) %27, i8* getelementptr inbounds ([32 x i8], [32 x i8]* @.str.121, i32 0, i32 0), i8* %28)
  ret void
}

; Function Attrs: noinline optnone uwtable
define void @_ZNK5Lexer16element_landmarkEi(%class.String* noalias sret, %class.Lexer*, i32) #2 align 2 personality i8* bitcast (i32 (...)* @__gxx_personality_v0 to i8*) {
  %4 = alloca %class.Lexer*, align 8
  %5 = alloca i32, align 4
  %6 = alloca %class.String, align 8
  %7 = alloca i8*
  %8 = alloca i32
  %9 = alloca i32
  store %class.Lexer* %1, %class.Lexer** %4, align 8
  store i32 %2, i32* %5, align 4
  %10 = load %class.Lexer*, %class.Lexer** %4, align 8
  %11 = load i32, i32* %5, align 4
  %12 = icmp slt i32 %11, 0
  br i1 %12, label %20, label %13

; <label>:13:                                     ; preds = %3
  %14 = load i32, i32* %5, align 4
  %15 = getelementptr inbounds %class.Lexer, %class.Lexer* %10, i32 0, i32 12
  %16 = load %"class.Lexer::Compound"*, %"class.Lexer::Compound"** %15, align 8
  %17 = getelementptr inbounds %"class.Lexer::Compound", %"class.Lexer::Compound"* %16, i32 0, i32 11
