; ModuleID = '../../click/elements/ip/lookupiproutelinux.cc'
source_filename = "../../click/elements/ip/lookupiproutelinux.cc"
target datalayout = "e-m:e-i64:64-f80:128-n8:16:32:64-S128"
target triple = "x86_64-pc-linux-gnu"

%class.LinuxIPLookup = type { %class.Element.base, i32, %class.Vector, %class.IPTable }
%class.Element.base = type <{ i32 (...)**, [2 x %"class.Element::Port"*], [4 x %"class.Element::Port"], [2 x i32], %class.Router*, i32 }>
%"class.Element::Port" = type <{ %class.Element*, i32, [4 x i8] }>
%class.Element = type <{ i32 (...)**, [2 x %"class.Element::Port"*], [4 x %"class.Element::Port"], [2 x i32], %class.Router*, i32, [4 x i8] }>
%class.Router = type opaque
%class.Vector = type { %class.vector_memory }
%class.vector_memory = type { %class.String*, i32, i32 }
%class.String = type { %"struct.String::rep_t" }
%"struct.String::rep_t" = type { i8*, i32, %"struct.String::memo_t"* }
%"struct.String::memo_t" = type { i32, i32, i32, [8 x i8] }
%class.IPTable = type { %class.Vector.0 }
%class.Vector.0 = type { %class.vector_memory.1 }
%class.vector_memory.1 = type { %struct.char_array*, i32, i32 }
%struct.char_array = type opaque
%class.ErrorHandler = type <{ i32 (...)**, i32, [4 x i8] }>
%struct._IO_FILE = type { i32, i8*, i8*, i8*, i8*, i8*, i8*, i8*, i8*, i8*, i8*, i8*, %struct._IO_marker*, %struct._IO_FILE*, i32, i32, i64, i16, i8, [1 x i8], i8*, i64, i8*, i8*, i8*, i8*, i64, i32, [20 x i8] }
%struct._IO_marker = type { %struct._IO_marker*, %struct._IO_FILE*, i32 }
%class.IPAddress = type { i32 }
%class.Packet = type { %class.atomic_uint32_t, %class.Packet*, i8*, i8*, i8*, i8*, %"struct.Packet::AllAnno", void (i8*, i64, i8*)*, i8* }
%class.atomic_uint32_t = type { i32 }
%"struct.Packet::AllAnno" = type { %"union.Packet::Anno", i8*, i8*, i8*, i32, [8 x i8], %class.Packet*, %class.Packet* }
%"union.Packet::Anno" = type { [6 x i64] }
%class.Task = type opaque
%class.Timer = type opaque
%class.WritablePacket = type { %class.Packet }

$_ZN6VectorI6StringEC2Ev = comdat any

$_ZN6VectorI6StringED2Ev = comdat any

$_ZN6VectorI6StringEaSERKS1_ = comdat any

$_ZNK6VectorI6StringE4sizeEv = comdat any

$_ZNK7Element8noutputsEv = comdat any

$_ZN7IPTable5clearEv = comdat any

$_ZeqRK6StringPKc = comdat any

$_ZN6VectorI6StringEixEi = comdat any

$_ZN9IPAddressC2Ej = comdat any

$_ZNK6Packet11dst_ip_annoEv = comdat any

$_ZN9IPAddressC2Ev = comdat any

$_ZNK9IPAddress4addrEv = comdat any

$_ZN6Packet15set_dst_ip_annoE9IPAddress = comdat any

$_ZNK7Element6outputEi = comdat any

$_ZNK7Element4Port4pushEP6Packet = comdat any

$_ZNK7Element19checked_output_pushEiP6Packet = comdat any

$_ZNK13LinuxIPLookup10class_nameEv = comdat any

$_ZNK13LinuxIPLookup10port_countEv = comdat any

$_ZN13vector_memoryI18typed_array_memoryI6StringEED2Ev = comdat any

$_ZN18typed_array_memoryI6StringE7destroyEPS0_m = comdat any

$__clang_call_terminate = comdat any

$_ZN6StringD2Ev = comdat any

$_ZNK6String5derefEv = comdat any

$_ZN15atomic_uint32_t12dec_and_testERVj = comdat any

$_ZN6VectorIN7IPTable5EntryEE5clearEv = comdat any

$_ZN13vector_memoryI18sized_array_memoryILm16EEE5clearEv = comdat any

$_ZN18sized_array_memoryILm16EE7destroyEPvm = comdat any

$_ZN18sized_array_memoryILm16EE13mark_noaccessEPvm = comdat any

$_ZNK6String6equalsEPKci = comdat any

$_ZNK6Packet5xannoEv = comdat any

$_ZN6Packet5xannoEv = comdat any

$_ZNK7Element4portEbi = comdat any

$_ZN6Packet4killEv = comdat any

$_ZN15atomic_uint32_t12dec_and_testEv = comdat any

$_ZN13vector_memoryI18typed_array_memoryI6StringEEC2Ev = comdat any

$_ZN13vector_memoryI18typed_array_memoryI6StringEE6assignERKS3_ = comdat any

$_ZN18typed_array_memoryI6StringE13mark_noaccessEPS0_m = comdat any

$_ZN13vector_memoryI18typed_array_memoryI6StringEE21reserve_and_push_backEiPKS1_ = comdat any

$_ZN18typed_array_memoryI6StringE14mark_undefinedEPS0_m = comdat any

$_ZN18typed_array_memoryI6StringE4copyEPS0_PKS0_m = comdat any

$_ZN18sized_array_memoryILm24EE13mark_noaccessEPvm = comdat any

$_ZNK13vector_memoryI18typed_array_memoryI6StringEE18need_argument_copyEPKS1_ = comdat any

$_ZN6StringC2ERKS_ = comdat any

$_ZN18typed_array_memoryI6StringE4moveEPS0_PKS0_m = comdat any

$_ZN13vector_memoryI18typed_array_memoryI6StringEE9push_backEPKS1_ = comdat any

$_ZNK6String6assignERKS_ = comdat any

$_ZNK6String11assign_memoEPKciPNS_6memo_tE = comdat any

$_ZN15atomic_uint32_t3incERVj = comdat any

$_ZN18typed_array_memoryI6StringE4fillEPS0_mPKS0_ = comdat any

$_ZN18sized_array_memoryILm24EE14mark_undefinedEPvm = comdat any

@_ZTV13LinuxIPLookup = unnamed_addr constant { [29 x i8*] } { [29 x i8*] [i8* null, i8* bitcast ({ i8*, i8*, i8* }* @_ZTI13LinuxIPLookup to i8*), i8* bitcast (void (%class.LinuxIPLookup*)* @_ZN13LinuxIPLookupD1Ev to i8*), i8* bitcast (void (%class.LinuxIPLookup*)* @_ZN13LinuxIPLookupD0Ev to i8*), i8* bitcast (void (%class.LinuxIPLookup*, i32, %class.Packet*)* @_ZN13LinuxIPLookup4pushEiP6Packet to i8*), i8* bitcast (%class.Packet* (%class.Element*, i32)* @_ZN7Element4pullEi to i8*), i8* bitcast (%class.Packet* (%class.Element*, %class.Packet*)* @_ZN7Element13simple_actionEP6Packet to i8*), i8* bitcast (i1 (%class.Element*, %class.Task*)* @_ZN7Element8run_taskEP4Task to i8*), i8* bitcast (void (%class.Element*, %class.Timer*)* @_ZN7Element9run_timerEP5Timer to i8*), i8* bitcast (void (%class.Element*, i32, i32)* @_ZN7Element8selectedEii to i8*), i8* bitcast (void (%class.Element*, i32)* @_ZN7Element8selectedEi to i8*), i8* bitcast (i8* (%class.LinuxIPLookup*)* @_ZNK13LinuxIPLookup10class_nameEv to i8*), i8* bitcast (i8* (%class.LinuxIPLookup*)* @_ZNK13LinuxIPLookup10port_countEv to i8*), i8* bitcast (i8* (%class.Element*)* @_ZNK7Element10processingEv to i8*), i8* bitcast (i8* (%class.Element*)* @_ZNK7Element9flow_codeEv to i8*), i8* bitcast (i8* (%class.Element*)* @_ZNK7Element5flagsEv to i8*), i8* bitcast (i8* (%class.Element*, i8*)* @_ZN7Element4castEPKc to i8*), i8* bitcast (i8* (%class.Element*, i1, i32, i8*)* @_ZN7Element9port_castEbiPKc to i8*), i8* bitcast (i32 (%class.Element*)* @_ZNK7Element15configure_phaseEv to i8*), i8* bitcast (i32 (%class.LinuxIPLookup*, %class.Vector*, %class.ErrorHandler*)* @_ZN13LinuxIPLookup9configureER6VectorI6StringEP12ErrorHandler to i8*), i8* bitcast (void (%class.Element*)* @_ZN7Element12add_handlersEv to i8*), i8* bitcast (i32 (%class.LinuxIPLookup*, %class.ErrorHandler*)* @_ZN13LinuxIPLookup10initializeEP12ErrorHandler to i8*), i8* bitcast (void (%class.Element*, %class.Element*, %class.ErrorHandler*)* @_ZN7Element10take_stateEPS_P12ErrorHandler to i8*), i8* bitcast (%class.Element* (%class.Element*)* @_ZNK7Element15hotswap_elementEv to i8*), i8* bitcast (void (%class.Element*, i32)* @_ZN7Element7cleanupENS_12CleanupStageE to i8*), i8* bitcast (void (%class.String*, %class.Element*)* @_ZNK7Element11declarationEv to i8*), i8* bitcast (i1 (%class.Element*)* @_ZNK7Element20can_live_reconfigureEv to i8*), i8* bitcast (i32 (%class.Element*, %class.Vector*, %class.ErrorHandler*)* @_ZN7Element16live_reconfigureER6VectorI6StringEP12ErrorHandler to i8*), i8* bitcast (i32 (%class.Element*, i32, i8*)* @_ZN7Element5llrpcEjPv to i8*)] }, align 8
@.str = private unnamed_addr constant [27 x i8] c"need %d or %d output ports\00", align 1
@.str.1 = private unnamed_addr constant [16 x i8] c"/proc/net/route\00", align 1
@.str.2 = private unnamed_addr constant [2 x i8] c"r\00", align 1
@.str.3 = private unnamed_addr constant [28 x i8] c"cannot open /proc/net/route\00", align 1
@.str.4 = private unnamed_addr constant [21 x i8] c"%s%x%x%*s%*s%*s%*s%x\00", align 1
@.str.5 = private unnamed_addr constant [36 x i8] c"LinuxIPLookup: no output for dev %s\00", align 1
@.str.6 = private unnamed_addr constant [19 x i8] c"routed %x to %x %d\00", align 1
@.str.7 = private unnamed_addr constant [28 x i8] c"LinuxIPLookup: no gw for %x\00", align 1
@_ZTVN10__cxxabiv120__si_class_type_infoE = external global i8*
@_ZTS13LinuxIPLookup = constant [16 x i8] c"13LinuxIPLookup\00"
@_ZTI7Element = external constant i8*
@_ZTI13LinuxIPLookup = constant { i8*, i8*, i8* } { i8* bitcast (i8** getelementptr inbounds (i8*, i8** @_ZTVN10__cxxabiv120__si_class_type_infoE, i64 2) to i8*), i8* getelementptr inbounds ([16 x i8], [16 x i8]* @_ZTS13LinuxIPLookup, i32 0, i32 0), i8* bitcast (i8** @_ZTI7Element to i8*) }
@.str.8 = private unnamed_addr constant [18 x i8] c"_r.memo->refcount\00", align 1
@.str.9 = private unnamed_addr constant [35 x i8] c"/usr/local/include/click/string.hh\00", align 1
@__PRETTY_FUNCTION__._ZNK6String5derefEv = private unnamed_addr constant [27 x i8] c"void String::deref() const\00", align 1
@.str.10 = private unnamed_addr constant [47 x i8] c"(unsigned) port < (unsigned) _nports[isoutput]\00", align 1
@.str.11 = private unnamed_addr constant [36 x i8] c"/usr/local/include/click/element.hh\00", align 1
@__PRETTY_FUNCTION__._ZNK7Element4portEbi = private unnamed_addr constant [52 x i8] c"const Element::Port &Element::port(bool, int) const\00", align 1
@.str.12 = private unnamed_addr constant [8 x i8] c"_e && p\00", align 1
@__PRETTY_FUNCTION__._ZNK7Element4Port4pushEP6Packet = private unnamed_addr constant [41 x i8] c"void Element::Port::push(Packet *) const\00", align 1
@.str.13 = private unnamed_addr constant [14 x i8] c"LinuxIPLookup\00", align 1
@.str.14 = private unnamed_addr constant [5 x i8] c"1/1-\00", align 1
@.str.15 = private unnamed_addr constant [33 x i8] c"(unsigned) i < (unsigned) vm_.n_\00", align 1
@.str.16 = private unnamed_addr constant [35 x i8] c"/usr/local/include/click/vector.hh\00", align 1
@__PRETTY_FUNCTION__._ZN6VectorI6StringEixEi = private unnamed_addr constant [62 x i8] c"T &Vector<String>::operator[](Vector::size_type) [T = String]\00", align 1

@_ZN13LinuxIPLookupC1Ev = alias void (%class.LinuxIPLookup*), void (%class.LinuxIPLookup*)* @_ZN13LinuxIPLookupC2Ev
@_ZN13LinuxIPLookupD1Ev = alias void (%class.LinuxIPLookup*), void (%class.LinuxIPLookup*)* @_ZN13LinuxIPLookupD2Ev

; Function Attrs: noinline optnone uwtable
define void @_ZN13LinuxIPLookupC2Ev(%class.LinuxIPLookup*) unnamed_addr #0 align 2 personality i8* bitcast (i32 (...)* @__gxx_personality_v0 to i8*) {
  %2 = alloca %class.LinuxIPLookup*, align 8
  %3 = alloca i8*
  %4 = alloca i32
  store %class.LinuxIPLookup* %0, %class.LinuxIPLookup** %2, align 8
  %5 = load %class.LinuxIPLookup*, %class.LinuxIPLookup** %2, align 8
  %6 = bitcast %class.LinuxIPLookup* %5 to %class.Element*
  call void @_ZN7ElementC2Ev(%class.Element* %6)
  %7 = bitcast %class.LinuxIPLookup* %5 to i32 (...)***
  store i32 (...)** bitcast (i8** getelementptr inbounds ({ [29 x i8*] }, { [29 x i8*] }* @_ZTV13LinuxIPLookup, i32 0, inrange i32 0, i32 2) to i32 (...)**), i32 (...)*** %7, align 8
  %8 = getelementptr inbounds %class.LinuxIPLookup, %class.LinuxIPLookup* %5, i32 0, i32 2
  invoke void @_ZN6VectorI6StringEC2Ev(%class.Vector* %8)
          to label %9 unwind label %13

; <label>:9:                                      ; preds = %1
  %10 = getelementptr inbounds %class.LinuxIPLookup, %class.LinuxIPLookup* %5, i32 0, i32 3
  invoke void @_ZN7IPTableC1Ev(%class.IPTable* %10)
          to label %11 unwind label %17

; <label>:11:                                     ; preds = %9
  %12 = getelementptr inbounds %class.LinuxIPLookup, %class.LinuxIPLookup* %5, i32 0, i32 1
  store i32 0, i32* %12, align 4
  ret void

; <label>:13:                                     ; preds = %1
  %14 = landingpad { i8*, i32 }
          cleanup
  %15 = extractvalue { i8*, i32 } %14, 0
  store i8* %15, i8** %3, align 8
  %16 = extractvalue { i8*, i32 } %14, 1
  store i32 %16, i32* %4, align 4
  br label %21

; <label>:17:                                     ; preds = %9
  %18 = landingpad { i8*, i32 }
          cleanup
  %19 = extractvalue { i8*, i32 } %18, 0
  store i8* %19, i8** %3, align 8
  %20 = extractvalue { i8*, i32 } %18, 1
  store i32 %20, i32* %4, align 4
  call void @_ZN6VectorI6StringED2Ev(%class.Vector* %8) #10
  br label %21

; <label>:21:                                     ; preds = %17, %13
  %22 = bitcast %class.LinuxIPLookup* %5 to %class.Element*
  call void @_ZN7ElementD2Ev(%class.Element* %22) #10
  br label %23

; <label>:23:                                     ; preds = %21
  %24 = load i8*, i8** %3, align 8
  %25 = load i32, i32* %4, align 4
  %26 = insertvalue { i8*, i32 } undef, i8* %24, 0
  %27 = insertvalue { i8*, i32 } %26, i32 %25, 1
  resume { i8*, i32 } %27
}

declare void @_ZN7ElementC2Ev(%class.Element*) unnamed_addr #1

; Function Attrs: noinline optnone uwtable
define linkonce_odr void @_ZN6VectorI6StringEC2Ev(%class.Vector*) unnamed_addr #0 comdat align 2 {
  %2 = alloca %class.Vector*, align 8
  store %class.Vector* %0, %class.Vector** %2, align 8
  %3 = load %class.Vector*, %class.Vector** %2, align 8
  %4 = getelementptr inbounds %class.Vector, %class.Vector* %3, i32 0, i32 0
  call void @_ZN13vector_memoryI18typed_array_memoryI6StringEEC2Ev(%class.vector_memory* %4)
  ret void
}

declare i32 @__gxx_personality_v0(...)

declare void @_ZN7IPTableC1Ev(%class.IPTable*) unnamed_addr #1

; Function Attrs: noinline nounwind optnone uwtable
define linkonce_odr void @_ZN6VectorI6StringED2Ev(%class.Vector*) unnamed_addr #2 comdat align 2 {
  %2 = alloca %class.Vector*, align 8
  store %class.Vector* %0, %class.Vector** %2, align 8
  %3 = load %class.Vector*, %class.Vector** %2, align 8
  %4 = getelementptr inbounds %class.Vector, %class.Vector* %3, i32 0, i32 0
  call void @_ZN13vector_memoryI18typed_array_memoryI6StringEED2Ev(%class.vector_memory* %4) #10
  ret void
}

; Function Attrs: nounwind
declare void @_ZN7ElementD2Ev(%class.Element*) unnamed_addr #3

; Function Attrs: noinline nounwind optnone uwtable
define void @_ZN13LinuxIPLookupD2Ev(%class.LinuxIPLookup*) unnamed_addr #2 align 2 {
  %2 = alloca %class.LinuxIPLookup*, align 8
  store %class.LinuxIPLookup* %0, %class.LinuxIPLookup** %2, align 8
  %3 = load %class.LinuxIPLookup*, %class.LinuxIPLookup** %2, align 8
  %4 = bitcast %class.LinuxIPLookup* %3 to i32 (...)***
  store i32 (...)** bitcast (i8** getelementptr inbounds ({ [29 x i8*] }, { [29 x i8*] }* @_ZTV13LinuxIPLookup, i32 0, inrange i32 0, i32 2) to i32 (...)**), i32 (...)*** %4, align 8
  %5 = getelementptr inbounds %class.LinuxIPLookup, %class.LinuxIPLookup* %3, i32 0, i32 3
  call void @_ZN7IPTableD1Ev(%class.IPTable* %5) #10
  %6 = getelementptr inbounds %class.LinuxIPLookup, %class.LinuxIPLookup* %3, i32 0, i32 2
  call void @_ZN6VectorI6StringED2Ev(%class.Vector* %6) #10
  %7 = bitcast %class.LinuxIPLookup* %3 to %class.Element*
  call void @_ZN7ElementD2Ev(%class.Element* %7) #10
  ret void
}

; Function Attrs: nounwind
declare void @_ZN7IPTableD1Ev(%class.IPTable*) unnamed_addr #3

; Function Attrs: noinline nounwind optnone uwtable
define void @_ZN13LinuxIPLookupD0Ev(%class.LinuxIPLookup*) unnamed_addr #2 align 2 {
  %2 = alloca %class.LinuxIPLookup*, align 8
  store %class.LinuxIPLookup* %0, %class.LinuxIPLookup** %2, align 8
  %3 = load %class.LinuxIPLookup*, %class.LinuxIPLookup** %2, align 8
  call void @_ZN13LinuxIPLookupD1Ev(%class.LinuxIPLookup* %3) #10
  %4 = bitcast %class.LinuxIPLookup* %3 to i8*
  call void @_ZdlPv(i8* %4) #11
  ret void
}

; Function Attrs: nobuiltin nounwind
declare void @_ZdlPv(i8*) #4

; Function Attrs: noinline optnone uwtable
define i32 @_ZN13LinuxIPLookup9configureER6VectorI6StringEP12ErrorHandler(%class.LinuxIPLookup*, %class.Vector* dereferenceable(16), %class.ErrorHandler*) unnamed_addr #0 align 2 {
  %4 = alloca i32, align 4
  %5 = alloca %class.LinuxIPLookup*, align 8
  %6 = alloca %class.Vector*, align 8
  %7 = alloca %class.ErrorHandler*, align 8
  store %class.LinuxIPLookup* %0, %class.LinuxIPLookup** %5, align 8
  store %class.Vector* %1, %class.Vector** %6, align 8
  store %class.ErrorHandler* %2, %class.ErrorHandler** %7, align 8
  %8 = load %class.LinuxIPLookup*, %class.LinuxIPLookup** %5, align 8
  %9 = load %class.Vector*, %class.Vector** %6, align 8
  %10 = getelementptr inbounds %class.LinuxIPLookup, %class.LinuxIPLookup* %8, i32 0, i32 2
  %11 = call dereferenceable(16) %class.Vector* @_ZN6VectorI6StringEaSERKS1_(%class.Vector* %10, %class.Vector* dereferenceable(16) %9)
  %12 = getelementptr inbounds %class.LinuxIPLookup, %class.LinuxIPLookup* %8, i32 0, i32 2
  %13 = call i32 @_ZNK6VectorI6StringE4sizeEv(%class.Vector* %12)
  %14 = getelementptr inbounds %class.LinuxIPLookup, %class.LinuxIPLookup* %8, i32 0, i32 1
  store i32 %13, i32* %14, align 4
  %15 = bitcast %class.LinuxIPLookup* %8 to %class.Element*
  %16 = call i32 @_ZNK7Element8noutputsEv(%class.Element* %15)
  %17 = getelementptr inbounds %class.LinuxIPLookup, %class.LinuxIPLookup* %8, i32 0, i32 1
  %18 = load i32, i32* %17, align 4
  %19 = icmp slt i32 %16, %18
  br i1 %19, label %27, label %20

; <label>:20:                                     ; preds = %3
  %21 = bitcast %class.LinuxIPLookup* %8 to %class.Element*
  %22 = call i32 @_ZNK7Element8noutputsEv(%class.Element* %21)
  %23 = getelementptr inbounds %class.LinuxIPLookup, %class.LinuxIPLookup* %8, i32 0, i32 1
  %24 = load i32, i32* %23, align 4
  %25 = add nsw i32 %24, 1
  %26 = icmp sgt i32 %22, %25
  br i1 %26, label %27, label %35

; <label>:27:                                     ; preds = %20, %3
  %28 = load %class.ErrorHandler*, %class.ErrorHandler** %7, align 8
  %29 = getelementptr inbounds %class.LinuxIPLookup, %class.LinuxIPLookup* %8, i32 0, i32 1
  %30 = load i32, i32* %29, align 4
  %31 = getelementptr inbounds %class.LinuxIPLookup, %class.LinuxIPLookup* %8, i32 0, i32 1
  %32 = load i32, i32* %31, align 4
  %33 = add nsw i32 %32, 1
  %34 = call i32 (%class.ErrorHandler*, i8*, ...) @_ZN12ErrorHandler5errorEPKcz(%class.ErrorHandler* %28, i8* getelementptr inbounds ([27 x i8], [27 x i8]* @.str, i32 0, i32 0), i32 %30, i32 %33)
  store i32 %34, i32* %4, align 4
  br label %36

; <label>:35:                                     ; preds = %20
  store i32 0, i32* %4, align 4
  br label %36

; <label>:36:                                     ; preds = %35, %27
  %37 = load i32, i32* %4, align 4
  ret i32 %37
}

; Function Attrs: noinline optnone uwtable
define linkonce_odr dereferenceable(16) %class.Vector* @_ZN6VectorI6StringEaSERKS1_(%class.Vector*, %class.Vector* dereferenceable(16)) #0 comdat align 2 {
  %3 = alloca %class.Vector*, align 8
  %4 = alloca %class.Vector*, align 8
  store %class.Vector* %0, %class.Vector** %3, align 8
  store %class.Vector* %1, %class.Vector** %4, align 8
  %5 = load %class.Vector*, %class.Vector** %3, align 8
  %6 = getelementptr inbounds %class.Vector, %class.Vector* %5, i32 0, i32 0
  %7 = load %class.Vector*, %class.Vector** %4, align 8
  %8 = getelementptr inbounds %class.Vector, %class.Vector* %7, i32 0, i32 0
  call void @_ZN13vector_memoryI18typed_array_memoryI6StringEE6assignERKS3_(%class.vector_memory* %6, %class.vector_memory* dereferenceable(16) %8)
  ret %class.Vector* %5
}

; Function Attrs: noinline nounwind optnone uwtable
define linkonce_odr i32 @_ZNK6VectorI6StringE4sizeEv(%class.Vector*) #2 comdat align 2 {
  %2 = alloca %class.Vector*, align 8
  store %class.Vector* %0, %class.Vector** %2, align 8
  %3 = load %class.Vector*, %class.Vector** %2, align 8
  %4 = getelementptr inbounds %class.Vector, %class.Vector* %3, i32 0, i32 0
  %5 = getelementptr inbounds %class.vector_memory, %class.vector_memory* %4, i32 0, i32 1
  %6 = load i32, i32* %5, align 8
  ret i32 %6
}

; Function Attrs: noinline nounwind optnone uwtable
define linkonce_odr i32 @_ZNK7Element8noutputsEv(%class.Element*) #2 comdat align 2 {
  %2 = alloca %class.Element*, align 8
  store %class.Element* %0, %class.Element** %2, align 8
  %3 = load %class.Element*, %class.Element** %2, align 8
  %4 = getelementptr inbounds %class.Element, %class.Element* %3, i32 0, i32 3
  %5 = getelementptr inbounds [2 x i32], [2 x i32]* %4, i64 0, i64 1
  %6 = load i32, i32* %5, align 4
  ret i32 %6
}

declare i32 @_ZN12ErrorHandler5errorEPKcz(%class.ErrorHandler*, i8*, ...) #1

; Function Attrs: noinline optnone uwtable
define i32 @_ZN13LinuxIPLookup10initializeEP12ErrorHandler(%class.LinuxIPLookup*, %class.ErrorHandler*) unnamed_addr #0 align 2 {
  %3 = alloca i32, align 4
  %4 = alloca %class.LinuxIPLookup*, align 8
  %5 = alloca %class.ErrorHandler*, align 8
  store %class.LinuxIPLookup* %0, %class.LinuxIPLookup** %4, align 8
  store %class.ErrorHandler* %1, %class.ErrorHandler** %5, align 8
  %6 = load %class.LinuxIPLookup*, %class.LinuxIPLookup** %4, align 8
  %7 = load %class.ErrorHandler*, %class.ErrorHandler** %5, align 8
  %8 = call i32 @_ZN13LinuxIPLookup11init_routesEP12ErrorHandler(%class.LinuxIPLookup* %6, %class.ErrorHandler* %7)
  %9 = icmp slt i32 %8, 0
  br i1 %9, label %10, label %11

; <label>:10:                                     ; preds = %2
  store i32 -1, i32* %3, align 4
  br label %12

; <label>:11:                                     ; preds = %2
  store i32 0, i32* %3, align 4
  br label %12

; <label>:12:                                     ; preds = %11, %10
  %13 = load i32, i32* %3, align 4
  ret i32 %13
}

; Function Attrs: noinline optnone uwtable
define i32 @_ZN13LinuxIPLookup11init_routesEP12ErrorHandler(%class.LinuxIPLookup*, %class.ErrorHandler*) #0 align 2 {
  %3 = alloca i32, align 4
  %4 = alloca %class.LinuxIPLookup*, align 8
  %5 = alloca %class.ErrorHandler*, align 8
  %6 = alloca %struct._IO_FILE*, align 8
  %7 = alloca [200 x i8], align 16
  %8 = alloca [200 x i8], align 16
  %9 = alloca i32, align 4
  %10 = alloca i32, align 4
  %11 = alloca i32, align 4
  %12 = alloca i32, align 4
  %13 = alloca %class.IPAddress, align 4
  %14 = alloca %class.IPAddress, align 4
  %15 = alloca %class.IPAddress, align 4
  store %class.LinuxIPLookup* %0, %class.LinuxIPLookup** %4, align 8
  store %class.ErrorHandler* %1, %class.ErrorHandler** %5, align 8
  %16 = load %class.LinuxIPLookup*, %class.LinuxIPLookup** %4, align 8
  %17 = getelementptr inbounds %class.LinuxIPLookup, %class.LinuxIPLookup* %16, i32 0, i32 3
  call void @_ZN7IPTable5clearEv(%class.IPTable* %17)
  %18 = call %struct._IO_FILE* @fopen64(i8* getelementptr inbounds ([16 x i8], [16 x i8]* @.str.1, i32 0, i32 0), i8* getelementptr inbounds ([2 x i8], [2 x i8]* @.str.2, i32 0, i32 0))
  store %struct._IO_FILE* %18, %struct._IO_FILE** %6, align 8
  %19 = load %struct._IO_FILE*, %struct._IO_FILE** %6, align 8
  %20 = icmp eq %struct._IO_FILE* %19, null
  br i1 %20, label %21, label %24

; <label>:21:                                     ; preds = %2
  %22 = load %class.ErrorHandler*, %class.ErrorHandler** %5, align 8
  %23 = call i32 (%class.ErrorHandler*, i8*, ...) @_ZN12ErrorHandler5errorEPKcz(%class.ErrorHandler* %22, i8* getelementptr inbounds ([28 x i8], [28 x i8]* @.str.3, i32 0, i32 0))
  store i32 %23, i32* %3, align 4
  br label %76

; <label>:24:                                     ; preds = %2
  br label %25

; <label>:25:                                     ; preds = %72, %24
  %26 = getelementptr inbounds [200 x i8], [200 x i8]* %7, i32 0, i32 0
  %27 = load %struct._IO_FILE*, %struct._IO_FILE** %6, align 8
  %28 = call i8* @fgets(i8* %26, i32 200, %struct._IO_FILE* %27)
  %29 = icmp ne i8* %28, null
  br i1 %29, label %30, label %73

; <label>:30:                                     ; preds = %25
  %31 = getelementptr inbounds [200 x i8], [200 x i8]* %7, i32 0, i32 0
  %32 = getelementptr inbounds [200 x i8], [200 x i8]* %8, i32 0, i32 0
  %33 = call i32 (i8*, i8*, ...) @sscanf(i8* %31, i8* getelementptr inbounds ([21 x i8], [21 x i8]* @.str.4, i32 0, i32 0), i8* %32, i32* %9, i32* %10, i32* %11) #10
  %34 = icmp eq i32 %33, 4
  br i1 %34, label %35, label %72

; <label>:35:                                     ; preds = %30
  store i32 0, i32* %12, align 4
  br label %36

; <label>:36:                                     ; preds = %49, %35
  %37 = load i32, i32* %12, align 4
  %38 = getelementptr inbounds %class.LinuxIPLookup, %class.LinuxIPLookup* %16, i32 0, i32 1
  %39 = load i32, i32* %38, align 4
  %40 = icmp slt i32 %37, %39
  br i1 %40, label %41, label %52

; <label>:41:                                     ; preds = %36
  %42 = getelementptr inbounds %class.LinuxIPLookup, %class.LinuxIPLookup* %16, i32 0, i32 2
  %43 = load i32, i32* %12, align 4
  %44 = call dereferenceable(24) %class.String* @_ZN6VectorI6StringEixEi(%class.Vector* %42, i32 %43)
  %45 = getelementptr inbounds [200 x i8], [200 x i8]* %8, i32 0, i32 0
  %46 = call zeroext i1 @_ZeqRK6StringPKc(%class.String* dereferenceable(24) %44, i8* %45)
  br i1 %46, label %47, label %48

; <label>:47:                                     ; preds = %41
  br label %52

; <label>:48:                                     ; preds = %41
  br label %49

; <label>:49:                                     ; preds = %48
  %50 = load i32, i32* %12, align 4
  %51 = add nsw i32 %50, 1
  store i32 %51, i32* %12, align 4
  br label %36

; <label>:52:                                     ; preds = %47, %36
  %53 = load i32, i32* %12, align 4
  %54 = getelementptr inbounds %class.LinuxIPLookup, %class.LinuxIPLookup* %16, i32 0, i32 1
  %55 = load i32, i32* %54, align 4
  %56 = icmp slt i32 %53, %55
  br i1 %56, label %57, label %69

; <label>:57:                                     ; preds = %52
  %58 = getelementptr inbounds %class.LinuxIPLookup, %class.LinuxIPLookup* %16, i32 0, i32 3
  %59 = load i32, i32* %9, align 4
  call void @_ZN9IPAddressC2Ej(%class.IPAddress* %13, i32 %59)
  %60 = load i32, i32* %11, align 4
  call void @_ZN9IPAddressC2Ej(%class.IPAddress* %14, i32 %60)
  %61 = load i32, i32* %10, align 4
  call void @_ZN9IPAddressC2Ej(%class.IPAddress* %15, i32 %61)
  %62 = load i32, i32* %12, align 4
  %63 = getelementptr inbounds %class.IPAddress, %class.IPAddress* %13, i32 0, i32 0
  %64 = load i32, i32* %63, align 4
  %65 = getelementptr inbounds %class.IPAddress, %class.IPAddress* %14, i32 0, i32 0
  %66 = load i32, i32* %65, align 4
  %67 = getelementptr inbounds %class.IPAddress, %class.IPAddress* %15, i32 0, i32 0
  %68 = load i32, i32* %67, align 4
  call void @_ZN7IPTable3addE9IPAddressS0_S0_i(%class.IPTable* %58, i32 %64, i32 %66, i32 %68, i32 %62)
  br label %71

; <label>:69:                                     ; preds = %52
  %70 = getelementptr inbounds [200 x i8], [200 x i8]* %8, i32 0, i32 0
  call void (i8*, ...) @click_chatter(i8* getelementptr inbounds ([36 x i8], [36 x i8]* @.str.5, i32 0, i32 0), i8* %70)
  br label %71

; <label>:71:                                     ; preds = %69, %57
  br label %72

; <label>:72:                                     ; preds = %71, %30
  br label %25

; <label>:73:                                     ; preds = %25
  %74 = load %struct._IO_FILE*, %struct._IO_FILE** %6, align 8
  %75 = call i32 @fclose(%struct._IO_FILE* %74)
  store i32 0, i32* %3, align 4
  br label %76

; <label>:76:                                     ; preds = %73, %21
  %77 = load i32, i32* %3, align 4
  ret i32 %77
}

; Function Attrs: noinline optnone uwtable
define linkonce_odr void @_ZN7IPTable5clearEv(%class.IPTable*) #0 comdat align 2 {
  %2 = alloca %class.IPTable*, align 8
  store %class.IPTable* %0, %class.IPTable** %2, align 8
  %3 = load %class.IPTable*, %class.IPTable** %2, align 8
  %4 = getelementptr inbounds %class.IPTable, %class.IPTable* %3, i32 0, i32 0
  call void @_ZN6VectorIN7IPTable5EntryEE5clearEv(%class.Vector.0* %4)
  ret void
}

declare %struct._IO_FILE* @fopen64(i8*, i8*) #1

declare i8* @fgets(i8*, i32, %struct._IO_FILE*) #1

; Function Attrs: nounwind
declare i32 @sscanf(i8*, i8*, ...) #3

; Function Attrs: noinline optnone uwtable
define linkonce_odr zeroext i1 @_ZeqRK6StringPKc(%class.String* dereferenceable(24), i8*) #0 comdat {
  %3 = alloca i1, align 1
  %4 = alloca %class.String*, align 8
  %5 = alloca i8*, align 8
  store %class.String* %0, %class.String** %4, align 8
  store i8* %1, i8** %5, align 8
  %6 = load i8*, i8** %5, align 8
  %7 = icmp ne i8* %6, null
  br i1 %7, label %8, label %16

; <label>:8:                                      ; preds = %2
  br i1 false, label %9, label %16

; <label>:9:                                      ; preds = %8
  %10 = load %class.String*, %class.String** %4, align 8
  %11 = load i8*, i8** %5, align 8
  %12 = load i8*, i8** %5, align 8
  %13 = call i64 @strlen(i8* %12) #12
  %14 = trunc i64 %13 to i32
  %15 = call zeroext i1 @_ZNK6String6equalsEPKci(%class.String* %10, i8* %11, i32 %14)
  store i1 %15, i1* %3, align 1
  br label %20

; <label>:16:                                     ; preds = %8, %2
  %17 = load %class.String*, %class.String** %4, align 8
  %18 = load i8*, i8** %5, align 8
  %19 = call zeroext i1 @_ZNK6String6equalsEPKci(%class.String* %17, i8* %18, i32 -1)
  store i1 %19, i1* %3, align 1
  br label %20

; <label>:20:                                     ; preds = %16, %9
  %21 = load i1, i1* %3, align 1
  ret i1 %21
}

; Function Attrs: noinline nounwind optnone uwtable
define linkonce_odr dereferenceable(24) %class.String* @_ZN6VectorI6StringEixEi(%class.Vector*, i32) #2 comdat align 2 {
  %3 = alloca %class.Vector*, align 8
  %4 = alloca i32, align 4
  store %class.Vector* %0, %class.Vector** %3, align 8
  store i32 %1, i32* %4, align 4
  %5 = load %class.Vector*, %class.Vector** %3, align 8
  %6 = load i32, i32* %4, align 4
  %7 = getelementptr inbounds %class.Vector, %class.Vector* %5, i32 0, i32 0
  %8 = getelementptr inbounds %class.vector_memory, %class.vector_memory* %7, i32 0, i32 1
  %9 = load i32, i32* %8, align 8
  %10 = icmp ult i32 %6, %9
  br i1 %10, label %11, label %12

; <label>:11:                                     ; preds = %2
  br label %14

; <label>:12:                                     ; preds = %2
  call void @__assert_fail(i8* getelementptr inbounds ([33 x i8], [33 x i8]* @.str.15, i32 0, i32 0), i8* getelementptr inbounds ([35 x i8], [35 x i8]* @.str.16, i32 0, i32 0), i32 288, i8* getelementptr inbounds ([62 x i8], [62 x i8]* @__PRETTY_FUNCTION__._ZN6VectorI6StringEixEi, i32 0, i32 0)) #13
  unreachable
                                                  ; No predecessors!
  br label %14

; <label>:14:                                     ; preds = %13, %11
  %15 = getelementptr inbounds %class.Vector, %class.Vector* %5, i32 0, i32 0
  %16 = getelementptr inbounds %class.vector_memory, %class.vector_memory* %15, i32 0, i32 0
  %17 = load %class.String*, %class.String** %16, align 8
  %18 = load i32, i32* %4, align 4
  %19 = sext i32 %18 to i64
  %20 = getelementptr inbounds %class.String, %class.String* %17, i64 %19
  ret %class.String* %20
}

declare void @_ZN7IPTable3addE9IPAddressS0_S0_i(%class.IPTable*, i32, i32, i32, i32) #1

; Function Attrs: noinline nounwind optnone uwtable
define linkonce_odr void @_ZN9IPAddressC2Ej(%class.IPAddress*, i32) unnamed_addr #2 comdat align 2 {
  %3 = alloca %class.IPAddress*, align 8
  %4 = alloca i32, align 4
  store %class.IPAddress* %0, %class.IPAddress** %3, align 8
  store i32 %1, i32* %4, align 4
  %5 = load %class.IPAddress*, %class.IPAddress** %3, align 8
  %6 = getelementptr inbounds %class.IPAddress, %class.IPAddress* %5, i32 0, i32 0
  %7 = load i32, i32* %4, align 4
  store i32 %7, i32* %6, align 4
  ret void
}

declare void @click_chatter(i8*, ...) #1

declare i32 @fclose(%struct._IO_FILE*) #1

; Function Attrs: noinline optnone uwtable
define zeroext i1 @_ZN13LinuxIPLookup6lookupE9IPAddressRS0_Ri(%class.LinuxIPLookup*, i32, %class.IPAddress* dereferenceable(4), i32* dereferenceable(4)) #0 align 2 {
  %5 = alloca %class.IPAddress, align 4
  %6 = alloca %class.LinuxIPLookup*, align 8
  %7 = alloca %class.IPAddress*, align 8
  %8 = alloca i32*, align 8
  %9 = alloca %class.IPAddress, align 4
  %10 = getelementptr inbounds %class.IPAddress, %class.IPAddress* %5, i32 0, i32 0
  store i32 %1, i32* %10, align 4
  store %class.LinuxIPLookup* %0, %class.LinuxIPLookup** %6, align 8
  store %class.IPAddress* %2, %class.IPAddress** %7, align 8
  store i32* %3, i32** %8, align 8
  %11 = load %class.LinuxIPLookup*, %class.LinuxIPLookup** %6, align 8
  %12 = getelementptr inbounds %class.LinuxIPLookup, %class.LinuxIPLookup* %11, i32 0, i32 3
  %13 = bitcast %class.IPAddress* %9 to i8*
  %14 = bitcast %class.IPAddress* %5 to i8*
  call void @llvm.memcpy.p0i8.p0i8.i64(i8* %13, i8* %14, i64 4, i32 4, i1 false)
  %15 = load %class.IPAddress*, %class.IPAddress** %7, align 8
  %16 = load i32*, i32** %8, align 8
  %17 = getelementptr inbounds %class.IPAddress, %class.IPAddress* %9, i32 0, i32 0
  %18 = load i32, i32* %17, align 4
  %19 = call zeroext i1 @_ZNK7IPTable6lookupE9IPAddressRS0_Ri(%class.IPTable* %12, i32 %18, %class.IPAddress* dereferenceable(4) %15, i32* dereferenceable(4) %16)
  ret i1 %19
}

declare zeroext i1 @_ZNK7IPTable6lookupE9IPAddressRS0_Ri(%class.IPTable*, i32, %class.IPAddress* dereferenceable(4), i32* dereferenceable(4)) #1

; Function Attrs: argmemonly nounwind
declare void @llvm.memcpy.p0i8.p0i8.i64(i8* nocapture writeonly, i8* nocapture readonly, i64, i32, i1) #5

; Function Attrs: noinline optnone uwtable
define void @_ZN13LinuxIPLookup4pushEiP6Packet(%class.LinuxIPLookup*, i32, %class.Packet*) unnamed_addr #0 align 2 {
  %4 = alloca %class.LinuxIPLookup*, align 8
  %5 = alloca i32, align 4
  %6 = alloca %class.Packet*, align 8
  %7 = alloca %class.IPAddress, align 4
  %8 = alloca %class.IPAddress, align 4
  %9 = alloca i32, align 4
  %10 = alloca %class.IPAddress, align 4
  %11 = alloca %class.IPAddress, align 4
  store %class.LinuxIPLookup* %0, %class.LinuxIPLookup** %4, align 8
  store i32 %1, i32* %5, align 4
  store %class.Packet* %2, %class.Packet** %6, align 8
  %12 = load %class.LinuxIPLookup*, %class.LinuxIPLookup** %4, align 8
  %13 = load %class.Packet*, %class.Packet** %6, align 8
  %14 = call i32 @_ZNK6Packet11dst_ip_annoEv(%class.Packet* %13)
  %15 = getelementptr inbounds %class.IPAddress, %class.IPAddress* %7, i32 0, i32 0
  store i32 %14, i32* %15, align 4
  call void @_ZN9IPAddressC2Ev(%class.IPAddress* %8)
  store i32 -1, i32* %9, align 4
  %16 = bitcast %class.IPAddress* %10 to i8*
  %17 = bitcast %class.IPAddress* %7 to i8*
  call void @llvm.memcpy.p0i8.p0i8.i64(i8* %16, i8* %17, i64 4, i32 4, i1 false)
  %18 = getelementptr inbounds %class.IPAddress, %class.IPAddress* %10, i32 0, i32 0
  %19 = load i32, i32* %18, align 4
  %20 = call zeroext i1 @_ZN13LinuxIPLookup6lookupE9IPAddressRS0_Ri(%class.LinuxIPLookup* %12, i32 %19, %class.IPAddress* dereferenceable(4) %8, i32* dereferenceable(4) %9)
  %21 = zext i1 %20 to i32
  %22 = icmp eq i32 %21, 1
  br i1 %22, label %23, label %40

; <label>:23:                                     ; preds = %3
  %24 = call i32 @_ZNK9IPAddress4addrEv(%class.IPAddress* %7)
  %25 = call i32 @_ZNK9IPAddress4addrEv(%class.IPAddress* %8)
  %26 = load i32, i32* %9, align 4
  call void (i8*, ...) @click_chatter(i8* getelementptr inbounds ([19 x i8], [19 x i8]* @.str.6, i32 0, i32 0), i32 %24, i32 %25, i32 %26)
  %27 = call i32 @_ZNK9IPAddress4addrEv(%class.IPAddress* %8)
  %28 = icmp ne i32 %27, 0
  br i1 %28, label %29, label %35

; <label>:29:                                     ; preds = %23
  %30 = load %class.Packet*, %class.Packet** %6, align 8
  %31 = bitcast %class.IPAddress* %11 to i8*
  %32 = bitcast %class.IPAddress* %8 to i8*
  call void @llvm.memcpy.p0i8.p0i8.i64(i8* %31, i8* %32, i64 4, i32 4, i1 false)
  %33 = getelementptr inbounds %class.IPAddress, %class.IPAddress* %11, i32 0, i32 0
  %34 = load i32, i32* %33, align 4
  call void @_ZN6Packet15set_dst_ip_annoE9IPAddress(%class.Packet* %30, i32 %34)
  br label %35

; <label>:35:                                     ; preds = %29, %23
  %36 = bitcast %class.LinuxIPLookup* %12 to %class.Element*
  %37 = load i32, i32* %9, align 4
  %38 = call dereferenceable(16) %"class.Element::Port"* @_ZNK7Element6outputEi(%class.Element* %36, i32 %37)
  %39 = load %class.Packet*, %class.Packet** %6, align 8
  call void @_ZNK7Element4Port4pushEP6Packet(%"class.Element::Port"* %38, %class.Packet* %39)
  br label %46

; <label>:40:                                     ; preds = %3
  %41 = call i32 @_ZNK9IPAddress4addrEv(%class.IPAddress* %7)
  call void (i8*, ...) @click_chatter(i8* getelementptr inbounds ([28 x i8], [28 x i8]* @.str.7, i32 0, i32 0), i32 %41)
  %42 = bitcast %class.LinuxIPLookup* %12 to %class.Element*
  %43 = getelementptr inbounds %class.LinuxIPLookup, %class.LinuxIPLookup* %12, i32 0, i32 1
  %44 = load i32, i32* %43, align 4
  %45 = load %class.Packet*, %class.Packet** %6, align 8
  call void @_ZNK7Element19checked_output_pushEiP6Packet(%class.Element* %42, i32 %44, %class.Packet* %45)
  br label %46

; <label>:46:                                     ; preds = %40, %35
  ret void
}

; Function Attrs: noinline optnone uwtable
define linkonce_odr i32 @_ZNK6Packet11dst_ip_annoEv(%class.Packet*) #0 comdat align 2 {
  %2 = alloca %class.IPAddress, align 4
  %3 = alloca %class.Packet*, align 8
  store %class.Packet* %0, %class.Packet** %3, align 8
  %4 = load %class.Packet*, %class.Packet** %3, align 8
  %5 = call %"union.Packet::Anno"* @_ZNK6Packet5xannoEv(%class.Packet* %4)
  %6 = bitcast %"union.Packet::Anno"* %5 to [12 x i32]*
  %7 = getelementptr inbounds [12 x i32], [12 x i32]* %6, i64 0, i64 0
  %8 = load i32, i32* %7, align 8
  call void @_ZN9IPAddressC2Ej(%class.IPAddress* %2, i32 %8)
  %9 = getelementptr inbounds %class.IPAddress, %class.IPAddress* %2, i32 0, i32 0
  %10 = load i32, i32* %9, align 4
  ret i32 %10
}

; Function Attrs: noinline nounwind optnone uwtable
define linkonce_odr void @_ZN9IPAddressC2Ev(%class.IPAddress*) unnamed_addr #2 comdat align 2 {
  %2 = alloca %class.IPAddress*, align 8
  store %class.IPAddress* %0, %class.IPAddress** %2, align 8
  %3 = load %class.IPAddress*, %class.IPAddress** %2, align 8
  %4 = getelementptr inbounds %class.IPAddress, %class.IPAddress* %3, i32 0, i32 0
  store i32 0, i32* %4, align 4
  ret void
}

; Function Attrs: noinline nounwind optnone uwtable
define linkonce_odr i32 @_ZNK9IPAddress4addrEv(%class.IPAddress*) #2 comdat align 2 {
  %2 = alloca %class.IPAddress*, align 8
  store %class.IPAddress* %0, %class.IPAddress** %2, align 8
  %3 = load %class.IPAddress*, %class.IPAddress** %2, align 8
  %4 = getelementptr inbounds %class.IPAddress, %class.IPAddress* %3, i32 0, i32 0
  %5 = load i32, i32* %4, align 4
  ret i32 %5
}

; Function Attrs: noinline optnone uwtable
define linkonce_odr void @_ZN6Packet15set_dst_ip_annoE9IPAddress(%class.Packet*, i32) #0 comdat align 2 {
  %3 = alloca %class.IPAddress, align 4
  %4 = alloca %class.Packet*, align 8
  %5 = getelementptr inbounds %class.IPAddress, %class.IPAddress* %3, i32 0, i32 0
  store i32 %1, i32* %5, align 4
  store %class.Packet* %0, %class.Packet** %4, align 8
  %6 = load %class.Packet*, %class.Packet** %4, align 8
  %7 = call i32 @_ZNK9IPAddress4addrEv(%class.IPAddress* %3)
  %8 = call %"union.Packet::Anno"* @_ZN6Packet5xannoEv(%class.Packet* %6)
  %9 = bitcast %"union.Packet::Anno"* %8 to [12 x i32]*
  %10 = getelementptr inbounds [12 x i32], [12 x i32]* %9, i64 0, i64 0
  store i32 %7, i32* %10, align 8
  ret void
}

; Function Attrs: noinline optnone uwtable
define linkonce_odr dereferenceable(16) %"class.Element::Port"* @_ZNK7Element6outputEi(%class.Element*, i32) #0 comdat align 2 {
  %3 = alloca %class.Element*, align 8
  %4 = alloca i32, align 4
  store %class.Element* %0, %class.Element** %3, align 8
  store i32 %1, i32* %4, align 4
  %5 = load %class.Element*, %class.Element** %3, align 8
  %6 = load i32, i32* %4, align 4
  %7 = call dereferenceable(16) %"class.Element::Port"* @_ZNK7Element4portEbi(%class.Element* %5, i1 zeroext true, i32 %6)
  ret %"class.Element::Port"* %7
}

; Function Attrs: noinline optnone uwtable
define linkonce_odr void @_ZNK7Element4Port4pushEP6Packet(%"class.Element::Port"*, %class.Packet*) #0 comdat align 2 {
  %3 = alloca %"class.Element::Port"*, align 8
  %4 = alloca %class.Packet*, align 8
  store %"class.Element::Port"* %0, %"class.Element::Port"** %3, align 8
  store %class.Packet* %1, %class.Packet** %4, align 8
  %5 = load %"class.Element::Port"*, %"class.Element::Port"** %3, align 8
  %6 = getelementptr inbounds %"class.Element::Port", %"class.Element::Port"* %5, i32 0, i32 0
  %7 = load %class.Element*, %class.Element** %6, align 8
  %8 = icmp ne %class.Element* %7, null
  br i1 %8, label %9, label %12

; <label>:9:                                      ; preds = %2
  %10 = load %class.Packet*, %class.Packet** %4, align 8
  %11 = icmp ne %class.Packet* %10, null
  br label %12

; <label>:12:                                     ; preds = %9, %2
  %13 = phi i1 [ false, %2 ], [ %11, %9 ]
  br i1 %13, label %14, label %15

; <label>:14:                                     ; preds = %12
  br label %17

; <label>:15:                                     ; preds = %12
  call void @__assert_fail(i8* getelementptr inbounds ([8 x i8], [8 x i8]* @.str.12, i32 0, i32 0), i8* getelementptr inbounds ([36 x i8], [36 x i8]* @.str.11, i32 0, i32 0), i32 611, i8* getelementptr inbounds ([41 x i8], [41 x i8]* @__PRETTY_FUNCTION__._ZNK7Element4Port4pushEP6Packet, i32 0, i32 0)) #13
  unreachable
                                                  ; No predecessors!
  br label %17

; <label>:17:                                     ; preds = %16, %14
  %18 = getelementptr inbounds %"class.Element::Port", %"class.Element::Port"* %5, i32 0, i32 0
  %19 = load %class.Element*, %class.Element** %18, align 8
  %20 = bitcast %class.Element* %19 to void (%class.Element*, i32, %class.Packet*)***
  %21 = load void (%class.Element*, i32, %class.Packet*)**, void (%class.Element*, i32, %class.Packet*)*** %20, align 8
  %22 = getelementptr inbounds void (%class.Element*, i32, %class.Packet*)*, void (%class.Element*, i32, %class.Packet*)** %21, i64 2
  %23 = load void (%class.Element*, i32, %class.Packet*)*, void (%class.Element*, i32, %class.Packet*)** %22, align 8
  %24 = getelementptr inbounds %"class.Element::Port", %"class.Element::Port"* %5, i32 0, i32 1
  %25 = load i32, i32* %24, align 8
  %26 = load %class.Packet*, %class.Packet** %4, align 8
  call void %23(%class.Element* %19, i32 %25, %class.Packet* %26)
  ret void
}

; Function Attrs: noinline optnone uwtable
define linkonce_odr void @_ZNK7Element19checked_output_pushEiP6Packet(%class.Element*, i32, %class.Packet*) #0 comdat align 2 {
  %4 = alloca %class.Element*, align 8
  %5 = alloca i32, align 4
  %6 = alloca %class.Packet*, align 8
  store %class.Element* %0, %class.Element** %4, align 8
  store i32 %1, i32* %5, align 4
  store %class.Packet* %2, %class.Packet** %6, align 8
  %7 = load %class.Element*, %class.Element** %4, align 8
  %8 = load i32, i32* %5, align 4
  %9 = call i32 @_ZNK7Element8noutputsEv(%class.Element* %7)
  %10 = icmp ult i32 %8, %9
  br i1 %10, label %11, label %19

; <label>:11:                                     ; preds = %3
  %12 = getelementptr inbounds %class.Element, %class.Element* %7, i32 0, i32 1
  %13 = getelementptr inbounds [2 x %"class.Element::Port"*], [2 x %"class.Element::Port"*]* %12, i64 0, i64 1
  %14 = load %"class.Element::Port"*, %"class.Element::Port"** %13, align 8
  %15 = load i32, i32* %5, align 4
  %16 = sext i32 %15 to i64
  %17 = getelementptr inbounds %"class.Element::Port", %"class.Element::Port"* %14, i64 %16
  %18 = load %class.Packet*, %class.Packet** %6, align 8
  call void @_ZNK7Element4Port4pushEP6Packet(%"class.Element::Port"* %17, %class.Packet* %18)
  br label %21

; <label>:19:                                     ; preds = %3
  %20 = load %class.Packet*, %class.Packet** %6, align 8
  call void @_ZN6Packet4killEv(%class.Packet* %20)
  br label %21

; <label>:21:                                     ; preds = %19, %11
  ret void
}

declare %class.Packet* @_ZN7Element4pullEi(%class.Element*, i32) unnamed_addr #1

declare %class.Packet* @_ZN7Element13simple_actionEP6Packet(%class.Element*, %class.Packet*) unnamed_addr #1

declare zeroext i1 @_ZN7Element8run_taskEP4Task(%class.Element*, %class.Task*) unnamed_addr #1

declare void @_ZN7Element9run_timerEP5Timer(%class.Element*, %class.Timer*) unnamed_addr #1

declare void @_ZN7Element8selectedEii(%class.Element*, i32, i32) unnamed_addr #1

declare void @_ZN7Element8selectedEi(%class.Element*, i32) unnamed_addr #1

; Function Attrs: noinline nounwind optnone uwtable
define linkonce_odr i8* @_ZNK13LinuxIPLookup10class_nameEv(%class.LinuxIPLookup*) unnamed_addr #2 comdat align 2 {
  %2 = alloca %class.LinuxIPLookup*, align 8
  store %class.LinuxIPLookup* %0, %class.LinuxIPLookup** %2, align 8
  %3 = load %class.LinuxIPLookup*, %class.LinuxIPLookup** %2, align 8
  ret i8* getelementptr inbounds ([14 x i8], [14 x i8]* @.str.13, i32 0, i32 0)
}

; Function Attrs: noinline nounwind optnone uwtable
define linkonce_odr i8* @_ZNK13LinuxIPLookup10port_countEv(%class.LinuxIPLookup*) unnamed_addr #2 comdat align 2 {
  %2 = alloca %class.LinuxIPLookup*, align 8
  store %class.LinuxIPLookup* %0, %class.LinuxIPLookup** %2, align 8
  %3 = load %class.LinuxIPLookup*, %class.LinuxIPLookup** %2, align 8
  ret i8* getelementptr inbounds ([5 x i8], [5 x i8]* @.str.14, i32 0, i32 0)
}

declare i8* @_ZNK7Element10processingEv(%class.Element*) unnamed_addr #1

declare i8* @_ZNK7Element9flow_codeEv(%class.Element*) unnamed_addr #1

declare i8* @_ZNK7Element5flagsEv(%class.Element*) unnamed_addr #1

declare i8* @_ZN7Element4castEPKc(%class.Element*, i8*) unnamed_addr #1

declare i8* @_ZN7Element9port_castEbiPKc(%class.Element*, i1 zeroext, i32, i8*) unnamed_addr #1

declare i32 @_ZNK7Element15configure_phaseEv(%class.Element*) unnamed_addr #1

declare void @_ZN7Element12add_handlersEv(%class.Element*) unnamed_addr #1

declare void @_ZN7Element10take_stateEPS_P12ErrorHandler(%class.Element*, %class.Element*, %class.ErrorHandler*) unnamed_addr #1

declare %class.Element* @_ZNK7Element15hotswap_elementEv(%class.Element*) unnamed_addr #1

declare void @_ZN7Element7cleanupENS_12CleanupStageE(%class.Element*, i32) unnamed_addr #1

declare void @_ZNK7Element11declarationEv(%class.String* sret, %class.Element*) unnamed_addr #1

declare zeroext i1 @_ZNK7Element20can_live_reconfigureEv(%class.Element*) unnamed_addr #1

declare i32 @_ZN7Element16live_reconfigureER6VectorI6StringEP12ErrorHandler(%class.Element*, %class.Vector* dereferenceable(16), %class.ErrorHandler*) unnamed_addr #1

declare i32 @_ZN7Element5llrpcEjPv(%class.Element*, i32, i8*) unnamed_addr #1

; Function Attrs: noinline nounwind optnone uwtable
define linkonce_odr void @_ZN13vector_memoryI18typed_array_memoryI6StringEED2Ev(%class.vector_memory*) unnamed_addr #2 comdat align 2 personality i8* bitcast (i32 (...)* @__gxx_personality_v0 to i8*) {
  %2 = alloca %class.vector_memory*, align 8
  store %class.vector_memory* %0, %class.vector_memory** %2, align 8
  %3 = load %class.vector_memory*, %class.vector_memory** %2, align 8
  %4 = getelementptr inbounds %class.vector_memory, %class.vector_memory* %3, i32 0, i32 0
  %5 = load %class.String*, %class.String** %4, align 8
  %6 = getelementptr inbounds %class.vector_memory, %class.vector_memory* %3, i32 0, i32 1
  %7 = load i32, i32* %6, align 8
  %8 = sext i32 %7 to i64
  invoke void @_ZN18typed_array_memoryI6StringE7destroyEPS0_m(%class.String* %5, i64 %8)
          to label %9 unwind label %20

; <label>:9:                                      ; preds = %1
  %10 = getelementptr inbounds %class.vector_memory, %class.vector_memory* %3, i32 0, i32 2
  %11 = load i32, i32* %10, align 4
  %12 = sext i32 %11 to i64
  %13 = mul i64 %12, 24
  %14 = getelementptr inbounds %class.vector_memory, %class.vector_memory* %3, i32 0, i32 0
  %15 = load %class.String*, %class.String** %14, align 8
  %16 = bitcast %class.String* %15 to i8*
  %17 = icmp eq i8* %16, null
  br i1 %17, label %19, label %18

; <label>:18:                                     ; preds = %9
  call void @_ZdaPv(i8* %16) #11
  br label %19

; <label>:19:                                     ; preds = %18, %9
  ret void

; <label>:20:                                     ; preds = %1
  %21 = landingpad { i8*, i32 }
          catch i8* null
  %22 = extractvalue { i8*, i32 } %21, 0
  call void @__clang_call_terminate(i8* %22) #13
  unreachable
}

; Function Attrs: noinline nounwind optnone uwtable
define linkonce_odr void @_ZN18typed_array_memoryI6StringE7destroyEPS0_m(%class.String*, i64) #2 comdat align 2 {
  %3 = alloca %class.String*, align 8
  %4 = alloca i64, align 8
  %5 = alloca i64, align 8
  store %class.String* %0, %class.String** %3, align 8
  store i64 %1, i64* %4, align 8
  store i64 0, i64* %5, align 8
  br label %6

; <label>:6:                                      ; preds = %14, %2
  %7 = load i64, i64* %5, align 8
  %8 = load i64, i64* %4, align 8
  %9 = icmp ne i64 %7, %8
  br i1 %9, label %10, label %17

; <label>:10:                                     ; preds = %6
  %11 = load %class.String*, %class.String** %3, align 8
  %12 = load i64, i64* %5, align 8
  %13 = getelementptr inbounds %class.String, %class.String* %11, i64 %12
  call void @_ZN6StringD2Ev(%class.String* %13) #10
  br label %14

; <label>:14:                                     ; preds = %10
  %15 = load i64, i64* %5, align 8
  %16 = add i64 %15, 1
  store i64 %16, i64* %5, align 8
  br label %6

; <label>:17:                                     ; preds = %6
  ret void
}

; Function Attrs: noinline noreturn nounwind
define linkonce_odr hidden void @__clang_call_terminate(i8*) #6 comdat {
  %2 = call i8* @__cxa_begin_catch(i8* %0) #10
  call void @_ZSt9terminatev() #13
  unreachable
}

declare i8* @__cxa_begin_catch(i8*)

declare void @_ZSt9terminatev()

; Function Attrs: nobuiltin nounwind
declare void @_ZdaPv(i8*) #4

; Function Attrs: noinline nounwind optnone uwtable
define linkonce_odr void @_ZN6StringD2Ev(%class.String*) unnamed_addr #2 comdat align 2 personality i8* bitcast (i32 (...)* @__gxx_personality_v0 to i8*) {
  %2 = alloca %class.String*, align 8
  store %class.String* %0, %class.String** %2, align 8
  %3 = load %class.String*, %class.String** %2, align 8
  invoke void @_ZNK6String5derefEv(%class.String* %3)
          to label %4 unwind label %5

; <label>:4:                                      ; preds = %1
  ret void

; <label>:5:                                      ; preds = %1
  %6 = landingpad { i8*, i32 }
          catch i8* null
  %7 = extractvalue { i8*, i32 } %6, 0
  call void @__clang_call_terminate(i8* %7) #13
  unreachable
}

; Function Attrs: noinline optnone uwtable
define linkonce_odr void @_ZNK6String5derefEv(%class.String*) #0 comdat align 2 {
  %2 = alloca %class.String*, align 8
  store %class.String* %0, %class.String** %2, align 8
  %3 = load %class.String*, %class.String** %2, align 8
  %4 = getelementptr inbounds %class.String, %class.String* %3, i32 0, i32 0
  %5 = getelementptr inbounds %"struct.String::rep_t", %"struct.String::rep_t"* %4, i32 0, i32 2
  %6 = load %"struct.String::memo_t"*, %"struct.String::memo_t"** %5, align 8
  %7 = icmp ne %"struct.String::memo_t"* %6, null
  br i1 %7, label %8, label %31

; <label>:8:                                      ; preds = %1
  %9 = getelementptr inbounds %class.String, %class.String* %3, i32 0, i32 0
  %10 = getelementptr inbounds %"struct.String::rep_t", %"struct.String::rep_t"* %9, i32 0, i32 2
  %11 = load %"struct.String::memo_t"*, %"struct.String::memo_t"** %10, align 8
  %12 = getelementptr inbounds %"struct.String::memo_t", %"struct.String::memo_t"* %11, i32 0, i32 0
  %13 = load volatile i32, i32* %12, align 4
  %14 = icmp ne i32 %13, 0
  br i1 %14, label %15, label %16

; <label>:15:                                     ; preds = %8
  br label %18

; <label>:16:                                     ; preds = %8
  call void @__assert_fail(i8* getelementptr inbounds ([18 x i8], [18 x i8]* @.str.8, i32 0, i32 0), i8* getelementptr inbounds ([35 x i8], [35 x i8]* @.str.9, i32 0, i32 0), i32 272, i8* getelementptr inbounds ([27 x i8], [27 x i8]* @__PRETTY_FUNCTION__._ZNK6String5derefEv, i32 0, i32 0)) #13
  unreachable
                                                  ; No predecessors!
  br label %18

; <label>:18:                                     ; preds = %17, %15
  %19 = getelementptr inbounds %class.String, %class.String* %3, i32 0, i32 0
  %20 = getelementptr inbounds %"struct.String::rep_t", %"struct.String::rep_t"* %19, i32 0, i32 2
  %21 = load %"struct.String::memo_t"*, %"struct.String::memo_t"** %20, align 8
  %22 = getelementptr inbounds %"struct.String::memo_t", %"struct.String::memo_t"* %21, i32 0, i32 0
  %23 = call zeroext i1 @_ZN15atomic_uint32_t12dec_and_testERVj(i32* dereferenceable(4) %22)
  br i1 %23, label %24, label %28

; <label>:24:                                     ; preds = %18
  %25 = getelementptr inbounds %class.String, %class.String* %3, i32 0, i32 0
  %26 = getelementptr inbounds %"struct.String::rep_t", %"struct.String::rep_t"* %25, i32 0, i32 2
  %27 = load %"struct.String::memo_t"*, %"struct.String::memo_t"** %26, align 8
  call void @_ZN6String11delete_memoEPNS_6memo_tE(%"struct.String::memo_t"* %27)
  br label %28

; <label>:28:                                     ; preds = %24, %18
  %29 = getelementptr inbounds %class.String, %class.String* %3, i32 0, i32 0
  %30 = getelementptr inbounds %"struct.String::rep_t", %"struct.String::rep_t"* %29, i32 0, i32 2
  store %"struct.String::memo_t"* null, %"struct.String::memo_t"** %30, align 8
  br label %31

; <label>:31:                                     ; preds = %28, %1
  ret void
}

; Function Attrs: noreturn nounwind
declare void @__assert_fail(i8*, i8*, i32, i8*) #7

; Function Attrs: noinline nounwind optnone uwtable
define linkonce_odr zeroext i1 @_ZN15atomic_uint32_t12dec_and_testERVj(i32* dereferenceable(4)) #2 comdat align 2 {
  %2 = alloca i32*, align 8
  store i32* %0, i32** %2, align 8
  %3 = load i32*, i32** %2, align 8
  %4 = load volatile i32, i32* %3, align 4
  %5 = add i32 %4, -1
  store volatile i32 %5, i32* %3, align 4
  %6 = icmp eq i32 %5, 0
  ret i1 %6
}

declare void @_ZN6String11delete_memoEPNS_6memo_tE(%"struct.String::memo_t"*) #1

; Function Attrs: noinline optnone uwtable
define linkonce_odr void @_ZN6VectorIN7IPTable5EntryEE5clearEv(%class.Vector.0*) #0 comdat align 2 {
  %2 = alloca %class.Vector.0*, align 8
  store %class.Vector.0* %0, %class.Vector.0** %2, align 8
  %3 = load %class.Vector.0*, %class.Vector.0** %2, align 8
  %4 = getelementptr inbounds %class.Vector.0, %class.Vector.0* %3, i32 0, i32 0
  call void @_ZN13vector_memoryI18sized_array_memoryILm16EEE5clearEv(%class.vector_memory.1* %4)
  ret void
}

; Function Attrs: noinline optnone uwtable
define linkonce_odr void @_ZN13vector_memoryI18sized_array_memoryILm16EEE5clearEv(%class.vector_memory.1*) #0 comdat align 2 {
  %2 = alloca %class.vector_memory.1*, align 8
  store %class.vector_memory.1* %0, %class.vector_memory.1** %2, align 8
  %3 = load %class.vector_memory.1*, %class.vector_memory.1** %2, align 8
  %4 = getelementptr inbounds %class.vector_memory.1, %class.vector_memory.1* %3, i32 0, i32 0
  %5 = load %struct.char_array*, %struct.char_array** %4, align 8
  %6 = bitcast %struct.char_array* %5 to i8*
  %7 = getelementptr inbounds %class.vector_memory.1, %class.vector_memory.1* %3, i32 0, i32 1
  %8 = load i32, i32* %7, align 8
  %9 = sext i32 %8 to i64
  call void @_ZN18sized_array_memoryILm16EE7destroyEPvm(i8* %6, i64 %9)
  %10 = getelementptr inbounds %class.vector_memory.1, %class.vector_memory.1* %3, i32 0, i32 0
  %11 = load %struct.char_array*, %struct.char_array** %10, align 8
  %12 = bitcast %struct.char_array* %11 to i8*
  %13 = getelementptr inbounds %class.vector_memory.1, %class.vector_memory.1* %3, i32 0, i32 1
  %14 = load i32, i32* %13, align 8
  %15 = sext i32 %14 to i64
  call void @_ZN18sized_array_memoryILm16EE13mark_noaccessEPvm(i8* %12, i64 %15)
  %16 = getelementptr inbounds %class.vector_memory.1, %class.vector_memory.1* %3, i32 0, i32 1
  store i32 0, i32* %16, align 8
  ret void
}

; Function Attrs: noinline nounwind optnone uwtable
define linkonce_odr void @_ZN18sized_array_memoryILm16EE7destroyEPvm(i8*, i64) #2 comdat align 2 {
  %3 = alloca i8*, align 8
  %4 = alloca i64, align 8
  store i8* %0, i8** %3, align 8
  store i64 %1, i64* %4, align 8
  ret void
}

; Function Attrs: noinline nounwind optnone uwtable
define linkonce_odr void @_ZN18sized_array_memoryILm16EE13mark_noaccessEPvm(i8*, i64) #2 comdat align 2 {
  %3 = alloca i8*, align 8
  %4 = alloca i64, align 8
  store i8* %0, i8** %3, align 8
  store i64 %1, i64* %4, align 8
  ret void
}

; Function Attrs: noinline optnone uwtable
define linkonce_odr zeroext i1 @_ZNK6String6equalsEPKci(%class.String*, i8*, i32) #0 comdat align 2 {
  %4 = alloca %class.String*, align 8
  %5 = alloca i8*, align 8
  %6 = alloca i32, align 4
  store %class.String* %0, %class.String** %4, align 8
  store i8* %1, i8** %5, align 8
  store i32 %2, i32* %6, align 4
  %7 = load %class.String*, %class.String** %4, align 8
  %8 = load i8*, i8** %5, align 8
  %9 = load i32, i32* %6, align 4
  %10 = call zeroext i1 @_ZNK6String11hard_equalsEPKci(%class.String* %7, i8* %8, i32 %9)
  ret i1 %10
}

; Function Attrs: nounwind readonly
declare i64 @strlen(i8*) #8

declare zeroext i1 @_ZNK6String11hard_equalsEPKci(%class.String*, i8*, i32) #1

; Function Attrs: noinline nounwind optnone uwtable
define linkonce_odr %"union.Packet::Anno"* @_ZNK6Packet5xannoEv(%class.Packet*) #2 comdat align 2 {
  %2 = alloca %class.Packet*, align 8
  store %class.Packet* %0, %class.Packet** %2, align 8
  %3 = load %class.Packet*, %class.Packet** %2, align 8
  %4 = getelementptr inbounds %class.Packet, %class.Packet* %3, i32 0, i32 6
  %5 = getelementptr inbounds %"struct.Packet::AllAnno", %"struct.Packet::AllAnno"* %4, i32 0, i32 0
  ret %"union.Packet::Anno"* %5
}

; Function Attrs: noinline nounwind optnone uwtable
define linkonce_odr %"union.Packet::Anno"* @_ZN6Packet5xannoEv(%class.Packet*) #2 comdat align 2 {
  %2 = alloca %class.Packet*, align 8
  store %class.Packet* %0, %class.Packet** %2, align 8
  %3 = load %class.Packet*, %class.Packet** %2, align 8
  %4 = getelementptr inbounds %class.Packet, %class.Packet* %3, i32 0, i32 6
  %5 = getelementptr inbounds %"struct.Packet::AllAnno", %"struct.Packet::AllAnno"* %4, i32 0, i32 0
  ret %"union.Packet::Anno"* %5
}

; Function Attrs: noinline nounwind optnone uwtable
define linkonce_odr dereferenceable(16) %"class.Element::Port"* @_ZNK7Element4portEbi(%class.Element*, i1 zeroext, i32) #2 comdat align 2 {
  %4 = alloca %class.Element*, align 8
  %5 = alloca i8, align 1
  %6 = alloca i32, align 4
  store %class.Element* %0, %class.Element** %4, align 8
  %7 = zext i1 %1 to i8
  store i8 %7, i8* %5, align 1
  store i32 %2, i32* %6, align 4
  %8 = load %class.Element*, %class.Element** %4, align 8
  %9 = load i32, i32* %6, align 4
  %10 = getelementptr inbounds %class.Element, %class.Element* %8, i32 0, i32 3
  %11 = load i8, i8* %5, align 1
  %12 = trunc i8 %11 to i1
  %13 = zext i1 %12 to i64
  %14 = getelementptr inbounds [2 x i32], [2 x i32]* %10, i64 0, i64 %13
  %15 = load i32, i32* %14, align 4
  %16 = icmp ult i32 %9, %15
  br i1 %16, label %17, label %18

; <label>:17:                                     ; preds = %3
  br label %20

; <label>:18:                                     ; preds = %3
  call void @__assert_fail(i8* getelementptr inbounds ([47 x i8], [47 x i8]* @.str.10, i32 0, i32 0), i8* getelementptr inbounds ([36 x i8], [36 x i8]* @.str.11, i32 0, i32 0), i32 437, i8* getelementptr inbounds ([52 x i8], [52 x i8]* @__PRETTY_FUNCTION__._ZNK7Element4portEbi, i32 0, i32 0)) #13
  unreachable
                                                  ; No predecessors!
  br label %20

; <label>:20:                                     ; preds = %19, %17
  %21 = getelementptr inbounds %class.Element, %class.Element* %8, i32 0, i32 1
  %22 = load i8, i8* %5, align 1
  %23 = trunc i8 %22 to i1
  %24 = zext i1 %23 to i64
  %25 = getelementptr inbounds [2 x %"class.Element::Port"*], [2 x %"class.Element::Port"*]* %21, i64 0, i64 %24
  %26 = load %"class.Element::Port"*, %"class.Element::Port"** %25, align 8
  %27 = load i32, i32* %6, align 4
  %28 = sext i32 %27 to i64
  %29 = getelementptr inbounds %"class.Element::Port", %"class.Element::Port"* %26, i64 %28
  ret %"class.Element::Port"* %29
}

; Function Attrs: noinline optnone uwtable
define linkonce_odr void @_ZN6Packet4killEv(%class.Packet*) #0 comdat align 2 {
  %2 = alloca %class.Packet*, align 8
  store %class.Packet* %0, %class.Packet** %2, align 8
  %3 = load %class.Packet*, %class.Packet** %2, align 8
  %4 = getelementptr inbounds %class.Packet, %class.Packet* %3, i32 0, i32 0
  %5 = call zeroext i1 @_ZN15atomic_uint32_t12dec_and_testEv(%class.atomic_uint32_t* %4)
  br i1 %5, label %6, label %8

; <label>:6:                                      ; preds = %1
  %7 = bitcast %class.Packet* %3 to %class.WritablePacket*
  call void @_ZN14WritablePacket7recycleEPS_(%class.WritablePacket* %7)
  br label %8

; <label>:8:                                      ; preds = %6, %1
  ret void
}

; Function Attrs: noinline nounwind optnone uwtable
define linkonce_odr zeroext i1 @_ZN15atomic_uint32_t12dec_and_testEv(%class.atomic_uint32_t*) #2 comdat align 2 {
  %2 = alloca %class.atomic_uint32_t*, align 8
  store %class.atomic_uint32_t* %0, %class.atomic_uint32_t** %2, align 8
  %3 = load %class.atomic_uint32_t*, %class.atomic_uint32_t** %2, align 8
  %4 = getelementptr inbounds %class.atomic_uint32_t, %class.atomic_uint32_t* %3, i32 0, i32 0
  %5 = load i32, i32* %4, align 4
  %6 = add i32 %5, -1
  store i32 %6, i32* %4, align 4
  %7 = icmp eq i32 %6, 0
  ret i1 %7
}

declare void @_ZN14WritablePacket7recycleEPS_(%class.WritablePacket*) #1

; Function Attrs: noinline nounwind optnone uwtable
define linkonce_odr void @_ZN13vector_memoryI18typed_array_memoryI6StringEEC2Ev(%class.vector_memory*) unnamed_addr #2 comdat align 2 {
  %2 = alloca %class.vector_memory*, align 8
  store %class.vector_memory* %0, %class.vector_memory** %2, align 8
  %3 = load %class.vector_memory*, %class.vector_memory** %2, align 8
  %4 = getelementptr inbounds %class.vector_memory, %class.vector_memory* %3, i32 0, i32 0
  store %class.String* null, %class.String** %4, align 8
  %5 = getelementptr inbounds %class.vector_memory, %class.vector_memory* %3, i32 0, i32 1
  store i32 0, i32* %5, align 8
  %6 = getelementptr inbounds %class.vector_memory, %class.vector_memory* %3, i32 0, i32 2
  store i32 0, i32* %6, align 4
  ret void
}

; Function Attrs: noinline optnone uwtable
define linkonce_odr void @_ZN13vector_memoryI18typed_array_memoryI6StringEE6assignERKS3_(%class.vector_memory*, %class.vector_memory* dereferenceable(16)) #0 comdat align 2 {
  %3 = alloca %class.vector_memory*, align 8
  %4 = alloca %class.vector_memory*, align 8
  store %class.vector_memory* %0, %class.vector_memory** %3, align 8
  store %class.vector_memory* %1, %class.vector_memory** %4, align 8
  %5 = load %class.vector_memory*, %class.vector_memory** %3, align 8
  %6 = load %class.vector_memory*, %class.vector_memory** %4, align 8
  %7 = icmp ne %class.vector_memory* %6, %5
  br i1 %7, label %8, label %43

; <label>:8:                                      ; preds = %2
  %9 = getelementptr inbounds %class.vector_memory, %class.vector_memory* %5, i32 0, i32 0
  %10 = load %class.String*, %class.String** %9, align 8
  %11 = getelementptr inbounds %class.vector_memory, %class.vector_memory* %5, i32 0, i32 1
  %12 = load i32, i32* %11, align 8
  %13 = sext i32 %12 to i64
  call void @_ZN18typed_array_memoryI6StringE7destroyEPS0_m(%class.String* %10, i64 %13)
  %14 = getelementptr inbounds %class.vector_memory, %class.vector_memory* %5, i32 0, i32 0
  %15 = load %class.String*, %class.String** %14, align 8
  %16 = getelementptr inbounds %class.vector_memory, %class.vector_memory* %5, i32 0, i32 1
  %17 = load i32, i32* %16, align 8
  %18 = sext i32 %17 to i64
  call void @_ZN18typed_array_memoryI6StringE13mark_noaccessEPS0_m(%class.String* %15, i64 %18)
  %19 = getelementptr inbounds %class.vector_memory, %class.vector_memory* %5, i32 0, i32 1
  store i32 0, i32* %19, align 8
  %20 = load %class.vector_memory*, %class.vector_memory** %4, align 8
  %21 = getelementptr inbounds %class.vector_memory, %class.vector_memory* %20, i32 0, i32 1
  %22 = load i32, i32* %21, align 8
  %23 = call zeroext i1 @_ZN13vector_memoryI18typed_array_memoryI6StringEE21reserve_and_push_backEiPKS1_(%class.vector_memory* %5, i32 %22, %class.String* null)
  br i1 %23, label %24, label %42

; <label>:24:                                     ; preds = %8
  %25 = load %class.vector_memory*, %class.vector_memory** %4, align 8
  %26 = getelementptr inbounds %class.vector_memory, %class.vector_memory* %25, i32 0, i32 1
  %27 = load i32, i32* %26, align 8
  %28 = getelementptr inbounds %class.vector_memory, %class.vector_memory* %5, i32 0, i32 1
  store i32 %27, i32* %28, align 8
  %29 = getelementptr inbounds %class.vector_memory, %class.vector_memory* %5, i32 0, i32 0
  %30 = load %class.String*, %class.String** %29, align 8
  %31 = getelementptr inbounds %class.vector_memory, %class.vector_memory* %5, i32 0, i32 1
  %32 = load i32, i32* %31, align 8
  %33 = sext i32 %32 to i64
  call void @_ZN18typed_array_memoryI6StringE14mark_undefinedEPS0_m(%class.String* %30, i64 %33)
  %34 = getelementptr inbounds %class.vector_memory, %class.vector_memory* %5, i32 0, i32 0
  %35 = load %class.String*, %class.String** %34, align 8
  %36 = load %class.vector_memory*, %class.vector_memory** %4, align 8
  %37 = getelementptr inbounds %class.vector_memory, %class.vector_memory* %36, i32 0, i32 0
  %38 = load %class.String*, %class.String** %37, align 8
  %39 = getelementptr inbounds %class.vector_memory, %class.vector_memory* %5, i32 0, i32 1
  %40 = load i32, i32* %39, align 8
  %41 = sext i32 %40 to i64
  call void @_ZN18typed_array_memoryI6StringE4copyEPS0_PKS0_m(%class.String* %35, %class.String* %38, i64 %41)
  br label %42

; <label>:42:                                     ; preds = %24, %8
  br label %43

; <label>:43:                                     ; preds = %42, %2
  ret void
}

; Function Attrs: noinline optnone uwtable
define linkonce_odr void @_ZN18typed_array_memoryI6StringE13mark_noaccessEPS0_m(%class.String*, i64) #0 comdat align 2 {
  %3 = alloca %class.String*, align 8
  %4 = alloca i64, align 8
  store %class.String* %0, %class.String** %3, align 8
  store i64 %1, i64* %4, align 8
  %5 = load %class.String*, %class.String** %3, align 8
  %6 = bitcast %class.String* %5 to i8*
  %7 = load i64, i64* %4, align 8
  call void @_ZN18sized_array_memoryILm24EE13mark_noaccessEPvm(i8* %6, i64 %7)
  ret void
}

; Function Attrs: noinline optnone uwtable
define linkonce_odr zeroext i1 @_ZN13vector_memoryI18typed_array_memoryI6StringEE21reserve_and_push_backEiPKS1_(%class.vector_memory*, i32, %class.String*) #0 comdat align 2 personality i8* bitcast (i32 (...)* @__gxx_personality_v0 to i8*) {
  %4 = alloca i1, align 1
  %5 = alloca %class.vector_memory*, align 8
  %6 = alloca i32, align 4
  %7 = alloca %class.String*, align 8
  %8 = alloca %class.String, align 8
  %9 = alloca i8*
  %10 = alloca i32
  %11 = alloca %class.String*, align 8
  store %class.vector_memory* %0, %class.vector_memory** %5, align 8
  store i32 %1, i32* %6, align 4
  store %class.String* %2, %class.String** %7, align 8
  %12 = load %class.vector_memory*, %class.vector_memory** %5, align 8
  %13 = load %class.String*, %class.String** %7, align 8
  %14 = icmp ne %class.String* %13, null
  br i1 %14, label %15, label %18

; <label>:15:                                     ; preds = %3
  %16 = load %class.String*, %class.String** %7, align 8
  %17 = call zeroext i1 @_ZNK13vector_memoryI18typed_array_memoryI6StringEE18need_argument_copyEPKS1_(%class.vector_memory* %12, %class.String* %16)
  br label %18

; <label>:18:                                     ; preds = %15, %3
  %19 = phi i1 [ false, %3 ], [ %17, %15 ]
  %20 = xor i1 %19, true
  %21 = xor i1 %20, true
  br i1 %21, label %22, label %31

; <label>:22:                                     ; preds = %18
  %23 = load %class.String*, %class.String** %7, align 8
  call void @_ZN6StringC2ERKS_(%class.String* %8, %class.String* dereferenceable(24) %23)
  %24 = load i32, i32* %6, align 4
  %25 = invoke zeroext i1 @_ZN13vector_memoryI18typed_array_memoryI6StringEE21reserve_and_push_backEiPKS1_(%class.vector_memory* %12, i32 %24, %class.String* %8)
          to label %26 unwind label %27

; <label>:26:                                     ; preds = %22
  store i1 %25, i1* %4, align 1
  call void @_ZN6StringD2Ev(%class.String* %8) #10
  br label %98

; <label>:27:                                     ; preds = %22
  %28 = landingpad { i8*, i32 }
          cleanup
  %29 = extractvalue { i8*, i32 } %28, 0
  store i8* %29, i8** %9, align 8
  %30 = extractvalue { i8*, i32 } %28, 1
  store i32 %30, i32* %10, align 4
  call void @_ZN6StringD2Ev(%class.String* %8) #10
  br label %100

; <label>:31:                                     ; preds = %18
  %32 = load i32, i32* %6, align 4
  %33 = icmp slt i32 %32, 0
  br i1 %33, label %34, label %45

; <label>:34:                                     ; preds = %31
  %35 = getelementptr inbounds %class.vector_memory, %class.vector_memory* %12, i32 0, i32 2
  %36 = load i32, i32* %35, align 4
  %37 = icmp sgt i32 %36, 0
  br i1 %37, label %38, label %42

; <label>:38:                                     ; preds = %34
  %39 = getelementptr inbounds %class.vector_memory, %class.vector_memory* %12, i32 0, i32 2
  %40 = load i32, i32* %39, align 4
  %41 = mul nsw i32 %40, 2
  br label %43

; <label>:42:                                     ; preds = %34
  br label %43

; <label>:43:                                     ; preds = %42, %38
  %44 = phi i32 [ %41, %38 ], [ 4, %42 ]
  store i32 %44, i32* %6, align 4
  br label %45

; <label>:45:                                     ; preds = %43, %31
  %46 = load i32, i32* %6, align 4
  %47 = getelementptr inbounds %class.vector_memory, %class.vector_memory* %12, i32 0, i32 2
  %48 = load i32, i32* %47, align 4
  %49 = icmp sgt i32 %46, %48
  br i1 %49, label %50, label %90

; <label>:50:                                     ; preds = %45
  %51 = load i32, i32* %6, align 4
  %52 = sext i32 %51 to i64
  %53 = mul i64 %52, 24
  %54 = call i8* @_Znam(i64 %53) #14
  %55 = bitcast i8* %54 to %class.String*
  store %class.String* %55, %class.String** %11, align 8
  %56 = load %class.String*, %class.String** %11, align 8
  %57 = icmp ne %class.String* %56, null
  br i1 %57, label %59, label %58

; <label>:58:                                     ; preds = %50
  store i1 false, i1* %4, align 1
  br label %98

; <label>:59:                                     ; preds = %50
  %60 = load %class.String*, %class.String** %11, align 8
  %61 = getelementptr inbounds %class.vector_memory, %class.vector_memory* %12, i32 0, i32 1
  %62 = load i32, i32* %61, align 8
  %63 = sext i32 %62 to i64
  %64 = getelementptr inbounds %class.String, %class.String* %60, i64 %63
  %65 = load i32, i32* %6, align 4
  %66 = getelementptr inbounds %class.vector_memory, %class.vector_memory* %12, i32 0, i32 1
  %67 = load i32, i32* %66, align 8
  %68 = sub nsw i32 %65, %67
  %69 = sext i32 %68 to i64
  call void @_ZN18typed_array_memoryI6StringE13mark_noaccessEPS0_m(%class.String* %64, i64 %69)
  %70 = load %class.String*, %class.String** %11, align 8
  %71 = getelementptr inbounds %class.vector_memory, %class.vector_memory* %12, i32 0, i32 0
  %72 = load %class.String*, %class.String** %71, align 8
  %73 = getelementptr inbounds %class.vector_memory, %class.vector_memory* %12, i32 0, i32 1
  %74 = load i32, i32* %73, align 8
  %75 = sext i32 %74 to i64
  call void @_ZN18typed_array_memoryI6StringE4moveEPS0_PKS0_m(%class.String* %70, %class.String* %72, i64 %75)
  %76 = getelementptr inbounds %class.vector_memory, %class.vector_memory* %12, i32 0, i32 2
  %77 = load i32, i32* %76, align 4
  %78 = sext i32 %77 to i64
  %79 = mul i64 %78, 24
  %80 = getelementptr inbounds %class.vector_memory, %class.vector_memory* %12, i32 0, i32 0
  %81 = load %class.String*, %class.String** %80, align 8
  %82 = bitcast %class.String* %81 to i8*
  %83 = icmp eq i8* %82, null
  br i1 %83, label %85, label %84

; <label>:84:                                     ; preds = %59
  call void @_ZdaPv(i8* %82) #11
  br label %85

; <label>:85:                                     ; preds = %84, %59
  %86 = load %class.String*, %class.String** %11, align 8
  %87 = getelementptr inbounds %class.vector_memory, %class.vector_memory* %12, i32 0, i32 0
  store %class.String* %86, %class.String** %87, align 8
  %88 = load i32, i32* %6, align 4
  %89 = getelementptr inbounds %class.vector_memory, %class.vector_memory* %12, i32 0, i32 2
  store i32 %88, i32* %89, align 4
  br label %90

; <label>:90:                                     ; preds = %85, %45
  %91 = load %class.String*, %class.String** %7, align 8
  %92 = icmp ne %class.String* %91, null
  %93 = xor i1 %92, true
  %94 = xor i1 %93, true
  br i1 %94, label %95, label %97

; <label>:95:                                     ; preds = %90
  %96 = load %class.String*, %class.String** %7, align 8
  call void @_ZN13vector_memoryI18typed_array_memoryI6StringEE9push_backEPKS1_(%class.vector_memory* %12, %class.String* %96)
  br label %97

; <label>:97:                                     ; preds = %95, %90
  store i1 true, i1* %4, align 1
  br label %98

; <label>:98:                                     ; preds = %97, %58, %26
  %99 = load i1, i1* %4, align 1
  ret i1 %99

; <label>:100:                                    ; preds = %27
  %101 = load i8*, i8** %9, align 8
  %102 = load i32, i32* %10, align 4
  %103 = insertvalue { i8*, i32 } undef, i8* %101, 0
  %104 = insertvalue { i8*, i32 } %103, i32 %102, 1
  resume { i8*, i32 } %104
}

; Function Attrs: noinline optnone uwtable
define linkonce_odr void @_ZN18typed_array_memoryI6StringE14mark_undefinedEPS0_m(%class.String*, i64) #0 comdat align 2 {
  %3 = alloca %class.String*, align 8
  %4 = alloca i64, align 8
  store %class.String* %0, %class.String** %3, align 8
  store i64 %1, i64* %4, align 8
  %5 = load %class.String*, %class.String** %3, align 8
  %6 = bitcast %class.String* %5 to i8*
  %7 = load i64, i64* %4, align 8
  call void @_ZN18sized_array_memoryILm24EE14mark_undefinedEPvm(i8* %6, i64 %7)
  ret void
}

; Function Attrs: noinline optnone uwtable
define linkonce_odr void @_ZN18typed_array_memoryI6StringE4copyEPS0_PKS0_m(%class.String*, %class.String*, i64) #0 comdat align 2 {
  %4 = alloca %class.String*, align 8
  %5 = alloca %class.String*, align 8
  %6 = alloca i64, align 8
  %7 = alloca i64, align 8
  store %class.String* %0, %class.String** %4, align 8
  store %class.String* %1, %class.String** %5, align 8
  store i64 %2, i64* %6, align 8
  store i64 0, i64* %7, align 8
  br label %8

; <label>:8:                                      ; preds = %21, %3
  %9 = load i64, i64* %7, align 8
  %10 = load i64, i64* %6, align 8
  %11 = icmp ne i64 %9, %10
  br i1 %11, label %12, label %24

; <label>:12:                                     ; preds = %8
  %13 = load %class.String*, %class.String** %4, align 8
  %14 = load i64, i64* %7, align 8
  %15 = getelementptr inbounds %class.String, %class.String* %13, i64 %14
  %16 = bitcast %class.String* %15 to i8*
  %17 = bitcast i8* %16 to %class.String*
  %18 = load %class.String*, %class.String** %5, align 8
  %19 = load i64, i64* %7, align 8
  %20 = getelementptr inbounds %class.String, %class.String* %18, i64 %19
  call void @_ZN6StringC2ERKS_(%class.String* %17, %class.String* dereferenceable(24) %20)
  br label %21

; <label>:21:                                     ; preds = %12
  %22 = load i64, i64* %7, align 8
  %23 = add i64 %22, 1
  store i64 %23, i64* %7, align 8
  br label %8

; <label>:24:                                     ; preds = %8
  ret void
}

; Function Attrs: noinline nounwind optnone uwtable
define linkonce_odr void @_ZN18sized_array_memoryILm24EE13mark_noaccessEPvm(i8*, i64) #2 comdat align 2 {
  %3 = alloca i8*, align 8
  %4 = alloca i64, align 8
  store i8* %0, i8** %3, align 8
  store i64 %1, i64* %4, align 8
  ret void
}

; Function Attrs: noinline nounwind optnone uwtable
define linkonce_odr zeroext i1 @_ZNK13vector_memoryI18typed_array_memoryI6StringEE18need_argument_copyEPKS1_(%class.vector_memory*, %class.String*) #2 comdat align 2 {
  %3 = alloca %class.vector_memory*, align 8
  %4 = alloca %class.String*, align 8
  store %class.vector_memory* %0, %class.vector_memory** %3, align 8
  store %class.String* %1, %class.String** %4, align 8
  %5 = load %class.vector_memory*, %class.vector_memory** %3, align 8
  %6 = load %class.String*, %class.String** %4, align 8
  %7 = ptrtoint %class.String* %6 to i64
  %8 = getelementptr inbounds %class.vector_memory, %class.vector_memory* %5, i32 0, i32 0
  %9 = load %class.String*, %class.String** %8, align 8
  %10 = ptrtoint %class.String* %9 to i64
  %11 = sub i64 %7, %10
  %12 = getelementptr inbounds %class.vector_memory, %class.vector_memory* %5, i32 0, i32 1
  %13 = load i32, i32* %12, align 8
  %14 = sext i32 %13 to i64
  %15 = mul i64 %14, 24
  %16 = icmp ult i64 %11, %15
  ret i1 %16
}

; Function Attrs: noinline optnone uwtable
define linkonce_odr void @_ZN6StringC2ERKS_(%class.String*, %class.String* dereferenceable(24)) unnamed_addr #0 comdat align 2 {
  %3 = alloca %class.String*, align 8
  %4 = alloca %class.String*, align 8
  store %class.String* %0, %class.String** %3, align 8
  store %class.String* %1, %class.String** %4, align 8
  %5 = load %class.String*, %class.String** %3, align 8
  %6 = getelementptr inbounds %class.String, %class.String* %5, i32 0, i32 0
  %7 = load %class.String*, %class.String** %4, align 8
  call void @_ZNK6String6assignERKS_(%class.String* %5, %class.String* dereferenceable(24) %7)
  ret void
}

; Function Attrs: nobuiltin
declare noalias i8* @_Znam(i64) #9

; Function Attrs: noinline optnone uwtable
define linkonce_odr void @_ZN18typed_array_memoryI6StringE4moveEPS0_PKS0_m(%class.String*, %class.String*, i64) #0 comdat align 2 {
  %4 = alloca %class.String*, align 8
  %5 = alloca %class.String*, align 8
  %6 = alloca i64, align 8
  %7 = alloca i64, align 8
  store %class.String* %0, %class.String** %4, align 8
  store %class.String* %1, %class.String** %5, align 8
  store i64 %2, i64* %6, align 8
  %8 = load %class.String*, %class.String** %4, align 8
  %9 = load %class.String*, %class.String** %5, align 8
  %10 = icmp ugt %class.String* %8, %9
  br i1 %10, label %11, label %43

; <label>:11:                                     ; preds = %3
  %12 = load %class.String*, %class.String** %5, align 8
  %13 = load i64, i64* %6, align 8
  %14 = getelementptr inbounds %class.String, %class.String* %12, i64 %13
  %15 = load %class.String*, %class.String** %4, align 8
  %16 = icmp ugt %class.String* %14, %15
  br i1 %16, label %17, label %43

; <label>:17:                                     ; preds = %11
  %18 = load i64, i64* %6, align 8
  %19 = sub i64 %18, 1
  %20 = load %class.String*, %class.String** %4, align 8
  %21 = getelementptr inbounds %class.String, %class.String* %20, i64 %19
  store %class.String* %21, %class.String** %4, align 8
  %22 = load i64, i64* %6, align 8
  %23 = sub i64 %22, 1
  %24 = load %class.String*, %class.String** %5, align 8
  %25 = getelementptr inbounds %class.String, %class.String* %24, i64 %23
  store %class.String* %25, %class.String** %5, align 8
  br label %26

; <label>:26:                                     ; preds = %35, %17
  %27 = load i64, i64* %6, align 8
  %28 = icmp ne i64 %27, 0
  br i1 %28, label %29, label %42

; <label>:29:                                     ; preds = %26
  %30 = load %class.String*, %class.String** %4, align 8
  %31 = bitcast %class.String* %30 to i8*
  %32 = bitcast i8* %31 to %class.String*
  %33 = load %class.String*, %class.String** %5, align 8
  call void @_ZN6StringC2ERKS_(%class.String* %32, %class.String* dereferenceable(24) %33)
  %34 = load %class.String*, %class.String** %5, align 8
  call void @_ZN6StringD2Ev(%class.String* %34) #10
  br label %35

; <label>:35:                                     ; preds = %29
  %36 = load i64, i64* %6, align 8
  %37 = add i64 %36, -1
  store i64 %37, i64* %6, align 8
  %38 = load %class.String*, %class.String** %4, align 8
  %39 = getelementptr inbounds %class.String, %class.String* %38, i32 -1
  store %class.String* %39, %class.String** %4, align 8
  %40 = load %class.String*, %class.String** %5, align 8
  %41 = getelementptr inbounds %class.String, %class.String* %40, i32 -1
  store %class.String* %41, %class.String** %5, align 8
  br label %26

; <label>:42:                                     ; preds = %26
  br label %64

; <label>:43:                                     ; preds = %11, %3
  store i64 0, i64* %7, align 8
  br label %44

; <label>:44:                                     ; preds = %60, %43
  %45 = load i64, i64* %7, align 8
  %46 = load i64, i64* %6, align 8
  %47 = icmp ne i64 %45, %46
  br i1 %47, label %48, label %63

; <label>:48:                                     ; preds = %44
  %49 = load %class.String*, %class.String** %4, align 8
  %50 = load i64, i64* %7, align 8
  %51 = getelementptr inbounds %class.String, %class.String* %49, i64 %50
  %52 = bitcast %class.String* %51 to i8*
  %53 = bitcast i8* %52 to %class.String*
  %54 = load %class.String*, %class.String** %5, align 8
  %55 = load i64, i64* %7, align 8
  %56 = getelementptr inbounds %class.String, %class.String* %54, i64 %55
  call void @_ZN6StringC2ERKS_(%class.String* %53, %class.String* dereferenceable(24) %56)
  %57 = load %class.String*, %class.String** %5, align 8
  %58 = load i64, i64* %7, align 8
  %59 = getelementptr inbounds %class.String, %class.String* %57, i64 %58
  call void @_ZN6StringD2Ev(%class.String* %59) #10
  br label %60

; <label>:60:                                     ; preds = %48
  %61 = load i64, i64* %7, align 8
  %62 = add i64 %61, 1
  store i64 %62, i64* %7, align 8
  br label %44

; <label>:63:                                     ; preds = %44
  br label %64

; <label>:64:                                     ; preds = %63, %42
  ret void
}

; Function Attrs: noinline optnone uwtable
define linkonce_odr void @_ZN13vector_memoryI18typed_array_memoryI6StringEE9push_backEPKS1_(%class.vector_memory*, %class.String*) #0 comdat align 2 {
  %3 = alloca %class.vector_memory*, align 8
  %4 = alloca %class.String*, align 8
  store %class.vector_memory* %0, %class.vector_memory** %3, align 8
  store %class.String* %1, %class.String** %4, align 8
  %5 = load %class.vector_memory*, %class.vector_memory** %3, align 8
  %6 = getelementptr inbounds %class.vector_memory, %class.vector_memory* %5, i32 0, i32 1
  %7 = load i32, i32* %6, align 8
  %8 = getelementptr inbounds %class.vector_memory, %class.vector_memory* %5, i32 0, i32 2
  %9 = load i32, i32* %8, align 4
  %10 = icmp slt i32 %7, %9
  br i1 %10, label %11, label %28

; <label>:11:                                     ; preds = %2
  %12 = getelementptr inbounds %class.vector_memory, %class.vector_memory* %5, i32 0, i32 0
  %13 = load %class.String*, %class.String** %12, align 8
  %14 = getelementptr inbounds %class.vector_memory, %class.vector_memory* %5, i32 0, i32 1
  %15 = load i32, i32* %14, align 8
  %16 = sext i32 %15 to i64
  %17 = getelementptr inbounds %class.String, %class.String* %13, i64 %16
  call void @_ZN18typed_array_memoryI6StringE14mark_undefinedEPS0_m(%class.String* %17, i64 1)
  %18 = getelementptr inbounds %class.vector_memory, %class.vector_memory* %5, i32 0, i32 0
  %19 = load %class.String*, %class.String** %18, align 8
  %20 = getelementptr inbounds %class.vector_memory, %class.vector_memory* %5, i32 0, i32 1
  %21 = load i32, i32* %20, align 8
  %22 = sext i32 %21 to i64
  %23 = getelementptr inbounds %class.String, %class.String* %19, i64 %22
  %24 = load %class.String*, %class.String** %4, align 8
  call void @_ZN18typed_array_memoryI6StringE4fillEPS0_mPKS0_(%class.String* %23, i64 1, %class.String* %24)
  %25 = getelementptr inbounds %class.vector_memory, %class.vector_memory* %5, i32 0, i32 1
  %26 = load i32, i32* %25, align 8
  %27 = add nsw i32 %26, 1
  store i32 %27, i32* %25, align 8
  br label %31

; <label>:28:                                     ; preds = %2
  %29 = load %class.String*, %class.String** %4, align 8
  %30 = call zeroext i1 @_ZN13vector_memoryI18typed_array_memoryI6StringEE21reserve_and_push_backEiPKS1_(%class.vector_memory* %5, i32 -1, %class.String* %29)
  br label %31

; <label>:31:                                     ; preds = %28, %11
  ret void
}

; Function Attrs: noinline optnone uwtable
define linkonce_odr void @_ZNK6String6assignERKS_(%class.String*, %class.String* dereferenceable(24)) #0 comdat align 2 {
  %3 = alloca %class.String*, align 8
  %4 = alloca %class.String*, align 8
  store %class.String* %0, %class.String** %3, align 8
  store %class.String* %1, %class.String** %4, align 8
  %5 = load %class.String*, %class.String** %3, align 8
  %6 = load %class.String*, %class.String** %4, align 8
  %7 = getelementptr inbounds %class.String, %class.String* %6, i32 0, i32 0
  %8 = getelementptr inbounds %"struct.String::rep_t", %"struct.String::rep_t"* %7, i32 0, i32 0
  %9 = load i8*, i8** %8, align 8
  %10 = load %class.String*, %class.String** %4, align 8
  %11 = getelementptr inbounds %class.String, %class.String* %10, i32 0, i32 0
  %12 = getelementptr inbounds %"struct.String::rep_t", %"struct.String::rep_t"* %11, i32 0, i32 1
  %13 = load i32, i32* %12, align 8
  %14 = load %class.String*, %class.String** %4, align 8
  %15 = getelementptr inbounds %class.String, %class.String* %14, i32 0, i32 0
  %16 = getelementptr inbounds %"struct.String::rep_t", %"struct.String::rep_t"* %15, i32 0, i32 2
  %17 = load %"struct.String::memo_t"*, %"struct.String::memo_t"** %16, align 8
  call void @_ZNK6String11assign_memoEPKciPNS_6memo_tE(%class.String* %5, i8* %9, i32 %13, %"struct.String::memo_t"* %17)
  ret void
}

; Function Attrs: noinline optnone uwtable
define linkonce_odr void @_ZNK6String11assign_memoEPKciPNS_6memo_tE(%class.String*, i8*, i32, %"struct.String::memo_t"*) #0 comdat align 2 {
  %5 = alloca %class.String*, align 8
  %6 = alloca i8*, align 8
  %7 = alloca i32, align 4
  %8 = alloca %"struct.String::memo_t"*, align 8
  store %class.String* %0, %class.String** %5, align 8
  store i8* %1, i8** %6, align 8
  store i32 %2, i32* %7, align 4
  store %"struct.String::memo_t"* %3, %"struct.String::memo_t"** %8, align 8
  %9 = load %class.String*, %class.String** %5, align 8
  %10 = load i8*, i8** %6, align 8
  %11 = getelementptr inbounds %class.String, %class.String* %9, i32 0, i32 0
  %12 = getelementptr inbounds %"struct.String::rep_t", %"struct.String::rep_t"* %11, i32 0, i32 0
  store i8* %10, i8** %12, align 8
  %13 = load i32, i32* %7, align 4
  %14 = getelementptr inbounds %class.String, %class.String* %9, i32 0, i32 0
  %15 = getelementptr inbounds %"struct.String::rep_t", %"struct.String::rep_t"* %14, i32 0, i32 1
  store i32 %13, i32* %15, align 8
  %16 = load %"struct.String::memo_t"*, %"struct.String::memo_t"** %8, align 8
  %17 = getelementptr inbounds %class.String, %class.String* %9, i32 0, i32 0
  %18 = getelementptr inbounds %"struct.String::rep_t", %"struct.String::rep_t"* %17, i32 0, i32 2
  store %"struct.String::memo_t"* %16, %"struct.String::memo_t"** %18, align 8
  %19 = icmp ne %"struct.String::memo_t"* %16, null
  br i1 %19, label %20, label %23

; <label>:20:                                     ; preds = %4
  %21 = load %"struct.String::memo_t"*, %"struct.String::memo_t"** %8, align 8
  %22 = getelementptr inbounds %"struct.String::memo_t", %"struct.String::memo_t"* %21, i32 0, i32 0
  call void @_ZN15atomic_uint32_t3incERVj(i32* dereferenceable(4) %22)
  br label %23

; <label>:23:                                     ; preds = %20, %4
  ret void
}

; Function Attrs: noinline nounwind optnone uwtable
define linkonce_odr void @_ZN15atomic_uint32_t3incERVj(i32* dereferenceable(4)) #2 comdat align 2 {
  %2 = alloca i32*, align 8
  store i32* %0, i32** %2, align 8
  %3 = load i32*, i32** %2, align 8
  %4 = load volatile i32, i32* %3, align 4
  %5 = add i32 %4, 1
  store volatile i32 %5, i32* %3, align 4
  ret void
}

; Function Attrs: noinline optnone uwtable
define linkonce_odr void @_ZN18typed_array_memoryI6StringE4fillEPS0_mPKS0_(%class.String*, i64, %class.String*) #0 comdat align 2 {
  %4 = alloca %class.String*, align 8
  %5 = alloca i64, align 8
  %6 = alloca %class.String*, align 8
  %7 = alloca i64, align 8
  store %class.String* %0, %class.String** %4, align 8
  store i64 %1, i64* %5, align 8
  store %class.String* %2, %class.String** %6, align 8
  store i64 0, i64* %7, align 8
  br label %8

; <label>:8:                                      ; preds = %19, %3
  %9 = load i64, i64* %7, align 8
  %10 = load i64, i64* %5, align 8
  %11 = icmp ne i64 %9, %10
  br i1 %11, label %12, label %22

; <label>:12:                                     ; preds = %8
  %13 = load %class.String*, %class.String** %4, align 8
  %14 = load i64, i64* %7, align 8
  %15 = getelementptr inbounds %class.String, %class.String* %13, i64 %14
  %16 = bitcast %class.String* %15 to i8*
  %17 = bitcast i8* %16 to %class.String*
  %18 = load %class.String*, %class.String** %6, align 8
  call void @_ZN6StringC2ERKS_(%class.String* %17, %class.String* dereferenceable(24) %18)
  br label %19

; <label>:19:                                     ; preds = %12
  %20 = load i64, i64* %7, align 8
  %21 = add i64 %20, 1
  store i64 %21, i64* %7, align 8
  br label %8

; <label>:22:                                     ; preds = %8
  ret void
}

; Function Attrs: noinline nounwind optnone uwtable
define linkonce_odr void @_ZN18sized_array_memoryILm24EE14mark_undefinedEPvm(i8*, i64) #2 comdat align 2 {
  %3 = alloca i8*, align 8
  %4 = alloca i64, align 8
  store i8* %0, i8** %3, align 8
  store i64 %1, i64* %4, align 8
  ret void
}

attributes #0 = { noinline optnone uwtable "correctly-rounded-divide-sqrt-fp-math"="false" "disable-tail-calls"="false" "less-precise-fpmad"="false" "no-frame-pointer-elim"="true" "no-frame-pointer-elim-non-leaf" "no-infs-fp-math"="false" "no-jump-tables"="false" "no-nans-fp-math"="false" "no-signed-zeros-fp-math"="false" "no-trapping-math"="false" "stack-protector-buffer-size"="8" "target-cpu"="x86-64" "target-features"="+fxsr,+mmx,+sse,+sse2,+x87" "unsafe-fp-math"="false" "use-soft-float"="false" }
attributes #1 = { "correctly-rounded-divide-sqrt-fp-math"="false" "disable-tail-calls"="false" "less-precise-fpmad"="false" "no-frame-pointer-elim"="true" "no-frame-pointer-elim-non-leaf" "no-infs-fp-math"="false" "no-nans-fp-math"="false" "no-signed-zeros-fp-math"="false" "no-trapping-math"="false" "stack-protector-buffer-size"="8" "target-cpu"="x86-64" "target-features"="+fxsr,+mmx,+sse,+sse2,+x87" "unsafe-fp-math"="false" "use-soft-float"="false" }
attributes #2 = { noinline nounwind optnone uwtable "correctly-rounded-divide-sqrt-fp-math"="false" "disable-tail-calls"="false" "less-precise-fpmad"="false" "no-frame-pointer-elim"="true" "no-frame-pointer-elim-non-leaf" "no-infs-fp-math"="false" "no-jump-tables"="false" "no-nans-fp-math"="false" "no-signed-zeros-fp-math"="false" "no-trapping-math"="false" "stack-protector-buffer-size"="8" "target-cpu"="x86-64" "target-features"="+fxsr,+mmx,+sse,+sse2,+x87" "unsafe-fp-math"="false" "use-soft-float"="false" }
attributes #3 = { nounwind "correctly-rounded-divide-sqrt-fp-math"="false" "disable-tail-calls"="false" "less-precise-fpmad"="false" "no-frame-pointer-elim"="true" "no-frame-pointer-elim-non-leaf" "no-infs-fp-math"="false" "no-nans-fp-math"="false" "no-signed-zeros-fp-math"="false" "no-trapping-math"="false" "stack-protector-buffer-size"="8" "target-cpu"="x86-64" "target-features"="+fxsr,+mmx,+sse,+sse2,+x87" "unsafe-fp-math"="false" "use-soft-float"="false" }
attributes #4 = { nobuiltin nounwind "correctly-rounded-divide-sqrt-fp-math"="false" "disable-tail-calls"="false" "less-precise-fpmad"="false" "no-frame-pointer-elim"="true" "no-frame-pointer-elim-non-leaf" "no-infs-fp-math"="false" "no-nans-fp-math"="false" "no-signed-zeros-fp-math"="false" "no-trapping-math"="false" "stack-protector-buffer-size"="8" "target-cpu"="x86-64" "target-features"="+fxsr,+mmx,+sse,+sse2,+x87" "unsafe-fp-math"="false" "use-soft-float"="false" }
attributes #5 = { argmemonly nounwind }
attributes #6 = { noinline noreturn nounwind }
attributes #7 = { noreturn nounwind "correctly-rounded-divide-sqrt-fp-math"="false" "disable-tail-calls"="false" "less-precise-fpmad"="false" "no-frame-pointer-elim"="true" "no-frame-pointer-elim-non-leaf" "no-infs-fp-math"="false" "no-nans-fp-math"="false" "no-signed-zeros-fp-math"="false" "no-trapping-math"="false" "stack-protector-buffer-size"="8" "target-cpu"="x86-64" "target-features"="+fxsr,+mmx,+sse,+sse2,+x87" "unsafe-fp-math"="false" "use-soft-float"="false" }
attributes #8 = { nounwind readonly "correctly-rounded-divide-sqrt-fp-math"="false" "disable-tail-calls"="false" "less-precise-fpmad"="false" "no-frame-pointer-elim"="true" "no-frame-pointer-elim-non-leaf" "no-infs-fp-math"="false" "no-nans-fp-math"="false" "no-signed-zeros-fp-math"="false" "no-trapping-math"="false" "stack-protector-buffer-size"="8" "target-cpu"="x86-64" "target-features"="+fxsr,+mmx,+sse,+sse2,+x87" "unsafe-fp-math"="false" "use-soft-float"="false" }
attributes #9 = { nobuiltin "correctly-rounded-divide-sqrt-fp-math"="false" "disable-tail-calls"="false" "less-precise-fpmad"="false" "no-frame-pointer-elim"="true" "no-frame-pointer-elim-non-leaf" "no-infs-fp-math"="false" "no-nans-fp-math"="false" "no-signed-zeros-fp-math"="false" "no-trapping-math"="false" "stack-protector-buffer-size"="8" "target-cpu"="x86-64" "target-features"="+fxsr,+mmx,+sse,+sse2,+x87" "unsafe-fp-math"="false" "use-soft-float"="false" }
attributes #10 = { nounwind }
attributes #11 = { builtin nounwind }
attributes #12 = { nounwind readonly }
attributes #13 = { noreturn nounwind }
attributes #14 = { builtin }

!llvm.module.flags = !{!0}
!llvm.ident = !{!1}

!0 = !{i32 1, !"wchar_size", i32 4}
!1 = !{!"clang version 6.0.0-1ubuntu2 (tags/RELEASE_600/final)"}
