; ModuleID = '../../click/elements/standard/mixedqueue.cc'
source_filename = "../../click/elements/standard/mixedqueue.cc"
target datalayout = "e-m:e-i64:64-f80:128-n8:16:32:64-S128"
target triple = "x86_64-pc-linux-gnu"

%class.atomic_uint32_t = type { i32 }
%class.MixedQueue = type { %class.NotifierQueue }
%class.NotifierQueue = type { %class.SimpleQueue, i32, %class.ActiveNotifier }
%class.SimpleQueue = type { %class.Element.base, %class.Storage, %class.Packet**, i32, i32 }
%class.Element.base = type <{ i32 (...)**, [2 x %"class.Element::Port"*], [4 x %"class.Element::Port"], [2 x i32], %class.Router*, i32 }>
%"class.Element::Port" = type <{ %class.Element*, i32, [4 x i8] }>
%class.Element = type <{ i32 (...)**, [2 x %"class.Element::Port"*], [4 x %"class.Element::Port"], [2 x i32], %class.Router*, i32, [4 x i8] }>
%class.Router = type opaque
%class.Storage = type { i32, i32, i32 }
%class.Packet = type { %class.atomic_uint32_t, %class.Packet*, i8*, i8*, i8*, i8*, %"struct.Packet::AllAnno", void (i8*, i64, i8*)*, i8* }
%"struct.Packet::AllAnno" = type { %"union.Packet::Anno", i8*, i8*, i8*, i32, [8 x i8], %class.Packet*, %class.Packet* }
%"union.Packet::Anno" = type { [6 x i64] }
%class.ActiveNotifier = type { %class.Notifier.base, %class.Task*, %"union.ActiveNotifier::task_or_signal_t"* }
%class.Notifier.base = type <{ i32 (...)**, %class.NotifierSignal, i32 }>
%class.NotifierSignal = type <{ %"union.NotifierSignal::vmvalue", i32, [4 x i8] }>
%"union.NotifierSignal::vmvalue" = type { %class.atomic_uint32_t* }
%class.Task = type { %struct.TaskLink.base, i32, i32, %"union.Task::Status", i1 (%class.Task*, i8*)*, i8*, %class.RouterThread*, %class.Element*, %"union.Task::Pending" }
%struct.TaskLink.base = type <{ %struct.TaskLink*, %struct.TaskLink*, i32 }>
%struct.TaskLink = type <{ %struct.TaskLink*, %struct.TaskLink*, i32, [4 x i8] }>
%"union.Task::Status" = type { i32 }
%class.RouterThread = type { %struct.TaskLink, i8, [7 x i8], %class.TimerSet, %class.SelectSet, [32 x i8], %class.Spinlock, %class.atomic_uint32_t, %class.atomic_uint32_t, %"union.Task::Pending", %"union.Task::Pending"*, %class.SpinlockIRQ, [31 x i8], %class.Master*, i32, i8, i32, i32, [40 x i8] }
%class.TimerSet = type <{ %class.Timestamp, i32, i32, i32, [4 x i8], %class.Vector, %class.Vector.0, %class.SimpleSpinlock, [7 x i8], %class.Timestamp, i32, [4 x i8] }>
%class.Vector = type { %class.vector_memory }
%class.vector_memory = type { %struct.char_array*, i32, i32 }
%struct.char_array = type { [16 x i8] }
%class.Vector.0 = type { %class.vector_memory.1 }
%class.vector_memory.1 = type { %struct.char_array.2*, i32, i32 }
%struct.char_array.2 = type opaque
%class.SimpleSpinlock = type { i8 }
%class.Timestamp = type { %"union.Timestamp::rep_t" }
%"union.Timestamp::rep_t" = type { i64 }
%class.SelectSet = type { [2 x i32], i8, %class.Vector.3, %class.Vector.4 }
%class.Vector.3 = type { %class.vector_memory.1 }
%class.Vector.4 = type { %class.vector_memory.5 }
%class.vector_memory.5 = type { %struct.char_array.6*, i32, i32 }
%struct.char_array.6 = type opaque
%class.Spinlock = type { i8 }
%class.SpinlockIRQ = type { i8 }
%class.Master = type opaque
%"union.Task::Pending" = type { %class.Task* }
%"union.ActiveNotifier::task_or_signal_t" = type { %class.Task* }
%class.Notifier = type <{ i32 (...)**, %class.NotifierSignal, i32, [4 x i8] }>
%class.Timer = type { i32, %class.Timestamp, %union.anon, i8*, %class.Element*, %class.RouterThread* }
%union.anon = type { void (%class.Timer*, i8*)* }
%class.Vector.7 = type opaque
%class.ErrorHandler = type opaque
%class.String = type { %"struct.String::rep_t" }
%"struct.String::rep_t" = type { i8*, i32, %"struct.String::memo_t"* }
%"struct.String::memo_t" = type { i32, i32, i32, [8 x i8] }
%class.WritablePacket = type { %class.Packet }
%"struct.NotifierSignal::vmpair" = type { %class.atomic_uint32_t*, i32 }
%struct.anon = type { i16, i8, i8 }

$_ZNK7Storage4headEv = comdat any

$_ZNK7Storage4tailEv = comdat any

$_ZNK7Storage6next_iEj = comdat any

$_ZNK7Element19checked_output_pushEiP6Packet = comdat any

$_ZN7Storage8set_tailEj = comdat any

$_ZNK7Storage6prev_iEj = comdat any

$_ZN7Storage16set_tail_acquireEj = comdat any

$_ZN7Storage16set_head_releaseEj = comdat any

$_ZNK7Storage4sizeEv = comdat any

$_ZNK8Notifier6activeEv = comdat any

$_ZN14ActiveNotifier4wakeEv = comdat any

$_ZN10MixedQueueD2Ev = comdat any

$_ZN10MixedQueueD0Ev = comdat any

$_ZNK10MixedQueue10class_nameEv = comdat any

$_ZNK10MixedQueue10port_countEv = comdat any

$_ZNK11SimpleQueue10processingEv = comdat any

$_ZNK11SimpleQueue20can_live_reconfigureEv = comdat any

$_ZNK7Element8noutputsEv = comdat any

$_ZNK7Element4Port4pushEP6Packet = comdat any

$_ZN6Packet4killEv = comdat any

$_ZN15atomic_uint32_t12dec_and_testEv = comdat any

$_Z17click_write_fencev = comdat any

$_Z11click_fencev = comdat any

$_Z20click_compiler_fencev = comdat any

$_Z16click_read_fencev = comdat any

$_ZNK7Storage4sizeEjj = comdat any

$_ZNK14NotifierSignal6activeEv = comdat any

$_ZNK15atomic_uint32_tcvjEv = comdat any

$_ZNK15atomic_uint32_t5valueEv = comdat any

$_ZN14ActiveNotifier10set_activeEbb = comdat any

$_ZN8Notifier10set_activeEb = comdat any

$_ZN4Task10rescheduleEv = comdat any

$_ZN14NotifierSignal10set_activeEb = comdat any

$_ZN15atomic_uint32_taSEj = comdat any

$_ZN13NotifierQueueD2Ev = comdat any

$_ZN11SimpleQueueD2Ev = comdat any

@_ZTV10MixedQueue = unnamed_addr constant { [29 x i8*] } { [29 x i8*] [i8* null, i8* bitcast ({ i8*, i8*, i8* }* @_ZTI10MixedQueue to i8*), i8* bitcast (void (%class.MixedQueue*)* @_ZN10MixedQueueD2Ev to i8*), i8* bitcast (void (%class.MixedQueue*)* @_ZN10MixedQueueD0Ev to i8*), i8* bitcast (void (%class.MixedQueue*, i32, %class.Packet*)* @_ZN10MixedQueue4pushEiP6Packet to i8*), i8* bitcast (%class.Packet* (%class.NotifierQueue*, i32)* @_ZN13NotifierQueue4pullEi to i8*), i8* bitcast (%class.Packet* (%class.Element*, %class.Packet*)* @_ZN7Element13simple_actionEP6Packet to i8*), i8* bitcast (i1 (%class.Element*, %class.Task*)* @_ZN7Element8run_taskEP4Task to i8*), i8* bitcast (void (%class.Element*, %class.Timer*)* @_ZN7Element9run_timerEP5Timer to i8*), i8* bitcast (void (%class.Element*, i32, i32)* @_ZN7Element8selectedEii to i8*), i8* bitcast (void (%class.Element*, i32)* @_ZN7Element8selectedEi to i8*), i8* bitcast (i8* (%class.MixedQueue*)* @_ZNK10MixedQueue10class_nameEv to i8*), i8* bitcast (i8* (%class.MixedQueue*)* @_ZNK10MixedQueue10port_countEv to i8*), i8* bitcast (i8* (%class.SimpleQueue*)* @_ZNK11SimpleQueue10processingEv to i8*), i8* bitcast (i8* (%class.Element*)* @_ZNK7Element9flow_codeEv to i8*), i8* bitcast (i8* (%class.Element*)* @_ZNK7Element5flagsEv to i8*), i8* bitcast (i8* (%class.MixedQueue*, i8*)* @_ZN10MixedQueue4castEPKc to i8*), i8* bitcast (i8* (%class.Element*, i1, i32, i8*)* @_ZN7Element9port_castEbiPKc to i8*), i8* bitcast (i32 (%class.Element*)* @_ZNK7Element15configure_phaseEv to i8*), i8* bitcast (i32 (%class.NotifierQueue*, %class.Vector.7*, %class.ErrorHandler*)* @_ZN13NotifierQueue9configureER6VectorI6StringEP12ErrorHandler to i8*), i8* bitcast (void (%class.SimpleQueue*)* @_ZN11SimpleQueue12add_handlersEv to i8*), i8* bitcast (i32 (%class.SimpleQueue*, %class.ErrorHandler*)* @_ZN11SimpleQueue10initializeEP12ErrorHandler to i8*), i8* bitcast (void (%class.SimpleQueue*, %class.Element*, %class.ErrorHandler*)* @_ZN11SimpleQueue10take_stateEP7ElementP12ErrorHandler to i8*), i8* bitcast (%class.Element* (%class.Element*)* @_ZNK7Element15hotswap_elementEv to i8*), i8* bitcast (void (%class.SimpleQueue*, i32)* @_ZN11SimpleQueue7cleanupEN7Element12CleanupStageE to i8*), i8* bitcast (void (%class.String*, %class.Element*)* @_ZNK7Element11declarationEv to i8*), i8* bitcast (i1 (%class.SimpleQueue*)* @_ZNK11SimpleQueue20can_live_reconfigureEv to i8*), i8* bitcast (i32 (%class.SimpleQueue*, %class.Vector.7*, %class.ErrorHandler*)* @_ZN11SimpleQueue16live_reconfigureER6VectorI6StringEP12ErrorHandler to i8*), i8* bitcast (i32 (%class.Element*, i32, i8*)* @_ZN7Element5llrpcEjPv to i8*)] }, align 8
@.str = private unnamed_addr constant [11 x i8] c"MixedQueue\00", align 1
@.str.1 = private unnamed_addr constant [22 x i8] c"%p{element}: overflow\00", align 1
@_ZTVN10__cxxabiv120__si_class_type_infoE = external global i8*
@_ZTS10MixedQueue = constant [13 x i8] c"10MixedQueue\00"
@_ZTI13NotifierQueue = external constant i8*
@_ZTI10MixedQueue = constant { i8*, i8*, i8* } { i8* bitcast (i8** getelementptr inbounds (i8*, i8** @_ZTVN10__cxxabiv120__si_class_type_infoE, i64 2) to i8*), i8* getelementptr inbounds ([13 x i8], [13 x i8]* @_ZTS10MixedQueue, i32 0, i32 0), i8* bitcast (i8** @_ZTI13NotifierQueue to i8*) }
@.str.2 = private unnamed_addr constant [8 x i8] c"_e && p\00", align 1
@.str.3 = private unnamed_addr constant [36 x i8] c"/usr/local/include/click/element.hh\00", align 1
@__PRETTY_FUNCTION__._ZNK7Element4Port4pushEP6Packet = private unnamed_addr constant [41 x i8] c"void Element::Port::push(Packet *) const\00", align 1
@_ZN14NotifierSignal12static_valueE = external global %class.atomic_uint32_t, align 4
@.str.4 = private unnamed_addr constant [49 x i8] c"_v.v1 != &static_value && !(_mask & (_mask - 1))\00", align 1
@.str.5 = private unnamed_addr constant [37 x i8] c"/usr/local/include/click/notifier.hh\00", align 1
@__PRETTY_FUNCTION__._ZN14NotifierSignal10set_activeEb = private unnamed_addr constant [38 x i8] c"bool NotifierSignal::set_active(bool)\00", align 1
@_ZTV13NotifierQueue = external unnamed_addr constant { [29 x i8*] }
@.str.6 = private unnamed_addr constant [6 x i8] c"2/1-2\00", align 1
@.str.7 = private unnamed_addr constant [5 x i8] c"h/lh\00", align 1

@_ZN10MixedQueueC1Ev = alias void (%class.MixedQueue*), void (%class.MixedQueue*)* @_ZN10MixedQueueC2Ev

; Function Attrs: noinline optnone uwtable
define void @_ZN10MixedQueueC2Ev(%class.MixedQueue*) unnamed_addr #0 align 2 {
  %2 = alloca %class.MixedQueue*, align 8
  store %class.MixedQueue* %0, %class.MixedQueue** %2, align 8
  %3 = load %class.MixedQueue*, %class.MixedQueue** %2, align 8
  %4 = bitcast %class.MixedQueue* %3 to %class.NotifierQueue*
  call void @_ZN13NotifierQueueC2Ev(%class.NotifierQueue* %4)
  %5 = bitcast %class.MixedQueue* %3 to i32 (...)***
  store i32 (...)** bitcast (i8** getelementptr inbounds ({ [29 x i8*] }, { [29 x i8*] }* @_ZTV10MixedQueue, i32 0, inrange i32 0, i32 2) to i32 (...)**), i32 (...)*** %5, align 8
  ret void
}

declare void @_ZN13NotifierQueueC2Ev(%class.NotifierQueue*) unnamed_addr #1

; Function Attrs: noinline optnone uwtable
define i8* @_ZN10MixedQueue4castEPKc(%class.MixedQueue*, i8*) unnamed_addr #0 align 2 {
  %3 = alloca i8*, align 8
  %4 = alloca %class.MixedQueue*, align 8
  %5 = alloca i8*, align 8
  store %class.MixedQueue* %0, %class.MixedQueue** %4, align 8
  store i8* %1, i8** %5, align 8
  %6 = load %class.MixedQueue*, %class.MixedQueue** %4, align 8
  %7 = load i8*, i8** %5, align 8
  %8 = call i32 @strcmp(i8* %7, i8* getelementptr inbounds ([11 x i8], [11 x i8]* @.str, i32 0, i32 0)) #7
  %9 = icmp eq i32 %8, 0
  br i1 %9, label %10, label %12

; <label>:10:                                     ; preds = %2
  %11 = bitcast %class.MixedQueue* %6 to i8*
  store i8* %11, i8** %3, align 8
  br label %16

; <label>:12:                                     ; preds = %2
  %13 = bitcast %class.MixedQueue* %6 to %class.NotifierQueue*
  %14 = load i8*, i8** %5, align 8
  %15 = call i8* @_ZN13NotifierQueue4castEPKc(%class.NotifierQueue* %13, i8* %14)
  store i8* %15, i8** %3, align 8
  br label %16

; <label>:16:                                     ; preds = %12, %10
  %17 = load i8*, i8** %3, align 8
  ret i8* %17
}

; Function Attrs: nounwind readonly
declare i32 @strcmp(i8*, i8*) #2

declare i8* @_ZN13NotifierQueue4castEPKc(%class.NotifierQueue*, i8*) unnamed_addr #1

; Function Attrs: noinline optnone uwtable
define void @_ZN10MixedQueue4pushEiP6Packet(%class.MixedQueue*, i32, %class.Packet*) unnamed_addr #0 align 2 {
  %4 = alloca %class.MixedQueue*, align 8
  %5 = alloca i32, align 4
  %6 = alloca %class.Packet*, align 8
  %7 = alloca %class.Packet*, align 8
  %8 = alloca i32, align 4
  %9 = alloca i32, align 4
  %10 = alloca i32, align 4
  %11 = alloca i32, align 4
  %12 = alloca i32, align 4
  %13 = alloca i32, align 4
  %14 = alloca i32, align 4
  store %class.MixedQueue* %0, %class.MixedQueue** %4, align 8
  store i32 %1, i32* %5, align 4
  store %class.Packet* %2, %class.Packet** %6, align 8
  %15 = load %class.MixedQueue*, %class.MixedQueue** %4, align 8
  store %class.Packet* null, %class.Packet** %7, align 8
  %16 = load i32, i32* %5, align 4
  %17 = icmp eq i32 %16, 0
  br i1 %17, label %18, label %68

; <label>:18:                                     ; preds = %3
  %19 = bitcast %class.MixedQueue* %15 to i8*
  %20 = getelementptr inbounds i8, i8* %19, i64 108
  %21 = bitcast i8* %20 to %class.Storage*
  %22 = call i32 @_ZNK7Storage4headEv(%class.Storage* %21)
  store i32 %22, i32* %8, align 4
  %23 = bitcast %class.MixedQueue* %15 to i8*
  %24 = getelementptr inbounds i8, i8* %23, i64 108
  %25 = bitcast i8* %24 to %class.Storage*
  %26 = call i32 @_ZNK7Storage4tailEv(%class.Storage* %25)
  store i32 %26, i32* %9, align 4
  %27 = bitcast %class.MixedQueue* %15 to i8*
  %28 = getelementptr inbounds i8, i8* %27, i64 108
  %29 = bitcast i8* %28 to %class.Storage*
  %30 = load i32, i32* %9, align 4
  %31 = call i32 @_ZNK7Storage6next_iEj(%class.Storage* %29, i32 %30)
  store i32 %31, i32* %10, align 4
  %32 = load i32, i32* %10, align 4
  %33 = load i32, i32* %8, align 4
  %34 = icmp eq i32 %32, %33
  br i1 %34, label %35, label %55

; <label>:35:                                     ; preds = %18
  %36 = bitcast %class.MixedQueue* %15 to %class.SimpleQueue*
  %37 = getelementptr inbounds %class.SimpleQueue, %class.SimpleQueue* %36, i32 0, i32 3
  %38 = load volatile i32, i32* %37, align 8
  %39 = icmp eq i32 %38, 0
  br i1 %39, label %40, label %48

; <label>:40:                                     ; preds = %35
  %41 = bitcast %class.MixedQueue* %15 to i8*
  %42 = getelementptr inbounds i8, i8* %41, i64 108
  %43 = bitcast i8* %42 to %class.Storage*
  %44 = getelementptr inbounds %class.Storage, %class.Storage* %43, i32 0, i32 0
  %45 = load i32, i32* %44, align 4
  %46 = icmp ugt i32 %45, 0
  br i1 %46, label %47, label %48

; <label>:47:                                     ; preds = %40
  call void (i8*, ...) @click_chatter(i8* getelementptr inbounds ([22 x i8], [22 x i8]* @.str.1, i32 0, i32 0), %class.MixedQueue* %15)
  br label %48

; <label>:48:                                     ; preds = %47, %40, %35
  %49 = bitcast %class.MixedQueue* %15 to %class.SimpleQueue*
  %50 = getelementptr inbounds %class.SimpleQueue, %class.SimpleQueue* %49, i32 0, i32 3
  %51 = load volatile i32, i32* %50, align 8
  %52 = add nsw i32 %51, 1
  store volatile i32 %52, i32* %50, align 8
  %53 = bitcast %class.MixedQueue* %15 to %class.Element*
  %54 = load %class.Packet*, %class.Packet** %6, align 8
  call void @_ZNK7Element19checked_output_pushEiP6Packet(%class.Element* %53, i32 1, %class.Packet* %54)
  br label %67

; <label>:55:                                     ; preds = %18
  %56 = load %class.Packet*, %class.Packet** %6, align 8
  %57 = bitcast %class.MixedQueue* %15 to %class.SimpleQueue*
  %58 = getelementptr inbounds %class.SimpleQueue, %class.SimpleQueue* %57, i32 0, i32 2
  %59 = load %class.Packet**, %class.Packet*** %58, align 8
  %60 = load i32, i32* %9, align 4
  %61 = sext i32 %60 to i64
  %62 = getelementptr inbounds %class.Packet*, %class.Packet** %59, i64 %61
  store volatile %class.Packet* %56, %class.Packet** %62, align 8
  %63 = bitcast %class.MixedQueue* %15 to i8*
  %64 = getelementptr inbounds i8, i8* %63, i64 108
  %65 = bitcast i8* %64 to %class.Storage*
  %66 = load i32, i32* %10, align 4
  call void @_ZN7Storage8set_tailEj(%class.Storage* %65, i32 %66)
  br label %67

; <label>:67:                                     ; preds = %55, %48
  br label %131

; <label>:68:                                     ; preds = %3
  %69 = bitcast %class.MixedQueue* %15 to i8*
  %70 = getelementptr inbounds i8, i8* %69, i64 108
  %71 = bitcast i8* %70 to %class.Storage*
  %72 = call i32 @_ZNK7Storage4headEv(%class.Storage* %71)
  store i32 %72, i32* %11, align 4
  %73 = bitcast %class.MixedQueue* %15 to i8*
  %74 = getelementptr inbounds i8, i8* %73, i64 108
  %75 = bitcast i8* %74 to %class.Storage*
  %76 = call i32 @_ZNK7Storage4tailEv(%class.Storage* %75)
  store i32 %76, i32* %12, align 4
  %77 = bitcast %class.MixedQueue* %15 to i8*
  %78 = getelementptr inbounds i8, i8* %77, i64 108
  %79 = bitcast i8* %78 to %class.Storage*
  %80 = load i32, i32* %11, align 4
  %81 = call i32 @_ZNK7Storage6prev_iEj(%class.Storage* %79, i32 %80)
  store i32 %81, i32* %13, align 4
  %82 = load i32, i32* %13, align 4
  %83 = load i32, i32* %12, align 4
  %84 = icmp eq i32 %82, %83
  br i1 %84, label %85, label %119

; <label>:85:                                     ; preds = %68
  %86 = bitcast %class.MixedQueue* %15 to %class.SimpleQueue*
  %87 = getelementptr inbounds %class.SimpleQueue, %class.SimpleQueue* %86, i32 0, i32 3
  %88 = load volatile i32, i32* %87, align 8
  %89 = icmp eq i32 %88, 0
  br i1 %89, label %90, label %98

; <label>:90:                                     ; preds = %85
  %91 = bitcast %class.MixedQueue* %15 to i8*
  %92 = getelementptr inbounds i8, i8* %91, i64 108
  %93 = bitcast i8* %92 to %class.Storage*
  %94 = getelementptr inbounds %class.Storage, %class.Storage* %93, i32 0, i32 0
  %95 = load i32, i32* %94, align 4
  %96 = icmp ugt i32 %95, 0
  br i1 %96, label %97, label %98

; <label>:97:                                     ; preds = %90
  call void (i8*, ...) @click_chatter(i8* getelementptr inbounds ([22 x i8], [22 x i8]* @.str.1, i32 0, i32 0), %class.MixedQueue* %15)
  br label %98

; <label>:98:                                     ; preds = %97, %90, %85
  %99 = bitcast %class.MixedQueue* %15 to %class.SimpleQueue*
  %100 = getelementptr inbounds %class.SimpleQueue, %class.SimpleQueue* %99, i32 0, i32 3
  %101 = load volatile i32, i32* %100, align 8
  %102 = add nsw i32 %101, 1
  store volatile i32 %102, i32* %100, align 8
  %103 = bitcast %class.MixedQueue* %15 to i8*
  %104 = getelementptr inbounds i8, i8* %103, i64 108
  %105 = bitcast i8* %104 to %class.Storage*
  %106 = load i32, i32* %12, align 4
  %107 = call i32 @_ZNK7Storage6prev_iEj(%class.Storage* %105, i32 %106)
  store i32 %107, i32* %12, align 4
  %108 = bitcast %class.MixedQueue* %15 to %class.SimpleQueue*
  %109 = getelementptr inbounds %class.SimpleQueue, %class.SimpleQueue* %108, i32 0, i32 2
  %110 = load %class.Packet**, %class.Packet*** %109, align 8
  %111 = load i32, i32* %12, align 4
  %112 = sext i32 %111 to i64
  %113 = getelementptr inbounds %class.Packet*, %class.Packet** %110, i64 %112
  %114 = load volatile %class.Packet*, %class.Packet** %113, align 8
  store %class.Packet* %114, %class.Packet** %7, align 8
  %115 = bitcast %class.MixedQueue* %15 to i8*
  %116 = getelementptr inbounds i8, i8* %115, i64 108
  %117 = bitcast i8* %116 to %class.Storage*
  %118 = load i32, i32* %12, align 4
  call void @_ZN7Storage16set_tail_acquireEj(%class.Storage* %117, i32 %118)
  br label %119

; <label>:119:                                    ; preds = %98, %68
  %120 = load %class.Packet*, %class.Packet** %6, align 8
  %121 = bitcast %class.MixedQueue* %15 to %class.SimpleQueue*
  %122 = getelementptr inbounds %class.SimpleQueue, %class.SimpleQueue* %121, i32 0, i32 2
  %123 = load %class.Packet**, %class.Packet*** %122, align 8
  %124 = load i32, i32* %13, align 4
  %125 = sext i32 %124 to i64
  %126 = getelementptr inbounds %class.Packet*, %class.Packet** %123, i64 %125
  store volatile %class.Packet* %120, %class.Packet** %126, align 8
  %127 = bitcast %class.MixedQueue* %15 to i8*
  %128 = getelementptr inbounds i8, i8* %127, i64 108
  %129 = bitcast i8* %128 to %class.Storage*
  %130 = load i32, i32* %13, align 4
  call void @_ZN7Storage16set_head_releaseEj(%class.Storage* %129, i32 %130)
  br label %131

; <label>:131:                                    ; preds = %119, %67
  %132 = bitcast %class.MixedQueue* %15 to i8*
  %133 = getelementptr inbounds i8, i8* %132, i64 108
  %134 = bitcast i8* %133 to %class.Storage*
  %135 = call i32 @_ZNK7Storage4sizeEv(%class.Storage* %134)
  store i32 %135, i32* %14, align 4
  %136 = load i32, i32* %14, align 4
  %137 = bitcast %class.MixedQueue* %15 to %class.SimpleQueue*
  %138 = getelementptr inbounds %class.SimpleQueue, %class.SimpleQueue* %137, i32 0, i32 4
  %139 = load i32, i32* %138, align 4
  %140 = icmp sgt i32 %136, %139
  br i1 %140, label %141, label %145

; <label>:141:                                    ; preds = %131
  %142 = load i32, i32* %14, align 4
  %143 = bitcast %class.MixedQueue* %15 to %class.SimpleQueue*
  %144 = getelementptr inbounds %class.SimpleQueue, %class.SimpleQueue* %143, i32 0, i32 4
  store i32 %142, i32* %144, align 4
  br label %145

; <label>:145:                                    ; preds = %141, %131
  %146 = load i32, i32* %14, align 4
  %147 = icmp eq i32 %146, 1
  br i1 %147, label %148, label %156

; <label>:148:                                    ; preds = %145
  %149 = bitcast %class.MixedQueue* %15 to %class.NotifierQueue*
  %150 = getelementptr inbounds %class.NotifierQueue, %class.NotifierQueue* %149, i32 0, i32 2
  %151 = bitcast %class.ActiveNotifier* %150 to %class.Notifier*
  %152 = call zeroext i1 @_ZNK8Notifier6activeEv(%class.Notifier* %151)
  br i1 %152, label %156, label %153

; <label>:153:                                    ; preds = %148
  %154 = bitcast %class.MixedQueue* %15 to %class.NotifierQueue*
  %155 = getelementptr inbounds %class.NotifierQueue, %class.NotifierQueue* %154, i32 0, i32 2
  call void @_ZN14ActiveNotifier4wakeEv(%class.ActiveNotifier* %155)
  br label %156

; <label>:156:                                    ; preds = %153, %148, %145
  %157 = load %class.Packet*, %class.Packet** %7, align 8
  %158 = icmp ne %class.Packet* %157, null
  br i1 %158, label %159, label %162

; <label>:159:                                    ; preds = %156
  %160 = bitcast %class.MixedQueue* %15 to %class.Element*
  %161 = load %class.Packet*, %class.Packet** %7, align 8
  call void @_ZNK7Element19checked_output_pushEiP6Packet(%class.Element* %160, i32 1, %class.Packet* %161)
  br label %162

; <label>:162:                                    ; preds = %159, %156
  ret void
}

; Function Attrs: noinline nounwind optnone uwtable
define linkonce_odr i32 @_ZNK7Storage4headEv(%class.Storage*) #3 comdat align 2 {
  %2 = alloca %class.Storage*, align 8
  store %class.Storage* %0, %class.Storage** %2, align 8
  %3 = load %class.Storage*, %class.Storage** %2, align 8
  %4 = getelementptr inbounds %class.Storage, %class.Storage* %3, i32 0, i32 1
  %5 = load volatile i32, i32* %4, align 4
  ret i32 %5
}

; Function Attrs: noinline nounwind optnone uwtable
define linkonce_odr i32 @_ZNK7Storage4tailEv(%class.Storage*) #3 comdat align 2 {
  %2 = alloca %class.Storage*, align 8
  store %class.Storage* %0, %class.Storage** %2, align 8
  %3 = load %class.Storage*, %class.Storage** %2, align 8
  %4 = getelementptr inbounds %class.Storage, %class.Storage* %3, i32 0, i32 2
  %5 = load volatile i32, i32* %4, align 4
  ret i32 %5
}

; Function Attrs: noinline nounwind optnone uwtable
define linkonce_odr i32 @_ZNK7Storage6next_iEj(%class.Storage*, i32) #3 comdat align 2 {
  %3 = alloca %class.Storage*, align 8
  %4 = alloca i32, align 4
  store %class.Storage* %0, %class.Storage** %3, align 8
  store i32 %1, i32* %4, align 4
  %5 = load %class.Storage*, %class.Storage** %3, align 8
  %6 = load i32, i32* %4, align 4
  %7 = getelementptr inbounds %class.Storage, %class.Storage* %5, i32 0, i32 0
  %8 = load i32, i32* %7, align 4
  %9 = icmp ne i32 %6, %8
  br i1 %9, label %10, label %13

; <label>:10:                                     ; preds = %2
  %11 = load i32, i32* %4, align 4
  %12 = add i32 %11, 1
  br label %14

; <label>:13:                                     ; preds = %2
  br label %14

; <label>:14:                                     ; preds = %13, %10
  %15 = phi i32 [ %12, %10 ], [ 0, %13 ]
  ret i32 %15
}

declare void @click_chatter(i8*, ...) #1

; Function Attrs: noinline optnone uwtable
define linkonce_odr void @_ZNK7Element19checked_output_pushEiP6Packet(%class.Element*, i32, %class.Packet*) #0 comdat align 2 {
  %4 = alloca %class.Element*, align 8
  %5 = alloca i32, align 4
  %6 = alloca %class.Packet*, align 8
  store %class.Element* %0, %class.Element** %4, align 8
  store i32 %1, i32* %5, align 4
  store %class.Packet* %2, %class.Packet** %6, align 8
  %7 = load %class.Element*, %class.Element** %4, align 8
  %8 = load i32, i32* %5, align 4
  %9 = call i32 @_ZNK7Element8noutputsEv(%class.Element* %7)
  %10 = icmp ult i32 %8, %9
  br i1 %10, label %11, label %19

; <label>:11:                                     ; preds = %3
  %12 = getelementptr inbounds %class.Element, %class.Element* %7, i32 0, i32 1
  %13 = getelementptr inbounds [2 x %"class.Element::Port"*], [2 x %"class.Element::Port"*]* %12, i64 0, i64 1
  %14 = load %"class.Element::Port"*, %"class.Element::Port"** %13, align 8
  %15 = load i32, i32* %5, align 4
  %16 = sext i32 %15 to i64
  %17 = getelementptr inbounds %"class.Element::Port", %"class.Element::Port"* %14, i64 %16
  %18 = load %class.Packet*, %class.Packet** %6, align 8
  call void @_ZNK7Element4Port4pushEP6Packet(%"class.Element::Port"* %17, %class.Packet* %18)
  br label %21

; <label>:19:                                     ; preds = %3
  %20 = load %class.Packet*, %class.Packet** %6, align 8
  call void @_ZN6Packet4killEv(%class.Packet* %20)
  br label %21

; <label>:21:                                     ; preds = %19, %11
  ret void
}

; Function Attrs: noinline optnone uwtable
define linkonce_odr void @_ZN7Storage8set_tailEj(%class.Storage*, i32) #0 comdat align 2 {
  %3 = alloca %class.Storage*, align 8
  %4 = alloca i32, align 4
  store %class.Storage* %0, %class.Storage** %3, align 8
  store i32 %1, i32* %4, align 4
  %5 = load %class.Storage*, %class.Storage** %3, align 8
  call void @_Z17click_write_fencev()
  %6 = load i32, i32* %4, align 4
  %7 = getelementptr inbounds %class.Storage, %class.Storage* %5, i32 0, i32 2
  store volatile i32 %6, i32* %7, align 4
  ret void
}

; Function Attrs: noinline nounwind optnone uwtable
define linkonce_odr i32 @_ZNK7Storage6prev_iEj(%class.Storage*, i32) #3 comdat align 2 {
  %3 = alloca %class.Storage*, align 8
  %4 = alloca i32, align 4
  store %class.Storage* %0, %class.Storage** %3, align 8
  store i32 %1, i32* %4, align 4
  %5 = load %class.Storage*, %class.Storage** %3, align 8
  %6 = load i32, i32* %4, align 4
  %7 = icmp ne i32 %6, 0
  br i1 %7, label %8, label %11

; <label>:8:                                      ; preds = %2
  %9 = load i32, i32* %4, align 4
  %10 = sub i32 %9, 1
  br label %14

; <label>:11:                                     ; preds = %2
  %12 = getelementptr inbounds %class.Storage, %class.Storage* %5, i32 0, i32 0
  %13 = load i32, i32* %12, align 4
  br label %14

; <label>:14:                                     ; preds = %11, %8
  %15 = phi i32 [ %10, %8 ], [ %13, %11 ]
  ret i32 %15
}

; Function Attrs: noinline optnone uwtable
define linkonce_odr void @_ZN7Storage16set_tail_acquireEj(%class.Storage*, i32) #0 comdat align 2 {
  %3 = alloca %class.Storage*, align 8
  %4 = alloca i32, align 4
  store %class.Storage* %0, %class.Storage** %3, align 8
  store i32 %1, i32* %4, align 4
  %5 = load %class.Storage*, %class.Storage** %3, align 8
  call void @_Z16click_read_fencev()
  %6 = load i32, i32* %4, align 4
  %7 = getelementptr inbounds %class.Storage, %class.Storage* %5, i32 0, i32 2
  store volatile i32 %6, i32* %7, align 4
  ret void
}

; Function Attrs: noinline optnone uwtable
define linkonce_odr void @_ZN7Storage16set_head_releaseEj(%class.Storage*, i32) #0 comdat align 2 {
  %3 = alloca %class.Storage*, align 8
  %4 = alloca i32, align 4
  store %class.Storage* %0, %class.Storage** %3, align 8
  store i32 %1, i32* %4, align 4
  %5 = load %class.Storage*, %class.Storage** %3, align 8
  call void @_Z17click_write_fencev()
  %6 = load i32, i32* %4, align 4
  %7 = getelementptr inbounds %class.Storage, %class.Storage* %5, i32 0, i32 1
  store volatile i32 %6, i32* %7, align 4
  ret void
}

; Function Attrs: noinline optnone uwtable
define linkonce_odr i32 @_ZNK7Storage4sizeEv(%class.Storage*) #0 comdat align 2 {
  %2 = alloca %class.Storage*, align 8
  store %class.Storage* %0, %class.Storage** %2, align 8
  %3 = load %class.Storage*, %class.Storage** %2, align 8
  %4 = getelementptr inbounds %class.Storage, %class.Storage* %3, i32 0, i32 1
  %5 = load volatile i32, i32* %4, align 4
  %6 = getelementptr inbounds %class.Storage, %class.Storage* %3, i32 0, i32 2
  %7 = load volatile i32, i32* %6, align 4
  %8 = call i32 @_ZNK7Storage4sizeEjj(%class.Storage* %3, i32 %5, i32 %7)
  ret i32 %8
}

; Function Attrs: noinline optnone uwtable
define linkonce_odr zeroext i1 @_ZNK8Notifier6activeEv(%class.Notifier*) #0 comdat align 2 {
  %2 = alloca %class.Notifier*, align 8
  store %class.Notifier* %0, %class.Notifier** %2, align 8
  %3 = load %class.Notifier*, %class.Notifier** %2, align 8
  %4 = getelementptr inbounds %class.Notifier, %class.Notifier* %3, i32 0, i32 1
  %5 = call zeroext i1 @_ZNK14NotifierSignal6activeEv(%class.NotifierSignal* %4)
  ret i1 %5
}

; Function Attrs: noinline optnone uwtable
define linkonce_odr void @_ZN14ActiveNotifier4wakeEv(%class.ActiveNotifier*) #0 comdat align 2 {
  %2 = alloca %class.ActiveNotifier*, align 8
  store %class.ActiveNotifier* %0, %class.ActiveNotifier** %2, align 8
  %3 = load %class.ActiveNotifier*, %class.ActiveNotifier** %2, align 8
  call void @_ZN14ActiveNotifier10set_activeEbb(%class.ActiveNotifier* %3, i1 zeroext true, i1 zeroext true)
  ret void
}

; Function Attrs: noinline nounwind optnone uwtable
define linkonce_odr void @_ZN10MixedQueueD2Ev(%class.MixedQueue*) unnamed_addr #3 comdat align 2 {
  %2 = alloca %class.MixedQueue*, align 8
  store %class.MixedQueue* %0, %class.MixedQueue** %2, align 8
  %3 = load %class.MixedQueue*, %class.MixedQueue** %2, align 8
  %4 = bitcast %class.MixedQueue* %3 to %class.NotifierQueue*
  call void @_ZN13NotifierQueueD2Ev(%class.NotifierQueue* %4) #8
  ret void
}

; Function Attrs: noinline nounwind optnone uwtable
define linkonce_odr void @_ZN10MixedQueueD0Ev(%class.MixedQueue*) unnamed_addr #3 comdat align 2 {
  %2 = alloca %class.MixedQueue*, align 8
  store %class.MixedQueue* %0, %class.MixedQueue** %2, align 8
  %3 = load %class.MixedQueue*, %class.MixedQueue** %2, align 8
  call void @_ZN10MixedQueueD2Ev(%class.MixedQueue* %3) #8
  %4 = bitcast %class.MixedQueue* %3 to i8*
  call void @_ZdlPv(i8* %4) #9
  ret void
}

declare %class.Packet* @_ZN13NotifierQueue4pullEi(%class.NotifierQueue*, i32) unnamed_addr #1

declare %class.Packet* @_ZN7Element13simple_actionEP6Packet(%class.Element*, %class.Packet*) unnamed_addr #1

declare zeroext i1 @_ZN7Element8run_taskEP4Task(%class.Element*, %class.Task*) unnamed_addr #1

declare void @_ZN7Element9run_timerEP5Timer(%class.Element*, %class.Timer*) unnamed_addr #1

declare void @_ZN7Element8selectedEii(%class.Element*, i32, i32) unnamed_addr #1

declare void @_ZN7Element8selectedEi(%class.Element*, i32) unnamed_addr #1

; Function Attrs: noinline nounwind optnone uwtable
define linkonce_odr i8* @_ZNK10MixedQueue10class_nameEv(%class.MixedQueue*) unnamed_addr #3 comdat align 2 {
  %2 = alloca %class.MixedQueue*, align 8
  store %class.MixedQueue* %0, %class.MixedQueue** %2, align 8
  %3 = load %class.MixedQueue*, %class.MixedQueue** %2, align 8
  ret i8* getelementptr inbounds ([11 x i8], [11 x i8]* @.str, i32 0, i32 0)
}

; Function Attrs: noinline nounwind optnone uwtable
define linkonce_odr i8* @_ZNK10MixedQueue10port_countEv(%class.MixedQueue*) unnamed_addr #3 comdat align 2 {
  %2 = alloca %class.MixedQueue*, align 8
  store %class.MixedQueue* %0, %class.MixedQueue** %2, align 8
  %3 = load %class.MixedQueue*, %class.MixedQueue** %2, align 8
  ret i8* getelementptr inbounds ([6 x i8], [6 x i8]* @.str.6, i32 0, i32 0)
}

; Function Attrs: noinline nounwind optnone uwtable
define linkonce_odr i8* @_ZNK11SimpleQueue10processingEv(%class.SimpleQueue*) unnamed_addr #3 comdat align 2 {
  %2 = alloca %class.SimpleQueue*, align 8
  store %class.SimpleQueue* %0, %class.SimpleQueue** %2, align 8
  %3 = load %class.SimpleQueue*, %class.SimpleQueue** %2, align 8
  ret i8* getelementptr inbounds ([5 x i8], [5 x i8]* @.str.7, i32 0, i32 0)
}

declare i8* @_ZNK7Element9flow_codeEv(%class.Element*) unnamed_addr #1

declare i8* @_ZNK7Element5flagsEv(%class.Element*) unnamed_addr #1

declare i8* @_ZN7Element9port_castEbiPKc(%class.Element*, i1 zeroext, i32, i8*) unnamed_addr #1

declare i32 @_ZNK7Element15configure_phaseEv(%class.Element*) unnamed_addr #1

declare i32 @_ZN13NotifierQueue9configureER6VectorI6StringEP12ErrorHandler(%class.NotifierQueue*, %class.Vector.7* nonnull, %class.ErrorHandler*) unnamed_addr #1

declare void @_ZN11SimpleQueue12add_handlersEv(%class.SimpleQueue*) unnamed_addr #1

declare i32 @_ZN11SimpleQueue10initializeEP12ErrorHandler(%class.SimpleQueue*, %class.ErrorHandler*) unnamed_addr #1

declare void @_ZN11SimpleQueue10take_stateEP7ElementP12ErrorHandler(%class.SimpleQueue*, %class.Element*, %class.ErrorHandler*) unnamed_addr #1

declare %class.Element* @_ZNK7Element15hotswap_elementEv(%class.Element*) unnamed_addr #1

declare void @_ZN11SimpleQueue7cleanupEN7Element12CleanupStageE(%class.SimpleQueue*, i32) unnamed_addr #1

declare void @_ZNK7Element11declarationEv(%class.String* sret, %class.Element*) unnamed_addr #1

; Function Attrs: noinline nounwind optnone uwtable
define linkonce_odr zeroext i1 @_ZNK11SimpleQueue20can_live_reconfigureEv(%class.SimpleQueue*) unnamed_addr #3 comdat align 2 {
  %2 = alloca %class.SimpleQueue*, align 8
  store %class.SimpleQueue* %0, %class.SimpleQueue** %2, align 8
  %3 = load %class.SimpleQueue*, %class.SimpleQueue** %2, align 8
  ret i1 true
}

declare i32 @_ZN11SimpleQueue16live_reconfigureER6VectorI6StringEP12ErrorHandler(%class.SimpleQueue*, %class.Vector.7* nonnull, %class.ErrorHandler*) unnamed_addr #1

declare i32 @_ZN7Element5llrpcEjPv(%class.Element*, i32, i8*) unnamed_addr #1

; Function Attrs: noinline nounwind optnone uwtable
define linkonce_odr i32 @_ZNK7Element8noutputsEv(%class.Element*) #3 comdat align 2 {
  %2 = alloca %class.Element*, align 8
  store %class.Element* %0, %class.Element** %2, align 8
  %3 = load %class.Element*, %class.Element** %2, align 8
  %4 = getelementptr inbounds %class.Element, %class.Element* %3, i32 0, i32 3
  %5 = getelementptr inbounds [2 x i32], [2 x i32]* %4, i64 0, i64 1
  %6 = load i32, i32* %5, align 4
  ret i32 %6
}

; Function Attrs: noinline optnone uwtable
define linkonce_odr void @_ZNK7Element4Port4pushEP6Packet(%"class.Element::Port"*, %class.Packet*) #0 comdat align 2 {
  %3 = alloca %"class.Element::Port"*, align 8
  %4 = alloca %class.Packet*, align 8
  store %"class.Element::Port"* %0, %"class.Element::Port"** %3, align 8
  store %class.Packet* %1, %class.Packet** %4, align 8
  %5 = load %"class.Element::Port"*, %"class.Element::Port"** %3, align 8
  %6 = getelementptr inbounds %"class.Element::Port", %"class.Element::Port"* %5, i32 0, i32 0
  %7 = load %class.Element*, %class.Element** %6, align 8
  %8 = icmp ne %class.Element* %7, null
  br i1 %8, label %9, label %12

; <label>:9:                                      ; preds = %2
  %10 = load %class.Packet*, %class.Packet** %4, align 8
  %11 = icmp ne %class.Packet* %10, null
  br label %12

; <label>:12:                                     ; preds = %9, %2
  %13 = phi i1 [ false, %2 ], [ %11, %9 ]
  br i1 %13, label %14, label %15

; <label>:14:                                     ; preds = %12
  br label %17

; <label>:15:                                     ; preds = %12
  call void @__assert_fail(i8* getelementptr inbounds ([8 x i8], [8 x i8]* @.str.2, i32 0, i32 0), i8* getelementptr inbounds ([36 x i8], [36 x i8]* @.str.3, i32 0, i32 0), i32 611, i8* getelementptr inbounds ([41 x i8], [41 x i8]* @__PRETTY_FUNCTION__._ZNK7Element4Port4pushEP6Packet, i32 0, i32 0)) #10
  unreachable
                                                  ; No predecessors!
  br label %17

; <label>:17:                                     ; preds = %16, %14
  %18 = getelementptr inbounds %"class.Element::Port", %"class.Element::Port"* %5, i32 0, i32 0
  %19 = load %class.Element*, %class.Element** %18, align 8
  %20 = bitcast %class.Element* %19 to void (%class.Element*, i32, %class.Packet*)***
  %21 = load void (%class.Element*, i32, %class.Packet*)**, void (%class.Element*, i32, %class.Packet*)*** %20, align 8
  %22 = getelementptr inbounds void (%class.Element*, i32, %class.Packet*)*, void (%class.Element*, i32, %class.Packet*)** %21, i64 2
  %23 = load void (%class.Element*, i32, %class.Packet*)*, void (%class.Element*, i32, %class.Packet*)** %22, align 8
  %24 = getelementptr inbounds %"class.Element::Port", %"class.Element::Port"* %5, i32 0, i32 1
  %25 = load i32, i32* %24, align 8
  %26 = load %class.Packet*, %class.Packet** %4, align 8
  call void %23(%class.Element* %19, i32 %25, %class.Packet* %26)
  ret void
}

; Function Attrs: noinline optnone uwtable
define linkonce_odr void @_ZN6Packet4killEv(%class.Packet*) #0 comdat align 2 {
  %2 = alloca %class.Packet*, align 8
  store %class.Packet* %0, %class.Packet** %2, align 8
  %3 = load %class.Packet*, %class.Packet** %2, align 8
  %4 = getelementptr inbounds %class.Packet, %class.Packet* %3, i32 0, i32 0
  %5 = call zeroext i1 @_ZN15atomic_uint32_t12dec_and_testEv(%class.atomic_uint32_t* %4)
  br i1 %5, label %6, label %8

; <label>:6:                                      ; preds = %1
  %7 = bitcast %class.Packet* %3 to %class.WritablePacket*
  call void @_ZN14WritablePacket7recycleEPS_(%class.WritablePacket* %7)
  br label %8

; <label>:8:                                      ; preds = %6, %1
  ret void
}

; Function Attrs: noreturn nounwind
declare void @__assert_fail(i8*, i8*, i32, i8*) #4

; Function Attrs: noinline nounwind optnone uwtable
define linkonce_odr zeroext i1 @_ZN15atomic_uint32_t12dec_and_testEv(%class.atomic_uint32_t*) #3 comdat align 2 {
  %2 = alloca %class.atomic_uint32_t*, align 8
  store %class.atomic_uint32_t* %0, %class.atomic_uint32_t** %2, align 8
  %3 = load %class.atomic_uint32_t*, %class.atomic_uint32_t** %2, align 8
  %4 = getelementptr inbounds %class.atomic_uint32_t, %class.atomic_uint32_t* %3, i32 0, i32 0
  %5 = load i32, i32* %4, align 4
  %6 = add i32 %5, -1
  store i32 %6, i32* %4, align 4
  %7 = icmp eq i32 %6, 0
  ret i1 %7
}

declare void @_ZN14WritablePacket7recycleEPS_(%class.WritablePacket*) #1

; Function Attrs: noinline optnone uwtable
define linkonce_odr void @_Z17click_write_fencev() #0 comdat {
  call void @_Z11click_fencev()
  ret void
}

; Function Attrs: noinline optnone uwtable
define linkonce_odr void @_Z11click_fencev() #0 comdat {
  call void @_Z20click_compiler_fencev()
  ret void
}

; Function Attrs: noinline nounwind optnone uwtable
define linkonce_odr void @_Z20click_compiler_fencev() #3 comdat {
  call void asm sideeffect "", "~{memory},~{dirflag},~{fpsr},~{flags}"() #8, !srcloc !2
  ret void
}

; Function Attrs: noinline optnone uwtable
define linkonce_odr void @_Z16click_read_fencev() #0 comdat {
  call void @_Z11click_fencev()
  ret void
}

; Function Attrs: noinline nounwind optnone uwtable
define linkonce_odr i32 @_ZNK7Storage4sizeEjj(%class.Storage*, i32, i32) #3 comdat align 2 {
  %4 = alloca %class.Storage*, align 8
  %5 = alloca i32, align 4
  %6 = alloca i32, align 4
  %7 = alloca i32, align 4
  store %class.Storage* %0, %class.Storage** %4, align 8
  store i32 %1, i32* %5, align 4
  store i32 %2, i32* %6, align 4
  %8 = load %class.Storage*, %class.Storage** %4, align 8
  %9 = load i32, i32* %6, align 4
  %10 = load i32, i32* %5, align 4
  %11 = sub i32 %9, %10
  store i32 %11, i32* %7, align 4
  %12 = load i32, i32* %7, align 4
  %13 = icmp sge i32 %12, 0
  br i1 %13, label %14, label %16

; <label>:14:                                     ; preds = %3
  %15 = load i32, i32* %7, align 4
  br label %22

; <label>:16:                                     ; preds = %3
  %17 = getelementptr inbounds %class.Storage, %class.Storage* %8, i32 0, i32 0
  %18 = load i32, i32* %17, align 4
  %19 = load i32, i32* %7, align 4
  %20 = add i32 %18, %19
  %21 = add i32 %20, 1
  br label %22

; <label>:22:                                     ; preds = %16, %14
  %23 = phi i32 [ %15, %14 ], [ %21, %16 ]
  ret i32 %23
}

; Function Attrs: noinline optnone uwtable
define linkonce_odr zeroext i1 @_ZNK14NotifierSignal6activeEv(%class.NotifierSignal*) #0 comdat align 2 {
  %2 = alloca i1, align 1
  %3 = alloca %class.NotifierSignal*, align 8
  %4 = alloca %"struct.NotifierSignal::vmpair"*, align 8
  store %class.NotifierSignal* %0, %class.NotifierSignal** %3, align 8
  %5 = load %class.NotifierSignal*, %class.NotifierSignal** %3, align 8
  call void @_Z11click_fencev()
  %6 = getelementptr inbounds %class.NotifierSignal, %class.NotifierSignal* %5, i32 0, i32 1
  %7 = load i32, i32* %6, align 8
  %8 = icmp ne i32 %7, 0
  %9 = xor i1 %8, true
  %10 = xor i1 %9, true
  br i1 %10, label %11, label %20

; <label>:11:                                     ; preds = %1
  %12 = getelementptr inbounds %class.NotifierSignal, %class.NotifierSignal* %5, i32 0, i32 0
  %13 = bitcast %"union.NotifierSignal::vmvalue"* %12 to %class.atomic_uint32_t**
  %14 = load %class.atomic_uint32_t*, %class.atomic_uint32_t** %13, align 8
  %15 = call i32 @_ZNK15atomic_uint32_tcvjEv(%class.atomic_uint32_t* %14)
  %16 = getelementptr inbounds %class.NotifierSignal, %class.NotifierSignal* %5, i32 0, i32 1
  %17 = load i32, i32* %16, align 8
  %18 = and i32 %15, %17
  %19 = icmp ne i32 %18, 0
  store i1 %19, i1* %2, align 1
  br label %45

; <label>:20:                                     ; preds = %1
  %21 = getelementptr inbounds %class.NotifierSignal, %class.NotifierSignal* %5, i32 0, i32 0
  %22 = bitcast %"union.NotifierSignal::vmvalue"* %21 to %"struct.NotifierSignal::vmpair"**
  %23 = load %"struct.NotifierSignal::vmpair"*, %"struct.NotifierSignal::vmpair"** %22, align 8
  store %"struct.NotifierSignal::vmpair"* %23, %"struct.NotifierSignal::vmpair"** %4, align 8
  br label %24

; <label>:24:                                     ; preds = %41, %20
  %25 = load %"struct.NotifierSignal::vmpair"*, %"struct.NotifierSignal::vmpair"** %4, align 8
  %26 = getelementptr inbounds %"struct.NotifierSignal::vmpair", %"struct.NotifierSignal::vmpair"* %25, i32 0, i32 1
  %27 = load i32, i32* %26, align 8
  %28 = icmp ne i32 %27, 0
  br i1 %28, label %29, label %44

; <label>:29:                                     ; preds = %24
  %30 = load %"struct.NotifierSignal::vmpair"*, %"struct.NotifierSignal::vmpair"** %4, align 8
  %31 = getelementptr inbounds %"struct.NotifierSignal::vmpair", %"struct.NotifierSignal::vmpair"* %30, i32 0, i32 0
  %32 = load %class.atomic_uint32_t*, %class.atomic_uint32_t** %31, align 8
  %33 = call i32 @_ZNK15atomic_uint32_tcvjEv(%class.atomic_uint32_t* %32)
  %34 = load %"struct.NotifierSignal::vmpair"*, %"struct.NotifierSignal::vmpair"** %4, align 8
  %35 = getelementptr inbounds %"struct.NotifierSignal::vmpair", %"struct.NotifierSignal::vmpair"* %34, i32 0, i32 1
  %36 = load i32, i32* %35, align 8
  %37 = and i32 %33, %36
  %38 = icmp ne i32 %37, 0
  br i1 %38, label %39, label %40

; <label>:39:                                     ; preds = %29
  store i1 true, i1* %2, align 1
  br label %45

; <label>:40:                                     ; preds = %29
  br label %41

; <label>:41:                                     ; preds = %40
  %42 = load %"struct.NotifierSignal::vmpair"*, %"struct.NotifierSignal::vmpair"** %4, align 8
  %43 = getelementptr inbounds %"struct.NotifierSignal::vmpair", %"struct.NotifierSignal::vmpair"* %42, i32 1
  store %"struct.NotifierSignal::vmpair"* %43, %"struct.NotifierSignal::vmpair"** %4, align 8
  br label %24

; <label>:44:                                     ; preds = %24
  store i1 false, i1* %2, align 1
  br label %45

; <label>:45:                                     ; preds = %44, %39, %11
  %46 = load i1, i1* %2, align 1
  ret i1 %46
}

; Function Attrs: noinline optnone uwtable
define linkonce_odr i32 @_ZNK15atomic_uint32_tcvjEv(%class.atomic_uint32_t*) #0 comdat align 2 {
  %2 = alloca %class.atomic_uint32_t*, align 8
  store %class.atomic_uint32_t* %0, %class.atomic_uint32_t** %2, align 8
  %3 = load %class.atomic_uint32_t*, %class.atomic_uint32_t** %2, align 8
  %4 = call i32 @_ZNK15atomic_uint32_t5valueEv(%class.atomic_uint32_t* %3)
  ret i32 %4
}

; Function Attrs: noinline nounwind optnone uwtable
define linkonce_odr i32 @_ZNK15atomic_uint32_t5valueEv(%class.atomic_uint32_t*) #3 comdat align 2 {
  %2 = alloca %class.atomic_uint32_t*, align 8
  store %class.atomic_uint32_t* %0, %class.atomic_uint32_t** %2, align 8
  %3 = load %class.atomic_uint32_t*, %class.atomic_uint32_t** %2, align 8
  %4 = getelementptr inbounds %class.atomic_uint32_t, %class.atomic_uint32_t* %3, i32 0, i32 0
  %5 = load i32, i32* %4, align 4
  ret i32 %5
}

; Function Attrs: noinline optnone uwtable
define linkonce_odr void @_ZN14ActiveNotifier10set_activeEbb(%class.ActiveNotifier*, i1 zeroext, i1 zeroext) #0 comdat align 2 {
  %4 = alloca %class.ActiveNotifier*, align 8
  %5 = alloca i8, align 1
  %6 = alloca i8, align 1
  %7 = alloca i8, align 1
  %8 = alloca %"union.ActiveNotifier::task_or_signal_t"*, align 8
  store %class.ActiveNotifier* %0, %class.ActiveNotifier** %4, align 8
  %9 = zext i1 %1 to i8
  store i8 %9, i8* %5, align 1
  %10 = zext i1 %2 to i8
  store i8 %10, i8* %6, align 1
  %11 = load %class.ActiveNotifier*, %class.ActiveNotifier** %4, align 8
  %12 = bitcast %class.ActiveNotifier* %11 to %class.Notifier*
  %13 = load i8, i8* %5, align 1
  %14 = trunc i8 %13 to i1
  %15 = call zeroext i1 @_ZN8Notifier10set_activeEb(%class.Notifier* %12, i1 zeroext %14)
  %16 = zext i1 %15 to i8
  store i8 %16, i8* %7, align 1
  %17 = load i8, i8* %5, align 1
  %18 = trunc i8 %17 to i1
  br i1 %18, label %19, label %79

; <label>:19:                                     ; preds = %3
  %20 = load i8, i8* %6, align 1
  %21 = trunc i8 %20 to i1
  br i1 %21, label %22, label %79

; <label>:22:                                     ; preds = %19
  %23 = load i8, i8* %7, align 1
  %24 = trunc i8 %23 to i1
  br i1 %24, label %79, label %25

; <label>:25:                                     ; preds = %22
  %26 = getelementptr inbounds %class.ActiveNotifier, %class.ActiveNotifier* %11, i32 0, i32 1
  %27 = load %class.Task*, %class.Task** %26, align 8
  %28 = icmp ne %class.Task* %27, null
  br i1 %28, label %29, label %32

; <label>:29:                                     ; preds = %25
  %30 = getelementptr inbounds %class.ActiveNotifier, %class.ActiveNotifier* %11, i32 0, i32 1
  %31 = load %class.Task*, %class.Task** %30, align 8
  call void @_ZN4Task10rescheduleEv(%class.Task* %31)
  br label %78

; <label>:32:                                     ; preds = %25
  %33 = getelementptr inbounds %class.ActiveNotifier, %class.ActiveNotifier* %11, i32 0, i32 2
  %34 = load %"union.ActiveNotifier::task_or_signal_t"*, %"union.ActiveNotifier::task_or_signal_t"** %33, align 8
  store %"union.ActiveNotifier::task_or_signal_t"* %34, %"union.ActiveNotifier::task_or_signal_t"** %8, align 8
  %35 = load %"union.ActiveNotifier::task_or_signal_t"*, %"union.ActiveNotifier::task_or_signal_t"** %8, align 8
  %36 = icmp ne %"union.ActiveNotifier::task_or_signal_t"* %35, null
  br i1 %36, label %37, label %77

; <label>:37:                                     ; preds = %32
  br label %38

; <label>:38:                                     ; preds = %47, %37
  %39 = load %"union.ActiveNotifier::task_or_signal_t"*, %"union.ActiveNotifier::task_or_signal_t"** %8, align 8
  %40 = bitcast %"union.ActiveNotifier::task_or_signal_t"* %39 to i64*
  %41 = load i64, i64* %40, align 8
  %42 = icmp ugt i64 %41, 1
  br i1 %42, label %43, label %50

; <label>:43:                                     ; preds = %38
  %44 = load %"union.ActiveNotifier::task_or_signal_t"*, %"union.ActiveNotifier::task_or_signal_t"** %8, align 8
  %45 = bitcast %"union.ActiveNotifier::task_or_signal_t"* %44 to %class.Task**
  %46 = load %class.Task*, %class.Task** %45, align 8
  call void @_ZN4Task10rescheduleEv(%class.Task* %46)
  br label %47

; <label>:47:                                     ; preds = %43
  %48 = load %"union.ActiveNotifier::task_or_signal_t"*, %"union.ActiveNotifier::task_or_signal_t"** %8, align 8
  %49 = getelementptr inbounds %"union.ActiveNotifier::task_or_signal_t", %"union.ActiveNotifier::task_or_signal_t"* %48, i32 1
  store %"union.ActiveNotifier::task_or_signal_t"* %49, %"union.ActiveNotifier::task_or_signal_t"** %8, align 8
  br label %38

; <label>:50:                                     ; preds = %38
  %51 = load %"union.ActiveNotifier::task_or_signal_t"*, %"union.ActiveNotifier::task_or_signal_t"** %8, align 8
  %52 = bitcast %"union.ActiveNotifier::task_or_signal_t"* %51 to i64*
  %53 = load i64, i64* %52, align 8
  %54 = icmp eq i64 %53, 1
  br i1 %54, label %55, label %76

; <label>:55:                                     ; preds = %50
  %56 = load %"union.ActiveNotifier::task_or_signal_t"*, %"union.ActiveNotifier::task_or_signal_t"** %8, align 8
  %57 = getelementptr inbounds %"union.ActiveNotifier::task_or_signal_t", %"union.ActiveNotifier::task_or_signal_t"* %56, i32 1
  store %"union.ActiveNotifier::task_or_signal_t"* %57, %"union.ActiveNotifier::task_or_signal_t"** %8, align 8
  br label %58

; <label>:58:                                     ; preds = %72, %55
  %59 = load %"union.ActiveNotifier::task_or_signal_t"*, %"union.ActiveNotifier::task_or_signal_t"** %8, align 8
  %60 = bitcast %"union.ActiveNotifier::task_or_signal_t"* %59 to i64*
  %61 = load i64, i64* %60, align 8
  %62 = icmp ne i64 %61, 0
  br i1 %62, label %63, label %75

; <label>:63:                                     ; preds = %58
  %64 = load %"union.ActiveNotifier::task_or_signal_t"*, %"union.ActiveNotifier::task_or_signal_t"** %8, align 8
  %65 = bitcast %"union.ActiveNotifier::task_or_signal_t"* %64 to void (i8*, %class.Notifier*)**
  %66 = load void (i8*, %class.Notifier*)*, void (i8*, %class.Notifier*)** %65, align 8
  %67 = load %"union.ActiveNotifier::task_or_signal_t"*, %"union.ActiveNotifier::task_or_signal_t"** %8, align 8
  %68 = getelementptr inbounds %"union.ActiveNotifier::task_or_signal_t", %"union.ActiveNotifier::task_or_signal_t"* %67, i64 1
  %69 = bitcast %"union.ActiveNotifier::task_or_signal_t"* %68 to i8**
  %70 = load i8*, i8** %69, align 8
  %71 = bitcast %class.ActiveNotifier* %11 to %class.Notifier*
  call void %66(i8* %70, %class.Notifier* %71)
  br label %72

; <label>:72:                                     ; preds = %63
  %73 = load %"union.ActiveNotifier::task_or_signal_t"*, %"union.ActiveNotifier::task_or_signal_t"** %8, align 8
  %74 = getelementptr inbounds %"union.ActiveNotifier::task_or_signal_t", %"union.ActiveNotifier::task_or_signal_t"* %73, i64 2
  store %"union.ActiveNotifier::task_or_signal_t"* %74, %"union.ActiveNotifier::task_or_signal_t"** %8, align 8
  br label %58

; <label>:75:                                     ; preds = %58
  br label %76

; <label>:76:                                     ; preds = %75, %50
  br label %77

; <label>:77:                                     ; preds = %76, %32
  br label %78

; <label>:78:                                     ; preds = %77, %29
  br label %79

; <label>:79:                                     ; preds = %78, %22, %19, %3
  ret void
}

; Function Attrs: noinline optnone uwtable
define linkonce_odr zeroext i1 @_ZN8Notifier10set_activeEb(%class.Notifier*, i1 zeroext) #0 comdat align 2 {
  %3 = alloca %class.Notifier*, align 8
  %4 = alloca i8, align 1
  store %class.Notifier* %0, %class.Notifier** %3, align 8
  %5 = zext i1 %1 to i8
  store i8 %5, i8* %4, align 1
  %6 = load %class.Notifier*, %class.Notifier** %3, align 8
  %7 = getelementptr inbounds %class.Notifier, %class.Notifier* %6, i32 0, i32 1
  %8 = load i8, i8* %4, align 1
  %9 = trunc i8 %8 to i1
  %10 = call zeroext i1 @_ZN14NotifierSignal10set_activeEb(%class.NotifierSignal* %7, i1 zeroext %9)
  ret i1 %10
}

; Function Attrs: noinline optnone uwtable
define linkonce_odr void @_ZN4Task10rescheduleEv(%class.Task*) #0 comdat align 2 {
  %2 = alloca %class.Task*, align 8
  store %class.Task* %0, %class.Task** %2, align 8
  %3 = load %class.Task*, %class.Task** %2, align 8
  %4 = getelementptr inbounds %class.Task, %class.Task* %3, i32 0, i32 3
  %5 = bitcast %"union.Task::Status"* %4 to %struct.anon*
  %6 = getelementptr inbounds %struct.anon, %struct.anon* %5, i32 0, i32 1
  store i8 1, i8* %6, align 2
  call void @_Z11click_fencev()
  %7 = getelementptr inbounds %class.Task, %class.Task* %3, i32 0, i32 8
  %8 = bitcast %"union.Task::Pending"* %7 to i64*
  %9 = load i64, i64* %8, align 8
  %10 = icmp ult i64 %9, 2
  br i1 %10, label %11, label %12

; <label>:11:                                     ; preds = %1
  call void @_ZN4Task17complete_scheduleEP12RouterThread(%class.Task* %3, %class.RouterThread* null)
  br label %12

; <label>:12:                                     ; preds = %11, %1
  ret void
}

; Function Attrs: noinline optnone uwtable
define linkonce_odr zeroext i1 @_ZN14NotifierSignal10set_activeEb(%class.NotifierSignal*, i1 zeroext) #0 comdat align 2 {
  %3 = alloca %class.NotifierSignal*, align 8
  %4 = alloca i8, align 1
  %5 = alloca i32, align 4
  store %class.NotifierSignal* %0, %class.NotifierSignal** %3, align 8
  %6 = zext i1 %1 to i8
  store i8 %6, i8* %4, align 1
  %7 = load %class.NotifierSignal*, %class.NotifierSignal** %3, align 8
  %8 = getelementptr inbounds %class.NotifierSignal, %class.NotifierSignal* %7, i32 0, i32 0
  %9 = bitcast %"union.NotifierSignal::vmvalue"* %8 to %class.atomic_uint32_t**
  %10 = load %class.atomic_uint32_t*, %class.atomic_uint32_t** %9, align 8
  %11 = icmp ne %class.atomic_uint32_t* %10, @_ZN14NotifierSignal12static_valueE
  br i1 %11, label %12, label %21

; <label>:12:                                     ; preds = %2
  %13 = getelementptr inbounds %class.NotifierSignal, %class.NotifierSignal* %7, i32 0, i32 1
  %14 = load i32, i32* %13, align 8
  %15 = getelementptr inbounds %class.NotifierSignal, %class.NotifierSignal* %7, i32 0, i32 1
  %16 = load i32, i32* %15, align 8
  %17 = sub i32 %16, 1
  %18 = and i32 %14, %17
  %19 = icmp ne i32 %18, 0
  %20 = xor i1 %19, true
  br label %21

; <label>:21:                                     ; preds = %12, %2
  %22 = phi i1 [ false, %2 ], [ %20, %12 ]
  br i1 %22, label %23, label %24

; <label>:23:                                     ; preds = %21
  br label %26

; <label>:24:                                     ; preds = %21
  call void @__assert_fail(i8* getelementptr inbounds ([49 x i8], [49 x i8]* @.str.4, i32 0, i32 0), i8* getelementptr inbounds ([37 x i8], [37 x i8]* @.str.5, i32 0, i32 0), i32 293, i8* getelementptr inbounds ([38 x i8], [38 x i8]* @__PRETTY_FUNCTION__._ZN14NotifierSignal10set_activeEb, i32 0, i32 0)) #10
  unreachable
                                                  ; No predecessors!
  br label %26

; <label>:26:                                     ; preds = %25, %23
  %27 = getelementptr inbounds %class.NotifierSignal, %class.NotifierSignal* %7, i32 0, i32 0
  %28 = bitcast %"union.NotifierSignal::vmvalue"* %27 to %class.atomic_uint32_t**
  %29 = load %class.atomic_uint32_t*, %class.atomic_uint32_t** %28, align 8
  %30 = call i32 @_ZNK15atomic_uint32_tcvjEv(%class.atomic_uint32_t* %29)
  store i32 %30, i32* %5, align 4
  %31 = load i8, i8* %4, align 1
  %32 = trunc i8 %31 to i1
  br i1 %32, label %33, label %38

; <label>:33:                                     ; preds = %26
  %34 = load i32, i32* %5, align 4
  %35 = getelementptr inbounds %class.NotifierSignal, %class.NotifierSignal* %7, i32 0, i32 1
  %36 = load i32, i32* %35, align 8
  %37 = or i32 %34, %36
  br label %44

; <label>:38:                                     ; preds = %26
  %39 = load i32, i32* %5, align 4
  %40 = getelementptr inbounds %class.NotifierSignal, %class.NotifierSignal* %7, i32 0, i32 1
  %41 = load i32, i32* %40, align 8
  %42 = xor i32 %41, -1
  %43 = and i32 %39, %42
  br label %44

; <label>:44:                                     ; preds = %38, %33
  %45 = phi i32 [ %37, %33 ], [ %43, %38 ]
  %46 = getelementptr inbounds %class.NotifierSignal, %class.NotifierSignal* %7, i32 0, i32 0
  %47 = bitcast %"union.NotifierSignal::vmvalue"* %46 to %class.atomic_uint32_t**
  %48 = load %class.atomic_uint32_t*, %class.atomic_uint32_t** %47, align 8
  %49 = call dereferenceable(4) %class.atomic_uint32_t* @_ZN15atomic_uint32_taSEj(%class.atomic_uint32_t* %48, i32 %45)
  %50 = load i32, i32* %5, align 4
  %51 = getelementptr inbounds %class.NotifierSignal, %class.NotifierSignal* %7, i32 0, i32 1
  %52 = load i32, i32* %51, align 8
  %53 = and i32 %50, %52
  %54 = icmp ne i32 %53, 0
  ret i1 %54
}

; Function Attrs: noinline nounwind optnone uwtable
define linkonce_odr dereferenceable(4) %class.atomic_uint32_t* @_ZN15atomic_uint32_taSEj(%class.atomic_uint32_t*, i32) #3 comdat align 2 {
  %3 = alloca %class.atomic_uint32_t*, align 8
  %4 = alloca i32, align 4
  store %class.atomic_uint32_t* %0, %class.atomic_uint32_t** %3, align 8
  store i32 %1, i32* %4, align 4
  %5 = load %class.atomic_uint32_t*, %class.atomic_uint32_t** %3, align 8
  %6 = load i32, i32* %4, align 4
  %7 = getelementptr inbounds %class.atomic_uint32_t, %class.atomic_uint32_t* %5, i32 0, i32 0
  store i32 %6, i32* %7, align 4
  ret %class.atomic_uint32_t* %5
}

declare void @_ZN4Task17complete_scheduleEP12RouterThread(%class.Task*, %class.RouterThread*) #1

; Function Attrs: noinline nounwind optnone uwtable
define linkonce_odr void @_ZN13NotifierQueueD2Ev(%class.NotifierQueue*) unnamed_addr #3 comdat align 2 {
  %2 = alloca %class.NotifierQueue*, align 8
  store %class.NotifierQueue* %0, %class.NotifierQueue** %2, align 8
  %3 = load %class.NotifierQueue*, %class.NotifierQueue** %2, align 8
  %4 = bitcast %class.NotifierQueue* %3 to i32 (...)***
  store i32 (...)** bitcast (i8** getelementptr inbounds ({ [29 x i8*] }, { [29 x i8*] }* @_ZTV13NotifierQueue, i32 0, inrange i32 0, i32 2) to i32 (...)**), i32 (...)*** %4, align 8
  %5 = getelementptr inbounds %class.NotifierQueue, %class.NotifierQueue* %3, i32 0, i32 2
  call void @_ZN14ActiveNotifierD1Ev(%class.ActiveNotifier* %5) #8
  %6 = bitcast %class.NotifierQueue* %3 to %class.SimpleQueue*
  call void @_ZN11SimpleQueueD2Ev(%class.SimpleQueue* %6) #8
  ret void
}

; Function Attrs: nounwind
declare void @_ZN14ActiveNotifierD1Ev(%class.ActiveNotifier*) unnamed_addr #5

; Function Attrs: noinline nounwind optnone uwtable
define linkonce_odr void @_ZN11SimpleQueueD2Ev(%class.SimpleQueue*) unnamed_addr #3 comdat align 2 {
  %2 = alloca %class.SimpleQueue*, align 8
  store %class.SimpleQueue* %0, %class.SimpleQueue** %2, align 8
  %3 = load %class.SimpleQueue*, %class.SimpleQueue** %2, align 8
  %4 = bitcast %class.SimpleQueue* %3 to %class.Element*
  call void @_ZN7ElementD2Ev(%class.Element* %4) #8
  ret void
}

; Function Attrs: nounwind
declare void @_ZN7ElementD2Ev(%class.Element*) unnamed_addr #5

; Function Attrs: nobuiltin nounwind
declare void @_ZdlPv(i8*) #6

attributes #0 = { noinline optnone uwtable "correctly-rounded-divide-sqrt-fp-math"="false" "disable-tail-calls"="false" "less-precise-fpmad"="false" "no-frame-pointer-elim"="true" "no-frame-pointer-elim-non-leaf" "no-infs-fp-math"="false" "no-jump-tables"="false" "no-nans-fp-math"="false" "no-signed-zeros-fp-math"="false" "no-trapping-math"="false" "stack-protector-buffer-size"="8" "target-cpu"="x86-64" "target-features"="+fxsr,+mmx,+sse,+sse2,+x87" "unsafe-fp-math"="false" "use-soft-float"="false" }
attributes #1 = { "correctly-rounded-divide-sqrt-fp-math"="false" "disable-tail-calls"="false" "less-precise-fpmad"="false" "no-frame-pointer-elim"="true" "no-frame-pointer-elim-non-leaf" "no-infs-fp-math"="false" "no-nans-fp-math"="false" "no-signed-zeros-fp-math"="false" "no-trapping-math"="false" "stack-protector-buffer-size"="8" "target-cpu"="x86-64" "target-features"="+fxsr,+mmx,+sse,+sse2,+x87" "unsafe-fp-math"="false" "use-soft-float"="false" }
attributes #2 = { nounwind readonly "correctly-rounded-divide-sqrt-fp-math"="false" "disable-tail-calls"="false" "less-precise-fpmad"="false" "no-frame-pointer-elim"="true" "no-frame-pointer-elim-non-leaf" "no-infs-fp-math"="false" "no-nans-fp-math"="false" "no-signed-zeros-fp-math"="false" "no-trapping-math"="false" "stack-protector-buffer-size"="8" "target-cpu"="x86-64" "target-features"="+fxsr,+mmx,+sse,+sse2,+x87" "unsafe-fp-math"="false" "use-soft-float"="false" }
attributes #3 = { noinline nounwind optnone uwtable "correctly-rounded-divide-sqrt-fp-math"="false" "disable-tail-calls"="false" "less-precise-fpmad"="false" "no-frame-pointer-elim"="true" "no-frame-pointer-elim-non-leaf" "no-infs-fp-math"="false" "no-jump-tables"="false" "no-nans-fp-math"="false" "no-signed-zeros-fp-math"="false" "no-trapping-math"="false" "stack-protector-buffer-size"="8" "target-cpu"="x86-64" "target-features"="+fxsr,+mmx,+sse,+sse2,+x87" "unsafe-fp-math"="false" "use-soft-float"="false" }
attributes #4 = { noreturn nounwind "correctly-rounded-divide-sqrt-fp-math"="false" "disable-tail-calls"="false" "less-precise-fpmad"="false" "no-frame-pointer-elim"="true" "no-frame-pointer-elim-non-leaf" "no-infs-fp-math"="false" "no-nans-fp-math"="false" "no-signed-zeros-fp-math"="false" "no-trapping-math"="false" "stack-protector-buffer-size"="8" "target-cpu"="x86-64" "target-features"="+fxsr,+mmx,+sse,+sse2,+x87" "unsafe-fp-math"="false" "use-soft-float"="false" }
attributes #5 = { nounwind "correctly-rounded-divide-sqrt-fp-math"="false" "disable-tail-calls"="false" "less-precise-fpmad"="false" "no-frame-pointer-elim"="true" "no-frame-pointer-elim-non-leaf" "no-infs-fp-math"="false" "no-nans-fp-math"="false" "no-signed-zeros-fp-math"="false" "no-trapping-math"="false" "stack-protector-buffer-size"="8" "target-cpu"="x86-64" "target-features"="+fxsr,+mmx,+sse,+sse2,+x87" "unsafe-fp-math"="false" "use-soft-float"="false" }
attributes #6 = { nobuiltin nounwind "correctly-rounded-divide-sqrt-fp-math"="false" "disable-tail-calls"="false" "less-precise-fpmad"="false" "no-frame-pointer-elim"="true" "no-frame-pointer-elim-non-leaf" "no-infs-fp-math"="false" "no-nans-fp-math"="false" "no-signed-zeros-fp-math"="false" "no-trapping-math"="false" "stack-protector-buffer-size"="8" "target-cpu"="x86-64" "target-features"="+fxsr,+mmx,+sse,+sse2,+x87" "unsafe-fp-math"="false" "use-soft-float"="false" }
attributes #7 = { nounwind readonly }
attributes #8 = { nounwind }
attributes #9 = { builtin nounwind }
attributes #10 = { noreturn nounwind }

!llvm.module.flags = !{!0}
!llvm.ident = !{!1}

!0 = !{i32 1, !"wchar_size", i32 4}
!1 = !{!"clang version 6.0.0-1ubuntu2 (tags/RELEASE_600/final)"}
!2 = !{i32 1787551}
